
Motor Controller.elf:     file format elf32-littlearm

Sections:
Idx Name          Size      VMA       LMA       File off  Algn
  0 .text         00006ef4  00080000  00080000  00010000  2**3
                  CONTENTS, ALLOC, LOAD, READONLY, CODE
  1 .ARM.exidx    00000008  00086ef4  00086ef4  00016ef4  2**2
                  CONTENTS, ALLOC, LOAD, READONLY, DATA
  2 .relocate     00000b48  20070000  00086efc  00020000  2**3
                  CONTENTS, ALLOC, LOAD, CODE
  3 .bss          000000dc  20070b48  00087a44  00020b48  2**2
                  ALLOC
  4 .stack        00002004  20070c24  00087b20  00020b48  2**0
                  ALLOC
  5 .ARM.attributes 00000029  00000000  00000000  00020b48  2**0
                  CONTENTS, READONLY
  6 .comment      00000059  00000000  00000000  00020b71  2**0
                  CONTENTS, READONLY
  7 .debug_info   0000ca51  00000000  00000000  00020bca  2**0
                  CONTENTS, READONLY, DEBUGGING
  8 .debug_abbrev 00001d0b  00000000  00000000  0002d61b  2**0
                  CONTENTS, READONLY, DEBUGGING
  9 .debug_loc    00003020  00000000  00000000  0002f326  2**0
                  CONTENTS, READONLY, DEBUGGING
 10 .debug_aranges 000005d8  00000000  00000000  00032346  2**0
                  CONTENTS, READONLY, DEBUGGING
 11 .debug_ranges 000005a0  00000000  00000000  0003291e  2**0
                  CONTENTS, READONLY, DEBUGGING
 12 .debug_macro  0001610c  00000000  00000000  00032ebe  2**0
                  CONTENTS, READONLY, DEBUGGING
 13 .debug_line   0000910a  00000000  00000000  00048fca  2**0
                  CONTENTS, READONLY, DEBUGGING
 14 .debug_str    000602cf  00000000  00000000  000520d4  2**0
                  CONTENTS, READONLY, DEBUGGING
 15 .debug_frame  000022dc  00000000  00000000  000b23a4  2**2
                  CONTENTS, READONLY, DEBUGGING

Disassembly of section .text:

00080000 <exception_table>:
   80000:	28 2c 07 20 05 13 08 00 fd 12 08 00 fd 12 08 00     (,. ............
   80010:	fd 12 08 00 fd 12 08 00 fd 12 08 00 00 00 00 00     ................
	...
   8002c:	fd 12 08 00 fd 12 08 00 00 00 00 00 fd 12 08 00     ................
   8003c:	c5 08 08 00 fd 12 08 00 fd 12 08 00 fd 12 08 00     ................
   8004c:	fd 12 08 00 fd 12 08 00 fd 12 08 00 fd 12 08 00     ................
   8005c:	fd 12 08 00 fd 12 08 00 fd 12 08 00 00 00 00 00     ................
   8006c:	fd 12 08 00 fd 12 08 00 fd 12 08 00 fd 12 08 00     ................
	...
   80084:	fd 12 08 00 fd 12 08 00 fd 12 08 00 fd 12 08 00     ................
   80094:	fd 12 08 00 fd 12 08 00 fd 12 08 00 fd 12 08 00     ................
   800a4:	00 00 00 00 fd 12 08 00 fd 12 08 00 fd 12 08 00     ................
   800b4:	fd 12 08 00 fd 12 08 00 fd 12 08 00 fd 12 08 00     ................
   800c4:	fd 12 08 00 fd 12 08 00 fd 12 08 00 fd 12 08 00     ................
   800d4:	fd 12 08 00 fd 12 08 00 fd 12 08 00 fd 12 08 00     ................
   800e4:	fd 12 08 00 fd 12 08 00 fd 12 08 00 fd 12 08 00     ................

000800f4 <__do_global_dtors_aux>:
   800f4:	b510      	push	{r4, lr}
   800f6:	4c05      	ldr	r4, [pc, #20]	; (8010c <__do_global_dtors_aux+0x18>)
   800f8:	7823      	ldrb	r3, [r4, #0]
   800fa:	b933      	cbnz	r3, 8010a <__do_global_dtors_aux+0x16>
   800fc:	4b04      	ldr	r3, [pc, #16]	; (80110 <__do_global_dtors_aux+0x1c>)
   800fe:	b113      	cbz	r3, 80106 <__do_global_dtors_aux+0x12>
   80100:	4804      	ldr	r0, [pc, #16]	; (80114 <__do_global_dtors_aux+0x20>)
   80102:	f3af 8000 	nop.w
   80106:	2301      	movs	r3, #1
   80108:	7023      	strb	r3, [r4, #0]
   8010a:	bd10      	pop	{r4, pc}
   8010c:	20070b48 	.word	0x20070b48
   80110:	00000000 	.word	0x00000000
   80114:	00086efc 	.word	0x00086efc

00080118 <frame_dummy>:
   80118:	4b0c      	ldr	r3, [pc, #48]	; (8014c <frame_dummy+0x34>)
   8011a:	b143      	cbz	r3, 8012e <frame_dummy+0x16>
   8011c:	480c      	ldr	r0, [pc, #48]	; (80150 <frame_dummy+0x38>)
   8011e:	b510      	push	{r4, lr}
   80120:	490c      	ldr	r1, [pc, #48]	; (80154 <frame_dummy+0x3c>)
   80122:	f3af 8000 	nop.w
   80126:	480c      	ldr	r0, [pc, #48]	; (80158 <frame_dummy+0x40>)
   80128:	6803      	ldr	r3, [r0, #0]
   8012a:	b923      	cbnz	r3, 80136 <frame_dummy+0x1e>
   8012c:	bd10      	pop	{r4, pc}
   8012e:	480a      	ldr	r0, [pc, #40]	; (80158 <frame_dummy+0x40>)
   80130:	6803      	ldr	r3, [r0, #0]
   80132:	b933      	cbnz	r3, 80142 <frame_dummy+0x2a>
   80134:	4770      	bx	lr
   80136:	4b09      	ldr	r3, [pc, #36]	; (8015c <frame_dummy+0x44>)
   80138:	2b00      	cmp	r3, #0
   8013a:	d0f7      	beq.n	8012c <frame_dummy+0x14>
   8013c:	e8bd 4010 	ldmia.w	sp!, {r4, lr}
   80140:	4718      	bx	r3
   80142:	4b06      	ldr	r3, [pc, #24]	; (8015c <frame_dummy+0x44>)
   80144:	2b00      	cmp	r3, #0
   80146:	d0f5      	beq.n	80134 <frame_dummy+0x1c>
   80148:	4718      	bx	r3
   8014a:	bf00      	nop
   8014c:	00000000 	.word	0x00000000
   80150:	00086efc 	.word	0x00086efc
   80154:	20070b4c 	.word	0x20070b4c
   80158:	00086efc 	.word	0x00086efc
   8015c:	00000000 	.word	0x00000000

00080160 <twi_enable_master_mode>:
 * \brief Enable TWI master mode.
 *
 * \param p_twi Pointer to a TWI instance.
 */
void twi_enable_master_mode(Twi *p_twi)
{
   80160:	b480      	push	{r7}
   80162:	b083      	sub	sp, #12
   80164:	af00      	add	r7, sp, #0
   80166:	6078      	str	r0, [r7, #4]
	/* Set Master Disable bit and Slave Disable bit */
	p_twi->TWI_CR = TWI_CR_MSDIS;
   80168:	687b      	ldr	r3, [r7, #4]
   8016a:	2208      	movs	r2, #8
   8016c:	601a      	str	r2, [r3, #0]
	p_twi->TWI_CR = TWI_CR_SVDIS;
   8016e:	687b      	ldr	r3, [r7, #4]
   80170:	2220      	movs	r2, #32
   80172:	601a      	str	r2, [r3, #0]

	/* Set Master Enable bit */
	p_twi->TWI_CR = TWI_CR_MSEN;
   80174:	687b      	ldr	r3, [r7, #4]
   80176:	2204      	movs	r2, #4
   80178:	601a      	str	r2, [r3, #0]
}
   8017a:	bf00      	nop
   8017c:	370c      	adds	r7, #12
   8017e:	46bd      	mov	sp, r7
   80180:	bc80      	pop	{r7}
   80182:	4770      	bx	lr

00080184 <twi_master_init>:
 * \param p_opt Options for initializing the TWI module (see \ref twi_options_t).
 *
 * \return TWI_SUCCESS if initialization is complete, error code otherwise.
 */
uint32_t twi_master_init(Twi *p_twi, const twi_options_t *p_opt)
{
   80184:	b580      	push	{r7, lr}
   80186:	b084      	sub	sp, #16
   80188:	af00      	add	r7, sp, #0
   8018a:	6078      	str	r0, [r7, #4]
   8018c:	6039      	str	r1, [r7, #0]
	uint32_t status = TWI_SUCCESS;
   8018e:	2300      	movs	r3, #0
   80190:	60fb      	str	r3, [r7, #12]

	/* Disable TWI interrupts */
	p_twi->TWI_IDR = ~0UL;
   80192:	687b      	ldr	r3, [r7, #4]
   80194:	f04f 32ff 	mov.w	r2, #4294967295
   80198:	629a      	str	r2, [r3, #40]	; 0x28

	/* Dummy read in status register */
	p_twi->TWI_SR;
   8019a:	687b      	ldr	r3, [r7, #4]
   8019c:	6a1b      	ldr	r3, [r3, #32]

	/* Reset TWI peripheral */
	twi_reset(p_twi);
   8019e:	6878      	ldr	r0, [r7, #4]
   801a0:	4b0e      	ldr	r3, [pc, #56]	; (801dc <twi_master_init+0x58>)
   801a2:	4798      	blx	r3

	twi_enable_master_mode(p_twi);
   801a4:	6878      	ldr	r0, [r7, #4]
   801a6:	4b0e      	ldr	r3, [pc, #56]	; (801e0 <twi_master_init+0x5c>)
   801a8:	4798      	blx	r3

	/* Select the speed */
	if (twi_set_speed(p_twi, p_opt->speed, p_opt->master_clk) == FAIL) {
   801aa:	683b      	ldr	r3, [r7, #0]
   801ac:	6859      	ldr	r1, [r3, #4]
   801ae:	683b      	ldr	r3, [r7, #0]
   801b0:	681b      	ldr	r3, [r3, #0]
   801b2:	461a      	mov	r2, r3
   801b4:	6878      	ldr	r0, [r7, #4]
   801b6:	4b0b      	ldr	r3, [pc, #44]	; (801e4 <twi_master_init+0x60>)
   801b8:	4798      	blx	r3
   801ba:	4603      	mov	r3, r0
   801bc:	2b01      	cmp	r3, #1
   801be:	d101      	bne.n	801c4 <twi_master_init+0x40>
		/* The desired speed setting is rejected */
		status = TWI_INVALID_ARGUMENT;
   801c0:	2301      	movs	r3, #1
   801c2:	60fb      	str	r3, [r7, #12]
	}

	if (p_opt->smbus == 1) {
   801c4:	683b      	ldr	r3, [r7, #0]
   801c6:	7a5b      	ldrb	r3, [r3, #9]
   801c8:	2b01      	cmp	r3, #1
   801ca:	d102      	bne.n	801d2 <twi_master_init+0x4e>
		p_twi->TWI_CR = TWI_CR_QUICK;
   801cc:	687b      	ldr	r3, [r7, #4]
   801ce:	2240      	movs	r2, #64	; 0x40
   801d0:	601a      	str	r2, [r3, #0]
	}

	return status;
   801d2:	68fb      	ldr	r3, [r7, #12]
}
   801d4:	4618      	mov	r0, r3
   801d6:	3710      	adds	r7, #16
   801d8:	46bd      	mov	sp, r7
   801da:	bd80      	pop	{r7, pc}
   801dc:	00080415 	.word	0x00080415
   801e0:	00080161 	.word	0x00080161
   801e4:	000801e9 	.word	0x000801e9

000801e8 <twi_set_speed>:
 *
 * \retval PASS New speed setting is accepted.
 * \retval FAIL New speed setting is rejected.
 */
uint32_t twi_set_speed(Twi *p_twi, uint32_t ul_speed, uint32_t ul_mck)
{
   801e8:	b480      	push	{r7}
   801ea:	b089      	sub	sp, #36	; 0x24
   801ec:	af00      	add	r7, sp, #0
   801ee:	60f8      	str	r0, [r7, #12]
   801f0:	60b9      	str	r1, [r7, #8]
   801f2:	607a      	str	r2, [r7, #4]
	uint32_t ckdiv = 0;
   801f4:	2300      	movs	r3, #0
   801f6:	61fb      	str	r3, [r7, #28]
	uint32_t c_lh_div;
	uint32_t cldiv, chdiv;

	if (ul_speed > I2C_FAST_MODE_SPEED) {
   801f8:	68bb      	ldr	r3, [r7, #8]
   801fa:	4a34      	ldr	r2, [pc, #208]	; (802cc <twi_set_speed+0xe4>)
   801fc:	4293      	cmp	r3, r2
   801fe:	d901      	bls.n	80204 <twi_set_speed+0x1c>
		return FAIL;
   80200:	2301      	movs	r3, #1
   80202:	e05d      	b.n	802c0 <twi_set_speed+0xd8>
	}

	/* Low level time not less than 1.3us of I2C Fast Mode. */
	if (ul_speed > LOW_LEVEL_TIME_LIMIT) {
   80204:	68bb      	ldr	r3, [r7, #8]
   80206:	4a32      	ldr	r2, [pc, #200]	; (802d0 <twi_set_speed+0xe8>)
   80208:	4293      	cmp	r3, r2
   8020a:	d937      	bls.n	8027c <twi_set_speed+0x94>
		/* Low level of time fixed for 1.3us. */
		cldiv = ul_mck / (LOW_LEVEL_TIME_LIMIT * TWI_CLK_DIVIDER) - TWI_CLK_CALC_ARGU;
   8020c:	687b      	ldr	r3, [r7, #4]
   8020e:	4a31      	ldr	r2, [pc, #196]	; (802d4 <twi_set_speed+0xec>)
   80210:	fba2 2303 	umull	r2, r3, r2, r3
   80214:	0b9b      	lsrs	r3, r3, #14
   80216:	3b04      	subs	r3, #4
   80218:	617b      	str	r3, [r7, #20]
		chdiv = ul_mck / ((ul_speed + (ul_speed - LOW_LEVEL_TIME_LIMIT)) * TWI_CLK_DIVIDER) - TWI_CLK_CALC_ARGU;
   8021a:	68ba      	ldr	r2, [r7, #8]
   8021c:	4b2e      	ldr	r3, [pc, #184]	; (802d8 <twi_set_speed+0xf0>)
   8021e:	4413      	add	r3, r2
   80220:	009b      	lsls	r3, r3, #2
   80222:	687a      	ldr	r2, [r7, #4]
   80224:	fbb2 f3f3 	udiv	r3, r2, r3
   80228:	3b04      	subs	r3, #4
   8022a:	613b      	str	r3, [r7, #16]
		
		/* cldiv must fit in 8 bits, ckdiv must fit in 3 bits */
		while ((cldiv > TWI_CLK_DIV_MAX) && (ckdiv < TWI_CLK_DIV_MIN)) {
   8022c:	e005      	b.n	8023a <twi_set_speed+0x52>
			/* Increase clock divider */
			ckdiv++;
   8022e:	69fb      	ldr	r3, [r7, #28]
   80230:	3301      	adds	r3, #1
   80232:	61fb      	str	r3, [r7, #28]
			/* Divide cldiv value */
			cldiv /= TWI_CLK_DIVIDER;
   80234:	697b      	ldr	r3, [r7, #20]
   80236:	085b      	lsrs	r3, r3, #1
   80238:	617b      	str	r3, [r7, #20]
		while ((cldiv > TWI_CLK_DIV_MAX) && (ckdiv < TWI_CLK_DIV_MIN)) {
   8023a:	697b      	ldr	r3, [r7, #20]
   8023c:	2bff      	cmp	r3, #255	; 0xff
   8023e:	d909      	bls.n	80254 <twi_set_speed+0x6c>
   80240:	69fb      	ldr	r3, [r7, #28]
   80242:	2b06      	cmp	r3, #6
   80244:	d9f3      	bls.n	8022e <twi_set_speed+0x46>
		}
		/* chdiv must fit in 8 bits, ckdiv must fit in 3 bits */
		while ((chdiv > TWI_CLK_DIV_MAX) && (ckdiv < TWI_CLK_DIV_MIN)) {
   80246:	e005      	b.n	80254 <twi_set_speed+0x6c>
			/* Increase clock divider */
			ckdiv++;
   80248:	69fb      	ldr	r3, [r7, #28]
   8024a:	3301      	adds	r3, #1
   8024c:	61fb      	str	r3, [r7, #28]
			/* Divide cldiv value */
			chdiv /= TWI_CLK_DIVIDER;
   8024e:	693b      	ldr	r3, [r7, #16]
   80250:	085b      	lsrs	r3, r3, #1
   80252:	613b      	str	r3, [r7, #16]
		while ((chdiv > TWI_CLK_DIV_MAX) && (ckdiv < TWI_CLK_DIV_MIN)) {
   80254:	693b      	ldr	r3, [r7, #16]
   80256:	2bff      	cmp	r3, #255	; 0xff
   80258:	d902      	bls.n	80260 <twi_set_speed+0x78>
   8025a:	69fb      	ldr	r3, [r7, #28]
   8025c:	2b06      	cmp	r3, #6
   8025e:	d9f3      	bls.n	80248 <twi_set_speed+0x60>
		}

		/* set clock waveform generator register */
		p_twi->TWI_CWGR =
				TWI_CWGR_CLDIV(cldiv) | TWI_CWGR_CHDIV(chdiv) |
   80260:	697b      	ldr	r3, [r7, #20]
   80262:	b2da      	uxtb	r2, r3
   80264:	693b      	ldr	r3, [r7, #16]
   80266:	021b      	lsls	r3, r3, #8
   80268:	b29b      	uxth	r3, r3
   8026a:	431a      	orrs	r2, r3
				TWI_CWGR_CKDIV(ckdiv);		
   8026c:	69fb      	ldr	r3, [r7, #28]
   8026e:	041b      	lsls	r3, r3, #16
   80270:	f403 23e0 	and.w	r3, r3, #458752	; 0x70000
				TWI_CWGR_CLDIV(cldiv) | TWI_CWGR_CHDIV(chdiv) |
   80274:	431a      	orrs	r2, r3
		p_twi->TWI_CWGR =
   80276:	68fb      	ldr	r3, [r7, #12]
   80278:	611a      	str	r2, [r3, #16]
   8027a:	e020      	b.n	802be <twi_set_speed+0xd6>
	} else {
		c_lh_div = ul_mck / (ul_speed * TWI_CLK_DIVIDER) - TWI_CLK_CALC_ARGU;
   8027c:	68bb      	ldr	r3, [r7, #8]
   8027e:	005b      	lsls	r3, r3, #1
   80280:	687a      	ldr	r2, [r7, #4]
   80282:	fbb2 f3f3 	udiv	r3, r2, r3
   80286:	3b04      	subs	r3, #4
   80288:	61bb      	str	r3, [r7, #24]

		/* cldiv must fit in 8 bits, ckdiv must fit in 3 bits */
		while ((c_lh_div > TWI_CLK_DIV_MAX) && (ckdiv < TWI_CLK_DIV_MIN)) {
   8028a:	e005      	b.n	80298 <twi_set_speed+0xb0>
			/* Increase clock divider */
			ckdiv++;
   8028c:	69fb      	ldr	r3, [r7, #28]
   8028e:	3301      	adds	r3, #1
   80290:	61fb      	str	r3, [r7, #28]
			/* Divide cldiv value */
			c_lh_div /= TWI_CLK_DIVIDER;
   80292:	69bb      	ldr	r3, [r7, #24]
   80294:	085b      	lsrs	r3, r3, #1
   80296:	61bb      	str	r3, [r7, #24]
		while ((c_lh_div > TWI_CLK_DIV_MAX) && (ckdiv < TWI_CLK_DIV_MIN)) {
   80298:	69bb      	ldr	r3, [r7, #24]
   8029a:	2bff      	cmp	r3, #255	; 0xff
   8029c:	d902      	bls.n	802a4 <twi_set_speed+0xbc>
   8029e:	69fb      	ldr	r3, [r7, #28]
   802a0:	2b06      	cmp	r3, #6
   802a2:	d9f3      	bls.n	8028c <twi_set_speed+0xa4>
		}

		/* set clock waveform generator register */
		p_twi->TWI_CWGR =
				TWI_CWGR_CLDIV(c_lh_div) | TWI_CWGR_CHDIV(c_lh_div) |
   802a4:	69bb      	ldr	r3, [r7, #24]
   802a6:	b2da      	uxtb	r2, r3
   802a8:	69bb      	ldr	r3, [r7, #24]
   802aa:	021b      	lsls	r3, r3, #8
   802ac:	b29b      	uxth	r3, r3
   802ae:	431a      	orrs	r2, r3
				TWI_CWGR_CKDIV(ckdiv);
   802b0:	69fb      	ldr	r3, [r7, #28]
   802b2:	041b      	lsls	r3, r3, #16
   802b4:	f403 23e0 	and.w	r3, r3, #458752	; 0x70000
				TWI_CWGR_CLDIV(c_lh_div) | TWI_CWGR_CHDIV(c_lh_div) |
   802b8:	431a      	orrs	r2, r3
		p_twi->TWI_CWGR =
   802ba:	68fb      	ldr	r3, [r7, #12]
   802bc:	611a      	str	r2, [r3, #16]
	}

	return PASS;
   802be:	2300      	movs	r3, #0
}
   802c0:	4618      	mov	r0, r3
   802c2:	3724      	adds	r7, #36	; 0x24
   802c4:	46bd      	mov	sp, r7
   802c6:	bc80      	pop	{r7}
   802c8:	4770      	bx	lr
   802ca:	bf00      	nop
   802cc:	00061a80 	.word	0x00061a80
   802d0:	0005dc00 	.word	0x0005dc00
   802d4:	057619f1 	.word	0x057619f1
   802d8:	3ffd1200 	.word	0x3ffd1200

000802dc <twi_mk_addr>:
 * which byte is the MSB to start with.
 *
 * Please see the device datasheet for details on this.
 */
uint32_t twi_mk_addr(const uint8_t *addr, int len)
{
   802dc:	b480      	push	{r7}
   802de:	b085      	sub	sp, #20
   802e0:	af00      	add	r7, sp, #0
   802e2:	6078      	str	r0, [r7, #4]
   802e4:	6039      	str	r1, [r7, #0]
	uint32_t val;

	if (len == 0)
   802e6:	683b      	ldr	r3, [r7, #0]
   802e8:	2b00      	cmp	r3, #0
   802ea:	d101      	bne.n	802f0 <twi_mk_addr+0x14>
		return 0;
   802ec:	2300      	movs	r3, #0
   802ee:	e01d      	b.n	8032c <twi_mk_addr+0x50>

	val = addr[0];
   802f0:	687b      	ldr	r3, [r7, #4]
   802f2:	781b      	ldrb	r3, [r3, #0]
   802f4:	60fb      	str	r3, [r7, #12]
	if (len > 1) {
   802f6:	683b      	ldr	r3, [r7, #0]
   802f8:	2b01      	cmp	r3, #1
   802fa:	dd09      	ble.n	80310 <twi_mk_addr+0x34>
		val <<= 8;
   802fc:	68fb      	ldr	r3, [r7, #12]
   802fe:	021b      	lsls	r3, r3, #8
   80300:	60fb      	str	r3, [r7, #12]
		val |= addr[1];
   80302:	687b      	ldr	r3, [r7, #4]
   80304:	3301      	adds	r3, #1
   80306:	781b      	ldrb	r3, [r3, #0]
   80308:	461a      	mov	r2, r3
   8030a:	68fb      	ldr	r3, [r7, #12]
   8030c:	4313      	orrs	r3, r2
   8030e:	60fb      	str	r3, [r7, #12]
	}
	if (len > 2) {
   80310:	683b      	ldr	r3, [r7, #0]
   80312:	2b02      	cmp	r3, #2
   80314:	dd09      	ble.n	8032a <twi_mk_addr+0x4e>
		val <<= 8;
   80316:	68fb      	ldr	r3, [r7, #12]
   80318:	021b      	lsls	r3, r3, #8
   8031a:	60fb      	str	r3, [r7, #12]
		val |= addr[2];
   8031c:	687b      	ldr	r3, [r7, #4]
   8031e:	3302      	adds	r3, #2
   80320:	781b      	ldrb	r3, [r3, #0]
   80322:	461a      	mov	r2, r3
   80324:	68fb      	ldr	r3, [r7, #12]
   80326:	4313      	orrs	r3, r2
   80328:	60fb      	str	r3, [r7, #12]
	}
	return val;
   8032a:	68fb      	ldr	r3, [r7, #12]
}
   8032c:	4618      	mov	r0, r3
   8032e:	3714      	adds	r7, #20
   80330:	46bd      	mov	sp, r7
   80332:	bc80      	pop	{r7}
   80334:	4770      	bx	lr
	...

00080338 <twi_master_write>:
 * \param p_packet Packet information and data (see \ref twi_packet_t).
 *
 * \return TWI_SUCCESS if all bytes were written, error code otherwise.
 */
uint32_t twi_master_write(Twi *p_twi, twi_packet_t *p_packet)
{
   80338:	b580      	push	{r7, lr}
   8033a:	b086      	sub	sp, #24
   8033c:	af00      	add	r7, sp, #0
   8033e:	6078      	str	r0, [r7, #4]
   80340:	6039      	str	r1, [r7, #0]
	uint32_t status;
	uint32_t cnt = p_packet->length;
   80342:	683b      	ldr	r3, [r7, #0]
   80344:	68db      	ldr	r3, [r3, #12]
   80346:	617b      	str	r3, [r7, #20]
	uint8_t *buffer = p_packet->buffer;
   80348:	683b      	ldr	r3, [r7, #0]
   8034a:	689b      	ldr	r3, [r3, #8]
   8034c:	613b      	str	r3, [r7, #16]

	/* Check argument */
	if (cnt == 0) {
   8034e:	697b      	ldr	r3, [r7, #20]
   80350:	2b00      	cmp	r3, #0
   80352:	d101      	bne.n	80358 <twi_master_write+0x20>
		return TWI_INVALID_ARGUMENT;
   80354:	2301      	movs	r3, #1
   80356:	e056      	b.n	80406 <twi_master_write+0xce>
	}

	/* Set write mode, slave address and 3 internal address byte lengths */
	p_twi->TWI_MMR = 0;
   80358:	687b      	ldr	r3, [r7, #4]
   8035a:	2200      	movs	r2, #0
   8035c:	605a      	str	r2, [r3, #4]
	p_twi->TWI_MMR = TWI_MMR_DADR(p_packet->chip) |
   8035e:	683b      	ldr	r3, [r7, #0]
   80360:	7c1b      	ldrb	r3, [r3, #16]
   80362:	041b      	lsls	r3, r3, #16
   80364:	f403 02fe 	and.w	r2, r3, #8323072	; 0x7f0000
			((p_packet->addr_length << TWI_MMR_IADRSZ_Pos) &
   80368:	683b      	ldr	r3, [r7, #0]
   8036a:	685b      	ldr	r3, [r3, #4]
   8036c:	021b      	lsls	r3, r3, #8
   8036e:	f403 7340 	and.w	r3, r3, #768	; 0x300
	p_twi->TWI_MMR = TWI_MMR_DADR(p_packet->chip) |
   80372:	431a      	orrs	r2, r3
   80374:	687b      	ldr	r3, [r7, #4]
   80376:	605a      	str	r2, [r3, #4]
			TWI_MMR_IADRSZ_Msk);

	/* Set internal address for remote chip */
	p_twi->TWI_IADR = 0;
   80378:	687b      	ldr	r3, [r7, #4]
   8037a:	2200      	movs	r2, #0
   8037c:	60da      	str	r2, [r3, #12]
	p_twi->TWI_IADR = twi_mk_addr(p_packet->addr, p_packet->addr_length);
   8037e:	683a      	ldr	r2, [r7, #0]
   80380:	683b      	ldr	r3, [r7, #0]
   80382:	685b      	ldr	r3, [r3, #4]
   80384:	4619      	mov	r1, r3
   80386:	4610      	mov	r0, r2
   80388:	4b21      	ldr	r3, [pc, #132]	; (80410 <twi_master_write+0xd8>)
   8038a:	4798      	blx	r3
   8038c:	4602      	mov	r2, r0
   8038e:	687b      	ldr	r3, [r7, #4]
   80390:	60da      	str	r2, [r3, #12]

	/* Send all bytes */
	while (cnt > 0) {
   80392:	e019      	b.n	803c8 <twi_master_write+0x90>
		status = p_twi->TWI_SR;
   80394:	687b      	ldr	r3, [r7, #4]
   80396:	6a1b      	ldr	r3, [r3, #32]
   80398:	60fb      	str	r3, [r7, #12]
		if (status & TWI_SR_NACK) {
   8039a:	68fb      	ldr	r3, [r7, #12]
   8039c:	f403 7380 	and.w	r3, r3, #256	; 0x100
   803a0:	2b00      	cmp	r3, #0
   803a2:	d001      	beq.n	803a8 <twi_master_write+0x70>
			return TWI_RECEIVE_NACK;
   803a4:	2305      	movs	r3, #5
   803a6:	e02e      	b.n	80406 <twi_master_write+0xce>
		}

		if (!(status & TWI_SR_TXRDY)) {
   803a8:	68fb      	ldr	r3, [r7, #12]
   803aa:	f003 0304 	and.w	r3, r3, #4
   803ae:	2b00      	cmp	r3, #0
   803b0:	d100      	bne.n	803b4 <twi_master_write+0x7c>
			continue;
   803b2:	e009      	b.n	803c8 <twi_master_write+0x90>
		}
		p_twi->TWI_THR = *buffer++;
   803b4:	693b      	ldr	r3, [r7, #16]
   803b6:	1c5a      	adds	r2, r3, #1
   803b8:	613a      	str	r2, [r7, #16]
   803ba:	781b      	ldrb	r3, [r3, #0]
   803bc:	461a      	mov	r2, r3
   803be:	687b      	ldr	r3, [r7, #4]
   803c0:	635a      	str	r2, [r3, #52]	; 0x34

		cnt--;
   803c2:	697b      	ldr	r3, [r7, #20]
   803c4:	3b01      	subs	r3, #1
   803c6:	617b      	str	r3, [r7, #20]
	while (cnt > 0) {
   803c8:	697b      	ldr	r3, [r7, #20]
   803ca:	2b00      	cmp	r3, #0
   803cc:	d1e2      	bne.n	80394 <twi_master_write+0x5c>
	}

	while (1) {
		status = p_twi->TWI_SR;
   803ce:	687b      	ldr	r3, [r7, #4]
   803d0:	6a1b      	ldr	r3, [r3, #32]
   803d2:	60fb      	str	r3, [r7, #12]
		if (status & TWI_SR_NACK) {
   803d4:	68fb      	ldr	r3, [r7, #12]
   803d6:	f403 7380 	and.w	r3, r3, #256	; 0x100
   803da:	2b00      	cmp	r3, #0
   803dc:	d001      	beq.n	803e2 <twi_master_write+0xaa>
			return TWI_RECEIVE_NACK;
   803de:	2305      	movs	r3, #5
   803e0:	e011      	b.n	80406 <twi_master_write+0xce>
		}

		if (status & TWI_SR_TXRDY) {
   803e2:	68fb      	ldr	r3, [r7, #12]
   803e4:	f003 0304 	and.w	r3, r3, #4
   803e8:	2b00      	cmp	r3, #0
   803ea:	d100      	bne.n	803ee <twi_master_write+0xb6>
		status = p_twi->TWI_SR;
   803ec:	e7ef      	b.n	803ce <twi_master_write+0x96>
			break;
   803ee:	bf00      	nop
		}
	}

	p_twi->TWI_CR = TWI_CR_STOP;
   803f0:	687b      	ldr	r3, [r7, #4]
   803f2:	2202      	movs	r2, #2
   803f4:	601a      	str	r2, [r3, #0]

	while (!(p_twi->TWI_SR & TWI_SR_TXCOMP)) {
   803f6:	bf00      	nop
   803f8:	687b      	ldr	r3, [r7, #4]
   803fa:	6a1b      	ldr	r3, [r3, #32]
   803fc:	f003 0301 	and.w	r3, r3, #1
   80400:	2b00      	cmp	r3, #0
   80402:	d0f9      	beq.n	803f8 <twi_master_write+0xc0>
	}

	return TWI_SUCCESS;
   80404:	2300      	movs	r3, #0
}
   80406:	4618      	mov	r0, r3
   80408:	3718      	adds	r7, #24
   8040a:	46bd      	mov	sp, r7
   8040c:	bd80      	pop	{r7, pc}
   8040e:	bf00      	nop
   80410:	000802dd 	.word	0x000802dd

00080414 <twi_reset>:
 * \brief Reset TWI.
 *
 * \param p_twi Pointer to a TWI instance.
 */
void twi_reset(Twi *p_twi)
{
   80414:	b480      	push	{r7}
   80416:	b083      	sub	sp, #12
   80418:	af00      	add	r7, sp, #0
   8041a:	6078      	str	r0, [r7, #4]
	/* Set SWRST bit to reset TWI peripheral */
	p_twi->TWI_CR = TWI_CR_SWRST;
   8041c:	687b      	ldr	r3, [r7, #4]
   8041e:	2280      	movs	r2, #128	; 0x80
   80420:	601a      	str	r2, [r3, #0]
	p_twi->TWI_RHR;
   80422:	687b      	ldr	r3, [r7, #4]
   80424:	6b1b      	ldr	r3, [r3, #48]	; 0x30
}
   80426:	bf00      	nop
   80428:	370c      	adds	r7, #12
   8042a:	46bd      	mov	sp, r7
   8042c:	bc80      	pop	{r7}
   8042e:	4770      	bx	lr

00080430 <osc_get_rate>:

	return 0;
}

static inline uint32_t osc_get_rate(uint32_t ul_id)
{
   80430:	b480      	push	{r7}
   80432:	b083      	sub	sp, #12
   80434:	af00      	add	r7, sp, #0
   80436:	6078      	str	r0, [r7, #4]
	switch (ul_id) {
   80438:	687b      	ldr	r3, [r7, #4]
   8043a:	2b07      	cmp	r3, #7
   8043c:	d825      	bhi.n	8048a <osc_get_rate+0x5a>
   8043e:	a201      	add	r2, pc, #4	; (adr r2, 80444 <osc_get_rate+0x14>)
   80440:	f852 f023 	ldr.w	pc, [r2, r3, lsl #2]
   80444:	00080465 	.word	0x00080465
   80448:	0008046b 	.word	0x0008046b
   8044c:	00080471 	.word	0x00080471
   80450:	00080477 	.word	0x00080477
   80454:	0008047b 	.word	0x0008047b
   80458:	0008047f 	.word	0x0008047f
   8045c:	00080483 	.word	0x00080483
   80460:	00080487 	.word	0x00080487
	case OSC_SLCK_32K_RC:
		return OSC_SLCK_32K_RC_HZ;
   80464:	f44f 43fa 	mov.w	r3, #32000	; 0x7d00
   80468:	e010      	b.n	8048c <osc_get_rate+0x5c>

	case OSC_SLCK_32K_XTAL:
		return BOARD_FREQ_SLCK_XTAL;
   8046a:	f44f 4300 	mov.w	r3, #32768	; 0x8000
   8046e:	e00d      	b.n	8048c <osc_get_rate+0x5c>

	case OSC_SLCK_32K_BYPASS:
		return BOARD_FREQ_SLCK_BYPASS;
   80470:	f44f 4300 	mov.w	r3, #32768	; 0x8000
   80474:	e00a      	b.n	8048c <osc_get_rate+0x5c>

	case OSC_MAINCK_4M_RC:
		return OSC_MAINCK_4M_RC_HZ;
   80476:	4b08      	ldr	r3, [pc, #32]	; (80498 <osc_get_rate+0x68>)
   80478:	e008      	b.n	8048c <osc_get_rate+0x5c>

	case OSC_MAINCK_8M_RC:
		return OSC_MAINCK_8M_RC_HZ;
   8047a:	4b08      	ldr	r3, [pc, #32]	; (8049c <osc_get_rate+0x6c>)
   8047c:	e006      	b.n	8048c <osc_get_rate+0x5c>

	case OSC_MAINCK_12M_RC:
		return OSC_MAINCK_12M_RC_HZ;
   8047e:	4b08      	ldr	r3, [pc, #32]	; (804a0 <osc_get_rate+0x70>)
   80480:	e004      	b.n	8048c <osc_get_rate+0x5c>

	case OSC_MAINCK_XTAL:
		return BOARD_FREQ_MAINCK_XTAL;
   80482:	4b07      	ldr	r3, [pc, #28]	; (804a0 <osc_get_rate+0x70>)
   80484:	e002      	b.n	8048c <osc_get_rate+0x5c>

	case OSC_MAINCK_BYPASS:
		return BOARD_FREQ_MAINCK_BYPASS;
   80486:	4b06      	ldr	r3, [pc, #24]	; (804a0 <osc_get_rate+0x70>)
   80488:	e000      	b.n	8048c <osc_get_rate+0x5c>
	}

	return 0;
   8048a:	2300      	movs	r3, #0
}
   8048c:	4618      	mov	r0, r3
   8048e:	370c      	adds	r7, #12
   80490:	46bd      	mov	sp, r7
   80492:	bc80      	pop	{r7}
   80494:	4770      	bx	lr
   80496:	bf00      	nop
   80498:	003d0900 	.word	0x003d0900
   8049c:	007a1200 	.word	0x007a1200
   804a0:	00b71b00 	.word	0x00b71b00

000804a4 <sysclk_get_main_hz>:
 */
#if (defined CONFIG_SYSCLK_DEFAULT_RETURNS_SLOW_OSC)
extern uint32_t sysclk_initialized;
#endif
static inline uint32_t sysclk_get_main_hz(void)
{
   804a4:	b580      	push	{r7, lr}
   804a6:	af00      	add	r7, sp, #0
	} else if (CONFIG_SYSCLK_SOURCE == SYSCLK_SRC_MAINCK_BYPASS) {
		return OSC_MAINCK_BYPASS_HZ;
	}
#ifdef CONFIG_PLL0_SOURCE
	else if (CONFIG_SYSCLK_SOURCE == SYSCLK_SRC_PLLACK) {
		return pll_get_default_rate(0);
   804a8:	2006      	movs	r0, #6
   804aa:	4b04      	ldr	r3, [pc, #16]	; (804bc <sysclk_get_main_hz+0x18>)
   804ac:	4798      	blx	r3
   804ae:	4602      	mov	r2, r0
   804b0:	4613      	mov	r3, r2
   804b2:	00db      	lsls	r3, r3, #3
   804b4:	1a9b      	subs	r3, r3, r2
   804b6:	005b      	lsls	r3, r3, #1
#endif
	else {
		/* unhandled_case(CONFIG_SYSCLK_SOURCE); */
		return 0;
	}
}
   804b8:	4618      	mov	r0, r3
   804ba:	bd80      	pop	{r7, pc}
   804bc:	00080431 	.word	0x00080431

000804c0 <sysclk_get_peripheral_hz>:
 * \brief Retrieves the current rate in Hz of the peripheral clocks.
 *
 * \return Frequency of the peripheral clocks, in Hz.
 */
static inline uint32_t sysclk_get_peripheral_hz(void)
{
   804c0:	b580      	push	{r7, lr}
   804c2:	af00      	add	r7, sp, #0
	/* CONFIG_SYSCLK_PRES is the register value for setting the expected */
	/* prescaler, not an immediate value. */
	return sysclk_get_main_hz() /
   804c4:	4b02      	ldr	r3, [pc, #8]	; (804d0 <sysclk_get_peripheral_hz+0x10>)
   804c6:	4798      	blx	r3
   804c8:	4603      	mov	r3, r0
   804ca:	085b      	lsrs	r3, r3, #1
		((CONFIG_SYSCLK_PRES == SYSCLK_PRES_3) ? 3 :
			(1 << (CONFIG_SYSCLK_PRES >> PMC_MCKR_PRES_Pos)));
}
   804cc:	4618      	mov	r0, r3
   804ce:	bd80      	pop	{r7, pc}
   804d0:	000804a5 	.word	0x000804a5

000804d4 <sysclk_enable_peripheral_clock>:
 * \brief Enable a peripheral's clock.
 *
 * \param ul_id Id (number) of the peripheral clock.
 */
static inline void sysclk_enable_peripheral_clock(uint32_t ul_id)
{
   804d4:	b580      	push	{r7, lr}
   804d6:	b082      	sub	sp, #8
   804d8:	af00      	add	r7, sp, #0
   804da:	6078      	str	r0, [r7, #4]
	pmc_enable_periph_clk(ul_id);
   804dc:	6878      	ldr	r0, [r7, #4]
   804de:	4b03      	ldr	r3, [pc, #12]	; (804ec <sysclk_enable_peripheral_clock+0x18>)
   804e0:	4798      	blx	r3
}
   804e2:	bf00      	nop
   804e4:	3708      	adds	r7, #8
   804e6:	46bd      	mov	sp, r7
   804e8:	bd80      	pop	{r7, pc}
   804ea:	bf00      	nop
   804ec:	00080f35 	.word	0x00080f35

000804f0 <twi_master_setup>:
typedef twi_options_t twi_master_options_t;
typedef twi_packet_t twi_package_t;

static inline uint32_t twi_master_setup(twi_master_t p_twi,
		twi_master_options_t *p_opt)
{
   804f0:	b580      	push	{r7, lr}
   804f2:	b082      	sub	sp, #8
   804f4:	af00      	add	r7, sp, #0
   804f6:	6078      	str	r0, [r7, #4]
   804f8:	6039      	str	r1, [r7, #0]
	p_opt->master_clk = sysclk_get_peripheral_hz();
   804fa:	4b10      	ldr	r3, [pc, #64]	; (8053c <twi_master_setup+0x4c>)
   804fc:	4798      	blx	r3
   804fe:	4602      	mov	r2, r0
   80500:	683b      	ldr	r3, [r7, #0]
   80502:	601a      	str	r2, [r3, #0]
	p_opt->smbus      = 0;
   80504:	683b      	ldr	r3, [r7, #0]
   80506:	2200      	movs	r2, #0
   80508:	725a      	strb	r2, [r3, #9]
	} else {
		// Do Nothing
	}
#else
#if (!(SAMG51 || SAMG53 || SAMG54))
	if (p_twi == TWI0) {
   8050a:	687b      	ldr	r3, [r7, #4]
   8050c:	4a0c      	ldr	r2, [pc, #48]	; (80540 <twi_master_setup+0x50>)
   8050e:	4293      	cmp	r3, r2
   80510:	d103      	bne.n	8051a <twi_master_setup+0x2a>
		sysclk_enable_peripheral_clock(ID_TWI0);
   80512:	2016      	movs	r0, #22
   80514:	4b0b      	ldr	r3, [pc, #44]	; (80544 <twi_master_setup+0x54>)
   80516:	4798      	blx	r3
   80518:	e006      	b.n	80528 <twi_master_setup+0x38>
	} else
#endif
	if (p_twi == TWI1) {
   8051a:	687b      	ldr	r3, [r7, #4]
   8051c:	4a0a      	ldr	r2, [pc, #40]	; (80548 <twi_master_setup+0x58>)
   8051e:	4293      	cmp	r3, r2
   80520:	d102      	bne.n	80528 <twi_master_setup+0x38>
		sysclk_enable_peripheral_clock(ID_TWI1);
   80522:	2017      	movs	r0, #23
   80524:	4b07      	ldr	r3, [pc, #28]	; (80544 <twi_master_setup+0x54>)
   80526:	4798      	blx	r3
	} else {
		// Do Nothing
	}
#endif

	return (twi_master_init(p_twi, p_opt));
   80528:	6839      	ldr	r1, [r7, #0]
   8052a:	6878      	ldr	r0, [r7, #4]
   8052c:	4b07      	ldr	r3, [pc, #28]	; (8054c <twi_master_setup+0x5c>)
   8052e:	4798      	blx	r3
   80530:	4603      	mov	r3, r0
}
   80532:	4618      	mov	r0, r3
   80534:	3708      	adds	r7, #8
   80536:	46bd      	mov	sp, r7
   80538:	bd80      	pop	{r7, pc}
   8053a:	bf00      	nop
   8053c:	000804c1 	.word	0x000804c1
   80540:	4008c000 	.word	0x4008c000
   80544:	000804d5 	.word	0x000804d5
   80548:	40090000 	.word	0x40090000
   8054c:	00080185 	.word	0x00080185

00080550 <lcd_init>:

static void send_nibble(uint8_t cmd, uint8_t byte);
static void send_byte(uint8_t cmd, uint8_t byte);

void lcd_init(void)
{
   80550:	b580      	push	{r7, lr}
   80552:	af00      	add	r7, sp, #0
	backlight = LCD_LIGHT_OFF;
   80554:	4b1a      	ldr	r3, [pc, #104]	; (805c0 <lcd_init+0x70>)
   80556:	2200      	movs	r2, #0
   80558:	701a      	strb	r2, [r3, #0]

	send_nibble(LCD_FUNTION_WRITE, 3);
   8055a:	2103      	movs	r1, #3
   8055c:	2000      	movs	r0, #0
   8055e:	4b19      	ldr	r3, [pc, #100]	; (805c4 <lcd_init+0x74>)
   80560:	4798      	blx	r3
	mdelay(5);
   80562:	2005      	movs	r0, #5
   80564:	4b18      	ldr	r3, [pc, #96]	; (805c8 <lcd_init+0x78>)
   80566:	4798      	blx	r3
	send_nibble(LCD_FUNTION_WRITE, 3);
   80568:	2103      	movs	r1, #3
   8056a:	2000      	movs	r0, #0
   8056c:	4b15      	ldr	r3, [pc, #84]	; (805c4 <lcd_init+0x74>)
   8056e:	4798      	blx	r3
	mdelay(5);
   80570:	2005      	movs	r0, #5
   80572:	4b15      	ldr	r3, [pc, #84]	; (805c8 <lcd_init+0x78>)
   80574:	4798      	blx	r3
	send_nibble(LCD_FUNTION_WRITE, 3);
   80576:	2103      	movs	r1, #3
   80578:	2000      	movs	r0, #0
   8057a:	4b12      	ldr	r3, [pc, #72]	; (805c4 <lcd_init+0x74>)
   8057c:	4798      	blx	r3
	mdelay(5);
   8057e:	2005      	movs	r0, #5
   80580:	4b11      	ldr	r3, [pc, #68]	; (805c8 <lcd_init+0x78>)
   80582:	4798      	blx	r3
	send_nibble(LCD_FUNTION_WRITE, 2);                /* Interface auf 4-Bit setzen        */
   80584:	2102      	movs	r1, #2
   80586:	2000      	movs	r0, #0
   80588:	4b0e      	ldr	r3, [pc, #56]	; (805c4 <lcd_init+0x74>)
   8058a:	4798      	blx	r3
	/*-----------------------------------*/
	send_byte(LCD_FUNTION_WRITE, 0x28);               /* Funktion Set:                     */
   8058c:	2128      	movs	r1, #40	; 0x28
   8058e:	2000      	movs	r0, #0
   80590:	4b0e      	ldr	r3, [pc, #56]	; (805cc <lcd_init+0x7c>)
   80592:	4798      	blx	r3
	/*   - Interface: 4-Bit              */
	/*   - LCD: 2-zeilig                 */
	/*   - Darstellung: 5x8-Punkte       */
	/*-----------------------------------*/
	send_byte(LCD_FUNTION_WRITE, 0x08);               /* Display ein/aus:                  */
   80594:	2108      	movs	r1, #8
   80596:	2000      	movs	r0, #0
   80598:	4b0c      	ldr	r3, [pc, #48]	; (805cc <lcd_init+0x7c>)
   8059a:	4798      	blx	r3
	/*   - Display: aus                  */
	/*   - Kursor: aus                   */
	/*   - Kursor als Untersrtich        */
	/*-----------------------------------*/
	send_byte(LCD_FUNTION_WRITE, 0x01);               /* Display löschen                   */
   8059c:	2101      	movs	r1, #1
   8059e:	2000      	movs	r0, #0
   805a0:	4b0a      	ldr	r3, [pc, #40]	; (805cc <lcd_init+0x7c>)
   805a2:	4798      	blx	r3
	mdelay(LCD_CLEAR_WAIT_TIME);                      /*-----------------------------------*/
   805a4:	200a      	movs	r0, #10
   805a6:	4b08      	ldr	r3, [pc, #32]	; (805c8 <lcd_init+0x78>)
   805a8:	4798      	blx	r3
	send_byte(LCD_FUNTION_WRITE, 0x06);               /* Entry Mode Set:                   */
   805aa:	2106      	movs	r1, #6
   805ac:	2000      	movs	r0, #0
   805ae:	4b07      	ldr	r3, [pc, #28]	; (805cc <lcd_init+0x7c>)
   805b0:	4798      	blx	r3
	/*   - Kuror Laufrichtung: rechts    */
	/*   - kein Shift                    */
	/*-----------------------------------*/
	send_byte(LCD_FUNTION_WRITE, 0x0C);               /* Display ein/aus:                  */
   805b2:	210c      	movs	r1, #12
   805b4:	2000      	movs	r0, #0
   805b6:	4b05      	ldr	r3, [pc, #20]	; (805cc <lcd_init+0x7c>)
   805b8:	4798      	blx	r3
	/*   - Display: ein                  */
	/*   - Kursor: aus                   */
	/*   - Kursor als Untersrtich        */
}
   805ba:	bf00      	nop
   805bc:	bd80      	pop	{r7, pc}
   805be:	bf00      	nop
   805c0:	20070b64 	.word	0x20070b64
   805c4:	000806d1 	.word	0x000806d1
   805c8:	000808f5 	.word	0x000808f5
   805cc:	00080765 	.word	0x00080765

000805d0 <set_backlight>:

void set_backlight(backlight_t state)
{
   805d0:	b580      	push	{r7, lr}
   805d2:	b082      	sub	sp, #8
   805d4:	af00      	add	r7, sp, #0
   805d6:	4603      	mov	r3, r0
   805d8:	71fb      	strb	r3, [r7, #7]
	backlight = state;
   805da:	4a07      	ldr	r2, [pc, #28]	; (805f8 <set_backlight+0x28>)
   805dc:	79fb      	ldrb	r3, [r7, #7]
   805de:	7013      	strb	r3, [r2, #0]
	send_byte(LCD_FUNTION_WRITE, 0x01);               /* clear dislplay */
   805e0:	2101      	movs	r1, #1
   805e2:	2000      	movs	r0, #0
   805e4:	4b05      	ldr	r3, [pc, #20]	; (805fc <set_backlight+0x2c>)
   805e6:	4798      	blx	r3
	mdelay(LCD_CLEAR_WAIT_TIME);
   805e8:	200a      	movs	r0, #10
   805ea:	4b05      	ldr	r3, [pc, #20]	; (80600 <set_backlight+0x30>)
   805ec:	4798      	blx	r3
}
   805ee:	bf00      	nop
   805f0:	3708      	adds	r7, #8
   805f2:	46bd      	mov	sp, r7
   805f4:	bd80      	pop	{r7, pc}
   805f6:	bf00      	nop
   805f8:	20070b64 	.word	0x20070b64
   805fc:	00080765 	.word	0x00080765
   80600:	000808f5 	.word	0x000808f5

00080604 <lcd_clear>:

void lcd_clear(void)
{
   80604:	b580      	push	{r7, lr}
   80606:	af00      	add	r7, sp, #0
	send_byte(0, 0x01);
   80608:	2101      	movs	r1, #1
   8060a:	2000      	movs	r0, #0
   8060c:	4b03      	ldr	r3, [pc, #12]	; (8061c <lcd_clear+0x18>)
   8060e:	4798      	blx	r3
	mdelay(LCD_CLEAR_WAIT_TIME);
   80610:	200a      	movs	r0, #10
   80612:	4b03      	ldr	r3, [pc, #12]	; (80620 <lcd_clear+0x1c>)
   80614:	4798      	blx	r3
}
   80616:	bf00      	nop
   80618:	bd80      	pop	{r7, pc}
   8061a:	bf00      	nop
   8061c:	00080765 	.word	0x00080765
   80620:	000808f5 	.word	0x000808f5

00080624 <print_s>:

void print_s(uint8_t line, uint8_t col, const char* data)
{
   80624:	b580      	push	{r7, lr}
   80626:	b086      	sub	sp, #24
   80628:	af00      	add	r7, sp, #0
   8062a:	4603      	mov	r3, r0
   8062c:	603a      	str	r2, [r7, #0]
   8062e:	71fb      	strb	r3, [r7, #7]
   80630:	460b      	mov	r3, r1
   80632:	71bb      	strb	r3, [r7, #6]
	int len=strlen(data);
   80634:	6838      	ldr	r0, [r7, #0]
   80636:	4b24      	ldr	r3, [pc, #144]	; (806c8 <print_s+0xa4>)
   80638:	4798      	blx	r3
   8063a:	4603      	mov	r3, r0
   8063c:	60fb      	str	r3, [r7, #12]
	uint8_t addr;
	
	if (line > 4 || line < 1)
   8063e:	79fb      	ldrb	r3, [r7, #7]
   80640:	2b04      	cmp	r3, #4
   80642:	d83c      	bhi.n	806be <print_s+0x9a>
   80644:	79fb      	ldrb	r3, [r7, #7]
   80646:	2b00      	cmp	r3, #0
   80648:	d039      	beq.n	806be <print_s+0x9a>
	{
		return;
	}
	
	switch (line)
   8064a:	79fb      	ldrb	r3, [r7, #7]
   8064c:	3b01      	subs	r3, #1
   8064e:	2b03      	cmp	r3, #3
   80650:	d816      	bhi.n	80680 <print_s+0x5c>
   80652:	a201      	add	r2, pc, #4	; (adr r2, 80658 <print_s+0x34>)
   80654:	f852 f023 	ldr.w	pc, [r2, r3, lsl #2]
   80658:	00080669 	.word	0x00080669
   8065c:	0008066f 	.word	0x0008066f
   80660:	00080675 	.word	0x00080675
   80664:	0008067b 	.word	0x0008067b
	{
		case 1:
		addr = 0x80;
   80668:	2380      	movs	r3, #128	; 0x80
   8066a:	75fb      	strb	r3, [r7, #23]
		break;
   8066c:	e00b      	b.n	80686 <print_s+0x62>
		case 2:
		addr = 0x80 | 0x40;                             /* set address to start of line 2           */
   8066e:	23c0      	movs	r3, #192	; 0xc0
   80670:	75fb      	strb	r3, [r7, #23]
		break;
   80672:	e008      	b.n	80686 <print_s+0x62>
		case 3:
		addr = 0x80 | 0x14;                             /* set address to start of line 3           */
   80674:	2394      	movs	r3, #148	; 0x94
   80676:	75fb      	strb	r3, [r7, #23]
		break;
   80678:	e005      	b.n	80686 <print_s+0x62>
		case 4:
		addr = 0x80 | 0x54;                             /* set address to start of line 4           */
   8067a:	23d4      	movs	r3, #212	; 0xd4
   8067c:	75fb      	strb	r3, [r7, #23]
		break;
   8067e:	e002      	b.n	80686 <print_s+0x62>
		default:
		addr = 0x80;
   80680:	2380      	movs	r3, #128	; 0x80
   80682:	75fb      	strb	r3, [r7, #23]
		break;
   80684:	bf00      	nop
	}
	
	addr += col;                                        /* set column in the selected  line         */
   80686:	7dfa      	ldrb	r2, [r7, #23]
   80688:	79bb      	ldrb	r3, [r7, #6]
   8068a:	4413      	add	r3, r2
   8068c:	75fb      	strb	r3, [r7, #23]
	send_byte(LCD_FUNTION_WRITE, addr);               /* set cursor to the address                */
   8068e:	7dfb      	ldrb	r3, [r7, #23]
   80690:	4619      	mov	r1, r3
   80692:	2000      	movs	r0, #0
   80694:	4b0d      	ldr	r3, [pc, #52]	; (806cc <print_s+0xa8>)
   80696:	4798      	blx	r3
	
	for (int i=0; i<len; i++)
   80698:	2300      	movs	r3, #0
   8069a:	613b      	str	r3, [r7, #16]
   8069c:	e00a      	b.n	806b4 <print_s+0x90>
	{                         /* write sting.....                         */
		send_byte(LCD_WRITE_DDR, data[i]);
   8069e:	693b      	ldr	r3, [r7, #16]
   806a0:	683a      	ldr	r2, [r7, #0]
   806a2:	4413      	add	r3, r2
   806a4:	781b      	ldrb	r3, [r3, #0]
   806a6:	4619      	mov	r1, r3
   806a8:	2001      	movs	r0, #1
   806aa:	4b08      	ldr	r3, [pc, #32]	; (806cc <print_s+0xa8>)
   806ac:	4798      	blx	r3
	for (int i=0; i<len; i++)
   806ae:	693b      	ldr	r3, [r7, #16]
   806b0:	3301      	adds	r3, #1
   806b2:	613b      	str	r3, [r7, #16]
   806b4:	693a      	ldr	r2, [r7, #16]
   806b6:	68fb      	ldr	r3, [r7, #12]
   806b8:	429a      	cmp	r2, r3
   806ba:	dbf0      	blt.n	8069e <print_s+0x7a>
   806bc:	e000      	b.n	806c0 <print_s+0x9c>
		return;
   806be:	bf00      	nop
	}
}
   806c0:	3718      	adds	r7, #24
   806c2:	46bd      	mov	sp, r7
   806c4:	bd80      	pop	{r7, pc}
   806c6:	bf00      	nop
   806c8:	000823d1 	.word	0x000823d1
   806cc:	00080765 	.word	0x00080765

000806d0 <send_nibble>:
	send_byte(LCD_FUNTION_WRITE, addr);             /* set cursor to the address                */
	lcd_print_c(data);
}

static void send_nibble(uint8_t cmd, uint8_t byte)
{
   806d0:	b580      	push	{r7, lr}
   806d2:	b084      	sub	sp, #16
   806d4:	af00      	add	r7, sp, #0
   806d6:	4603      	mov	r3, r0
   806d8:	460a      	mov	r2, r1
   806da:	71fb      	strb	r3, [r7, #7]
   806dc:	4613      	mov	r3, r2
   806de:	71bb      	strb	r3, [r7, #6]
	uint8_t data[2];
	
	cmd = (cmd & 0x0F) | backlight;                  /* mask command bits */
   806e0:	f997 3007 	ldrsb.w	r3, [r7, #7]
   806e4:	f003 030f 	and.w	r3, r3, #15
   806e8:	b25a      	sxtb	r2, r3
   806ea:	4b1a      	ldr	r3, [pc, #104]	; (80754 <send_nibble+0x84>)
   806ec:	781b      	ldrb	r3, [r3, #0]
   806ee:	b25b      	sxtb	r3, r3
   806f0:	4313      	orrs	r3, r2
   806f2:	b25b      	sxtb	r3, r3
   806f4:	71fb      	strb	r3, [r7, #7]
	data[0] = cmd | LCD_ENABLE_HIGH | ((byte & 0x0F) << 4);
   806f6:	79bb      	ldrb	r3, [r7, #6]
   806f8:	011b      	lsls	r3, r3, #4
   806fa:	b2da      	uxtb	r2, r3
   806fc:	79fb      	ldrb	r3, [r7, #7]
   806fe:	4313      	orrs	r3, r2
   80700:	b2db      	uxtb	r3, r3
   80702:	f043 0304 	orr.w	r3, r3, #4
   80706:	b2db      	uxtb	r3, r3
   80708:	733b      	strb	r3, [r7, #12]
	data[1] = cmd | LCD_ENABLE_LOW  | ((byte & 0x0F) << 4);
   8070a:	79bb      	ldrb	r3, [r7, #6]
   8070c:	011b      	lsls	r3, r3, #4
   8070e:	b25a      	sxtb	r2, r3
   80710:	f997 3007 	ldrsb.w	r3, [r7, #7]
   80714:	4313      	orrs	r3, r2
   80716:	b25b      	sxtb	r3, r3
   80718:	b2db      	uxtb	r3, r3
   8071a:	737b      	strb	r3, [r7, #13]

	tx_packet.chip = 0x27;
   8071c:	4b0e      	ldr	r3, [pc, #56]	; (80758 <send_nibble+0x88>)
   8071e:	2227      	movs	r2, #39	; 0x27
   80720:	741a      	strb	r2, [r3, #16]
	tx_packet.addr[0] = 0x00;
   80722:	4b0d      	ldr	r3, [pc, #52]	; (80758 <send_nibble+0x88>)
   80724:	2200      	movs	r2, #0
   80726:	701a      	strb	r2, [r3, #0]
	tx_packet.addr_length = 0;
   80728:	4b0b      	ldr	r3, [pc, #44]	; (80758 <send_nibble+0x88>)
   8072a:	2200      	movs	r2, #0
   8072c:	605a      	str	r2, [r3, #4]
	tx_packet.buffer = data;
   8072e:	4a0a      	ldr	r2, [pc, #40]	; (80758 <send_nibble+0x88>)
   80730:	f107 030c 	add.w	r3, r7, #12
   80734:	6093      	str	r3, [r2, #8]
	tx_packet.length = 2;
   80736:	4b08      	ldr	r3, [pc, #32]	; (80758 <send_nibble+0x88>)
   80738:	2202      	movs	r2, #2
   8073a:	60da      	str	r2, [r3, #12]
	
	while (twi_master_write(TWI0, &tx_packet) != TWI_SUCCESS);
   8073c:	bf00      	nop
   8073e:	4906      	ldr	r1, [pc, #24]	; (80758 <send_nibble+0x88>)
   80740:	4806      	ldr	r0, [pc, #24]	; (8075c <send_nibble+0x8c>)
   80742:	4b07      	ldr	r3, [pc, #28]	; (80760 <send_nibble+0x90>)
   80744:	4798      	blx	r3
   80746:	4603      	mov	r3, r0
   80748:	2b00      	cmp	r3, #0
   8074a:	d1f8      	bne.n	8073e <send_nibble+0x6e>
}
   8074c:	bf00      	nop
   8074e:	3710      	adds	r7, #16
   80750:	46bd      	mov	sp, r7
   80752:	bd80      	pop	{r7, pc}
   80754:	20070b64 	.word	0x20070b64
   80758:	20070b68 	.word	0x20070b68
   8075c:	4008c000 	.word	0x4008c000
   80760:	00080339 	.word	0x00080339

00080764 <send_byte>:

static void send_byte(uint8_t cmd, uint8_t byte)
{
   80764:	b580      	push	{r7, lr}
   80766:	b084      	sub	sp, #16
   80768:	af00      	add	r7, sp, #0
   8076a:	4603      	mov	r3, r0
   8076c:	460a      	mov	r2, r1
   8076e:	71fb      	strb	r3, [r7, #7]
   80770:	4613      	mov	r3, r2
   80772:	71bb      	strb	r3, [r7, #6]
	uint8_t data[4];
	
	cmd = (cmd & 0x0F) | backlight;                  /* mask command bits */
   80774:	f997 3007 	ldrsb.w	r3, [r7, #7]
   80778:	f003 030f 	and.w	r3, r3, #15
   8077c:	b25a      	sxtb	r2, r3
   8077e:	4b25      	ldr	r3, [pc, #148]	; (80814 <send_byte+0xb0>)
   80780:	781b      	ldrb	r3, [r3, #0]
   80782:	b25b      	sxtb	r3, r3
   80784:	4313      	orrs	r3, r2
   80786:	b25b      	sxtb	r3, r3
   80788:	71fb      	strb	r3, [r7, #7]
	data[0] = cmd | LCD_ENABLE_HIGH | (byte & 0xF0) ;
   8078a:	79bb      	ldrb	r3, [r7, #6]
   8078c:	f023 030f 	bic.w	r3, r3, #15
   80790:	b2da      	uxtb	r2, r3
   80792:	79fb      	ldrb	r3, [r7, #7]
   80794:	4313      	orrs	r3, r2
   80796:	b2db      	uxtb	r3, r3
   80798:	f043 0304 	orr.w	r3, r3, #4
   8079c:	b2db      	uxtb	r3, r3
   8079e:	733b      	strb	r3, [r7, #12]
	data[1] = cmd | LCD_ENABLE_LOW  | (byte & 0xF0) ;
   807a0:	f997 3006 	ldrsb.w	r3, [r7, #6]
   807a4:	f023 030f 	bic.w	r3, r3, #15
   807a8:	b25a      	sxtb	r2, r3
   807aa:	f997 3007 	ldrsb.w	r3, [r7, #7]
   807ae:	4313      	orrs	r3, r2
   807b0:	b25b      	sxtb	r3, r3
   807b2:	b2db      	uxtb	r3, r3
   807b4:	737b      	strb	r3, [r7, #13]
	data[2] = cmd | LCD_ENABLE_HIGH | ((byte & 0x0F) << 4);
   807b6:	79bb      	ldrb	r3, [r7, #6]
   807b8:	011b      	lsls	r3, r3, #4
   807ba:	b2da      	uxtb	r2, r3
   807bc:	79fb      	ldrb	r3, [r7, #7]
   807be:	4313      	orrs	r3, r2
   807c0:	b2db      	uxtb	r3, r3
   807c2:	f043 0304 	orr.w	r3, r3, #4
   807c6:	b2db      	uxtb	r3, r3
   807c8:	73bb      	strb	r3, [r7, #14]
	data[3] = cmd | LCD_ENABLE_LOW  | ((byte & 0x0F) << 4);
   807ca:	79bb      	ldrb	r3, [r7, #6]
   807cc:	011b      	lsls	r3, r3, #4
   807ce:	b25a      	sxtb	r2, r3
   807d0:	f997 3007 	ldrsb.w	r3, [r7, #7]
   807d4:	4313      	orrs	r3, r2
   807d6:	b25b      	sxtb	r3, r3
   807d8:	b2db      	uxtb	r3, r3
   807da:	73fb      	strb	r3, [r7, #15]
	
	tx_packet.chip = 0x27;
   807dc:	4b0e      	ldr	r3, [pc, #56]	; (80818 <send_byte+0xb4>)
   807de:	2227      	movs	r2, #39	; 0x27
   807e0:	741a      	strb	r2, [r3, #16]
	tx_packet.addr[0] = 0x00;
   807e2:	4b0d      	ldr	r3, [pc, #52]	; (80818 <send_byte+0xb4>)
   807e4:	2200      	movs	r2, #0
   807e6:	701a      	strb	r2, [r3, #0]
	tx_packet.addr_length = 0;
   807e8:	4b0b      	ldr	r3, [pc, #44]	; (80818 <send_byte+0xb4>)
   807ea:	2200      	movs	r2, #0
   807ec:	605a      	str	r2, [r3, #4]
	tx_packet.buffer = data;
   807ee:	4a0a      	ldr	r2, [pc, #40]	; (80818 <send_byte+0xb4>)
   807f0:	f107 030c 	add.w	r3, r7, #12
   807f4:	6093      	str	r3, [r2, #8]
	tx_packet.length = 4;
   807f6:	4b08      	ldr	r3, [pc, #32]	; (80818 <send_byte+0xb4>)
   807f8:	2204      	movs	r2, #4
   807fa:	60da      	str	r2, [r3, #12]
	
	while (twi_master_write(TWI0, &tx_packet) != TWI_SUCCESS);
   807fc:	bf00      	nop
   807fe:	4906      	ldr	r1, [pc, #24]	; (80818 <send_byte+0xb4>)
   80800:	4806      	ldr	r0, [pc, #24]	; (8081c <send_byte+0xb8>)
   80802:	4b07      	ldr	r3, [pc, #28]	; (80820 <send_byte+0xbc>)
   80804:	4798      	blx	r3
   80806:	4603      	mov	r3, r0
   80808:	2b00      	cmp	r3, #0
   8080a:	d1f8      	bne.n	807fe <send_byte+0x9a>
}
   8080c:	bf00      	nop
   8080e:	3710      	adds	r7, #16
   80810:	46bd      	mov	sp, r7
   80812:	bd80      	pop	{r7, pc}
   80814:	20070b64 	.word	0x20070b64
   80818:	20070b68 	.word	0x20070b68
   8081c:	4008c000 	.word	0x4008c000
   80820:	00080339 	.word	0x00080339

00080824 <twi_init>:

void twi_init(void)
{
   80824:	b580      	push	{r7, lr}
   80826:	b084      	sub	sp, #16
   80828:	af00      	add	r7, sp, #0
	twi_master_options_t opt =
   8082a:	1d3b      	adds	r3, r7, #4
   8082c:	2200      	movs	r2, #0
   8082e:	601a      	str	r2, [r3, #0]
   80830:	605a      	str	r2, [r3, #4]
   80832:	609a      	str	r2, [r3, #8]
   80834:	4b05      	ldr	r3, [pc, #20]	; (8084c <twi_init+0x28>)
   80836:	60bb      	str	r3, [r7, #8]
	{
		.speed = 100000,
		.chip  = 0x00
	};
	
	twi_master_setup(TWI0, &opt);
   80838:	1d3b      	adds	r3, r7, #4
   8083a:	4619      	mov	r1, r3
   8083c:	4804      	ldr	r0, [pc, #16]	; (80850 <twi_init+0x2c>)
   8083e:	4b05      	ldr	r3, [pc, #20]	; (80854 <twi_init+0x30>)
   80840:	4798      	blx	r3
}
   80842:	bf00      	nop
   80844:	3710      	adds	r7, #16
   80846:	46bd      	mov	sp, r7
   80848:	bd80      	pop	{r7, pc}
   8084a:	bf00      	nop
   8084c:	000186a0 	.word	0x000186a0
   80850:	4008c000 	.word	0x4008c000
   80854:	000804f1 	.word	0x000804f1

00080858 <ioport_set_pin_level>:
 *
 * \param pin IOPORT pin to configure
 * \param level Logical value of the pin
 */
static inline void ioport_set_pin_level(ioport_pin_t pin, bool level)
{
   80858:	b480      	push	{r7}
   8085a:	b08b      	sub	sp, #44	; 0x2c
   8085c:	af00      	add	r7, sp, #0
   8085e:	6078      	str	r0, [r7, #4]
   80860:	460b      	mov	r3, r1
   80862:	70fb      	strb	r3, [r7, #3]
   80864:	687b      	ldr	r3, [r7, #4]
   80866:	627b      	str	r3, [r7, #36]	; 0x24
   80868:	78fb      	ldrb	r3, [r7, #3]
   8086a:	f887 3023 	strb.w	r3, [r7, #35]	; 0x23
   8086e:	6a7b      	ldr	r3, [r7, #36]	; 0x24
   80870:	61fb      	str	r3, [r7, #28]
   80872:	69fb      	ldr	r3, [r7, #28]
   80874:	61bb      	str	r3, [r7, #24]
typedef uint32_t ioport_port_t;
typedef uint32_t ioport_port_mask_t;

__always_inline static ioport_port_t arch_ioport_pin_to_port_id(ioport_pin_t pin)
{
	return pin >> 5;
   80876:	69bb      	ldr	r3, [r7, #24]
   80878:	095b      	lsrs	r3, r3, #5
   8087a:	617b      	str	r3, [r7, #20]
	} else {
		return (Pio *)((uintptr_t)IOPORT_BASE_ADDRESS +
		       (IOPORT_PIO_OFFSET * port));
	}
#else
	return (Pio *)((uintptr_t)IOPORT_BASE_ADDRESS +
   8087c:	697b      	ldr	r3, [r7, #20]
   8087e:	f503 1300 	add.w	r3, r3, #2097152	; 0x200000
   80882:	f203 7307 	addw	r3, r3, #1799	; 0x707
   80886:	025b      	lsls	r3, r3, #9
}

__always_inline static void arch_ioport_set_pin_level(ioport_pin_t pin,
		bool level)
{
	Pio *base = arch_ioport_pin_to_base(pin);
   80888:	613b      	str	r3, [r7, #16]

	if (level) {
   8088a:	f897 3023 	ldrb.w	r3, [r7, #35]	; 0x23
   8088e:	2b00      	cmp	r3, #0
   80890:	d009      	beq.n	808a6 <ioport_set_pin_level+0x4e>
   80892:	6a7b      	ldr	r3, [r7, #36]	; 0x24
   80894:	60fb      	str	r3, [r7, #12]
	return 1U << (pin & 0x1F);
   80896:	68fb      	ldr	r3, [r7, #12]
   80898:	f003 031f 	and.w	r3, r3, #31
   8089c:	2201      	movs	r2, #1
   8089e:	409a      	lsls	r2, r3
		base->PIO_SODR = arch_ioport_pin_to_mask(pin);
   808a0:	693b      	ldr	r3, [r7, #16]
   808a2:	631a      	str	r2, [r3, #48]	; 0x30
	arch_ioport_set_pin_level(pin, level);
}
   808a4:	e008      	b.n	808b8 <ioport_set_pin_level+0x60>
   808a6:	6a7b      	ldr	r3, [r7, #36]	; 0x24
   808a8:	60bb      	str	r3, [r7, #8]
	return 1U << (pin & 0x1F);
   808aa:	68bb      	ldr	r3, [r7, #8]
   808ac:	f003 031f 	and.w	r3, r3, #31
   808b0:	2201      	movs	r2, #1
   808b2:	409a      	lsls	r2, r3
	} else {
		base->PIO_CODR = arch_ioport_pin_to_mask(pin);
   808b4:	693b      	ldr	r3, [r7, #16]
   808b6:	635a      	str	r2, [r3, #52]	; 0x34
   808b8:	bf00      	nop
   808ba:	372c      	adds	r7, #44	; 0x2c
   808bc:	46bd      	mov	sp, r7
   808be:	bc80      	pop	{r7}
   808c0:	4770      	bx	lr
	...

000808c4 <SysTick_Handler>:
#include "timing.h"

static uint32_t g_ul_ms_ticks = 0;

void SysTick_Handler(void)
{
   808c4:	b480      	push	{r7}
   808c6:	af00      	add	r7, sp, #0
	g_ul_ms_ticks++;
   808c8:	4b04      	ldr	r3, [pc, #16]	; (808dc <SysTick_Handler+0x18>)
   808ca:	681b      	ldr	r3, [r3, #0]
   808cc:	3301      	adds	r3, #1
   808ce:	4a03      	ldr	r2, [pc, #12]	; (808dc <SysTick_Handler+0x18>)
   808d0:	6013      	str	r3, [r2, #0]
}
   808d2:	bf00      	nop
   808d4:	46bd      	mov	sp, r7
   808d6:	bc80      	pop	{r7}
   808d8:	4770      	bx	lr
   808da:	bf00      	nop
   808dc:	20070b7c 	.word	0x20070b7c

000808e0 <getTicks>:

uint32_t getTicks(void)
{
   808e0:	b480      	push	{r7}
   808e2:	af00      	add	r7, sp, #0
	return g_ul_ms_ticks;
   808e4:	4b02      	ldr	r3, [pc, #8]	; (808f0 <getTicks+0x10>)
   808e6:	681b      	ldr	r3, [r3, #0]
}
   808e8:	4618      	mov	r0, r3
   808ea:	46bd      	mov	sp, r7
   808ec:	bc80      	pop	{r7}
   808ee:	4770      	bx	lr
   808f0:	20070b7c 	.word	0x20070b7c

000808f4 <mdelay>:

void mdelay(uint32_t ul_dly_ticks)
{
   808f4:	b480      	push	{r7}
   808f6:	b085      	sub	sp, #20
   808f8:	af00      	add	r7, sp, #0
   808fa:	6078      	str	r0, [r7, #4]
	uint32_t ul_cur_ticks;

	ul_cur_ticks = g_ul_ms_ticks;
   808fc:	4b07      	ldr	r3, [pc, #28]	; (8091c <mdelay+0x28>)
   808fe:	681b      	ldr	r3, [r3, #0]
   80900:	60fb      	str	r3, [r7, #12]
	while ((g_ul_ms_ticks - ul_cur_ticks) < ul_dly_ticks);
   80902:	bf00      	nop
   80904:	4b05      	ldr	r3, [pc, #20]	; (8091c <mdelay+0x28>)
   80906:	681a      	ldr	r2, [r3, #0]
   80908:	68fb      	ldr	r3, [r7, #12]
   8090a:	1ad2      	subs	r2, r2, r3
   8090c:	687b      	ldr	r3, [r7, #4]
   8090e:	429a      	cmp	r2, r3
   80910:	d3f8      	bcc.n	80904 <mdelay+0x10>
}
   80912:	bf00      	nop
   80914:	3714      	adds	r7, #20
   80916:	46bd      	mov	sp, r7
   80918:	bc80      	pop	{r7}
   8091a:	4770      	bx	lr
   8091c:	20070b7c 	.word	0x20070b7c

00080920 <update_heartbeat>:

void update_heartbeat(void)
{
   80920:	b580      	push	{r7, lr}
   80922:	af00      	add	r7, sp, #0
	if (heart_state)
   80924:	4b17      	ldr	r3, [pc, #92]	; (80984 <update_heartbeat+0x64>)
   80926:	781b      	ldrb	r3, [r3, #0]
   80928:	2b00      	cmp	r3, #0
   8092a:	d014      	beq.n	80956 <update_heartbeat+0x36>
	{
		if (getTicks() >= (ticks_heartbeat + 100))
   8092c:	4b16      	ldr	r3, [pc, #88]	; (80988 <update_heartbeat+0x68>)
   8092e:	4798      	blx	r3
   80930:	4602      	mov	r2, r0
   80932:	4b16      	ldr	r3, [pc, #88]	; (8098c <update_heartbeat+0x6c>)
   80934:	681b      	ldr	r3, [r3, #0]
   80936:	3364      	adds	r3, #100	; 0x64
   80938:	429a      	cmp	r2, r3
   8093a:	d321      	bcc.n	80980 <update_heartbeat+0x60>
		{
			ticks_heartbeat = getTicks();
   8093c:	4b12      	ldr	r3, [pc, #72]	; (80988 <update_heartbeat+0x68>)
   8093e:	4798      	blx	r3
   80940:	4602      	mov	r2, r0
   80942:	4b12      	ldr	r3, [pc, #72]	; (8098c <update_heartbeat+0x6c>)
   80944:	601a      	str	r2, [r3, #0]
			ioport_set_pin_level(LED_ONBOARD, 0);
   80946:	2100      	movs	r1, #0
   80948:	206a      	movs	r0, #106	; 0x6a
   8094a:	4b11      	ldr	r3, [pc, #68]	; (80990 <update_heartbeat+0x70>)
   8094c:	4798      	blx	r3
			heart_state = 0;
   8094e:	4b0d      	ldr	r3, [pc, #52]	; (80984 <update_heartbeat+0x64>)
   80950:	2200      	movs	r2, #0
   80952:	701a      	strb	r2, [r3, #0]
			ticks_heartbeat = getTicks();
			ioport_set_pin_level(LED_ONBOARD, 1);
			heart_state = 1;
		}
	}
}
   80954:	e014      	b.n	80980 <update_heartbeat+0x60>
		if (getTicks() >= (ticks_heartbeat + 900))
   80956:	4b0c      	ldr	r3, [pc, #48]	; (80988 <update_heartbeat+0x68>)
   80958:	4798      	blx	r3
   8095a:	4602      	mov	r2, r0
   8095c:	4b0b      	ldr	r3, [pc, #44]	; (8098c <update_heartbeat+0x6c>)
   8095e:	681b      	ldr	r3, [r3, #0]
   80960:	f503 7361 	add.w	r3, r3, #900	; 0x384
   80964:	429a      	cmp	r2, r3
   80966:	d30b      	bcc.n	80980 <update_heartbeat+0x60>
			ticks_heartbeat = getTicks();
   80968:	4b07      	ldr	r3, [pc, #28]	; (80988 <update_heartbeat+0x68>)
   8096a:	4798      	blx	r3
   8096c:	4602      	mov	r2, r0
   8096e:	4b07      	ldr	r3, [pc, #28]	; (8098c <update_heartbeat+0x6c>)
   80970:	601a      	str	r2, [r3, #0]
			ioport_set_pin_level(LED_ONBOARD, 1);
   80972:	2101      	movs	r1, #1
   80974:	206a      	movs	r0, #106	; 0x6a
   80976:	4b06      	ldr	r3, [pc, #24]	; (80990 <update_heartbeat+0x70>)
   80978:	4798      	blx	r3
			heart_state = 1;
   8097a:	4b02      	ldr	r3, [pc, #8]	; (80984 <update_heartbeat+0x64>)
   8097c:	2201      	movs	r2, #1
   8097e:	701a      	strb	r2, [r3, #0]
}
   80980:	bf00      	nop
   80982:	bd80      	pop	{r7, pc}
   80984:	20070bc0 	.word	0x20070bc0
   80988:	000808e1 	.word	0x000808e1
   8098c:	20070bcc 	.word	0x20070bcc
   80990:	00080859 	.word	0x00080859

00080994 <osc_enable>:
{
   80994:	b580      	push	{r7, lr}
   80996:	b082      	sub	sp, #8
   80998:	af00      	add	r7, sp, #0
   8099a:	6078      	str	r0, [r7, #4]
	switch (ul_id) {
   8099c:	687b      	ldr	r3, [r7, #4]
   8099e:	2b07      	cmp	r3, #7
   809a0:	d831      	bhi.n	80a06 <osc_enable+0x72>
   809a2:	a201      	add	r2, pc, #4	; (adr r2, 809a8 <osc_enable+0x14>)
   809a4:	f852 f023 	ldr.w	pc, [r2, r3, lsl #2]
   809a8:	00080a05 	.word	0x00080a05
   809ac:	000809c9 	.word	0x000809c9
   809b0:	000809d1 	.word	0x000809d1
   809b4:	000809d9 	.word	0x000809d9
   809b8:	000809e1 	.word	0x000809e1
   809bc:	000809e9 	.word	0x000809e9
   809c0:	000809f1 	.word	0x000809f1
   809c4:	000809fb 	.word	0x000809fb
		pmc_switch_sclk_to_32kxtal(PMC_OSC_XTAL);
   809c8:	2000      	movs	r0, #0
   809ca:	4b11      	ldr	r3, [pc, #68]	; (80a10 <osc_enable+0x7c>)
   809cc:	4798      	blx	r3
		break;
   809ce:	e01a      	b.n	80a06 <osc_enable+0x72>
		pmc_switch_sclk_to_32kxtal(PMC_OSC_BYPASS);
   809d0:	2001      	movs	r0, #1
   809d2:	4b0f      	ldr	r3, [pc, #60]	; (80a10 <osc_enable+0x7c>)
   809d4:	4798      	blx	r3
		break;
   809d6:	e016      	b.n	80a06 <osc_enable+0x72>
		pmc_switch_mainck_to_fastrc(CKGR_MOR_MOSCRCF_4_MHz);
   809d8:	2000      	movs	r0, #0
   809da:	4b0e      	ldr	r3, [pc, #56]	; (80a14 <osc_enable+0x80>)
   809dc:	4798      	blx	r3
		break;
   809de:	e012      	b.n	80a06 <osc_enable+0x72>
		pmc_switch_mainck_to_fastrc(CKGR_MOR_MOSCRCF_8_MHz);
   809e0:	2010      	movs	r0, #16
   809e2:	4b0c      	ldr	r3, [pc, #48]	; (80a14 <osc_enable+0x80>)
   809e4:	4798      	blx	r3
		break;
   809e6:	e00e      	b.n	80a06 <osc_enable+0x72>
		pmc_switch_mainck_to_fastrc(CKGR_MOR_MOSCRCF_12_MHz);
   809e8:	2020      	movs	r0, #32
   809ea:	4b0a      	ldr	r3, [pc, #40]	; (80a14 <osc_enable+0x80>)
   809ec:	4798      	blx	r3
		break;
   809ee:	e00a      	b.n	80a06 <osc_enable+0x72>
		pmc_switch_mainck_to_xtal(PMC_OSC_XTAL,
   809f0:	213e      	movs	r1, #62	; 0x3e
   809f2:	2000      	movs	r0, #0
   809f4:	4b08      	ldr	r3, [pc, #32]	; (80a18 <osc_enable+0x84>)
   809f6:	4798      	blx	r3
		break;
   809f8:	e005      	b.n	80a06 <osc_enable+0x72>
		pmc_switch_mainck_to_xtal(PMC_OSC_BYPASS,
   809fa:	213e      	movs	r1, #62	; 0x3e
   809fc:	2001      	movs	r0, #1
   809fe:	4b06      	ldr	r3, [pc, #24]	; (80a18 <osc_enable+0x84>)
   80a00:	4798      	blx	r3
		break;
   80a02:	e000      	b.n	80a06 <osc_enable+0x72>
		break;
   80a04:	bf00      	nop
}
   80a06:	bf00      	nop
   80a08:	3708      	adds	r7, #8
   80a0a:	46bd      	mov	sp, r7
   80a0c:	bd80      	pop	{r7, pc}
   80a0e:	bf00      	nop
   80a10:	00080d81 	.word	0x00080d81
   80a14:	00080ded 	.word	0x00080ded
   80a18:	00080e5d 	.word	0x00080e5d

00080a1c <osc_is_ready>:
{
   80a1c:	b580      	push	{r7, lr}
   80a1e:	b082      	sub	sp, #8
   80a20:	af00      	add	r7, sp, #0
   80a22:	6078      	str	r0, [r7, #4]
	switch (ul_id) {
   80a24:	687b      	ldr	r3, [r7, #4]
   80a26:	2b07      	cmp	r3, #7
   80a28:	d826      	bhi.n	80a78 <osc_is_ready+0x5c>
   80a2a:	a201      	add	r2, pc, #4	; (adr r2, 80a30 <osc_is_ready+0x14>)
   80a2c:	f852 f023 	ldr.w	pc, [r2, r3, lsl #2]
   80a30:	00080a51 	.word	0x00080a51
   80a34:	00080a55 	.word	0x00080a55
   80a38:	00080a55 	.word	0x00080a55
   80a3c:	00080a67 	.word	0x00080a67
   80a40:	00080a67 	.word	0x00080a67
   80a44:	00080a67 	.word	0x00080a67
   80a48:	00080a67 	.word	0x00080a67
   80a4c:	00080a67 	.word	0x00080a67
		return 1;
   80a50:	2301      	movs	r3, #1
   80a52:	e012      	b.n	80a7a <osc_is_ready+0x5e>
		return pmc_osc_is_ready_32kxtal();
   80a54:	4b0b      	ldr	r3, [pc, #44]	; (80a84 <osc_is_ready+0x68>)
   80a56:	4798      	blx	r3
   80a58:	4603      	mov	r3, r0
   80a5a:	2b00      	cmp	r3, #0
   80a5c:	bf14      	ite	ne
   80a5e:	2301      	movne	r3, #1
   80a60:	2300      	moveq	r3, #0
   80a62:	b2db      	uxtb	r3, r3
   80a64:	e009      	b.n	80a7a <osc_is_ready+0x5e>
		return pmc_osc_is_ready_mainck();
   80a66:	4b08      	ldr	r3, [pc, #32]	; (80a88 <osc_is_ready+0x6c>)
   80a68:	4798      	blx	r3
   80a6a:	4603      	mov	r3, r0
   80a6c:	2b00      	cmp	r3, #0
   80a6e:	bf14      	ite	ne
   80a70:	2301      	movne	r3, #1
   80a72:	2300      	moveq	r3, #0
   80a74:	b2db      	uxtb	r3, r3
   80a76:	e000      	b.n	80a7a <osc_is_ready+0x5e>
	return 0;
   80a78:	2300      	movs	r3, #0
}
   80a7a:	4618      	mov	r0, r3
   80a7c:	3708      	adds	r7, #8
   80a7e:	46bd      	mov	sp, r7
   80a80:	bd80      	pop	{r7, pc}
   80a82:	bf00      	nop
   80a84:	00080db9 	.word	0x00080db9
   80a88:	00080ed5 	.word	0x00080ed5

00080a8c <osc_get_rate>:
{
   80a8c:	b480      	push	{r7}
   80a8e:	b083      	sub	sp, #12
   80a90:	af00      	add	r7, sp, #0
   80a92:	6078      	str	r0, [r7, #4]
	switch (ul_id) {
   80a94:	687b      	ldr	r3, [r7, #4]
   80a96:	2b07      	cmp	r3, #7
   80a98:	d825      	bhi.n	80ae6 <osc_get_rate+0x5a>
   80a9a:	a201      	add	r2, pc, #4	; (adr r2, 80aa0 <osc_get_rate+0x14>)
   80a9c:	f852 f023 	ldr.w	pc, [r2, r3, lsl #2]
   80aa0:	00080ac1 	.word	0x00080ac1
   80aa4:	00080ac7 	.word	0x00080ac7
   80aa8:	00080acd 	.word	0x00080acd
   80aac:	00080ad3 	.word	0x00080ad3
   80ab0:	00080ad7 	.word	0x00080ad7
   80ab4:	00080adb 	.word	0x00080adb
   80ab8:	00080adf 	.word	0x00080adf
   80abc:	00080ae3 	.word	0x00080ae3
		return OSC_SLCK_32K_RC_HZ;
   80ac0:	f44f 43fa 	mov.w	r3, #32000	; 0x7d00
   80ac4:	e010      	b.n	80ae8 <osc_get_rate+0x5c>
		return BOARD_FREQ_SLCK_XTAL;
   80ac6:	f44f 4300 	mov.w	r3, #32768	; 0x8000
   80aca:	e00d      	b.n	80ae8 <osc_get_rate+0x5c>
		return BOARD_FREQ_SLCK_BYPASS;
   80acc:	f44f 4300 	mov.w	r3, #32768	; 0x8000
   80ad0:	e00a      	b.n	80ae8 <osc_get_rate+0x5c>
		return OSC_MAINCK_4M_RC_HZ;
   80ad2:	4b08      	ldr	r3, [pc, #32]	; (80af4 <osc_get_rate+0x68>)
   80ad4:	e008      	b.n	80ae8 <osc_get_rate+0x5c>
		return OSC_MAINCK_8M_RC_HZ;
   80ad6:	4b08      	ldr	r3, [pc, #32]	; (80af8 <osc_get_rate+0x6c>)
   80ad8:	e006      	b.n	80ae8 <osc_get_rate+0x5c>
		return OSC_MAINCK_12M_RC_HZ;
   80ada:	4b08      	ldr	r3, [pc, #32]	; (80afc <osc_get_rate+0x70>)
   80adc:	e004      	b.n	80ae8 <osc_get_rate+0x5c>
		return BOARD_FREQ_MAINCK_XTAL;
   80ade:	4b07      	ldr	r3, [pc, #28]	; (80afc <osc_get_rate+0x70>)
   80ae0:	e002      	b.n	80ae8 <osc_get_rate+0x5c>
		return BOARD_FREQ_MAINCK_BYPASS;
   80ae2:	4b06      	ldr	r3, [pc, #24]	; (80afc <osc_get_rate+0x70>)
   80ae4:	e000      	b.n	80ae8 <osc_get_rate+0x5c>
	return 0;
   80ae6:	2300      	movs	r3, #0
}
   80ae8:	4618      	mov	r0, r3
   80aea:	370c      	adds	r7, #12
   80aec:	46bd      	mov	sp, r7
   80aee:	bc80      	pop	{r7}
   80af0:	4770      	bx	lr
   80af2:	bf00      	nop
   80af4:	003d0900 	.word	0x003d0900
   80af8:	007a1200 	.word	0x007a1200
   80afc:	00b71b00 	.word	0x00b71b00

00080b00 <osc_wait_ready>:
 * to become stable and ready to use as a clock source.
 *
 * \param id A number identifying the oscillator to wait for.
 */
static inline void osc_wait_ready(uint8_t id)
{
   80b00:	b580      	push	{r7, lr}
   80b02:	b082      	sub	sp, #8
   80b04:	af00      	add	r7, sp, #0
   80b06:	4603      	mov	r3, r0
   80b08:	71fb      	strb	r3, [r7, #7]
	while (!osc_is_ready(id)) {
   80b0a:	bf00      	nop
   80b0c:	79fb      	ldrb	r3, [r7, #7]
   80b0e:	4618      	mov	r0, r3
   80b10:	4b05      	ldr	r3, [pc, #20]	; (80b28 <osc_wait_ready+0x28>)
   80b12:	4798      	blx	r3
   80b14:	4603      	mov	r3, r0
   80b16:	f083 0301 	eor.w	r3, r3, #1
   80b1a:	b2db      	uxtb	r3, r3
   80b1c:	2b00      	cmp	r3, #0
   80b1e:	d1f5      	bne.n	80b0c <osc_wait_ready+0xc>
		/* Do nothing */
	}
}
   80b20:	bf00      	nop
   80b22:	3708      	adds	r7, #8
   80b24:	46bd      	mov	sp, r7
   80b26:	bd80      	pop	{r7, pc}
   80b28:	00080a1d 	.word	0x00080a1d

00080b2c <pll_config_init>:
 * \note The SAM3X PLL hardware interprets mul as mul+1. For readability the hardware mul+1
 * is hidden in this implementation. Use mul as mul effective value.
 */
static inline void pll_config_init(struct pll_config *p_cfg,
		enum pll_source e_src, uint32_t ul_div, uint32_t ul_mul)
{
   80b2c:	b580      	push	{r7, lr}
   80b2e:	b086      	sub	sp, #24
   80b30:	af00      	add	r7, sp, #0
   80b32:	60f8      	str	r0, [r7, #12]
   80b34:	607a      	str	r2, [r7, #4]
   80b36:	603b      	str	r3, [r7, #0]
   80b38:	460b      	mov	r3, r1
   80b3a:	72fb      	strb	r3, [r7, #11]
	uint32_t vco_hz;

	Assert(e_src < PLL_NR_SOURCES);

	if (ul_div == 0 && ul_mul == 0) { /* Must only be true for UTMI PLL */
   80b3c:	687b      	ldr	r3, [r7, #4]
   80b3e:	2b00      	cmp	r3, #0
   80b40:	d107      	bne.n	80b52 <pll_config_init+0x26>
   80b42:	683b      	ldr	r3, [r7, #0]
   80b44:	2b00      	cmp	r3, #0
   80b46:	d104      	bne.n	80b52 <pll_config_init+0x26>
		p_cfg->ctrl = CKGR_UCKR_UPLLCOUNT(PLL_COUNT);
   80b48:	68fb      	ldr	r3, [r7, #12]
   80b4a:	f44f 0270 	mov.w	r2, #15728640	; 0xf00000
   80b4e:	601a      	str	r2, [r3, #0]
   80b50:	e019      	b.n	80b86 <pll_config_init+0x5a>
	} else { /* PLLA */
		/* Calculate internal VCO frequency */
		vco_hz = osc_get_rate(e_src) / ul_div;
   80b52:	7afb      	ldrb	r3, [r7, #11]
   80b54:	4618      	mov	r0, r3
   80b56:	4b0e      	ldr	r3, [pc, #56]	; (80b90 <pll_config_init+0x64>)
   80b58:	4798      	blx	r3
   80b5a:	4602      	mov	r2, r0
   80b5c:	687b      	ldr	r3, [r7, #4]
   80b5e:	fbb2 f3f3 	udiv	r3, r2, r3
   80b62:	617b      	str	r3, [r7, #20]
		Assert(vco_hz >= PLL_INPUT_MIN_HZ);
		Assert(vco_hz <= PLL_INPUT_MAX_HZ);

		vco_hz *= ul_mul;
   80b64:	697b      	ldr	r3, [r7, #20]
   80b66:	683a      	ldr	r2, [r7, #0]
   80b68:	fb02 f303 	mul.w	r3, r2, r3
   80b6c:	617b      	str	r3, [r7, #20]
		Assert(vco_hz >= PLL_OUTPUT_MIN_HZ);
		Assert(vco_hz <= PLL_OUTPUT_MAX_HZ);

		/* PMC hardware will automatically make it mul+1 */
		p_cfg->ctrl = CKGR_PLLAR_MULA(ul_mul - 1) | CKGR_PLLAR_DIVA(ul_div) | CKGR_PLLAR_PLLACOUNT(PLL_COUNT);
   80b6e:	683b      	ldr	r3, [r7, #0]
   80b70:	3b01      	subs	r3, #1
   80b72:	041a      	lsls	r2, r3, #16
   80b74:	4b07      	ldr	r3, [pc, #28]	; (80b94 <pll_config_init+0x68>)
   80b76:	4013      	ands	r3, r2
   80b78:	687a      	ldr	r2, [r7, #4]
   80b7a:	b2d2      	uxtb	r2, r2
   80b7c:	4313      	orrs	r3, r2
   80b7e:	f443 527c 	orr.w	r2, r3, #16128	; 0x3f00
   80b82:	68fb      	ldr	r3, [r7, #12]
   80b84:	601a      	str	r2, [r3, #0]
	}
}
   80b86:	bf00      	nop
   80b88:	3718      	adds	r7, #24
   80b8a:	46bd      	mov	sp, r7
   80b8c:	bd80      	pop	{r7, pc}
   80b8e:	bf00      	nop
   80b90:	00080a8d 	.word	0x00080a8d
   80b94:	07ff0000 	.word	0x07ff0000

00080b98 <pll_enable>:
		PMC->CKGR_UCKR = p_cfg->ctrl;
	}
}

static inline void pll_enable(const struct pll_config *p_cfg, uint32_t ul_pll_id)
{
   80b98:	b580      	push	{r7, lr}
   80b9a:	b082      	sub	sp, #8
   80b9c:	af00      	add	r7, sp, #0
   80b9e:	6078      	str	r0, [r7, #4]
   80ba0:	6039      	str	r1, [r7, #0]
	Assert(ul_pll_id < NR_PLLS);

	if (ul_pll_id == PLLA_ID) {
   80ba2:	683b      	ldr	r3, [r7, #0]
   80ba4:	2b00      	cmp	r3, #0
   80ba6:	d108      	bne.n	80bba <pll_enable+0x22>
		pmc_disable_pllack(); // Always stop PLL first!
   80ba8:	4b09      	ldr	r3, [pc, #36]	; (80bd0 <pll_enable+0x38>)
   80baa:	4798      	blx	r3
		PMC->CKGR_PLLAR = CKGR_PLLAR_ONE | p_cfg->ctrl;
   80bac:	4a09      	ldr	r2, [pc, #36]	; (80bd4 <pll_enable+0x3c>)
   80bae:	687b      	ldr	r3, [r7, #4]
   80bb0:	681b      	ldr	r3, [r3, #0]
   80bb2:	f043 5300 	orr.w	r3, r3, #536870912	; 0x20000000
   80bb6:	6293      	str	r3, [r2, #40]	; 0x28
	} else {
		PMC->CKGR_UCKR = p_cfg->ctrl | CKGR_UCKR_UPLLEN;
	}
}
   80bb8:	e005      	b.n	80bc6 <pll_enable+0x2e>
		PMC->CKGR_UCKR = p_cfg->ctrl | CKGR_UCKR_UPLLEN;
   80bba:	4a06      	ldr	r2, [pc, #24]	; (80bd4 <pll_enable+0x3c>)
   80bbc:	687b      	ldr	r3, [r7, #4]
   80bbe:	681b      	ldr	r3, [r3, #0]
   80bc0:	f443 3380 	orr.w	r3, r3, #65536	; 0x10000
   80bc4:	61d3      	str	r3, [r2, #28]
}
   80bc6:	bf00      	nop
   80bc8:	3708      	adds	r7, #8
   80bca:	46bd      	mov	sp, r7
   80bcc:	bd80      	pop	{r7, pc}
   80bce:	bf00      	nop
   80bd0:	00080eed 	.word	0x00080eed
   80bd4:	400e0600 	.word	0x400e0600

00080bd8 <pll_is_locked>:
		PMC->CKGR_UCKR &= ~CKGR_UCKR_UPLLEN;
	}
}

static inline uint32_t pll_is_locked(uint32_t ul_pll_id)
{
   80bd8:	b580      	push	{r7, lr}
   80bda:	b082      	sub	sp, #8
   80bdc:	af00      	add	r7, sp, #0
   80bde:	6078      	str	r0, [r7, #4]
	Assert(ul_pll_id < NR_PLLS);

	if (ul_pll_id == PLLA_ID) {
   80be0:	687b      	ldr	r3, [r7, #4]
   80be2:	2b00      	cmp	r3, #0
   80be4:	d103      	bne.n	80bee <pll_is_locked+0x16>
		return pmc_is_locked_pllack();
   80be6:	4b05      	ldr	r3, [pc, #20]	; (80bfc <pll_is_locked+0x24>)
   80be8:	4798      	blx	r3
   80bea:	4603      	mov	r3, r0
   80bec:	e002      	b.n	80bf4 <pll_is_locked+0x1c>
	} else {
		return pmc_is_locked_upll();
   80bee:	4b04      	ldr	r3, [pc, #16]	; (80c00 <pll_is_locked+0x28>)
   80bf0:	4798      	blx	r3
   80bf2:	4603      	mov	r3, r0
	}
}
   80bf4:	4618      	mov	r0, r3
   80bf6:	3708      	adds	r7, #8
   80bf8:	46bd      	mov	sp, r7
   80bfa:	bd80      	pop	{r7, pc}
   80bfc:	00080f05 	.word	0x00080f05
   80c00:	00080f1d 	.word	0x00080f1d

00080c04 <pll_enable_source>:

static inline void pll_enable_source(enum pll_source e_src)
{
   80c04:	b580      	push	{r7, lr}
   80c06:	b082      	sub	sp, #8
   80c08:	af00      	add	r7, sp, #0
   80c0a:	4603      	mov	r3, r0
   80c0c:	71fb      	strb	r3, [r7, #7]
	switch (e_src) {
   80c0e:	79fb      	ldrb	r3, [r7, #7]
   80c10:	3b03      	subs	r3, #3
   80c12:	2b04      	cmp	r3, #4
   80c14:	d808      	bhi.n	80c28 <pll_enable_source+0x24>
	case PLL_SRC_MAINCK_4M_RC:
	case PLL_SRC_MAINCK_8M_RC:
	case PLL_SRC_MAINCK_12M_RC:
	case PLL_SRC_MAINCK_XTAL:
	case PLL_SRC_MAINCK_BYPASS:
		osc_enable(e_src);
   80c16:	79fb      	ldrb	r3, [r7, #7]
   80c18:	4618      	mov	r0, r3
   80c1a:	4b06      	ldr	r3, [pc, #24]	; (80c34 <pll_enable_source+0x30>)
   80c1c:	4798      	blx	r3
		osc_wait_ready(e_src);
   80c1e:	79fb      	ldrb	r3, [r7, #7]
   80c20:	4618      	mov	r0, r3
   80c22:	4b05      	ldr	r3, [pc, #20]	; (80c38 <pll_enable_source+0x34>)
   80c24:	4798      	blx	r3
		break;
   80c26:	e000      	b.n	80c2a <pll_enable_source+0x26>

	default:
		Assert(false);
		break;
   80c28:	bf00      	nop
	}
}
   80c2a:	bf00      	nop
   80c2c:	3708      	adds	r7, #8
   80c2e:	46bd      	mov	sp, r7
   80c30:	bd80      	pop	{r7, pc}
   80c32:	bf00      	nop
   80c34:	00080995 	.word	0x00080995
   80c38:	00080b01 	.word	0x00080b01

00080c3c <pll_wait_for_lock>:
 *
 * \retval STATUS_OK The PLL is now locked.
 * \retval ERR_TIMEOUT Timed out waiting for PLL to become locked.
 */
static inline int pll_wait_for_lock(unsigned int pll_id)
{
   80c3c:	b580      	push	{r7, lr}
   80c3e:	b082      	sub	sp, #8
   80c40:	af00      	add	r7, sp, #0
   80c42:	6078      	str	r0, [r7, #4]
	Assert(pll_id < NR_PLLS);

	while (!pll_is_locked(pll_id)) {
   80c44:	bf00      	nop
   80c46:	6878      	ldr	r0, [r7, #4]
   80c48:	4b04      	ldr	r3, [pc, #16]	; (80c5c <pll_wait_for_lock+0x20>)
   80c4a:	4798      	blx	r3
   80c4c:	4603      	mov	r3, r0
   80c4e:	2b00      	cmp	r3, #0
   80c50:	d0f9      	beq.n	80c46 <pll_wait_for_lock+0xa>
		/* Do nothing */
	}

	return 0;
   80c52:	2300      	movs	r3, #0
}
   80c54:	4618      	mov	r0, r3
   80c56:	3708      	adds	r7, #8
   80c58:	46bd      	mov	sp, r7
   80c5a:	bd80      	pop	{r7, pc}
   80c5c:	00080bd9 	.word	0x00080bd9

00080c60 <sysclk_get_main_hz>:
{
   80c60:	b580      	push	{r7, lr}
   80c62:	af00      	add	r7, sp, #0
		return pll_get_default_rate(0);
   80c64:	2006      	movs	r0, #6
   80c66:	4b04      	ldr	r3, [pc, #16]	; (80c78 <sysclk_get_main_hz+0x18>)
   80c68:	4798      	blx	r3
   80c6a:	4602      	mov	r2, r0
   80c6c:	4613      	mov	r3, r2
   80c6e:	00db      	lsls	r3, r3, #3
   80c70:	1a9b      	subs	r3, r3, r2
   80c72:	005b      	lsls	r3, r3, #1
}
   80c74:	4618      	mov	r0, r3
   80c76:	bd80      	pop	{r7, pc}
   80c78:	00080a8d 	.word	0x00080a8d

00080c7c <sysclk_get_cpu_hz>:
{
   80c7c:	b580      	push	{r7, lr}
   80c7e:	af00      	add	r7, sp, #0
	return sysclk_get_main_hz() /
   80c80:	4b02      	ldr	r3, [pc, #8]	; (80c8c <sysclk_get_cpu_hz+0x10>)
   80c82:	4798      	blx	r3
   80c84:	4603      	mov	r3, r0
   80c86:	085b      	lsrs	r3, r3, #1
}
   80c88:	4618      	mov	r0, r3
   80c8a:	bd80      	pop	{r7, pc}
   80c8c:	00080c61 	.word	0x00080c61

00080c90 <sysclk_init>:
	pmc_disable_udpck();
}
#endif // CONFIG_USBCLK_SOURCE

void sysclk_init(void)
{
   80c90:	b590      	push	{r4, r7, lr}
   80c92:	b083      	sub	sp, #12
   80c94:	af00      	add	r7, sp, #0
	struct pll_config pllcfg;

	/* Set flash wait state to max in case the below clock switching. */
	system_init_flash(CHIP_FREQ_CPU_MAX);
   80c96:	4811      	ldr	r0, [pc, #68]	; (80cdc <sysclk_init+0x4c>)
   80c98:	4b11      	ldr	r3, [pc, #68]	; (80ce0 <sysclk_init+0x50>)
   80c9a:	4798      	blx	r3
		pmc_switch_mck_to_mainck(CONFIG_SYSCLK_PRES);
	}

#ifdef CONFIG_PLL0_SOURCE
	else if (CONFIG_SYSCLK_SOURCE == SYSCLK_SRC_PLLACK) {
		pll_enable_source(CONFIG_PLL0_SOURCE);
   80c9c:	2006      	movs	r0, #6
   80c9e:	4b11      	ldr	r3, [pc, #68]	; (80ce4 <sysclk_init+0x54>)
   80ca0:	4798      	blx	r3
		pll_config_defaults(&pllcfg, 0);
   80ca2:	1d38      	adds	r0, r7, #4
   80ca4:	230e      	movs	r3, #14
   80ca6:	2201      	movs	r2, #1
   80ca8:	2106      	movs	r1, #6
   80caa:	4c0f      	ldr	r4, [pc, #60]	; (80ce8 <sysclk_init+0x58>)
   80cac:	47a0      	blx	r4
		pll_enable(&pllcfg, 0);
   80cae:	1d3b      	adds	r3, r7, #4
   80cb0:	2100      	movs	r1, #0
   80cb2:	4618      	mov	r0, r3
   80cb4:	4b0d      	ldr	r3, [pc, #52]	; (80cec <sysclk_init+0x5c>)
   80cb6:	4798      	blx	r3
		pll_wait_for_lock(0);
   80cb8:	2000      	movs	r0, #0
   80cba:	4b0d      	ldr	r3, [pc, #52]	; (80cf0 <sysclk_init+0x60>)
   80cbc:	4798      	blx	r3
		pmc_switch_mck_to_pllack(CONFIG_SYSCLK_PRES);
   80cbe:	2010      	movs	r0, #16
   80cc0:	4b0c      	ldr	r3, [pc, #48]	; (80cf4 <sysclk_init+0x64>)
   80cc2:	4798      	blx	r3
		pll_wait_for_lock(1);
		pmc_switch_mck_to_upllck(CONFIG_SYSCLK_PRES);
	}

	/* Update the SystemFrequency variable */
	SystemCoreClockUpdate();
   80cc4:	4b0c      	ldr	r3, [pc, #48]	; (80cf8 <sysclk_init+0x68>)
   80cc6:	4798      	blx	r3

	/* Set a flash wait state depending on the new cpu frequency */
	system_init_flash(sysclk_get_cpu_hz());
   80cc8:	4b0c      	ldr	r3, [pc, #48]	; (80cfc <sysclk_init+0x6c>)
   80cca:	4798      	blx	r3
   80ccc:	4603      	mov	r3, r0
   80cce:	4618      	mov	r0, r3
   80cd0:	4b03      	ldr	r3, [pc, #12]	; (80ce0 <sysclk_init+0x50>)
   80cd2:	4798      	blx	r3

#if (defined CONFIG_SYSCLK_DEFAULT_RETURNS_SLOW_OSC)
	/* Signal that the internal frequencies are setup */
	sysclk_initialized = 1;
#endif
}
   80cd4:	bf00      	nop
   80cd6:	370c      	adds	r7, #12
   80cd8:	46bd      	mov	sp, r7
   80cda:	bd90      	pop	{r4, r7, pc}
   80cdc:	0501bd00 	.word	0x0501bd00
   80ce0:	200700d1 	.word	0x200700d1
   80ce4:	00080c05 	.word	0x00080c05
   80ce8:	00080b2d 	.word	0x00080b2d
   80cec:	00080b99 	.word	0x00080b99
   80cf0:	00080c3d 	.word	0x00080c3d
   80cf4:	00080d01 	.word	0x00080d01
   80cf8:	000813ad 	.word	0x000813ad
   80cfc:	00080c7d 	.word	0x00080c7d

00080d00 <pmc_switch_mck_to_pllack>:
 *
 * \retval 0 Success.
 * \retval 1 Timeout error.
 */
uint32_t pmc_switch_mck_to_pllack(uint32_t ul_pres)
{
   80d00:	b480      	push	{r7}
   80d02:	b085      	sub	sp, #20
   80d04:	af00      	add	r7, sp, #0
   80d06:	6078      	str	r0, [r7, #4]
	uint32_t ul_timeout;

	PMC->PMC_MCKR = (PMC->PMC_MCKR & (~PMC_MCKR_PRES_Msk)) | ul_pres;
   80d08:	491c      	ldr	r1, [pc, #112]	; (80d7c <pmc_switch_mck_to_pllack+0x7c>)
   80d0a:	4b1c      	ldr	r3, [pc, #112]	; (80d7c <pmc_switch_mck_to_pllack+0x7c>)
   80d0c:	6b1b      	ldr	r3, [r3, #48]	; 0x30
   80d0e:	f023 0270 	bic.w	r2, r3, #112	; 0x70
   80d12:	687b      	ldr	r3, [r7, #4]
   80d14:	4313      	orrs	r3, r2
   80d16:	630b      	str	r3, [r1, #48]	; 0x30
	for (ul_timeout = PMC_TIMEOUT; !(PMC->PMC_SR & PMC_SR_MCKRDY);
   80d18:	f44f 6300 	mov.w	r3, #2048	; 0x800
   80d1c:	60fb      	str	r3, [r7, #12]
   80d1e:	e007      	b.n	80d30 <pmc_switch_mck_to_pllack+0x30>
			--ul_timeout) {
		if (ul_timeout == 0) {
   80d20:	68fb      	ldr	r3, [r7, #12]
   80d22:	2b00      	cmp	r3, #0
   80d24:	d101      	bne.n	80d2a <pmc_switch_mck_to_pllack+0x2a>
			return 1;
   80d26:	2301      	movs	r3, #1
   80d28:	e023      	b.n	80d72 <pmc_switch_mck_to_pllack+0x72>
			--ul_timeout) {
   80d2a:	68fb      	ldr	r3, [r7, #12]
   80d2c:	3b01      	subs	r3, #1
   80d2e:	60fb      	str	r3, [r7, #12]
	for (ul_timeout = PMC_TIMEOUT; !(PMC->PMC_SR & PMC_SR_MCKRDY);
   80d30:	4b12      	ldr	r3, [pc, #72]	; (80d7c <pmc_switch_mck_to_pllack+0x7c>)
   80d32:	6e9b      	ldr	r3, [r3, #104]	; 0x68
   80d34:	f003 0308 	and.w	r3, r3, #8
   80d38:	2b00      	cmp	r3, #0
   80d3a:	d0f1      	beq.n	80d20 <pmc_switch_mck_to_pllack+0x20>
		}
	}

	PMC->PMC_MCKR = (PMC->PMC_MCKR & (~PMC_MCKR_CSS_Msk)) |
   80d3c:	4a0f      	ldr	r2, [pc, #60]	; (80d7c <pmc_switch_mck_to_pllack+0x7c>)
   80d3e:	4b0f      	ldr	r3, [pc, #60]	; (80d7c <pmc_switch_mck_to_pllack+0x7c>)
   80d40:	6b1b      	ldr	r3, [r3, #48]	; 0x30
   80d42:	f023 0303 	bic.w	r3, r3, #3
   80d46:	f043 0302 	orr.w	r3, r3, #2
   80d4a:	6313      	str	r3, [r2, #48]	; 0x30
			PMC_MCKR_CSS_PLLA_CLK;

	for (ul_timeout = PMC_TIMEOUT; !(PMC->PMC_SR & PMC_SR_MCKRDY);
   80d4c:	f44f 6300 	mov.w	r3, #2048	; 0x800
   80d50:	60fb      	str	r3, [r7, #12]
   80d52:	e007      	b.n	80d64 <pmc_switch_mck_to_pllack+0x64>
			--ul_timeout) {
		if (ul_timeout == 0) {
   80d54:	68fb      	ldr	r3, [r7, #12]
   80d56:	2b00      	cmp	r3, #0
   80d58:	d101      	bne.n	80d5e <pmc_switch_mck_to_pllack+0x5e>
			return 1;
   80d5a:	2301      	movs	r3, #1
   80d5c:	e009      	b.n	80d72 <pmc_switch_mck_to_pllack+0x72>
			--ul_timeout) {
   80d5e:	68fb      	ldr	r3, [r7, #12]
   80d60:	3b01      	subs	r3, #1
   80d62:	60fb      	str	r3, [r7, #12]
	for (ul_timeout = PMC_TIMEOUT; !(PMC->PMC_SR & PMC_SR_MCKRDY);
   80d64:	4b05      	ldr	r3, [pc, #20]	; (80d7c <pmc_switch_mck_to_pllack+0x7c>)
   80d66:	6e9b      	ldr	r3, [r3, #104]	; 0x68
   80d68:	f003 0308 	and.w	r3, r3, #8
   80d6c:	2b00      	cmp	r3, #0
   80d6e:	d0f1      	beq.n	80d54 <pmc_switch_mck_to_pllack+0x54>
		}
	}

	return 0;
   80d70:	2300      	movs	r3, #0
}
   80d72:	4618      	mov	r0, r3
   80d74:	3714      	adds	r7, #20
   80d76:	46bd      	mov	sp, r7
   80d78:	bc80      	pop	{r7}
   80d7a:	4770      	bx	lr
   80d7c:	400e0600 	.word	0x400e0600

00080d80 <pmc_switch_sclk_to_32kxtal>:
 *       VDDIO power supply.
 *
 * \param ul_bypass 0 for Xtal, 1 for bypass.
 */
void pmc_switch_sclk_to_32kxtal(uint32_t ul_bypass)
{
   80d80:	b480      	push	{r7}
   80d82:	b083      	sub	sp, #12
   80d84:	af00      	add	r7, sp, #0
   80d86:	6078      	str	r0, [r7, #4]
	/* Set Bypass mode if required */
	if (ul_bypass == 1) {
   80d88:	687b      	ldr	r3, [r7, #4]
   80d8a:	2b01      	cmp	r3, #1
   80d8c:	d107      	bne.n	80d9e <pmc_switch_sclk_to_32kxtal+0x1e>
		SUPC->SUPC_MR |= SUPC_MR_KEY_PASSWD |
   80d8e:	4a08      	ldr	r2, [pc, #32]	; (80db0 <pmc_switch_sclk_to_32kxtal+0x30>)
   80d90:	4b07      	ldr	r3, [pc, #28]	; (80db0 <pmc_switch_sclk_to_32kxtal+0x30>)
   80d92:	689b      	ldr	r3, [r3, #8]
   80d94:	f043 4325 	orr.w	r3, r3, #2768240640	; 0xa5000000
   80d98:	f443 1380 	orr.w	r3, r3, #1048576	; 0x100000
   80d9c:	6093      	str	r3, [r2, #8]
			SUPC_MR_OSCBYPASS;
	}

	SUPC->SUPC_CR = SUPC_CR_KEY_PASSWD | SUPC_CR_XTALSEL;
   80d9e:	4b04      	ldr	r3, [pc, #16]	; (80db0 <pmc_switch_sclk_to_32kxtal+0x30>)
   80da0:	4a04      	ldr	r2, [pc, #16]	; (80db4 <pmc_switch_sclk_to_32kxtal+0x34>)
   80da2:	601a      	str	r2, [r3, #0]
}
   80da4:	bf00      	nop
   80da6:	370c      	adds	r7, #12
   80da8:	46bd      	mov	sp, r7
   80daa:	bc80      	pop	{r7}
   80dac:	4770      	bx	lr
   80dae:	bf00      	nop
   80db0:	400e1a10 	.word	0x400e1a10
   80db4:	a5000008 	.word	0xa5000008

00080db8 <pmc_osc_is_ready_32kxtal>:
 *
 * \retval 1 External 32k Xtal is ready.
 * \retval 0 External 32k Xtal is not ready.
 */
uint32_t pmc_osc_is_ready_32kxtal(void)
{
   80db8:	b480      	push	{r7}
   80dba:	af00      	add	r7, sp, #0
	return ((SUPC->SUPC_SR & SUPC_SR_OSCSEL)
   80dbc:	4b09      	ldr	r3, [pc, #36]	; (80de4 <pmc_osc_is_ready_32kxtal+0x2c>)
   80dbe:	695b      	ldr	r3, [r3, #20]
   80dc0:	f003 0380 	and.w	r3, r3, #128	; 0x80
			&& (PMC->PMC_SR & PMC_SR_OSCSELS));
   80dc4:	2b00      	cmp	r3, #0
   80dc6:	d007      	beq.n	80dd8 <pmc_osc_is_ready_32kxtal+0x20>
   80dc8:	4b07      	ldr	r3, [pc, #28]	; (80de8 <pmc_osc_is_ready_32kxtal+0x30>)
   80dca:	6e9b      	ldr	r3, [r3, #104]	; 0x68
   80dcc:	f003 0380 	and.w	r3, r3, #128	; 0x80
   80dd0:	2b00      	cmp	r3, #0
   80dd2:	d001      	beq.n	80dd8 <pmc_osc_is_ready_32kxtal+0x20>
   80dd4:	2301      	movs	r3, #1
   80dd6:	e000      	b.n	80dda <pmc_osc_is_ready_32kxtal+0x22>
   80dd8:	2300      	movs	r3, #0
}
   80dda:	4618      	mov	r0, r3
   80ddc:	46bd      	mov	sp, r7
   80dde:	bc80      	pop	{r7}
   80de0:	4770      	bx	lr
   80de2:	bf00      	nop
   80de4:	400e1a10 	.word	0x400e1a10
   80de8:	400e0600 	.word	0x400e0600

00080dec <pmc_switch_mainck_to_fastrc>:
 * \retval 0 Success.
 * \retval 1 Timeout error.
 * \retval 2 Invalid frequency.
 */
void pmc_switch_mainck_to_fastrc(uint32_t ul_moscrcf)
{
   80dec:	b480      	push	{r7}
   80dee:	b083      	sub	sp, #12
   80df0:	af00      	add	r7, sp, #0
   80df2:	6078      	str	r0, [r7, #4]
	/* Enable Fast RC oscillator but DO NOT switch to RC now */
	PMC->CKGR_MOR |= (CKGR_MOR_KEY_PASSWD | CKGR_MOR_MOSCRCEN);
   80df4:	4a18      	ldr	r2, [pc, #96]	; (80e58 <pmc_switch_mainck_to_fastrc+0x6c>)
   80df6:	4b18      	ldr	r3, [pc, #96]	; (80e58 <pmc_switch_mainck_to_fastrc+0x6c>)
   80df8:	6a1b      	ldr	r3, [r3, #32]
   80dfa:	f443 135c 	orr.w	r3, r3, #3604480	; 0x370000
   80dfe:	f043 0308 	orr.w	r3, r3, #8
   80e02:	6213      	str	r3, [r2, #32]

	/* Wait the Fast RC to stabilize */
	while (!(PMC->PMC_SR & PMC_SR_MOSCRCS));
   80e04:	bf00      	nop
   80e06:	4b14      	ldr	r3, [pc, #80]	; (80e58 <pmc_switch_mainck_to_fastrc+0x6c>)
   80e08:	6e9b      	ldr	r3, [r3, #104]	; 0x68
   80e0a:	f403 3300 	and.w	r3, r3, #131072	; 0x20000
   80e0e:	2b00      	cmp	r3, #0
   80e10:	d0f9      	beq.n	80e06 <pmc_switch_mainck_to_fastrc+0x1a>

	/* Change Fast RC oscillator frequency */
	PMC->CKGR_MOR = (PMC->CKGR_MOR & ~CKGR_MOR_MOSCRCF_Msk) |
   80e12:	4911      	ldr	r1, [pc, #68]	; (80e58 <pmc_switch_mainck_to_fastrc+0x6c>)
   80e14:	4b10      	ldr	r3, [pc, #64]	; (80e58 <pmc_switch_mainck_to_fastrc+0x6c>)
   80e16:	6a1b      	ldr	r3, [r3, #32]
   80e18:	f423 135c 	bic.w	r3, r3, #3604480	; 0x370000
   80e1c:	f023 0370 	bic.w	r3, r3, #112	; 0x70
			CKGR_MOR_KEY_PASSWD | ul_moscrcf;
   80e20:	687a      	ldr	r2, [r7, #4]
   80e22:	4313      	orrs	r3, r2
   80e24:	f443 135c 	orr.w	r3, r3, #3604480	; 0x370000
	PMC->CKGR_MOR = (PMC->CKGR_MOR & ~CKGR_MOR_MOSCRCF_Msk) |
   80e28:	620b      	str	r3, [r1, #32]

	/* Wait the Fast RC to stabilize */
	while (!(PMC->PMC_SR & PMC_SR_MOSCRCS));
   80e2a:	bf00      	nop
   80e2c:	4b0a      	ldr	r3, [pc, #40]	; (80e58 <pmc_switch_mainck_to_fastrc+0x6c>)
   80e2e:	6e9b      	ldr	r3, [r3, #104]	; 0x68
   80e30:	f403 3300 	and.w	r3, r3, #131072	; 0x20000
   80e34:	2b00      	cmp	r3, #0
   80e36:	d0f9      	beq.n	80e2c <pmc_switch_mainck_to_fastrc+0x40>

	/* Switch to Fast RC */
	PMC->CKGR_MOR = (PMC->CKGR_MOR & ~CKGR_MOR_MOSCSEL) |
   80e38:	4a07      	ldr	r2, [pc, #28]	; (80e58 <pmc_switch_mainck_to_fastrc+0x6c>)
   80e3a:	4b07      	ldr	r3, [pc, #28]	; (80e58 <pmc_switch_mainck_to_fastrc+0x6c>)
   80e3c:	6a1b      	ldr	r3, [r3, #32]
   80e3e:	f023 739b 	bic.w	r3, r3, #20316160	; 0x1360000
   80e42:	f423 3380 	bic.w	r3, r3, #65536	; 0x10000
   80e46:	f443 135c 	orr.w	r3, r3, #3604480	; 0x370000
   80e4a:	6213      	str	r3, [r2, #32]
			CKGR_MOR_KEY_PASSWD;
}
   80e4c:	bf00      	nop
   80e4e:	370c      	adds	r7, #12
   80e50:	46bd      	mov	sp, r7
   80e52:	bc80      	pop	{r7}
   80e54:	4770      	bx	lr
   80e56:	bf00      	nop
   80e58:	400e0600 	.word	0x400e0600

00080e5c <pmc_switch_mainck_to_xtal>:
 * \retval 0 Success.
 * \retval 1 Timeout error.
 */
void pmc_switch_mainck_to_xtal(uint32_t ul_bypass,
		uint32_t ul_xtal_startup_time)
{
   80e5c:	b480      	push	{r7}
   80e5e:	b083      	sub	sp, #12
   80e60:	af00      	add	r7, sp, #0
   80e62:	6078      	str	r0, [r7, #4]
   80e64:	6039      	str	r1, [r7, #0]
	/* Enable Main Xtal oscillator */
	if (ul_bypass) {
   80e66:	687b      	ldr	r3, [r7, #4]
   80e68:	2b00      	cmp	r3, #0
   80e6a:	d008      	beq.n	80e7e <pmc_switch_mainck_to_xtal+0x22>
		PMC->CKGR_MOR = (PMC->CKGR_MOR & ~CKGR_MOR_MOSCXTEN) |
   80e6c:	4916      	ldr	r1, [pc, #88]	; (80ec8 <pmc_switch_mainck_to_xtal+0x6c>)
   80e6e:	4b16      	ldr	r3, [pc, #88]	; (80ec8 <pmc_switch_mainck_to_xtal+0x6c>)
   80e70:	6a1b      	ldr	r3, [r3, #32]
				CKGR_MOR_KEY_PASSWD | CKGR_MOR_MOSCXTBY |
   80e72:	4a16      	ldr	r2, [pc, #88]	; (80ecc <pmc_switch_mainck_to_xtal+0x70>)
   80e74:	401a      	ands	r2, r3
   80e76:	4b16      	ldr	r3, [pc, #88]	; (80ed0 <pmc_switch_mainck_to_xtal+0x74>)
   80e78:	4313      	orrs	r3, r2
		PMC->CKGR_MOR = (PMC->CKGR_MOR & ~CKGR_MOR_MOSCXTEN) |
   80e7a:	620b      	str	r3, [r1, #32]
		/* Wait the Xtal to stabilize */
		while (!(PMC->PMC_SR & PMC_SR_MOSCXTS));

		PMC->CKGR_MOR |= CKGR_MOR_KEY_PASSWD | CKGR_MOR_MOSCSEL;
	}
}
   80e7c:	e01e      	b.n	80ebc <pmc_switch_mainck_to_xtal+0x60>
		PMC->CKGR_MOR = (PMC->CKGR_MOR & ~CKGR_MOR_MOSCXTBY) |
   80e7e:	4912      	ldr	r1, [pc, #72]	; (80ec8 <pmc_switch_mainck_to_xtal+0x6c>)
   80e80:	4b11      	ldr	r3, [pc, #68]	; (80ec8 <pmc_switch_mainck_to_xtal+0x6c>)
   80e82:	6a1b      	ldr	r3, [r3, #32]
				CKGR_MOR_KEY_PASSWD | CKGR_MOR_MOSCXTEN |
   80e84:	f423 135c 	bic.w	r3, r3, #3604480	; 0x370000
   80e88:	f023 0303 	bic.w	r3, r3, #3
				CKGR_MOR_MOSCXTST(ul_xtal_startup_time);
   80e8c:	683a      	ldr	r2, [r7, #0]
   80e8e:	0212      	lsls	r2, r2, #8
   80e90:	b292      	uxth	r2, r2
				CKGR_MOR_KEY_PASSWD | CKGR_MOR_MOSCXTEN |
   80e92:	4313      	orrs	r3, r2
   80e94:	f443 135c 	orr.w	r3, r3, #3604480	; 0x370000
   80e98:	f043 0301 	orr.w	r3, r3, #1
		PMC->CKGR_MOR = (PMC->CKGR_MOR & ~CKGR_MOR_MOSCXTBY) |
   80e9c:	620b      	str	r3, [r1, #32]
		while (!(PMC->PMC_SR & PMC_SR_MOSCXTS));
   80e9e:	bf00      	nop
   80ea0:	4b09      	ldr	r3, [pc, #36]	; (80ec8 <pmc_switch_mainck_to_xtal+0x6c>)
   80ea2:	6e9b      	ldr	r3, [r3, #104]	; 0x68
   80ea4:	f003 0301 	and.w	r3, r3, #1
   80ea8:	2b00      	cmp	r3, #0
   80eaa:	d0f9      	beq.n	80ea0 <pmc_switch_mainck_to_xtal+0x44>
		PMC->CKGR_MOR |= CKGR_MOR_KEY_PASSWD | CKGR_MOR_MOSCSEL;
   80eac:	4a06      	ldr	r2, [pc, #24]	; (80ec8 <pmc_switch_mainck_to_xtal+0x6c>)
   80eae:	4b06      	ldr	r3, [pc, #24]	; (80ec8 <pmc_switch_mainck_to_xtal+0x6c>)
   80eb0:	6a1b      	ldr	r3, [r3, #32]
   80eb2:	f043 739b 	orr.w	r3, r3, #20316160	; 0x1360000
   80eb6:	f443 3380 	orr.w	r3, r3, #65536	; 0x10000
   80eba:	6213      	str	r3, [r2, #32]
}
   80ebc:	bf00      	nop
   80ebe:	370c      	adds	r7, #12
   80ec0:	46bd      	mov	sp, r7
   80ec2:	bc80      	pop	{r7}
   80ec4:	4770      	bx	lr
   80ec6:	bf00      	nop
   80ec8:	400e0600 	.word	0x400e0600
   80ecc:	fec8fffc 	.word	0xfec8fffc
   80ed0:	01370002 	.word	0x01370002

00080ed4 <pmc_osc_is_ready_mainck>:
 *
 * \retval 1 Xtal is ready.
 * \retval 0 Xtal is not ready.
 */
uint32_t pmc_osc_is_ready_mainck(void)
{
   80ed4:	b480      	push	{r7}
   80ed6:	af00      	add	r7, sp, #0
	return PMC->PMC_SR & PMC_SR_MOSCSELS;
   80ed8:	4b03      	ldr	r3, [pc, #12]	; (80ee8 <pmc_osc_is_ready_mainck+0x14>)
   80eda:	6e9b      	ldr	r3, [r3, #104]	; 0x68
   80edc:	f403 3380 	and.w	r3, r3, #65536	; 0x10000
}
   80ee0:	4618      	mov	r0, r3
   80ee2:	46bd      	mov	sp, r7
   80ee4:	bc80      	pop	{r7}
   80ee6:	4770      	bx	lr
   80ee8:	400e0600 	.word	0x400e0600

00080eec <pmc_disable_pllack>:

/**
 * \brief Disable PLLA clock.
 */
void pmc_disable_pllack(void)
{
   80eec:	b480      	push	{r7}
   80eee:	af00      	add	r7, sp, #0
#if (SAM4C || SAM4CM || SAM4CP || SAMG)
	PMC->CKGR_PLLAR = CKGR_PLLAR_MULA(0);
#else
	PMC->CKGR_PLLAR = CKGR_PLLAR_ONE | CKGR_PLLAR_MULA(0);
   80ef0:	4b03      	ldr	r3, [pc, #12]	; (80f00 <pmc_disable_pllack+0x14>)
   80ef2:	f04f 5200 	mov.w	r2, #536870912	; 0x20000000
   80ef6:	629a      	str	r2, [r3, #40]	; 0x28
#endif
}
   80ef8:	bf00      	nop
   80efa:	46bd      	mov	sp, r7
   80efc:	bc80      	pop	{r7}
   80efe:	4770      	bx	lr
   80f00:	400e0600 	.word	0x400e0600

00080f04 <pmc_is_locked_pllack>:
 *
 * \retval 0 Not locked.
 * \retval 1 Locked.
 */
uint32_t pmc_is_locked_pllack(void)
{
   80f04:	b480      	push	{r7}
   80f06:	af00      	add	r7, sp, #0
	return (PMC->PMC_SR & PMC_SR_LOCKA);
   80f08:	4b03      	ldr	r3, [pc, #12]	; (80f18 <pmc_is_locked_pllack+0x14>)
   80f0a:	6e9b      	ldr	r3, [r3, #104]	; 0x68
   80f0c:	f003 0302 	and.w	r3, r3, #2
}
   80f10:	4618      	mov	r0, r3
   80f12:	46bd      	mov	sp, r7
   80f14:	bc80      	pop	{r7}
   80f16:	4770      	bx	lr
   80f18:	400e0600 	.word	0x400e0600

00080f1c <pmc_is_locked_upll>:
 *
 * \retval 0 Not locked.
 * \retval 1 Locked.
 */
uint32_t pmc_is_locked_upll(void)
{
   80f1c:	b480      	push	{r7}
   80f1e:	af00      	add	r7, sp, #0
	return (PMC->PMC_SR & PMC_SR_LOCKU);
   80f20:	4b03      	ldr	r3, [pc, #12]	; (80f30 <pmc_is_locked_upll+0x14>)
   80f22:	6e9b      	ldr	r3, [r3, #104]	; 0x68
   80f24:	f003 0340 	and.w	r3, r3, #64	; 0x40
}
   80f28:	4618      	mov	r0, r3
   80f2a:	46bd      	mov	sp, r7
   80f2c:	bc80      	pop	{r7}
   80f2e:	4770      	bx	lr
   80f30:	400e0600 	.word	0x400e0600

00080f34 <pmc_enable_periph_clk>:
 *
 * \retval 0 Success.
 * \retval 1 Invalid parameter.
 */
uint32_t pmc_enable_periph_clk(uint32_t ul_id)
{
   80f34:	b480      	push	{r7}
   80f36:	b083      	sub	sp, #12
   80f38:	af00      	add	r7, sp, #0
   80f3a:	6078      	str	r0, [r7, #4]
	if (ul_id > MAX_PERIPH_ID) {
   80f3c:	687b      	ldr	r3, [r7, #4]
   80f3e:	2b2c      	cmp	r3, #44	; 0x2c
   80f40:	d901      	bls.n	80f46 <pmc_enable_periph_clk+0x12>
		return 1;
   80f42:	2301      	movs	r3, #1
   80f44:	e02f      	b.n	80fa6 <pmc_enable_periph_clk+0x72>
	}

	if (ul_id < 32) {
   80f46:	687b      	ldr	r3, [r7, #4]
   80f48:	2b1f      	cmp	r3, #31
   80f4a:	d813      	bhi.n	80f74 <pmc_enable_periph_clk+0x40>
		if ((PMC->PMC_PCSR0 & (1u << ul_id)) != (1u << ul_id)) {
   80f4c:	4b18      	ldr	r3, [pc, #96]	; (80fb0 <pmc_enable_periph_clk+0x7c>)
   80f4e:	699a      	ldr	r2, [r3, #24]
   80f50:	2101      	movs	r1, #1
   80f52:	687b      	ldr	r3, [r7, #4]
   80f54:	fa01 f303 	lsl.w	r3, r1, r3
   80f58:	401a      	ands	r2, r3
   80f5a:	2101      	movs	r1, #1
   80f5c:	687b      	ldr	r3, [r7, #4]
   80f5e:	fa01 f303 	lsl.w	r3, r1, r3
   80f62:	429a      	cmp	r2, r3
   80f64:	d01e      	beq.n	80fa4 <pmc_enable_periph_clk+0x70>
			PMC->PMC_PCER0 = 1 << ul_id;
   80f66:	4a12      	ldr	r2, [pc, #72]	; (80fb0 <pmc_enable_periph_clk+0x7c>)
   80f68:	2101      	movs	r1, #1
   80f6a:	687b      	ldr	r3, [r7, #4]
   80f6c:	fa01 f303 	lsl.w	r3, r1, r3
   80f70:	6113      	str	r3, [r2, #16]
   80f72:	e017      	b.n	80fa4 <pmc_enable_periph_clk+0x70>
		}
#if (SAM3S || SAM3XA || SAM4S || SAM4E || SAM4C || SAM4CM || SAM4CP || SAMG55 || SAMV71 || SAMV70 || SAME70 || SAMS70)
	} else {
		ul_id -= 32;
   80f74:	687b      	ldr	r3, [r7, #4]
   80f76:	3b20      	subs	r3, #32
   80f78:	607b      	str	r3, [r7, #4]
		if ((PMC->PMC_PCSR1 & (1u << ul_id)) != (1u << ul_id)) {
   80f7a:	4b0d      	ldr	r3, [pc, #52]	; (80fb0 <pmc_enable_periph_clk+0x7c>)
   80f7c:	f8d3 2108 	ldr.w	r2, [r3, #264]	; 0x108
   80f80:	2101      	movs	r1, #1
   80f82:	687b      	ldr	r3, [r7, #4]
   80f84:	fa01 f303 	lsl.w	r3, r1, r3
   80f88:	401a      	ands	r2, r3
   80f8a:	2101      	movs	r1, #1
   80f8c:	687b      	ldr	r3, [r7, #4]
   80f8e:	fa01 f303 	lsl.w	r3, r1, r3
   80f92:	429a      	cmp	r2, r3
   80f94:	d006      	beq.n	80fa4 <pmc_enable_periph_clk+0x70>
			PMC->PMC_PCER1 = 1 << ul_id;
   80f96:	4a06      	ldr	r2, [pc, #24]	; (80fb0 <pmc_enable_periph_clk+0x7c>)
   80f98:	2101      	movs	r1, #1
   80f9a:	687b      	ldr	r3, [r7, #4]
   80f9c:	fa01 f303 	lsl.w	r3, r1, r3
   80fa0:	f8c2 3100 	str.w	r3, [r2, #256]	; 0x100
		}
#endif
	}

	return 0;
   80fa4:	2300      	movs	r3, #0
}
   80fa6:	4618      	mov	r0, r3
   80fa8:	370c      	adds	r7, #12
   80faa:	46bd      	mov	sp, r7
   80fac:	bc80      	pop	{r7}
   80fae:	4770      	bx	lr
   80fb0:	400e0600 	.word	0x400e0600

00080fb4 <sysclk_enable_peripheral_clock>:
{
   80fb4:	b580      	push	{r7, lr}
   80fb6:	b082      	sub	sp, #8
   80fb8:	af00      	add	r7, sp, #0
   80fba:	6078      	str	r0, [r7, #4]
	pmc_enable_periph_clk(ul_id);
   80fbc:	6878      	ldr	r0, [r7, #4]
   80fbe:	4b03      	ldr	r3, [pc, #12]	; (80fcc <sysclk_enable_peripheral_clock+0x18>)
   80fc0:	4798      	blx	r3
}
   80fc2:	bf00      	nop
   80fc4:	3708      	adds	r7, #8
   80fc6:	46bd      	mov	sp, r7
   80fc8:	bd80      	pop	{r7, pc}
   80fca:	bf00      	nop
   80fcc:	00080f35 	.word	0x00080f35

00080fd0 <ioport_init>:
{
   80fd0:	b580      	push	{r7, lr}
   80fd2:	af00      	add	r7, sp, #0
	sysclk_enable_peripheral_clock(ID_PIOA);
   80fd4:	200b      	movs	r0, #11
   80fd6:	4b06      	ldr	r3, [pc, #24]	; (80ff0 <ioport_init+0x20>)
   80fd8:	4798      	blx	r3
	sysclk_enable_peripheral_clock(ID_PIOB);
   80fda:	200c      	movs	r0, #12
   80fdc:	4b04      	ldr	r3, [pc, #16]	; (80ff0 <ioport_init+0x20>)
   80fde:	4798      	blx	r3
	sysclk_enable_peripheral_clock(ID_PIOC);
   80fe0:	200d      	movs	r0, #13
   80fe2:	4b03      	ldr	r3, [pc, #12]	; (80ff0 <ioport_init+0x20>)
   80fe4:	4798      	blx	r3
	sysclk_enable_peripheral_clock(ID_PIOD);
   80fe6:	200e      	movs	r0, #14
   80fe8:	4b01      	ldr	r3, [pc, #4]	; (80ff0 <ioport_init+0x20>)
   80fea:	4798      	blx	r3
}
   80fec:	bf00      	nop
   80fee:	bd80      	pop	{r7, pc}
   80ff0:	00080fb5 	.word	0x00080fb5

00080ff4 <ioport_disable_pin>:
{
   80ff4:	b480      	push	{r7}
   80ff6:	b089      	sub	sp, #36	; 0x24
   80ff8:	af00      	add	r7, sp, #0
   80ffa:	6078      	str	r0, [r7, #4]
   80ffc:	687b      	ldr	r3, [r7, #4]
   80ffe:	61fb      	str	r3, [r7, #28]
   81000:	69fb      	ldr	r3, [r7, #28]
   81002:	61bb      	str	r3, [r7, #24]
	return pin >> 5;
   81004:	69bb      	ldr	r3, [r7, #24]
   81006:	095a      	lsrs	r2, r3, #5
   81008:	69fb      	ldr	r3, [r7, #28]
   8100a:	617b      	str	r3, [r7, #20]
	return 1U << (pin & 0x1F);
   8100c:	697b      	ldr	r3, [r7, #20]
   8100e:	f003 031f 	and.w	r3, r3, #31
   81012:	2101      	movs	r1, #1
   81014:	fa01 f303 	lsl.w	r3, r1, r3
   81018:	613a      	str	r2, [r7, #16]
   8101a:	60fb      	str	r3, [r7, #12]
   8101c:	693b      	ldr	r3, [r7, #16]
   8101e:	60bb      	str	r3, [r7, #8]
	return (Pio *)((uintptr_t)IOPORT_BASE_ADDRESS +
   81020:	68bb      	ldr	r3, [r7, #8]
   81022:	f503 1300 	add.w	r3, r3, #2097152	; 0x200000
   81026:	f203 7307 	addw	r3, r3, #1799	; 0x707
   8102a:	025b      	lsls	r3, r3, #9
   8102c:	461a      	mov	r2, r3
	arch_ioport_port_to_base(port)->PIO_PDR = mask;
   8102e:	68fb      	ldr	r3, [r7, #12]
   81030:	6053      	str	r3, [r2, #4]
}
   81032:	bf00      	nop
   81034:	3724      	adds	r7, #36	; 0x24
   81036:	46bd      	mov	sp, r7
   81038:	bc80      	pop	{r7}
   8103a:	4770      	bx	lr

0008103c <ioport_set_pin_mode>:
{
   8103c:	b480      	push	{r7}
   8103e:	b08d      	sub	sp, #52	; 0x34
   81040:	af00      	add	r7, sp, #0
   81042:	6078      	str	r0, [r7, #4]
   81044:	6039      	str	r1, [r7, #0]
   81046:	687b      	ldr	r3, [r7, #4]
   81048:	62fb      	str	r3, [r7, #44]	; 0x2c
   8104a:	683b      	ldr	r3, [r7, #0]
   8104c:	62bb      	str	r3, [r7, #40]	; 0x28
   8104e:	6afb      	ldr	r3, [r7, #44]	; 0x2c
   81050:	627b      	str	r3, [r7, #36]	; 0x24
	return pin >> 5;
   81052:	6a7b      	ldr	r3, [r7, #36]	; 0x24
   81054:	095a      	lsrs	r2, r3, #5
   81056:	6afb      	ldr	r3, [r7, #44]	; 0x2c
   81058:	623b      	str	r3, [r7, #32]
	return 1U << (pin & 0x1F);
   8105a:	6a3b      	ldr	r3, [r7, #32]
   8105c:	f003 031f 	and.w	r3, r3, #31
   81060:	2101      	movs	r1, #1
   81062:	fa01 f303 	lsl.w	r3, r1, r3
   81066:	61fa      	str	r2, [r7, #28]
   81068:	61bb      	str	r3, [r7, #24]
   8106a:	6abb      	ldr	r3, [r7, #40]	; 0x28
   8106c:	617b      	str	r3, [r7, #20]
   8106e:	69fb      	ldr	r3, [r7, #28]
   81070:	613b      	str	r3, [r7, #16]
	return (Pio *)((uintptr_t)IOPORT_BASE_ADDRESS +
   81072:	693b      	ldr	r3, [r7, #16]
   81074:	f503 1300 	add.w	r3, r3, #2097152	; 0x200000
   81078:	f203 7307 	addw	r3, r3, #1799	; 0x707
   8107c:	025b      	lsls	r3, r3, #9
	Pio *base = arch_ioport_port_to_base(port);
   8107e:	60fb      	str	r3, [r7, #12]
	if (mode & IOPORT_MODE_PULLUP) {
   81080:	697b      	ldr	r3, [r7, #20]
   81082:	f003 0308 	and.w	r3, r3, #8
   81086:	2b00      	cmp	r3, #0
   81088:	d003      	beq.n	81092 <ioport_set_pin_mode+0x56>
		base->PIO_PUER = mask;
   8108a:	68fb      	ldr	r3, [r7, #12]
   8108c:	69ba      	ldr	r2, [r7, #24]
   8108e:	665a      	str	r2, [r3, #100]	; 0x64
   81090:	e002      	b.n	81098 <ioport_set_pin_mode+0x5c>
		base->PIO_PUDR = mask;
   81092:	68fb      	ldr	r3, [r7, #12]
   81094:	69ba      	ldr	r2, [r7, #24]
   81096:	661a      	str	r2, [r3, #96]	; 0x60
	if (mode & IOPORT_MODE_OPEN_DRAIN) {
   81098:	697b      	ldr	r3, [r7, #20]
   8109a:	f003 0320 	and.w	r3, r3, #32
   8109e:	2b00      	cmp	r3, #0
   810a0:	d003      	beq.n	810aa <ioport_set_pin_mode+0x6e>
		base->PIO_MDER = mask;
   810a2:	68fb      	ldr	r3, [r7, #12]
   810a4:	69ba      	ldr	r2, [r7, #24]
   810a6:	651a      	str	r2, [r3, #80]	; 0x50
   810a8:	e002      	b.n	810b0 <ioport_set_pin_mode+0x74>
		base->PIO_MDDR = mask;
   810aa:	68fb      	ldr	r3, [r7, #12]
   810ac:	69ba      	ldr	r2, [r7, #24]
   810ae:	655a      	str	r2, [r3, #84]	; 0x54
	if (mode & (IOPORT_MODE_GLITCH_FILTER | IOPORT_MODE_DEBOUNCE)) {
   810b0:	697b      	ldr	r3, [r7, #20]
   810b2:	f003 03c0 	and.w	r3, r3, #192	; 0xc0
   810b6:	2b00      	cmp	r3, #0
   810b8:	d003      	beq.n	810c2 <ioport_set_pin_mode+0x86>
		base->PIO_IFER = mask;
   810ba:	68fb      	ldr	r3, [r7, #12]
   810bc:	69ba      	ldr	r2, [r7, #24]
   810be:	621a      	str	r2, [r3, #32]
   810c0:	e002      	b.n	810c8 <ioport_set_pin_mode+0x8c>
		base->PIO_IFDR = mask;
   810c2:	68fb      	ldr	r3, [r7, #12]
   810c4:	69ba      	ldr	r2, [r7, #24]
   810c6:	625a      	str	r2, [r3, #36]	; 0x24
	if (mode & IOPORT_MODE_DEBOUNCE) {
   810c8:	697b      	ldr	r3, [r7, #20]
   810ca:	f003 0380 	and.w	r3, r3, #128	; 0x80
   810ce:	2b00      	cmp	r3, #0
   810d0:	d004      	beq.n	810dc <ioport_set_pin_mode+0xa0>
		base->PIO_DIFSR = mask;
   810d2:	68fb      	ldr	r3, [r7, #12]
   810d4:	69ba      	ldr	r2, [r7, #24]
   810d6:	f8c3 2084 	str.w	r2, [r3, #132]	; 0x84
   810da:	e003      	b.n	810e4 <ioport_set_pin_mode+0xa8>
		base->PIO_SCIFSR = mask;
   810dc:	68fb      	ldr	r3, [r7, #12]
   810de:	69ba      	ldr	r2, [r7, #24]
   810e0:	f8c3 2080 	str.w	r2, [r3, #128]	; 0x80
	if (mode & IOPORT_MODE_MUX_BIT0) {
   810e4:	697b      	ldr	r3, [r7, #20]
   810e6:	f003 0301 	and.w	r3, r3, #1
   810ea:	2b00      	cmp	r3, #0
   810ec:	d006      	beq.n	810fc <ioport_set_pin_mode+0xc0>
		base->PIO_ABSR |= mask;
   810ee:	68fb      	ldr	r3, [r7, #12]
   810f0:	6f1a      	ldr	r2, [r3, #112]	; 0x70
   810f2:	69bb      	ldr	r3, [r7, #24]
   810f4:	431a      	orrs	r2, r3
   810f6:	68fb      	ldr	r3, [r7, #12]
   810f8:	671a      	str	r2, [r3, #112]	; 0x70
}
   810fa:	e006      	b.n	8110a <ioport_set_pin_mode+0xce>
		base->PIO_ABSR &= ~mask;
   810fc:	68fb      	ldr	r3, [r7, #12]
   810fe:	6f1a      	ldr	r2, [r3, #112]	; 0x70
   81100:	69bb      	ldr	r3, [r7, #24]
   81102:	43db      	mvns	r3, r3
   81104:	401a      	ands	r2, r3
   81106:	68fb      	ldr	r3, [r7, #12]
   81108:	671a      	str	r2, [r3, #112]	; 0x70
   8110a:	bf00      	nop
   8110c:	3734      	adds	r7, #52	; 0x34
   8110e:	46bd      	mov	sp, r7
   81110:	bc80      	pop	{r7}
   81112:	4770      	bx	lr

00081114 <ioport_set_pin_dir>:
{
   81114:	b480      	push	{r7}
   81116:	b08d      	sub	sp, #52	; 0x34
   81118:	af00      	add	r7, sp, #0
   8111a:	6078      	str	r0, [r7, #4]
   8111c:	460b      	mov	r3, r1
   8111e:	70fb      	strb	r3, [r7, #3]
   81120:	687b      	ldr	r3, [r7, #4]
   81122:	62fb      	str	r3, [r7, #44]	; 0x2c
   81124:	78fb      	ldrb	r3, [r7, #3]
   81126:	f887 302b 	strb.w	r3, [r7, #43]	; 0x2b
   8112a:	6afb      	ldr	r3, [r7, #44]	; 0x2c
   8112c:	627b      	str	r3, [r7, #36]	; 0x24
   8112e:	6a7b      	ldr	r3, [r7, #36]	; 0x24
   81130:	623b      	str	r3, [r7, #32]
	return pin >> 5;
   81132:	6a3b      	ldr	r3, [r7, #32]
   81134:	095b      	lsrs	r3, r3, #5
   81136:	61fb      	str	r3, [r7, #28]
	return (Pio *)((uintptr_t)IOPORT_BASE_ADDRESS +
   81138:	69fb      	ldr	r3, [r7, #28]
   8113a:	f503 1300 	add.w	r3, r3, #2097152	; 0x200000
   8113e:	f203 7307 	addw	r3, r3, #1799	; 0x707
   81142:	025b      	lsls	r3, r3, #9
	Pio *base = arch_ioport_pin_to_base(pin);
   81144:	61bb      	str	r3, [r7, #24]
	if (dir == IOPORT_DIR_OUTPUT) {
   81146:	f897 302b 	ldrb.w	r3, [r7, #43]	; 0x2b
   8114a:	2b01      	cmp	r3, #1
   8114c:	d109      	bne.n	81162 <ioport_set_pin_dir+0x4e>
   8114e:	6afb      	ldr	r3, [r7, #44]	; 0x2c
   81150:	617b      	str	r3, [r7, #20]
	return 1U << (pin & 0x1F);
   81152:	697b      	ldr	r3, [r7, #20]
   81154:	f003 031f 	and.w	r3, r3, #31
   81158:	2201      	movs	r2, #1
   8115a:	409a      	lsls	r2, r3
		base->PIO_OER = arch_ioport_pin_to_mask(pin);
   8115c:	69bb      	ldr	r3, [r7, #24]
   8115e:	611a      	str	r2, [r3, #16]
   81160:	e00c      	b.n	8117c <ioport_set_pin_dir+0x68>
	} else if (dir == IOPORT_DIR_INPUT) {
   81162:	f897 302b 	ldrb.w	r3, [r7, #43]	; 0x2b
   81166:	2b00      	cmp	r3, #0
   81168:	d108      	bne.n	8117c <ioport_set_pin_dir+0x68>
   8116a:	6afb      	ldr	r3, [r7, #44]	; 0x2c
   8116c:	613b      	str	r3, [r7, #16]
	return 1U << (pin & 0x1F);
   8116e:	693b      	ldr	r3, [r7, #16]
   81170:	f003 031f 	and.w	r3, r3, #31
   81174:	2201      	movs	r2, #1
   81176:	409a      	lsls	r2, r3
		base->PIO_ODR = arch_ioport_pin_to_mask(pin);
   81178:	69bb      	ldr	r3, [r7, #24]
   8117a:	615a      	str	r2, [r3, #20]
   8117c:	6afb      	ldr	r3, [r7, #44]	; 0x2c
   8117e:	60fb      	str	r3, [r7, #12]
	return 1U << (pin & 0x1F);
   81180:	68fb      	ldr	r3, [r7, #12]
   81182:	f003 031f 	and.w	r3, r3, #31
   81186:	2201      	movs	r2, #1
   81188:	409a      	lsls	r2, r3
	base->PIO_OWER = arch_ioport_pin_to_mask(pin);
   8118a:	69bb      	ldr	r3, [r7, #24]
   8118c:	f8c3 20a0 	str.w	r2, [r3, #160]	; 0xa0
}
   81190:	bf00      	nop
   81192:	3734      	adds	r7, #52	; 0x34
   81194:	46bd      	mov	sp, r7
   81196:	bc80      	pop	{r7}
   81198:	4770      	bx	lr

0008119a <ioport_set_pin_level>:
{
   8119a:	b480      	push	{r7}
   8119c:	b08b      	sub	sp, #44	; 0x2c
   8119e:	af00      	add	r7, sp, #0
   811a0:	6078      	str	r0, [r7, #4]
   811a2:	460b      	mov	r3, r1
   811a4:	70fb      	strb	r3, [r7, #3]
   811a6:	687b      	ldr	r3, [r7, #4]
   811a8:	627b      	str	r3, [r7, #36]	; 0x24
   811aa:	78fb      	ldrb	r3, [r7, #3]
   811ac:	f887 3023 	strb.w	r3, [r7, #35]	; 0x23
   811b0:	6a7b      	ldr	r3, [r7, #36]	; 0x24
   811b2:	61fb      	str	r3, [r7, #28]
   811b4:	69fb      	ldr	r3, [r7, #28]
   811b6:	61bb      	str	r3, [r7, #24]
	return pin >> 5;
   811b8:	69bb      	ldr	r3, [r7, #24]
   811ba:	095b      	lsrs	r3, r3, #5
   811bc:	617b      	str	r3, [r7, #20]
	return (Pio *)((uintptr_t)IOPORT_BASE_ADDRESS +
   811be:	697b      	ldr	r3, [r7, #20]
   811c0:	f503 1300 	add.w	r3, r3, #2097152	; 0x200000
   811c4:	f203 7307 	addw	r3, r3, #1799	; 0x707
   811c8:	025b      	lsls	r3, r3, #9
	Pio *base = arch_ioport_pin_to_base(pin);
   811ca:	613b      	str	r3, [r7, #16]
	if (level) {
   811cc:	f897 3023 	ldrb.w	r3, [r7, #35]	; 0x23
   811d0:	2b00      	cmp	r3, #0
   811d2:	d009      	beq.n	811e8 <ioport_set_pin_level+0x4e>
   811d4:	6a7b      	ldr	r3, [r7, #36]	; 0x24
   811d6:	60fb      	str	r3, [r7, #12]
	return 1U << (pin & 0x1F);
   811d8:	68fb      	ldr	r3, [r7, #12]
   811da:	f003 031f 	and.w	r3, r3, #31
   811de:	2201      	movs	r2, #1
   811e0:	409a      	lsls	r2, r3
		base->PIO_SODR = arch_ioport_pin_to_mask(pin);
   811e2:	693b      	ldr	r3, [r7, #16]
   811e4:	631a      	str	r2, [r3, #48]	; 0x30
}
   811e6:	e008      	b.n	811fa <ioport_set_pin_level+0x60>
   811e8:	6a7b      	ldr	r3, [r7, #36]	; 0x24
   811ea:	60bb      	str	r3, [r7, #8]
	return 1U << (pin & 0x1F);
   811ec:	68bb      	ldr	r3, [r7, #8]
   811ee:	f003 031f 	and.w	r3, r3, #31
   811f2:	2201      	movs	r2, #1
   811f4:	409a      	lsls	r2, r3
		base->PIO_CODR = arch_ioport_pin_to_mask(pin);
   811f6:	693b      	ldr	r3, [r7, #16]
   811f8:	635a      	str	r2, [r3, #52]	; 0x34
   811fa:	bf00      	nop
   811fc:	372c      	adds	r7, #44	; 0x2c
   811fe:	46bd      	mov	sp, r7
   81200:	bc80      	pop	{r7}
   81202:	4770      	bx	lr

00081204 <board_init>:
#include "asf.h"
#include "board.h"
#include "conf_board.h"

void board_init(void)
{
   81204:	b580      	push	{r7, lr}
   81206:	af00      	add	r7, sp, #0
	#ifndef CONF_BOARD_KEEP_WATCHDOG_AT_INIT
	/* Disable the watchdog */
	WDT->WDT_MR = WDT_MR_WDDIS;
   81208:	4b36      	ldr	r3, [pc, #216]	; (812e4 <board_init+0xe0>)
   8120a:	f44f 4200 	mov.w	r2, #32768	; 0x8000
   8120e:	605a      	str	r2, [r3, #4]
	#endif
	
	ioport_init();
   81210:	4b35      	ldr	r3, [pc, #212]	; (812e8 <board_init+0xe4>)
   81212:	4798      	blx	r3
	
	/* Configure LED pins */
	ioport_set_pin_dir(LED_ONBOARD, IOPORT_DIR_OUTPUT);
   81214:	2101      	movs	r1, #1
   81216:	206a      	movs	r0, #106	; 0x6a
   81218:	4b34      	ldr	r3, [pc, #208]	; (812ec <board_init+0xe8>)
   8121a:	4798      	blx	r3
	ioport_set_pin_level(LED_ONBOARD, 0);
   8121c:	2100      	movs	r1, #0
   8121e:	206a      	movs	r0, #106	; 0x6a
   81220:	4b33      	ldr	r3, [pc, #204]	; (812f0 <board_init+0xec>)
   81222:	4798      	blx	r3
	ioport_set_pin_dir(LED_M1, IOPORT_DIR_OUTPUT);
   81224:	2101      	movs	r1, #1
   81226:	2067      	movs	r0, #103	; 0x67
   81228:	4b30      	ldr	r3, [pc, #192]	; (812ec <board_init+0xe8>)
   8122a:	4798      	blx	r3
	ioport_set_pin_level(LED_M1, 0);
   8122c:	2100      	movs	r1, #0
   8122e:	2067      	movs	r0, #103	; 0x67
   81230:	4b2f      	ldr	r3, [pc, #188]	; (812f0 <board_init+0xec>)
   81232:	4798      	blx	r3
	ioport_set_pin_dir(LED_M2, IOPORT_DIR_OUTPUT);
   81234:	2101      	movs	r1, #1
   81236:	2068      	movs	r0, #104	; 0x68
   81238:	4b2c      	ldr	r3, [pc, #176]	; (812ec <board_init+0xe8>)
   8123a:	4798      	blx	r3
	ioport_set_pin_level(LED_M2, 0);
   8123c:	2100      	movs	r1, #0
   8123e:	2068      	movs	r0, #104	; 0x68
   81240:	4b2b      	ldr	r3, [pc, #172]	; (812f0 <board_init+0xec>)
   81242:	4798      	blx	r3
	ioport_set_pin_dir(LED_M3, IOPORT_DIR_OUTPUT);
   81244:	2101      	movs	r1, #1
   81246:	2069      	movs	r0, #105	; 0x69
   81248:	4b28      	ldr	r3, [pc, #160]	; (812ec <board_init+0xe8>)
   8124a:	4798      	blx	r3
	ioport_set_pin_level(LED_M3, 0);
   8124c:	2100      	movs	r1, #0
   8124e:	2069      	movs	r0, #105	; 0x69
   81250:	4b27      	ldr	r3, [pc, #156]	; (812f0 <board_init+0xec>)
   81252:	4798      	blx	r3
	ioport_set_pin_dir(LED_BAT, IOPORT_DIR_OUTPUT);
   81254:	2101      	movs	r1, #1
   81256:	2066      	movs	r0, #102	; 0x66
   81258:	4b24      	ldr	r3, [pc, #144]	; (812ec <board_init+0xe8>)
   8125a:	4798      	blx	r3
	ioport_set_pin_level(LED_BAT, 0);
   8125c:	2100      	movs	r1, #0
   8125e:	2066      	movs	r0, #102	; 0x66
   81260:	4b23      	ldr	r3, [pc, #140]	; (812f0 <board_init+0xec>)
   81262:	4798      	blx	r3
	
	/* Configure pushbutton pins */
	ioport_set_pin_dir(PB_UP, IOPORT_DIR_INPUT);
   81264:	2100      	movs	r1, #0
   81266:	2060      	movs	r0, #96	; 0x60
   81268:	4b20      	ldr	r3, [pc, #128]	; (812ec <board_init+0xe8>)
   8126a:	4798      	blx	r3
	ioport_set_pin_mode(PB_UP, IOPORT_MODE_PULLUP | IOPORT_MODE_DEBOUNCE);
   8126c:	2188      	movs	r1, #136	; 0x88
   8126e:	2060      	movs	r0, #96	; 0x60
   81270:	4b20      	ldr	r3, [pc, #128]	; (812f4 <board_init+0xf0>)
   81272:	4798      	blx	r3
	ioport_set_pin_dir(PB_LEFT, IOPORT_DIR_INPUT);
   81274:	2100      	movs	r1, #0
   81276:	2061      	movs	r0, #97	; 0x61
   81278:	4b1c      	ldr	r3, [pc, #112]	; (812ec <board_init+0xe8>)
   8127a:	4798      	blx	r3
	ioport_set_pin_mode(PB_LEFT, IOPORT_MODE_PULLUP | IOPORT_MODE_DEBOUNCE);
   8127c:	2188      	movs	r1, #136	; 0x88
   8127e:	2061      	movs	r0, #97	; 0x61
   81280:	4b1c      	ldr	r3, [pc, #112]	; (812f4 <board_init+0xf0>)
   81282:	4798      	blx	r3
	ioport_set_pin_dir(PB_MID, IOPORT_DIR_INPUT);
   81284:	2100      	movs	r1, #0
   81286:	2062      	movs	r0, #98	; 0x62
   81288:	4b18      	ldr	r3, [pc, #96]	; (812ec <board_init+0xe8>)
   8128a:	4798      	blx	r3
	ioport_set_pin_mode(PB_MID, IOPORT_MODE_PULLUP | IOPORT_MODE_DEBOUNCE);
   8128c:	2188      	movs	r1, #136	; 0x88
   8128e:	2062      	movs	r0, #98	; 0x62
   81290:	4b18      	ldr	r3, [pc, #96]	; (812f4 <board_init+0xf0>)
   81292:	4798      	blx	r3
	ioport_set_pin_dir(PB_RIGHT, IOPORT_DIR_INPUT);
   81294:	2100      	movs	r1, #0
   81296:	2063      	movs	r0, #99	; 0x63
   81298:	4b14      	ldr	r3, [pc, #80]	; (812ec <board_init+0xe8>)
   8129a:	4798      	blx	r3
	ioport_set_pin_mode(PB_RIGHT, IOPORT_MODE_PULLUP | IOPORT_MODE_DEBOUNCE);
   8129c:	2188      	movs	r1, #136	; 0x88
   8129e:	2063      	movs	r0, #99	; 0x63
   812a0:	4b14      	ldr	r3, [pc, #80]	; (812f4 <board_init+0xf0>)
   812a2:	4798      	blx	r3
	ioport_set_pin_dir(PB_DOWN, IOPORT_DIR_INPUT);
   812a4:	2100      	movs	r1, #0
   812a6:	2064      	movs	r0, #100	; 0x64
   812a8:	4b10      	ldr	r3, [pc, #64]	; (812ec <board_init+0xe8>)
   812aa:	4798      	blx	r3
	ioport_set_pin_mode(PB_DOWN, IOPORT_MODE_PULLUP | IOPORT_MODE_DEBOUNCE);
   812ac:	2188      	movs	r1, #136	; 0x88
   812ae:	2064      	movs	r0, #100	; 0x64
   812b0:	4b10      	ldr	r3, [pc, #64]	; (812f4 <board_init+0xf0>)
   812b2:	4798      	blx	r3
	ioport_set_pin_dir(PB_RETURN, IOPORT_DIR_INPUT);
   812b4:	2100      	movs	r1, #0
   812b6:	2065      	movs	r0, #101	; 0x65
   812b8:	4b0c      	ldr	r3, [pc, #48]	; (812ec <board_init+0xe8>)
   812ba:	4798      	blx	r3
	ioport_set_pin_mode(PB_RETURN, IOPORT_MODE_PULLUP | IOPORT_MODE_DEBOUNCE);
   812bc:	2188      	movs	r1, #136	; 0x88
   812be:	2065      	movs	r0, #101	; 0x65
   812c0:	4b0c      	ldr	r3, [pc, #48]	; (812f4 <board_init+0xf0>)
   812c2:	4798      	blx	r3
	
	/* Configure I2C pins */
	ioport_set_pin_mode(I2C0_DATA, IOPORT_MODE_MUX_A);
   812c4:	2100      	movs	r1, #0
   812c6:	2011      	movs	r0, #17
   812c8:	4b0a      	ldr	r3, [pc, #40]	; (812f4 <board_init+0xf0>)
   812ca:	4798      	blx	r3
	ioport_disable_pin(I2C0_DATA);
   812cc:	2011      	movs	r0, #17
   812ce:	4b0a      	ldr	r3, [pc, #40]	; (812f8 <board_init+0xf4>)
   812d0:	4798      	blx	r3
	ioport_set_pin_mode(I2C0_CLK, IOPORT_MODE_MUX_A);
   812d2:	2100      	movs	r1, #0
   812d4:	2012      	movs	r0, #18
   812d6:	4b07      	ldr	r3, [pc, #28]	; (812f4 <board_init+0xf0>)
   812d8:	4798      	blx	r3
	ioport_disable_pin(I2C0_CLK);
   812da:	2012      	movs	r0, #18
   812dc:	4b06      	ldr	r3, [pc, #24]	; (812f8 <board_init+0xf4>)
   812de:	4798      	blx	r3
}
   812e0:	bf00      	nop
   812e2:	bd80      	pop	{r7, pc}
   812e4:	400e1a50 	.word	0x400e1a50
   812e8:	00080fd1 	.word	0x00080fd1
   812ec:	00081115 	.word	0x00081115
   812f0:	0008119b 	.word	0x0008119b
   812f4:	0008103d 	.word	0x0008103d
   812f8:	00080ff5 	.word	0x00080ff5

000812fc <Dummy_Handler>:

/**
 * \brief Default interrupt handler for unused IRQs.
 */
void Dummy_Handler(void)
{
   812fc:	b480      	push	{r7}
   812fe:	af00      	add	r7, sp, #0
	while (1) {
   81300:	e7fe      	b.n	81300 <Dummy_Handler+0x4>
	...

00081304 <Reset_Handler>:
/**
 * \brief This is the code that gets called on processor reset.
 * To initialize the device, and call the main() routine.
 */
void Reset_Handler(void)
{
   81304:	b580      	push	{r7, lr}
   81306:	b082      	sub	sp, #8
   81308:	af00      	add	r7, sp, #0
	uint32_t *pSrc, *pDest;

	/* Initialize the relocate segment */
	pSrc = &_etext;
   8130a:	4b1e      	ldr	r3, [pc, #120]	; (81384 <Reset_Handler+0x80>)
   8130c:	607b      	str	r3, [r7, #4]
	pDest = &_srelocate;
   8130e:	4b1e      	ldr	r3, [pc, #120]	; (81388 <Reset_Handler+0x84>)
   81310:	603b      	str	r3, [r7, #0]

	if (pSrc != pDest) {
   81312:	687a      	ldr	r2, [r7, #4]
   81314:	683b      	ldr	r3, [r7, #0]
   81316:	429a      	cmp	r2, r3
   81318:	d00c      	beq.n	81334 <Reset_Handler+0x30>
		for (; pDest < &_erelocate;) {
   8131a:	e007      	b.n	8132c <Reset_Handler+0x28>
			*pDest++ = *pSrc++;
   8131c:	683b      	ldr	r3, [r7, #0]
   8131e:	1d1a      	adds	r2, r3, #4
   81320:	603a      	str	r2, [r7, #0]
   81322:	687a      	ldr	r2, [r7, #4]
   81324:	1d11      	adds	r1, r2, #4
   81326:	6079      	str	r1, [r7, #4]
   81328:	6812      	ldr	r2, [r2, #0]
   8132a:	601a      	str	r2, [r3, #0]
		for (; pDest < &_erelocate;) {
   8132c:	683b      	ldr	r3, [r7, #0]
   8132e:	4a17      	ldr	r2, [pc, #92]	; (8138c <Reset_Handler+0x88>)
   81330:	4293      	cmp	r3, r2
   81332:	d3f3      	bcc.n	8131c <Reset_Handler+0x18>
		}
	}

	/* Clear the zero segment */
	for (pDest = &_szero; pDest < &_ezero;) {
   81334:	4b16      	ldr	r3, [pc, #88]	; (81390 <Reset_Handler+0x8c>)
   81336:	603b      	str	r3, [r7, #0]
   81338:	e004      	b.n	81344 <Reset_Handler+0x40>
		*pDest++ = 0;
   8133a:	683b      	ldr	r3, [r7, #0]
   8133c:	1d1a      	adds	r2, r3, #4
   8133e:	603a      	str	r2, [r7, #0]
   81340:	2200      	movs	r2, #0
   81342:	601a      	str	r2, [r3, #0]
	for (pDest = &_szero; pDest < &_ezero;) {
   81344:	683b      	ldr	r3, [r7, #0]
   81346:	4a13      	ldr	r2, [pc, #76]	; (81394 <Reset_Handler+0x90>)
   81348:	4293      	cmp	r3, r2
   8134a:	d3f6      	bcc.n	8133a <Reset_Handler+0x36>
	}

	/* Set the vector table base address */
	pSrc = (uint32_t *) & _sfixed;
   8134c:	4b12      	ldr	r3, [pc, #72]	; (81398 <Reset_Handler+0x94>)
   8134e:	607b      	str	r3, [r7, #4]
	SCB->VTOR = ((uint32_t) pSrc & SCB_VTOR_TBLOFF_Msk);
   81350:	4a12      	ldr	r2, [pc, #72]	; (8139c <Reset_Handler+0x98>)
   81352:	687b      	ldr	r3, [r7, #4]
   81354:	f023 4360 	bic.w	r3, r3, #3758096384	; 0xe0000000
   81358:	f023 037f 	bic.w	r3, r3, #127	; 0x7f
   8135c:	6093      	str	r3, [r2, #8]

	if (((uint32_t) pSrc >= IRAM0_ADDR) && ((uint32_t) pSrc < NFC_RAM_ADDR)) {
   8135e:	687b      	ldr	r3, [r7, #4]
   81360:	f1b3 5f00 	cmp.w	r3, #536870912	; 0x20000000
   81364:	d309      	bcc.n	8137a <Reset_Handler+0x76>
   81366:	687b      	ldr	r3, [r7, #4]
   81368:	4a0d      	ldr	r2, [pc, #52]	; (813a0 <Reset_Handler+0x9c>)
   8136a:	4293      	cmp	r3, r2
   8136c:	d805      	bhi.n	8137a <Reset_Handler+0x76>
		SCB->VTOR |= 1 << SCB_VTOR_TBLBASE_Pos;
   8136e:	4a0b      	ldr	r2, [pc, #44]	; (8139c <Reset_Handler+0x98>)
   81370:	4b0a      	ldr	r3, [pc, #40]	; (8139c <Reset_Handler+0x98>)
   81372:	689b      	ldr	r3, [r3, #8]
   81374:	f043 5300 	orr.w	r3, r3, #536870912	; 0x20000000
   81378:	6093      	str	r3, [r2, #8]
	}

	/* Initialize the C library */
	__libc_init_array();
   8137a:	4b0a      	ldr	r3, [pc, #40]	; (813a4 <Reset_Handler+0xa0>)
   8137c:	4798      	blx	r3

	/* Branch to main function */
	main();
   8137e:	4b0a      	ldr	r3, [pc, #40]	; (813a8 <Reset_Handler+0xa4>)
   81380:	4798      	blx	r3

	/* Infinite loop */
	while (1);
   81382:	e7fe      	b.n	81382 <Reset_Handler+0x7e>
   81384:	00086efc 	.word	0x00086efc
   81388:	20070000 	.word	0x20070000
   8138c:	20070b48 	.word	0x20070b48
   81390:	20070b48 	.word	0x20070b48
   81394:	20070c24 	.word	0x20070c24
   81398:	00080000 	.word	0x00080000
   8139c:	e000ed00 	.word	0xe000ed00
   813a0:	200fffff 	.word	0x200fffff
   813a4:	00082299 	.word	0x00082299
   813a8:	0008177d 	.word	0x0008177d

000813ac <SystemCoreClockUpdate>:

	SystemCoreClock = CHIP_FREQ_CPU_MAX;
}

void SystemCoreClockUpdate(void)
{
   813ac:	b480      	push	{r7}
   813ae:	af00      	add	r7, sp, #0
	/* Determine clock frequency according to clock register values */
	switch (PMC->PMC_MCKR & PMC_MCKR_CSS_Msk) {
   813b0:	4b57      	ldr	r3, [pc, #348]	; (81510 <SystemCoreClockUpdate+0x164>)
   813b2:	6b1b      	ldr	r3, [r3, #48]	; 0x30
   813b4:	f003 0303 	and.w	r3, r3, #3
   813b8:	2b03      	cmp	r3, #3
   813ba:	f200 808a 	bhi.w	814d2 <SystemCoreClockUpdate+0x126>
   813be:	a201      	add	r2, pc, #4	; (adr r2, 813c4 <SystemCoreClockUpdate+0x18>)
   813c0:	f852 f023 	ldr.w	pc, [r2, r3, lsl #2]
   813c4:	000813d5 	.word	0x000813d5
   813c8:	000813f5 	.word	0x000813f5
   813cc:	00081445 	.word	0x00081445
   813d0:	00081445 	.word	0x00081445
	case PMC_MCKR_CSS_SLOW_CLK:	/* Slow clock */
		if (SUPC->SUPC_SR & SUPC_SR_OSCSEL) {
   813d4:	4b4f      	ldr	r3, [pc, #316]	; (81514 <SystemCoreClockUpdate+0x168>)
   813d6:	695b      	ldr	r3, [r3, #20]
   813d8:	f003 0380 	and.w	r3, r3, #128	; 0x80
   813dc:	2b00      	cmp	r3, #0
   813de:	d004      	beq.n	813ea <SystemCoreClockUpdate+0x3e>
			SystemCoreClock = CHIP_FREQ_XTAL_32K;
   813e0:	4b4d      	ldr	r3, [pc, #308]	; (81518 <SystemCoreClockUpdate+0x16c>)
   813e2:	f44f 4200 	mov.w	r2, #32768	; 0x8000
   813e6:	601a      	str	r2, [r3, #0]
		} else {
			SystemCoreClock = CHIP_FREQ_SLCK_RC;
		}
		break;
   813e8:	e073      	b.n	814d2 <SystemCoreClockUpdate+0x126>
			SystemCoreClock = CHIP_FREQ_SLCK_RC;
   813ea:	4b4b      	ldr	r3, [pc, #300]	; (81518 <SystemCoreClockUpdate+0x16c>)
   813ec:	f44f 42fa 	mov.w	r2, #32000	; 0x7d00
   813f0:	601a      	str	r2, [r3, #0]
		break;
   813f2:	e06e      	b.n	814d2 <SystemCoreClockUpdate+0x126>
	case PMC_MCKR_CSS_MAIN_CLK:	/* Main clock */
		if (PMC->CKGR_MOR & CKGR_MOR_MOSCSEL) {
   813f4:	4b46      	ldr	r3, [pc, #280]	; (81510 <SystemCoreClockUpdate+0x164>)
   813f6:	6a1b      	ldr	r3, [r3, #32]
   813f8:	f003 7380 	and.w	r3, r3, #16777216	; 0x1000000
   813fc:	2b00      	cmp	r3, #0
   813fe:	d003      	beq.n	81408 <SystemCoreClockUpdate+0x5c>
			SystemCoreClock = CHIP_FREQ_XTAL_12M;
   81400:	4b45      	ldr	r3, [pc, #276]	; (81518 <SystemCoreClockUpdate+0x16c>)
   81402:	4a46      	ldr	r2, [pc, #280]	; (8151c <SystemCoreClockUpdate+0x170>)
   81404:	601a      	str	r2, [r3, #0]
				break;
			default:
				break;
			}
		}
		break;
   81406:	e064      	b.n	814d2 <SystemCoreClockUpdate+0x126>
			SystemCoreClock = CHIP_FREQ_MAINCK_RC_4MHZ;
   81408:	4b43      	ldr	r3, [pc, #268]	; (81518 <SystemCoreClockUpdate+0x16c>)
   8140a:	4a45      	ldr	r2, [pc, #276]	; (81520 <SystemCoreClockUpdate+0x174>)
   8140c:	601a      	str	r2, [r3, #0]
			switch (PMC->CKGR_MOR & CKGR_MOR_MOSCRCF_Msk) {
   8140e:	4b40      	ldr	r3, [pc, #256]	; (81510 <SystemCoreClockUpdate+0x164>)
   81410:	6a1b      	ldr	r3, [r3, #32]
   81412:	f003 0370 	and.w	r3, r3, #112	; 0x70
   81416:	2b10      	cmp	r3, #16
   81418:	d004      	beq.n	81424 <SystemCoreClockUpdate+0x78>
   8141a:	2b20      	cmp	r3, #32
   8141c:	d008      	beq.n	81430 <SystemCoreClockUpdate+0x84>
   8141e:	2b00      	cmp	r3, #0
   81420:	d00e      	beq.n	81440 <SystemCoreClockUpdate+0x94>
				break;
   81422:	e00e      	b.n	81442 <SystemCoreClockUpdate+0x96>
				SystemCoreClock *= 2U;
   81424:	4b3c      	ldr	r3, [pc, #240]	; (81518 <SystemCoreClockUpdate+0x16c>)
   81426:	681b      	ldr	r3, [r3, #0]
   81428:	005b      	lsls	r3, r3, #1
   8142a:	4a3b      	ldr	r2, [pc, #236]	; (81518 <SystemCoreClockUpdate+0x16c>)
   8142c:	6013      	str	r3, [r2, #0]
				break;
   8142e:	e008      	b.n	81442 <SystemCoreClockUpdate+0x96>
				SystemCoreClock *= 3U;
   81430:	4b39      	ldr	r3, [pc, #228]	; (81518 <SystemCoreClockUpdate+0x16c>)
   81432:	681a      	ldr	r2, [r3, #0]
   81434:	4613      	mov	r3, r2
   81436:	005b      	lsls	r3, r3, #1
   81438:	4413      	add	r3, r2
   8143a:	4a37      	ldr	r2, [pc, #220]	; (81518 <SystemCoreClockUpdate+0x16c>)
   8143c:	6013      	str	r3, [r2, #0]
				break;
   8143e:	e000      	b.n	81442 <SystemCoreClockUpdate+0x96>
				break;
   81440:	bf00      	nop
		break;
   81442:	e046      	b.n	814d2 <SystemCoreClockUpdate+0x126>
	case PMC_MCKR_CSS_PLLA_CLK:	/* PLLA clock */
	case PMC_MCKR_CSS_UPLL_CLK:	/* UPLL clock */
		if (PMC->CKGR_MOR & CKGR_MOR_MOSCSEL) {
   81444:	4b32      	ldr	r3, [pc, #200]	; (81510 <SystemCoreClockUpdate+0x164>)
   81446:	6a1b      	ldr	r3, [r3, #32]
   81448:	f003 7380 	and.w	r3, r3, #16777216	; 0x1000000
   8144c:	2b00      	cmp	r3, #0
   8144e:	d003      	beq.n	81458 <SystemCoreClockUpdate+0xac>
			SystemCoreClock = CHIP_FREQ_XTAL_12M;
   81450:	4b31      	ldr	r3, [pc, #196]	; (81518 <SystemCoreClockUpdate+0x16c>)
   81452:	4a32      	ldr	r2, [pc, #200]	; (8151c <SystemCoreClockUpdate+0x170>)
   81454:	601a      	str	r2, [r3, #0]
   81456:	e01c      	b.n	81492 <SystemCoreClockUpdate+0xe6>
		} else {
			SystemCoreClock = CHIP_FREQ_MAINCK_RC_4MHZ;
   81458:	4b2f      	ldr	r3, [pc, #188]	; (81518 <SystemCoreClockUpdate+0x16c>)
   8145a:	4a31      	ldr	r2, [pc, #196]	; (81520 <SystemCoreClockUpdate+0x174>)
   8145c:	601a      	str	r2, [r3, #0]

			switch (PMC->CKGR_MOR & CKGR_MOR_MOSCRCF_Msk) {
   8145e:	4b2c      	ldr	r3, [pc, #176]	; (81510 <SystemCoreClockUpdate+0x164>)
   81460:	6a1b      	ldr	r3, [r3, #32]
   81462:	f003 0370 	and.w	r3, r3, #112	; 0x70
   81466:	2b10      	cmp	r3, #16
   81468:	d004      	beq.n	81474 <SystemCoreClockUpdate+0xc8>
   8146a:	2b20      	cmp	r3, #32
   8146c:	d008      	beq.n	81480 <SystemCoreClockUpdate+0xd4>
   8146e:	2b00      	cmp	r3, #0
   81470:	d00e      	beq.n	81490 <SystemCoreClockUpdate+0xe4>
				break;
			case CKGR_MOR_MOSCRCF_12_MHz:
				SystemCoreClock *= 3U;
				break;
			default:
				break;
   81472:	e00e      	b.n	81492 <SystemCoreClockUpdate+0xe6>
				SystemCoreClock *= 2U;
   81474:	4b28      	ldr	r3, [pc, #160]	; (81518 <SystemCoreClockUpdate+0x16c>)
   81476:	681b      	ldr	r3, [r3, #0]
   81478:	005b      	lsls	r3, r3, #1
   8147a:	4a27      	ldr	r2, [pc, #156]	; (81518 <SystemCoreClockUpdate+0x16c>)
   8147c:	6013      	str	r3, [r2, #0]
				break;
   8147e:	e008      	b.n	81492 <SystemCoreClockUpdate+0xe6>
				SystemCoreClock *= 3U;
   81480:	4b25      	ldr	r3, [pc, #148]	; (81518 <SystemCoreClockUpdate+0x16c>)
   81482:	681a      	ldr	r2, [r3, #0]
   81484:	4613      	mov	r3, r2
   81486:	005b      	lsls	r3, r3, #1
   81488:	4413      	add	r3, r2
   8148a:	4a23      	ldr	r2, [pc, #140]	; (81518 <SystemCoreClockUpdate+0x16c>)
   8148c:	6013      	str	r3, [r2, #0]
				break;
   8148e:	e000      	b.n	81492 <SystemCoreClockUpdate+0xe6>
				break;
   81490:	bf00      	nop
			}
		}
		if ((PMC->PMC_MCKR & PMC_MCKR_CSS_Msk) == PMC_MCKR_CSS_PLLA_CLK) {
   81492:	4b1f      	ldr	r3, [pc, #124]	; (81510 <SystemCoreClockUpdate+0x164>)
   81494:	6b1b      	ldr	r3, [r3, #48]	; 0x30
   81496:	f003 0303 	and.w	r3, r3, #3
   8149a:	2b02      	cmp	r3, #2
   8149c:	d115      	bne.n	814ca <SystemCoreClockUpdate+0x11e>
			SystemCoreClock *= ((((PMC->CKGR_PLLAR) & CKGR_PLLAR_MULA_Msk) >> 
   8149e:	4b1c      	ldr	r3, [pc, #112]	; (81510 <SystemCoreClockUpdate+0x164>)
   814a0:	6a9b      	ldr	r3, [r3, #40]	; 0x28
   814a2:	0c1b      	lsrs	r3, r3, #16
   814a4:	f3c3 030a 	ubfx	r3, r3, #0, #11
				                            CKGR_PLLAR_MULA_Pos) + 1U);
   814a8:	3301      	adds	r3, #1
			SystemCoreClock *= ((((PMC->CKGR_PLLAR) & CKGR_PLLAR_MULA_Msk) >> 
   814aa:	4a1b      	ldr	r2, [pc, #108]	; (81518 <SystemCoreClockUpdate+0x16c>)
   814ac:	6812      	ldr	r2, [r2, #0]
   814ae:	fb02 f303 	mul.w	r3, r2, r3
   814b2:	4a19      	ldr	r2, [pc, #100]	; (81518 <SystemCoreClockUpdate+0x16c>)
   814b4:	6013      	str	r3, [r2, #0]
			SystemCoreClock /= ((((PMC->CKGR_PLLAR) & CKGR_PLLAR_DIVA_Msk) >> 
   814b6:	4b16      	ldr	r3, [pc, #88]	; (81510 <SystemCoreClockUpdate+0x164>)
   814b8:	6a9b      	ldr	r3, [r3, #40]	; 0x28
   814ba:	b2db      	uxtb	r3, r3
   814bc:	4a16      	ldr	r2, [pc, #88]	; (81518 <SystemCoreClockUpdate+0x16c>)
   814be:	6812      	ldr	r2, [r2, #0]
   814c0:	fbb2 f3f3 	udiv	r3, r2, r3
   814c4:	4a14      	ldr	r2, [pc, #80]	; (81518 <SystemCoreClockUpdate+0x16c>)
   814c6:	6013      	str	r3, [r2, #0]
				                             CKGR_PLLAR_DIVA_Pos));
		} else {
			SystemCoreClock = SYS_UTMIPLL / 2U;
		}
		break;
   814c8:	e002      	b.n	814d0 <SystemCoreClockUpdate+0x124>
			SystemCoreClock = SYS_UTMIPLL / 2U;
   814ca:	4b13      	ldr	r3, [pc, #76]	; (81518 <SystemCoreClockUpdate+0x16c>)
   814cc:	4a15      	ldr	r2, [pc, #84]	; (81524 <SystemCoreClockUpdate+0x178>)
   814ce:	601a      	str	r2, [r3, #0]
		break;
   814d0:	bf00      	nop
	}

	if ((PMC->PMC_MCKR & PMC_MCKR_PRES_Msk) == PMC_MCKR_PRES_CLK_3) {
   814d2:	4b0f      	ldr	r3, [pc, #60]	; (81510 <SystemCoreClockUpdate+0x164>)
   814d4:	6b1b      	ldr	r3, [r3, #48]	; 0x30
   814d6:	f003 0370 	and.w	r3, r3, #112	; 0x70
   814da:	2b70      	cmp	r3, #112	; 0x70
   814dc:	d108      	bne.n	814f0 <SystemCoreClockUpdate+0x144>
		SystemCoreClock /= 3U;
   814de:	4b0e      	ldr	r3, [pc, #56]	; (81518 <SystemCoreClockUpdate+0x16c>)
   814e0:	681b      	ldr	r3, [r3, #0]
   814e2:	4a11      	ldr	r2, [pc, #68]	; (81528 <SystemCoreClockUpdate+0x17c>)
   814e4:	fba2 2303 	umull	r2, r3, r2, r3
   814e8:	085b      	lsrs	r3, r3, #1
   814ea:	4a0b      	ldr	r2, [pc, #44]	; (81518 <SystemCoreClockUpdate+0x16c>)
   814ec:	6013      	str	r3, [r2, #0]
	} else {
		SystemCoreClock >>= ((PMC->PMC_MCKR & PMC_MCKR_PRES_Msk) >> 
			                          PMC_MCKR_PRES_Pos);
	}
}
   814ee:	e00a      	b.n	81506 <SystemCoreClockUpdate+0x15a>
		SystemCoreClock >>= ((PMC->PMC_MCKR & PMC_MCKR_PRES_Msk) >> 
   814f0:	4b07      	ldr	r3, [pc, #28]	; (81510 <SystemCoreClockUpdate+0x164>)
   814f2:	6b1b      	ldr	r3, [r3, #48]	; 0x30
   814f4:	091b      	lsrs	r3, r3, #4
   814f6:	f003 0307 	and.w	r3, r3, #7
   814fa:	4a07      	ldr	r2, [pc, #28]	; (81518 <SystemCoreClockUpdate+0x16c>)
   814fc:	6812      	ldr	r2, [r2, #0]
   814fe:	fa22 f303 	lsr.w	r3, r2, r3
   81502:	4a05      	ldr	r2, [pc, #20]	; (81518 <SystemCoreClockUpdate+0x16c>)
   81504:	6013      	str	r3, [r2, #0]
}
   81506:	bf00      	nop
   81508:	46bd      	mov	sp, r7
   8150a:	bc80      	pop	{r7}
   8150c:	4770      	bx	lr
   8150e:	bf00      	nop
   81510:	400e0600 	.word	0x400e0600
   81514:	400e1a10 	.word	0x400e1a10
   81518:	2007018c 	.word	0x2007018c
   8151c:	00b71b00 	.word	0x00b71b00
   81520:	003d0900 	.word	0x003d0900
   81524:	0e4e1c00 	.word	0x0e4e1c00
   81528:	aaaaaaab 	.word	0xaaaaaaab

0008152c <_sbrk>:
extern void _exit(int status);
extern void _kill(int pid, int sig);
extern int _getpid(void);

extern caddr_t _sbrk(int incr)
{
   8152c:	b480      	push	{r7}
   8152e:	b085      	sub	sp, #20
   81530:	af00      	add	r7, sp, #0
   81532:	6078      	str	r0, [r7, #4]
	static unsigned char *heap = NULL;
	unsigned char *prev_heap;
	int ramend = (int)&__ram_end__;
   81534:	4b10      	ldr	r3, [pc, #64]	; (81578 <_sbrk+0x4c>)
   81536:	60fb      	str	r3, [r7, #12]

	if (heap == NULL) {
   81538:	4b10      	ldr	r3, [pc, #64]	; (8157c <_sbrk+0x50>)
   8153a:	681b      	ldr	r3, [r3, #0]
   8153c:	2b00      	cmp	r3, #0
   8153e:	d102      	bne.n	81546 <_sbrk+0x1a>
		heap = (unsigned char *)&_end;
   81540:	4b0e      	ldr	r3, [pc, #56]	; (8157c <_sbrk+0x50>)
   81542:	4a0f      	ldr	r2, [pc, #60]	; (81580 <_sbrk+0x54>)
   81544:	601a      	str	r2, [r3, #0]
	}
	prev_heap = heap;
   81546:	4b0d      	ldr	r3, [pc, #52]	; (8157c <_sbrk+0x50>)
   81548:	681b      	ldr	r3, [r3, #0]
   8154a:	60bb      	str	r3, [r7, #8]

	if (((int)prev_heap + incr) > ramend) {
   8154c:	68ba      	ldr	r2, [r7, #8]
   8154e:	687b      	ldr	r3, [r7, #4]
   81550:	441a      	add	r2, r3
   81552:	68fb      	ldr	r3, [r7, #12]
   81554:	429a      	cmp	r2, r3
   81556:	dd02      	ble.n	8155e <_sbrk+0x32>
		return (caddr_t) -1;	
   81558:	f04f 33ff 	mov.w	r3, #4294967295
   8155c:	e006      	b.n	8156c <_sbrk+0x40>
	}

	heap += incr;
   8155e:	4b07      	ldr	r3, [pc, #28]	; (8157c <_sbrk+0x50>)
   81560:	681a      	ldr	r2, [r3, #0]
   81562:	687b      	ldr	r3, [r7, #4]
   81564:	4413      	add	r3, r2
   81566:	4a05      	ldr	r2, [pc, #20]	; (8157c <_sbrk+0x50>)
   81568:	6013      	str	r3, [r2, #0]

	return (caddr_t) prev_heap;
   8156a:	68bb      	ldr	r3, [r7, #8]
}
   8156c:	4618      	mov	r0, r3
   8156e:	3714      	adds	r7, #20
   81570:	46bd      	mov	sp, r7
   81572:	bc80      	pop	{r7}
   81574:	4770      	bx	lr
   81576:	bf00      	nop
   81578:	20087ffc 	.word	0x20087ffc
   8157c:	20070b80 	.word	0x20070b80
   81580:	20072c28 	.word	0x20072c28

00081584 <NVIC_SetPriority>:

    \param [in]      IRQn  Interrupt number.
    \param [in]  priority  Priority to set.
 */
__STATIC_INLINE void NVIC_SetPriority(IRQn_Type IRQn, uint32_t priority)
{
   81584:	b480      	push	{r7}
   81586:	b083      	sub	sp, #12
   81588:	af00      	add	r7, sp, #0
   8158a:	4603      	mov	r3, r0
   8158c:	6039      	str	r1, [r7, #0]
   8158e:	71fb      	strb	r3, [r7, #7]
  if(IRQn < 0) {
   81590:	f997 3007 	ldrsb.w	r3, [r7, #7]
   81594:	2b00      	cmp	r3, #0
   81596:	da0b      	bge.n	815b0 <NVIC_SetPriority+0x2c>
    SCB->SHP[((uint32_t)(IRQn) & 0xF)-4] = ((priority << (8 - __NVIC_PRIO_BITS)) & 0xff); } /* set Priority for Cortex-M  System Interrupts */
   81598:	490d      	ldr	r1, [pc, #52]	; (815d0 <NVIC_SetPriority+0x4c>)
   8159a:	79fb      	ldrb	r3, [r7, #7]
   8159c:	f003 030f 	and.w	r3, r3, #15
   815a0:	3b04      	subs	r3, #4
   815a2:	683a      	ldr	r2, [r7, #0]
   815a4:	b2d2      	uxtb	r2, r2
   815a6:	0112      	lsls	r2, r2, #4
   815a8:	b2d2      	uxtb	r2, r2
   815aa:	440b      	add	r3, r1
   815ac:	761a      	strb	r2, [r3, #24]
  else {
    NVIC->IP[(uint32_t)(IRQn)] = ((priority << (8 - __NVIC_PRIO_BITS)) & 0xff);    }        /* set Priority for device specific Interrupts  */
}
   815ae:	e009      	b.n	815c4 <NVIC_SetPriority+0x40>
    NVIC->IP[(uint32_t)(IRQn)] = ((priority << (8 - __NVIC_PRIO_BITS)) & 0xff);    }        /* set Priority for device specific Interrupts  */
   815b0:	4908      	ldr	r1, [pc, #32]	; (815d4 <NVIC_SetPriority+0x50>)
   815b2:	f997 3007 	ldrsb.w	r3, [r7, #7]
   815b6:	683a      	ldr	r2, [r7, #0]
   815b8:	b2d2      	uxtb	r2, r2
   815ba:	0112      	lsls	r2, r2, #4
   815bc:	b2d2      	uxtb	r2, r2
   815be:	440b      	add	r3, r1
   815c0:	f883 2300 	strb.w	r2, [r3, #768]	; 0x300
}
   815c4:	bf00      	nop
   815c6:	370c      	adds	r7, #12
   815c8:	46bd      	mov	sp, r7
   815ca:	bc80      	pop	{r7}
   815cc:	4770      	bx	lr
   815ce:	bf00      	nop
   815d0:	e000ed00 	.word	0xe000ed00
   815d4:	e000e100 	.word	0xe000e100

000815d8 <SysTick_Config>:
    function <b>SysTick_Config</b> is not included. In this case, the file <b><i>device</i>.h</b>
    must contain a vendor-specific implementation of this function.

 */
__STATIC_INLINE uint32_t SysTick_Config(uint32_t ticks)
{
   815d8:	b580      	push	{r7, lr}
   815da:	b082      	sub	sp, #8
   815dc:	af00      	add	r7, sp, #0
   815de:	6078      	str	r0, [r7, #4]
  if ((ticks - 1) > SysTick_LOAD_RELOAD_Msk)  return (1);      /* Reload value impossible */
   815e0:	687b      	ldr	r3, [r7, #4]
   815e2:	3b01      	subs	r3, #1
   815e4:	f1b3 7f80 	cmp.w	r3, #16777216	; 0x1000000
   815e8:	d301      	bcc.n	815ee <SysTick_Config+0x16>
   815ea:	2301      	movs	r3, #1
   815ec:	e00f      	b.n	8160e <SysTick_Config+0x36>

  SysTick->LOAD  = ticks - 1;                                  /* set reload register */
   815ee:	4a0a      	ldr	r2, [pc, #40]	; (81618 <SysTick_Config+0x40>)
   815f0:	687b      	ldr	r3, [r7, #4]
   815f2:	3b01      	subs	r3, #1
   815f4:	6053      	str	r3, [r2, #4]
  NVIC_SetPriority (SysTick_IRQn, (1<<__NVIC_PRIO_BITS) - 1);  /* set Priority for Systick Interrupt */
   815f6:	210f      	movs	r1, #15
   815f8:	f04f 30ff 	mov.w	r0, #4294967295
   815fc:	4b07      	ldr	r3, [pc, #28]	; (8161c <SysTick_Config+0x44>)
   815fe:	4798      	blx	r3
  SysTick->VAL   = 0;                                          /* Load the SysTick Counter Value */
   81600:	4b05      	ldr	r3, [pc, #20]	; (81618 <SysTick_Config+0x40>)
   81602:	2200      	movs	r2, #0
   81604:	609a      	str	r2, [r3, #8]
  SysTick->CTRL  = SysTick_CTRL_CLKSOURCE_Msk |
   81606:	4b04      	ldr	r3, [pc, #16]	; (81618 <SysTick_Config+0x40>)
   81608:	2207      	movs	r2, #7
   8160a:	601a      	str	r2, [r3, #0]
                   SysTick_CTRL_TICKINT_Msk   |
                   SysTick_CTRL_ENABLE_Msk;                    /* Enable SysTick IRQ and SysTick Timer */
  return (0);                                                  /* Function successful */
   8160c:	2300      	movs	r3, #0
}
   8160e:	4618      	mov	r0, r3
   81610:	3708      	adds	r7, #8
   81612:	46bd      	mov	sp, r7
   81614:	bd80      	pop	{r7, pc}
   81616:	bf00      	nop
   81618:	e000e010 	.word	0xe000e010
   8161c:	00081585 	.word	0x00081585

00081620 <osc_get_rate>:
{
   81620:	b480      	push	{r7}
   81622:	b083      	sub	sp, #12
   81624:	af00      	add	r7, sp, #0
   81626:	6078      	str	r0, [r7, #4]
	switch (ul_id) {
   81628:	687b      	ldr	r3, [r7, #4]
   8162a:	2b07      	cmp	r3, #7
   8162c:	d825      	bhi.n	8167a <osc_get_rate+0x5a>
   8162e:	a201      	add	r2, pc, #4	; (adr r2, 81634 <osc_get_rate+0x14>)
   81630:	f852 f023 	ldr.w	pc, [r2, r3, lsl #2]
   81634:	00081655 	.word	0x00081655
   81638:	0008165b 	.word	0x0008165b
   8163c:	00081661 	.word	0x00081661
   81640:	00081667 	.word	0x00081667
   81644:	0008166b 	.word	0x0008166b
   81648:	0008166f 	.word	0x0008166f
   8164c:	00081673 	.word	0x00081673
   81650:	00081677 	.word	0x00081677
		return OSC_SLCK_32K_RC_HZ;
   81654:	f44f 43fa 	mov.w	r3, #32000	; 0x7d00
   81658:	e010      	b.n	8167c <osc_get_rate+0x5c>
		return BOARD_FREQ_SLCK_XTAL;
   8165a:	f44f 4300 	mov.w	r3, #32768	; 0x8000
   8165e:	e00d      	b.n	8167c <osc_get_rate+0x5c>
		return BOARD_FREQ_SLCK_BYPASS;
   81660:	f44f 4300 	mov.w	r3, #32768	; 0x8000
   81664:	e00a      	b.n	8167c <osc_get_rate+0x5c>
		return OSC_MAINCK_4M_RC_HZ;
   81666:	4b08      	ldr	r3, [pc, #32]	; (81688 <osc_get_rate+0x68>)
   81668:	e008      	b.n	8167c <osc_get_rate+0x5c>
		return OSC_MAINCK_8M_RC_HZ;
   8166a:	4b08      	ldr	r3, [pc, #32]	; (8168c <osc_get_rate+0x6c>)
   8166c:	e006      	b.n	8167c <osc_get_rate+0x5c>
		return OSC_MAINCK_12M_RC_HZ;
   8166e:	4b08      	ldr	r3, [pc, #32]	; (81690 <osc_get_rate+0x70>)
   81670:	e004      	b.n	8167c <osc_get_rate+0x5c>
		return BOARD_FREQ_MAINCK_XTAL;
   81672:	4b07      	ldr	r3, [pc, #28]	; (81690 <osc_get_rate+0x70>)
   81674:	e002      	b.n	8167c <osc_get_rate+0x5c>
		return BOARD_FREQ_MAINCK_BYPASS;
   81676:	4b06      	ldr	r3, [pc, #24]	; (81690 <osc_get_rate+0x70>)
   81678:	e000      	b.n	8167c <osc_get_rate+0x5c>
	return 0;
   8167a:	2300      	movs	r3, #0
}
   8167c:	4618      	mov	r0, r3
   8167e:	370c      	adds	r7, #12
   81680:	46bd      	mov	sp, r7
   81682:	bc80      	pop	{r7}
   81684:	4770      	bx	lr
   81686:	bf00      	nop
   81688:	003d0900 	.word	0x003d0900
   8168c:	007a1200 	.word	0x007a1200
   81690:	00b71b00 	.word	0x00b71b00

00081694 <sysclk_get_main_hz>:
{
   81694:	b580      	push	{r7, lr}
   81696:	af00      	add	r7, sp, #0
		return pll_get_default_rate(0);
   81698:	2006      	movs	r0, #6
   8169a:	4b04      	ldr	r3, [pc, #16]	; (816ac <sysclk_get_main_hz+0x18>)
   8169c:	4798      	blx	r3
   8169e:	4602      	mov	r2, r0
   816a0:	4613      	mov	r3, r2
   816a2:	00db      	lsls	r3, r3, #3
   816a4:	1a9b      	subs	r3, r3, r2
   816a6:	005b      	lsls	r3, r3, #1
}
   816a8:	4618      	mov	r0, r3
   816aa:	bd80      	pop	{r7, pc}
   816ac:	00081621 	.word	0x00081621

000816b0 <sysclk_get_cpu_hz>:
{
   816b0:	b580      	push	{r7, lr}
   816b2:	af00      	add	r7, sp, #0
	return sysclk_get_main_hz() /
   816b4:	4b02      	ldr	r3, [pc, #8]	; (816c0 <sysclk_get_cpu_hz+0x10>)
   816b6:	4798      	blx	r3
   816b8:	4603      	mov	r3, r0
   816ba:	085b      	lsrs	r3, r3, #1
}
   816bc:	4618      	mov	r0, r3
   816be:	bd80      	pop	{r7, pc}
   816c0:	00081695 	.word	0x00081695

000816c4 <ioport_set_pin_level>:
{
   816c4:	b480      	push	{r7}
   816c6:	b08b      	sub	sp, #44	; 0x2c
   816c8:	af00      	add	r7, sp, #0
   816ca:	6078      	str	r0, [r7, #4]
   816cc:	460b      	mov	r3, r1
   816ce:	70fb      	strb	r3, [r7, #3]
   816d0:	687b      	ldr	r3, [r7, #4]
   816d2:	627b      	str	r3, [r7, #36]	; 0x24
   816d4:	78fb      	ldrb	r3, [r7, #3]
   816d6:	f887 3023 	strb.w	r3, [r7, #35]	; 0x23
   816da:	6a7b      	ldr	r3, [r7, #36]	; 0x24
   816dc:	61fb      	str	r3, [r7, #28]
   816de:	69fb      	ldr	r3, [r7, #28]
   816e0:	61bb      	str	r3, [r7, #24]
	return pin >> 5;
   816e2:	69bb      	ldr	r3, [r7, #24]
   816e4:	095b      	lsrs	r3, r3, #5
   816e6:	617b      	str	r3, [r7, #20]
	return (Pio *)((uintptr_t)IOPORT_BASE_ADDRESS +
   816e8:	697b      	ldr	r3, [r7, #20]
   816ea:	f503 1300 	add.w	r3, r3, #2097152	; 0x200000
   816ee:	f203 7307 	addw	r3, r3, #1799	; 0x707
   816f2:	025b      	lsls	r3, r3, #9
	Pio *base = arch_ioport_pin_to_base(pin);
   816f4:	613b      	str	r3, [r7, #16]
	if (level) {
   816f6:	f897 3023 	ldrb.w	r3, [r7, #35]	; 0x23
   816fa:	2b00      	cmp	r3, #0
   816fc:	d009      	beq.n	81712 <ioport_set_pin_level+0x4e>
   816fe:	6a7b      	ldr	r3, [r7, #36]	; 0x24
   81700:	60fb      	str	r3, [r7, #12]
	return 1U << (pin & 0x1F);
   81702:	68fb      	ldr	r3, [r7, #12]
   81704:	f003 031f 	and.w	r3, r3, #31
   81708:	2201      	movs	r2, #1
   8170a:	409a      	lsls	r2, r3
		base->PIO_SODR = arch_ioport_pin_to_mask(pin);
   8170c:	693b      	ldr	r3, [r7, #16]
   8170e:	631a      	str	r2, [r3, #48]	; 0x30
}
   81710:	e008      	b.n	81724 <ioport_set_pin_level+0x60>
   81712:	6a7b      	ldr	r3, [r7, #36]	; 0x24
   81714:	60bb      	str	r3, [r7, #8]
	return 1U << (pin & 0x1F);
   81716:	68bb      	ldr	r3, [r7, #8]
   81718:	f003 031f 	and.w	r3, r3, #31
   8171c:	2201      	movs	r2, #1
   8171e:	409a      	lsls	r2, r3
		base->PIO_CODR = arch_ioport_pin_to_mask(pin);
   81720:	693b      	ldr	r3, [r7, #16]
   81722:	635a      	str	r2, [r3, #52]	; 0x34
   81724:	bf00      	nop
   81726:	372c      	adds	r7, #44	; 0x2c
   81728:	46bd      	mov	sp, r7
   8172a:	bc80      	pop	{r7}
   8172c:	4770      	bx	lr

0008172e <ioport_get_pin_level>:
 *
 * \param pin IOPORT pin to read
 * \return Current logical value of the specified pin
 */
static inline bool ioport_get_pin_level(ioport_pin_t pin)
{
   8172e:	b480      	push	{r7}
   81730:	b089      	sub	sp, #36	; 0x24
   81732:	af00      	add	r7, sp, #0
   81734:	6078      	str	r0, [r7, #4]
   81736:	687b      	ldr	r3, [r7, #4]
   81738:	61fb      	str	r3, [r7, #28]
   8173a:	69fb      	ldr	r3, [r7, #28]
   8173c:	61bb      	str	r3, [r7, #24]
   8173e:	69bb      	ldr	r3, [r7, #24]
   81740:	617b      	str	r3, [r7, #20]
	return pin >> 5;
   81742:	697b      	ldr	r3, [r7, #20]
   81744:	095b      	lsrs	r3, r3, #5
   81746:	613b      	str	r3, [r7, #16]
	return (Pio *)((uintptr_t)IOPORT_BASE_ADDRESS +
   81748:	693b      	ldr	r3, [r7, #16]
   8174a:	f503 1300 	add.w	r3, r3, #2097152	; 0x200000
   8174e:	f203 7307 	addw	r3, r3, #1799	; 0x707
   81752:	025b      	lsls	r3, r3, #9
	}
}

__always_inline static bool arch_ioport_get_pin_level(ioport_pin_t pin)
{
	return arch_ioport_pin_to_base(pin)->PIO_PDSR & arch_ioport_pin_to_mask(pin);
   81754:	6bda      	ldr	r2, [r3, #60]	; 0x3c
   81756:	69fb      	ldr	r3, [r7, #28]
   81758:	60fb      	str	r3, [r7, #12]
	return 1U << (pin & 0x1F);
   8175a:	68fb      	ldr	r3, [r7, #12]
   8175c:	f003 031f 	and.w	r3, r3, #31
   81760:	2101      	movs	r1, #1
   81762:	fa01 f303 	lsl.w	r3, r1, r3
	return arch_ioport_pin_to_base(pin)->PIO_PDSR & arch_ioport_pin_to_mask(pin);
   81766:	4013      	ands	r3, r2
   81768:	2b00      	cmp	r3, #0
   8176a:	bf14      	ite	ne
   8176c:	2301      	movne	r3, #1
   8176e:	2300      	moveq	r3, #0
   81770:	b2db      	uxtb	r3, r3
	return arch_ioport_get_pin_level(pin);
}
   81772:	4618      	mov	r0, r3
   81774:	3724      	adds	r7, #36	; 0x24
   81776:	46bd      	mov	sp, r7
   81778:	bc80      	pop	{r7}
   8177a:	4770      	bx	lr

0008177c <main>:
void print_menu_main(void);
void print_cursor(void);
event_t button_events(void);

int main(void)
{
   8177c:	b580      	push	{r7, lr}
   8177e:	b082      	sub	sp, #8
   81780:	af00      	add	r7, sp, #0
	event_t act_event;

	sysclk_init();
   81782:	4b14      	ldr	r3, [pc, #80]	; (817d4 <main+0x58>)
   81784:	4798      	blx	r3
	board_init();
   81786:	4b14      	ldr	r3, [pc, #80]	; (817d8 <main+0x5c>)
   81788:	4798      	blx	r3
	SysTick_Config(sysclk_get_cpu_hz() / 1000);
   8178a:	4b14      	ldr	r3, [pc, #80]	; (817dc <main+0x60>)
   8178c:	4798      	blx	r3
   8178e:	4602      	mov	r2, r0
   81790:	4b13      	ldr	r3, [pc, #76]	; (817e0 <main+0x64>)
   81792:	fba3 2302 	umull	r2, r3, r3, r2
   81796:	099b      	lsrs	r3, r3, #6
   81798:	4618      	mov	r0, r3
   8179a:	4b12      	ldr	r3, [pc, #72]	; (817e4 <main+0x68>)
   8179c:	4798      	blx	r3
	
	twi_init();
   8179e:	4b12      	ldr	r3, [pc, #72]	; (817e8 <main+0x6c>)
   817a0:	4798      	blx	r3
	
	lcd_init();
   817a2:	4b12      	ldr	r3, [pc, #72]	; (817ec <main+0x70>)
   817a4:	4798      	blx	r3
	bl_state = LCD_LIGHT_ON;
   817a6:	4b12      	ldr	r3, [pc, #72]	; (817f0 <main+0x74>)
   817a8:	2208      	movs	r2, #8
   817aa:	701a      	strb	r2, [r3, #0]
	set_backlight(bl_state);
   817ac:	4b10      	ldr	r3, [pc, #64]	; (817f0 <main+0x74>)
   817ae:	781b      	ldrb	r3, [r3, #0]
   817b0:	4618      	mov	r0, r3
   817b2:	4b10      	ldr	r3, [pc, #64]	; (817f4 <main+0x78>)
   817b4:	4798      	blx	r3
	
	noOS_bootup_sequence();
   817b6:	4b10      	ldr	r3, [pc, #64]	; (817f8 <main+0x7c>)
   817b8:	4798      	blx	r3
	
	lcd_clear();
   817ba:	4b10      	ldr	r3, [pc, #64]	; (817fc <main+0x80>)
   817bc:	4798      	blx	r3
	
	while (1)
	{
		update_heartbeat();
   817be:	4b10      	ldr	r3, [pc, #64]	; (81800 <main+0x84>)
   817c0:	4798      	blx	r3

		act_event = button_events();
   817c2:	4b10      	ldr	r3, [pc, #64]	; (81804 <main+0x88>)
   817c4:	4798      	blx	r3
   817c6:	4603      	mov	r3, r0
   817c8:	71fb      	strb	r3, [r7, #7]
		
		menu(act_event);
   817ca:	79fb      	ldrb	r3, [r7, #7]
   817cc:	4618      	mov	r0, r3
   817ce:	4b0e      	ldr	r3, [pc, #56]	; (81808 <main+0x8c>)
   817d0:	4798      	blx	r3
		update_heartbeat();
   817d2:	e7f4      	b.n	817be <main+0x42>
   817d4:	00080c91 	.word	0x00080c91
   817d8:	00081205 	.word	0x00081205
   817dc:	000816b1 	.word	0x000816b1
   817e0:	10624dd3 	.word	0x10624dd3
   817e4:	000815d9 	.word	0x000815d9
   817e8:	00080825 	.word	0x00080825
   817ec:	00080551 	.word	0x00080551
   817f0:	20070b84 	.word	0x20070b84
   817f4:	000805d1 	.word	0x000805d1
   817f8:	0008180d 	.word	0x0008180d
   817fc:	00080605 	.word	0x00080605
   81800:	00080921 	.word	0x00080921
   81804:	00081fad 	.word	0x00081fad
   81808:	000819ad 	.word	0x000819ad

0008180c <noOS_bootup_sequence>:
	}
}

void noOS_bootup_sequence(void)
{
   8180c:	b580      	push	{r7, lr}
   8180e:	b082      	sub	sp, #8
   81810:	af00      	add	r7, sp, #0
	while (ioport_get_pin_level(PB_MID))
   81812:	e072      	b.n	818fa <noOS_bootup_sequence+0xee>
	{
		if (getTicks() >= (ticks_blink_update + 800))
   81814:	4b59      	ldr	r3, [pc, #356]	; (8197c <noOS_bootup_sequence+0x170>)
   81816:	4798      	blx	r3
   81818:	4602      	mov	r2, r0
   8181a:	4b59      	ldr	r3, [pc, #356]	; (81980 <noOS_bootup_sequence+0x174>)
   8181c:	681b      	ldr	r3, [r3, #0]
   8181e:	f503 7348 	add.w	r3, r3, #800	; 0x320
   81822:	429a      	cmp	r2, r3
   81824:	d31a      	bcc.n	8185c <noOS_bootup_sequence+0x50>
		{
			ticks_blink_update = getTicks();
   81826:	4b55      	ldr	r3, [pc, #340]	; (8197c <noOS_bootup_sequence+0x170>)
   81828:	4798      	blx	r3
   8182a:	4602      	mov	r2, r0
   8182c:	4b54      	ldr	r3, [pc, #336]	; (81980 <noOS_bootup_sequence+0x174>)
   8182e:	601a      	str	r2, [r3, #0]
			
			if (blink_level)
   81830:	4b54      	ldr	r3, [pc, #336]	; (81984 <noOS_bootup_sequence+0x178>)
   81832:	781b      	ldrb	r3, [r3, #0]
   81834:	2b00      	cmp	r3, #0
   81836:	d003      	beq.n	81840 <noOS_bootup_sequence+0x34>
			{
				blink_level = 0;
   81838:	4b52      	ldr	r3, [pc, #328]	; (81984 <noOS_bootup_sequence+0x178>)
   8183a:	2200      	movs	r2, #0
   8183c:	701a      	strb	r2, [r3, #0]
   8183e:	e002      	b.n	81846 <noOS_bootup_sequence+0x3a>
			}
			else
			{
				blink_level = 1;
   81840:	4b50      	ldr	r3, [pc, #320]	; (81984 <noOS_bootup_sequence+0x178>)
   81842:	2201      	movs	r2, #1
   81844:	701a      	strb	r2, [r3, #0]
			}
			
			ioport_set_pin_level(LED_BAT, blink_level);
   81846:	4b4f      	ldr	r3, [pc, #316]	; (81984 <noOS_bootup_sequence+0x178>)
   81848:	781b      	ldrb	r3, [r3, #0]
   8184a:	2b00      	cmp	r3, #0
   8184c:	bf14      	ite	ne
   8184e:	2301      	movne	r3, #1
   81850:	2300      	moveq	r3, #0
   81852:	b2db      	uxtb	r3, r3
   81854:	4619      	mov	r1, r3
   81856:	2066      	movs	r0, #102	; 0x66
   81858:	4b4b      	ldr	r3, [pc, #300]	; (81988 <noOS_bootup_sequence+0x17c>)
   8185a:	4798      	blx	r3
		}
		
		if (getTicks() >= (ticks_dot_update + 500))
   8185c:	4b47      	ldr	r3, [pc, #284]	; (8197c <noOS_bootup_sequence+0x170>)
   8185e:	4798      	blx	r3
   81860:	4602      	mov	r2, r0
   81862:	4b4a      	ldr	r3, [pc, #296]	; (8198c <noOS_bootup_sequence+0x180>)
   81864:	681b      	ldr	r3, [r3, #0]
   81866:	f503 73fa 	add.w	r3, r3, #500	; 0x1f4
   8186a:	429a      	cmp	r2, r3
   8186c:	d315      	bcc.n	8189a <noOS_bootup_sequence+0x8e>
		{
			ticks_dot_update = getTicks();
   8186e:	4b43      	ldr	r3, [pc, #268]	; (8197c <noOS_bootup_sequence+0x170>)
   81870:	4798      	blx	r3
   81872:	4602      	mov	r2, r0
   81874:	4b45      	ldr	r3, [pc, #276]	; (8198c <noOS_bootup_sequence+0x180>)
   81876:	601a      	str	r2, [r3, #0]
			
			if (dots < 3)
   81878:	4b45      	ldr	r3, [pc, #276]	; (81990 <noOS_bootup_sequence+0x184>)
   8187a:	781b      	ldrb	r3, [r3, #0]
   8187c:	2b02      	cmp	r3, #2
   8187e:	d806      	bhi.n	8188e <noOS_bootup_sequence+0x82>
			{
				dots++;
   81880:	4b43      	ldr	r3, [pc, #268]	; (81990 <noOS_bootup_sequence+0x184>)
   81882:	781b      	ldrb	r3, [r3, #0]
   81884:	3301      	adds	r3, #1
   81886:	b2da      	uxtb	r2, r3
   81888:	4b41      	ldr	r3, [pc, #260]	; (81990 <noOS_bootup_sequence+0x184>)
   8188a:	701a      	strb	r2, [r3, #0]
   8188c:	e002      	b.n	81894 <noOS_bootup_sequence+0x88>
			}
			else
			{
				dots = 0;
   8188e:	4b40      	ldr	r3, [pc, #256]	; (81990 <noOS_bootup_sequence+0x184>)
   81890:	2200      	movs	r2, #0
   81892:	701a      	strb	r2, [r3, #0]
			}
			
			update_dots = 1;
   81894:	4b3f      	ldr	r3, [pc, #252]	; (81994 <noOS_bootup_sequence+0x188>)
   81896:	2201      	movs	r2, #1
   81898:	701a      	strb	r2, [r3, #0]
		}
		
		if (update_dots)
   8189a:	4b3e      	ldr	r3, [pc, #248]	; (81994 <noOS_bootup_sequence+0x188>)
   8189c:	781b      	ldrb	r3, [r3, #0]
   8189e:	2b00      	cmp	r3, #0
   818a0:	d02b      	beq.n	818fa <noOS_bootup_sequence+0xee>
		{
			update_dots = 0;
   818a2:	4b3c      	ldr	r3, [pc, #240]	; (81994 <noOS_bootup_sequence+0x188>)
   818a4:	2200      	movs	r2, #0
   818a6:	701a      	strb	r2, [r3, #0]
			
			switch (dots)
   818a8:	4b39      	ldr	r3, [pc, #228]	; (81990 <noOS_bootup_sequence+0x184>)
   818aa:	781b      	ldrb	r3, [r3, #0]
   818ac:	2b03      	cmp	r3, #3
   818ae:	d823      	bhi.n	818f8 <noOS_bootup_sequence+0xec>
   818b0:	a201      	add	r2, pc, #4	; (adr r2, 818b8 <noOS_bootup_sequence+0xac>)
   818b2:	f852 f023 	ldr.w	pc, [r2, r3, lsl #2]
   818b6:	bf00      	nop
   818b8:	000818c9 	.word	0x000818c9
   818bc:	000818d5 	.word	0x000818d5
   818c0:	000818e1 	.word	0x000818e1
   818c4:	000818ed 	.word	0x000818ed
			{
				case 0:
				print_s(2, 2, "booting noOS   ");
   818c8:	4a33      	ldr	r2, [pc, #204]	; (81998 <noOS_bootup_sequence+0x18c>)
   818ca:	2102      	movs	r1, #2
   818cc:	2002      	movs	r0, #2
   818ce:	4b33      	ldr	r3, [pc, #204]	; (8199c <noOS_bootup_sequence+0x190>)
   818d0:	4798      	blx	r3
				break;
   818d2:	e012      	b.n	818fa <noOS_bootup_sequence+0xee>
				case 1:
				print_s(2, 14, ".");
   818d4:	4a32      	ldr	r2, [pc, #200]	; (819a0 <noOS_bootup_sequence+0x194>)
   818d6:	210e      	movs	r1, #14
   818d8:	2002      	movs	r0, #2
   818da:	4b30      	ldr	r3, [pc, #192]	; (8199c <noOS_bootup_sequence+0x190>)
   818dc:	4798      	blx	r3
				break;
   818de:	e00c      	b.n	818fa <noOS_bootup_sequence+0xee>
				case 2:
				print_s(2, 15, ".");
   818e0:	4a2f      	ldr	r2, [pc, #188]	; (819a0 <noOS_bootup_sequence+0x194>)
   818e2:	210f      	movs	r1, #15
   818e4:	2002      	movs	r0, #2
   818e6:	4b2d      	ldr	r3, [pc, #180]	; (8199c <noOS_bootup_sequence+0x190>)
   818e8:	4798      	blx	r3
				break;
   818ea:	e006      	b.n	818fa <noOS_bootup_sequence+0xee>
				case 3:
				print_s(2, 16, ".");
   818ec:	4a2c      	ldr	r2, [pc, #176]	; (819a0 <noOS_bootup_sequence+0x194>)
   818ee:	2110      	movs	r1, #16
   818f0:	2002      	movs	r0, #2
   818f2:	4b2a      	ldr	r3, [pc, #168]	; (8199c <noOS_bootup_sequence+0x190>)
   818f4:	4798      	blx	r3
				break;
   818f6:	e000      	b.n	818fa <noOS_bootup_sequence+0xee>
				default:
				break;
   818f8:	bf00      	nop
	while (ioport_get_pin_level(PB_MID))
   818fa:	2062      	movs	r0, #98	; 0x62
   818fc:	4b29      	ldr	r3, [pc, #164]	; (819a4 <noOS_bootup_sequence+0x198>)
   818fe:	4798      	blx	r3
   81900:	4603      	mov	r3, r0
   81902:	2b00      	cmp	r3, #0
   81904:	d186      	bne.n	81814 <noOS_bootup_sequence+0x8>
			}
		}
	}
	
	for(int i = 0; i< 3; i++)
   81906:	2300      	movs	r3, #0
   81908:	607b      	str	r3, [r7, #4]
   8190a:	e030      	b.n	8196e <noOS_bootup_sequence+0x162>
	{
		ioport_set_pin_level(LED_ONBOARD, 1);
   8190c:	2101      	movs	r1, #1
   8190e:	206a      	movs	r0, #106	; 0x6a
   81910:	4b1d      	ldr	r3, [pc, #116]	; (81988 <noOS_bootup_sequence+0x17c>)
   81912:	4798      	blx	r3
		ioport_set_pin_level(LED_BAT, 1);
   81914:	2101      	movs	r1, #1
   81916:	2066      	movs	r0, #102	; 0x66
   81918:	4b1b      	ldr	r3, [pc, #108]	; (81988 <noOS_bootup_sequence+0x17c>)
   8191a:	4798      	blx	r3
		ioport_set_pin_level(LED_M1, 1);
   8191c:	2101      	movs	r1, #1
   8191e:	2067      	movs	r0, #103	; 0x67
   81920:	4b19      	ldr	r3, [pc, #100]	; (81988 <noOS_bootup_sequence+0x17c>)
   81922:	4798      	blx	r3
		ioport_set_pin_level(LED_M2, 1);
   81924:	2101      	movs	r1, #1
   81926:	2068      	movs	r0, #104	; 0x68
   81928:	4b17      	ldr	r3, [pc, #92]	; (81988 <noOS_bootup_sequence+0x17c>)
   8192a:	4798      	blx	r3
		ioport_set_pin_level(LED_M3, 1);
   8192c:	2101      	movs	r1, #1
   8192e:	2069      	movs	r0, #105	; 0x69
   81930:	4b15      	ldr	r3, [pc, #84]	; (81988 <noOS_bootup_sequence+0x17c>)
   81932:	4798      	blx	r3
		mdelay(100);
   81934:	2064      	movs	r0, #100	; 0x64
   81936:	4b1c      	ldr	r3, [pc, #112]	; (819a8 <noOS_bootup_sequence+0x19c>)
   81938:	4798      	blx	r3
		ioport_set_pin_level(LED_ONBOARD, 0);
   8193a:	2100      	movs	r1, #0
   8193c:	206a      	movs	r0, #106	; 0x6a
   8193e:	4b12      	ldr	r3, [pc, #72]	; (81988 <noOS_bootup_sequence+0x17c>)
   81940:	4798      	blx	r3
		ioport_set_pin_level(LED_BAT, 0);
   81942:	2100      	movs	r1, #0
   81944:	2066      	movs	r0, #102	; 0x66
   81946:	4b10      	ldr	r3, [pc, #64]	; (81988 <noOS_bootup_sequence+0x17c>)
   81948:	4798      	blx	r3
		ioport_set_pin_level(LED_M1, 0);
   8194a:	2100      	movs	r1, #0
   8194c:	2067      	movs	r0, #103	; 0x67
   8194e:	4b0e      	ldr	r3, [pc, #56]	; (81988 <noOS_bootup_sequence+0x17c>)
   81950:	4798      	blx	r3
		ioport_set_pin_level(LED_M2, 0);
   81952:	2100      	movs	r1, #0
   81954:	2068      	movs	r0, #104	; 0x68
   81956:	4b0c      	ldr	r3, [pc, #48]	; (81988 <noOS_bootup_sequence+0x17c>)
   81958:	4798      	blx	r3
		ioport_set_pin_level(LED_M3, 0);
   8195a:	2100      	movs	r1, #0
   8195c:	2069      	movs	r0, #105	; 0x69
   8195e:	4b0a      	ldr	r3, [pc, #40]	; (81988 <noOS_bootup_sequence+0x17c>)
   81960:	4798      	blx	r3
		mdelay(100);
   81962:	2064      	movs	r0, #100	; 0x64
   81964:	4b10      	ldr	r3, [pc, #64]	; (819a8 <noOS_bootup_sequence+0x19c>)
   81966:	4798      	blx	r3
	for(int i = 0; i< 3; i++)
   81968:	687b      	ldr	r3, [r7, #4]
   8196a:	3301      	adds	r3, #1
   8196c:	607b      	str	r3, [r7, #4]
   8196e:	687b      	ldr	r3, [r7, #4]
   81970:	2b02      	cmp	r3, #2
   81972:	ddcb      	ble.n	8190c <noOS_bootup_sequence+0x100>
	}
}
   81974:	bf00      	nop
   81976:	3708      	adds	r7, #8
   81978:	46bd      	mov	sp, r7
   8197a:	bd80      	pop	{r7, pc}
   8197c:	000808e1 	.word	0x000808e1
   81980:	20070bdc 	.word	0x20070bdc
   81984:	20070bd6 	.word	0x20070bd6
   81988:	000816c5 	.word	0x000816c5
   8198c:	20070bf8 	.word	0x20070bf8
   81990:	20070b85 	.word	0x20070b85
   81994:	20070191 	.word	0x20070191
   81998:	00086b38 	.word	0x00086b38
   8199c:	00080625 	.word	0x00080625
   819a0:	00086b48 	.word	0x00086b48
   819a4:	0008172f 	.word	0x0008172f
   819a8:	000808f5 	.word	0x000808f5

000819ac <menu>:

void menu(event_t event1)
{
   819ac:	b580      	push	{r7, lr}
   819ae:	b082      	sub	sp, #8
   819b0:	af00      	add	r7, sp, #0
   819b2:	4603      	mov	r3, r0
   819b4:	71fb      	strb	r3, [r7, #7]
	switch (event1)
   819b6:	79fb      	ldrb	r3, [r7, #7]
   819b8:	2b01      	cmp	r3, #1
   819ba:	d002      	beq.n	819c2 <menu+0x16>
   819bc:	2b0d      	cmp	r3, #13
   819be:	d026      	beq.n	81a0e <menu+0x62>
				print_cursor();
			}
		}
		break;
		default:
		break;
   819c0:	e04e      	b.n	81a60 <menu+0xb4>
		if (act_cursor_line > min_cursor_line)
   819c2:	4b32      	ldr	r3, [pc, #200]	; (81a8c <menu+0xe0>)
   819c4:	781a      	ldrb	r2, [r3, #0]
   819c6:	4b32      	ldr	r3, [pc, #200]	; (81a90 <menu+0xe4>)
   819c8:	781b      	ldrb	r3, [r3, #0]
   819ca:	429a      	cmp	r2, r3
   819cc:	d945      	bls.n	81a5a <menu+0xae>
			act_cursor_line--;
   819ce:	4b2f      	ldr	r3, [pc, #188]	; (81a8c <menu+0xe0>)
   819d0:	781b      	ldrb	r3, [r3, #0]
   819d2:	3b01      	subs	r3, #1
   819d4:	b2da      	uxtb	r2, r3
   819d6:	4b2d      	ldr	r3, [pc, #180]	; (81a8c <menu+0xe0>)
   819d8:	701a      	strb	r2, [r3, #0]
			if (act_cursor_line_on_lcd == 1)
   819da:	4b2e      	ldr	r3, [pc, #184]	; (81a94 <menu+0xe8>)
   819dc:	781b      	ldrb	r3, [r3, #0]
   819de:	2b01      	cmp	r3, #1
   819e0:	d10c      	bne.n	819fc <menu+0x50>
				if (act_menu == MENU_MAIN)
   819e2:	4b2d      	ldr	r3, [pc, #180]	; (81a98 <menu+0xec>)
   819e4:	781b      	ldrb	r3, [r3, #0]
   819e6:	2b00      	cmp	r3, #0
   819e8:	d137      	bne.n	81a5a <menu+0xae>
					menu_main_scroll--;
   819ea:	4b2c      	ldr	r3, [pc, #176]	; (81a9c <menu+0xf0>)
   819ec:	781b      	ldrb	r3, [r3, #0]
   819ee:	3b01      	subs	r3, #1
   819f0:	b2da      	uxtb	r2, r3
   819f2:	4b2a      	ldr	r3, [pc, #168]	; (81a9c <menu+0xf0>)
   819f4:	701a      	strb	r2, [r3, #0]
					print_menu_main();
   819f6:	4b2a      	ldr	r3, [pc, #168]	; (81aa0 <menu+0xf4>)
   819f8:	4798      	blx	r3
		break;
   819fa:	e02e      	b.n	81a5a <menu+0xae>
				act_cursor_line_on_lcd--;
   819fc:	4b25      	ldr	r3, [pc, #148]	; (81a94 <menu+0xe8>)
   819fe:	781b      	ldrb	r3, [r3, #0]
   81a00:	3b01      	subs	r3, #1
   81a02:	b2da      	uxtb	r2, r3
   81a04:	4b23      	ldr	r3, [pc, #140]	; (81a94 <menu+0xe8>)
   81a06:	701a      	strb	r2, [r3, #0]
				print_cursor();
   81a08:	4b26      	ldr	r3, [pc, #152]	; (81aa4 <menu+0xf8>)
   81a0a:	4798      	blx	r3
		break;
   81a0c:	e025      	b.n	81a5a <menu+0xae>
		if (act_cursor_line < max_cursor_line)
   81a0e:	4b1f      	ldr	r3, [pc, #124]	; (81a8c <menu+0xe0>)
   81a10:	781a      	ldrb	r2, [r3, #0]
   81a12:	4b25      	ldr	r3, [pc, #148]	; (81aa8 <menu+0xfc>)
   81a14:	781b      	ldrb	r3, [r3, #0]
   81a16:	429a      	cmp	r2, r3
   81a18:	d221      	bcs.n	81a5e <menu+0xb2>
			act_cursor_line++;
   81a1a:	4b1c      	ldr	r3, [pc, #112]	; (81a8c <menu+0xe0>)
   81a1c:	781b      	ldrb	r3, [r3, #0]
   81a1e:	3301      	adds	r3, #1
   81a20:	b2da      	uxtb	r2, r3
   81a22:	4b1a      	ldr	r3, [pc, #104]	; (81a8c <menu+0xe0>)
   81a24:	701a      	strb	r2, [r3, #0]
			if (act_cursor_line_on_lcd == 4)
   81a26:	4b1b      	ldr	r3, [pc, #108]	; (81a94 <menu+0xe8>)
   81a28:	781b      	ldrb	r3, [r3, #0]
   81a2a:	2b04      	cmp	r3, #4
   81a2c:	d10c      	bne.n	81a48 <menu+0x9c>
				if (act_menu == MENU_MAIN)
   81a2e:	4b1a      	ldr	r3, [pc, #104]	; (81a98 <menu+0xec>)
   81a30:	781b      	ldrb	r3, [r3, #0]
   81a32:	2b00      	cmp	r3, #0
   81a34:	d113      	bne.n	81a5e <menu+0xb2>
					menu_main_scroll++;
   81a36:	4b19      	ldr	r3, [pc, #100]	; (81a9c <menu+0xf0>)
   81a38:	781b      	ldrb	r3, [r3, #0]
   81a3a:	3301      	adds	r3, #1
   81a3c:	b2da      	uxtb	r2, r3
   81a3e:	4b17      	ldr	r3, [pc, #92]	; (81a9c <menu+0xf0>)
   81a40:	701a      	strb	r2, [r3, #0]
					print_menu_main();
   81a42:	4b17      	ldr	r3, [pc, #92]	; (81aa0 <menu+0xf4>)
   81a44:	4798      	blx	r3
		break;
   81a46:	e00a      	b.n	81a5e <menu+0xb2>
				act_cursor_line_on_lcd++;
   81a48:	4b12      	ldr	r3, [pc, #72]	; (81a94 <menu+0xe8>)
   81a4a:	781b      	ldrb	r3, [r3, #0]
   81a4c:	3301      	adds	r3, #1
   81a4e:	b2da      	uxtb	r2, r3
   81a50:	4b10      	ldr	r3, [pc, #64]	; (81a94 <menu+0xe8>)
   81a52:	701a      	strb	r2, [r3, #0]
				print_cursor();
   81a54:	4b13      	ldr	r3, [pc, #76]	; (81aa4 <menu+0xf8>)
   81a56:	4798      	blx	r3
		break;
   81a58:	e001      	b.n	81a5e <menu+0xb2>
		break;
   81a5a:	bf00      	nop
   81a5c:	e000      	b.n	81a60 <menu+0xb4>
		break;
   81a5e:	bf00      	nop
	}
	
	switch (act_menu)
   81a60:	4b0d      	ldr	r3, [pc, #52]	; (81a98 <menu+0xec>)
   81a62:	781b      	ldrb	r3, [r3, #0]
   81a64:	2b00      	cmp	r3, #0
   81a66:	d002      	beq.n	81a6e <menu+0xc2>
   81a68:	2b01      	cmp	r3, #1
   81a6a:	d005      	beq.n	81a78 <menu+0xcc>
		break;
		case MENU_SETTINGS:
		menu_settings(event1);
		break;
		default:
		break;
   81a6c:	e009      	b.n	81a82 <menu+0xd6>
		menu_main(event1);
   81a6e:	79fb      	ldrb	r3, [r7, #7]
   81a70:	4618      	mov	r0, r3
   81a72:	4b0e      	ldr	r3, [pc, #56]	; (81aac <menu+0x100>)
   81a74:	4798      	blx	r3
		break;
   81a76:	e004      	b.n	81a82 <menu+0xd6>
		menu_settings(event1);
   81a78:	79fb      	ldrb	r3, [r7, #7]
   81a7a:	4618      	mov	r0, r3
   81a7c:	4b0c      	ldr	r3, [pc, #48]	; (81ab0 <menu+0x104>)
   81a7e:	4798      	blx	r3
		break;
   81a80:	bf00      	nop
	}
}
   81a82:	bf00      	nop
   81a84:	3708      	adds	r7, #8
   81a86:	46bd      	mov	sp, r7
   81a88:	bd80      	pop	{r7, pc}
   81a8a:	bf00      	nop
   81a8c:	20070194 	.word	0x20070194
   81a90:	20070196 	.word	0x20070196
   81a94:	20070192 	.word	0x20070192
   81a98:	20070b87 	.word	0x20070b87
   81a9c:	20070b86 	.word	0x20070b86
   81aa0:	00081c01 	.word	0x00081c01
   81aa4:	00081e99 	.word	0x00081e99
   81aa8:	20070197 	.word	0x20070197
   81aac:	00081ab5 	.word	0x00081ab5
   81ab0:	00081bed 	.word	0x00081bed

00081ab4 <menu_main>:

void menu_main(event_t event1)
{
   81ab4:	b580      	push	{r7, lr}
   81ab6:	b082      	sub	sp, #8
   81ab8:	af00      	add	r7, sp, #0
   81aba:	4603      	mov	r3, r0
   81abc:	71fb      	strb	r3, [r7, #7]
	switch (event1)
   81abe:	79fb      	ldrb	r3, [r7, #7]
   81ac0:	2b07      	cmp	r3, #7
   81ac2:	d004      	beq.n	81ace <menu_main+0x1a>
   81ac4:	2b0a      	cmp	r3, #10
   81ac6:	d066      	beq.n	81b96 <menu_main+0xe2>
   81ac8:	2b04      	cmp	r3, #4
   81aca:	d052      	beq.n	81b72 <menu_main+0xbe>
			}
			print_menu = 1;
		}
		break;
		default:
		break;
   81acc:	e078      	b.n	81bc0 <menu_main+0x10c>
		switch (menu_main_column)
   81ace:	4b43      	ldr	r3, [pc, #268]	; (81bdc <menu_main+0x128>)
   81ad0:	781b      	ldrb	r3, [r3, #0]
   81ad2:	2b01      	cmp	r3, #1
   81ad4:	d01c      	beq.n	81b10 <menu_main+0x5c>
   81ad6:	2b02      	cmp	r3, #2
   81ad8:	d032      	beq.n	81b40 <menu_main+0x8c>
   81ada:	2b00      	cmp	r3, #0
   81adc:	d000      	beq.n	81ae0 <menu_main+0x2c>
		break;
   81ade:	e06f      	b.n	81bc0 <menu_main+0x10c>
			switch (act_cursor_line)
   81ae0:	4b3f      	ldr	r3, [pc, #252]	; (81be0 <menu_main+0x12c>)
   81ae2:	781b      	ldrb	r3, [r3, #0]
   81ae4:	3b02      	subs	r3, #2
   81ae6:	2b06      	cmp	r3, #6
   81ae8:	d810      	bhi.n	81b0c <menu_main+0x58>
   81aea:	a201      	add	r2, pc, #4	; (adr r2, 81af0 <menu_main+0x3c>)
   81aec:	f852 f023 	ldr.w	pc, [r2, r3, lsl #2]
   81af0:	00081b0d 	.word	0x00081b0d
   81af4:	00081b0d 	.word	0x00081b0d
   81af8:	00081b0d 	.word	0x00081b0d
   81afc:	00081b0d 	.word	0x00081b0d
   81b00:	00081b0d 	.word	0x00081b0d
   81b04:	00081b0d 	.word	0x00081b0d
   81b08:	00081b0d 	.word	0x00081b0d
				break;
   81b0c:	bf00      	nop
			break;
   81b0e:	e02f      	b.n	81b70 <menu_main+0xbc>
			switch (act_cursor_line)
   81b10:	4b33      	ldr	r3, [pc, #204]	; (81be0 <menu_main+0x12c>)
   81b12:	781b      	ldrb	r3, [r3, #0]
   81b14:	3b02      	subs	r3, #2
   81b16:	2b06      	cmp	r3, #6
   81b18:	d810      	bhi.n	81b3c <menu_main+0x88>
   81b1a:	a201      	add	r2, pc, #4	; (adr r2, 81b20 <menu_main+0x6c>)
   81b1c:	f852 f023 	ldr.w	pc, [r2, r3, lsl #2]
   81b20:	00081b3d 	.word	0x00081b3d
   81b24:	00081b3d 	.word	0x00081b3d
   81b28:	00081b3d 	.word	0x00081b3d
   81b2c:	00081b3d 	.word	0x00081b3d
   81b30:	00081b3d 	.word	0x00081b3d
   81b34:	00081b3d 	.word	0x00081b3d
   81b38:	00081b3d 	.word	0x00081b3d
				break;
   81b3c:	bf00      	nop
			break;
   81b3e:	e017      	b.n	81b70 <menu_main+0xbc>
			switch (act_cursor_line)
   81b40:	4b27      	ldr	r3, [pc, #156]	; (81be0 <menu_main+0x12c>)
   81b42:	781b      	ldrb	r3, [r3, #0]
   81b44:	3b02      	subs	r3, #2
   81b46:	2b06      	cmp	r3, #6
   81b48:	d810      	bhi.n	81b6c <menu_main+0xb8>
   81b4a:	a201      	add	r2, pc, #4	; (adr r2, 81b50 <menu_main+0x9c>)
   81b4c:	f852 f023 	ldr.w	pc, [r2, r3, lsl #2]
   81b50:	00081b6d 	.word	0x00081b6d
   81b54:	00081b6d 	.word	0x00081b6d
   81b58:	00081b6d 	.word	0x00081b6d
   81b5c:	00081b6d 	.word	0x00081b6d
   81b60:	00081b6d 	.word	0x00081b6d
   81b64:	00081b6d 	.word	0x00081b6d
   81b68:	00081b6d 	.word	0x00081b6d
				break;
   81b6c:	bf00      	nop
			break;
   81b6e:	bf00      	nop
		break;
   81b70:	e026      	b.n	81bc0 <menu_main+0x10c>
		if (act_cursor_line == 1)
   81b72:	4b1b      	ldr	r3, [pc, #108]	; (81be0 <menu_main+0x12c>)
   81b74:	781b      	ldrb	r3, [r3, #0]
   81b76:	2b01      	cmp	r3, #1
   81b78:	d11f      	bne.n	81bba <menu_main+0x106>
			if (menu_main_column >= 1)
   81b7a:	4b18      	ldr	r3, [pc, #96]	; (81bdc <menu_main+0x128>)
   81b7c:	781b      	ldrb	r3, [r3, #0]
   81b7e:	2b00      	cmp	r3, #0
   81b80:	d005      	beq.n	81b8e <menu_main+0xda>
				menu_main_column--;
   81b82:	4b16      	ldr	r3, [pc, #88]	; (81bdc <menu_main+0x128>)
   81b84:	781b      	ldrb	r3, [r3, #0]
   81b86:	3b01      	subs	r3, #1
   81b88:	b2da      	uxtb	r2, r3
   81b8a:	4b14      	ldr	r3, [pc, #80]	; (81bdc <menu_main+0x128>)
   81b8c:	701a      	strb	r2, [r3, #0]
			print_menu = 1;
   81b8e:	4b15      	ldr	r3, [pc, #84]	; (81be4 <menu_main+0x130>)
   81b90:	2201      	movs	r2, #1
   81b92:	701a      	strb	r2, [r3, #0]
		break;
   81b94:	e011      	b.n	81bba <menu_main+0x106>
		if (act_cursor_line == 1)
   81b96:	4b12      	ldr	r3, [pc, #72]	; (81be0 <menu_main+0x12c>)
   81b98:	781b      	ldrb	r3, [r3, #0]
   81b9a:	2b01      	cmp	r3, #1
   81b9c:	d10f      	bne.n	81bbe <menu_main+0x10a>
			if (menu_main_column <= 1)
   81b9e:	4b0f      	ldr	r3, [pc, #60]	; (81bdc <menu_main+0x128>)
   81ba0:	781b      	ldrb	r3, [r3, #0]
   81ba2:	2b01      	cmp	r3, #1
   81ba4:	d805      	bhi.n	81bb2 <menu_main+0xfe>
				menu_main_column++;
   81ba6:	4b0d      	ldr	r3, [pc, #52]	; (81bdc <menu_main+0x128>)
   81ba8:	781b      	ldrb	r3, [r3, #0]
   81baa:	3301      	adds	r3, #1
   81bac:	b2da      	uxtb	r2, r3
   81bae:	4b0b      	ldr	r3, [pc, #44]	; (81bdc <menu_main+0x128>)
   81bb0:	701a      	strb	r2, [r3, #0]
			print_menu = 1;
   81bb2:	4b0c      	ldr	r3, [pc, #48]	; (81be4 <menu_main+0x130>)
   81bb4:	2201      	movs	r2, #1
   81bb6:	701a      	strb	r2, [r3, #0]
		break;
   81bb8:	e001      	b.n	81bbe <menu_main+0x10a>
		break;
   81bba:	bf00      	nop
   81bbc:	e000      	b.n	81bc0 <menu_main+0x10c>
		break;
   81bbe:	bf00      	nop
	}
	
	if (print_menu)
   81bc0:	4b08      	ldr	r3, [pc, #32]	; (81be4 <menu_main+0x130>)
   81bc2:	781b      	ldrb	r3, [r3, #0]
   81bc4:	2b00      	cmp	r3, #0
   81bc6:	d004      	beq.n	81bd2 <menu_main+0x11e>
	{
		print_menu = 0;
   81bc8:	4b06      	ldr	r3, [pc, #24]	; (81be4 <menu_main+0x130>)
   81bca:	2200      	movs	r2, #0
   81bcc:	701a      	strb	r2, [r3, #0]
		print_menu_main();
   81bce:	4b06      	ldr	r3, [pc, #24]	; (81be8 <menu_main+0x134>)
   81bd0:	4798      	blx	r3
	}
}
   81bd2:	bf00      	nop
   81bd4:	3708      	adds	r7, #8
   81bd6:	46bd      	mov	sp, r7
   81bd8:	bd80      	pop	{r7, pc}
   81bda:	bf00      	nop
   81bdc:	20070198 	.word	0x20070198
   81be0:	20070194 	.word	0x20070194
   81be4:	20070199 	.word	0x20070199
   81be8:	00081c01 	.word	0x00081c01

00081bec <menu_settings>:

void menu_settings(event_t event1)
{
   81bec:	b480      	push	{r7}
   81bee:	b083      	sub	sp, #12
   81bf0:	af00      	add	r7, sp, #0
   81bf2:	4603      	mov	r3, r0
   81bf4:	71fb      	strb	r3, [r7, #7]
	
}
   81bf6:	bf00      	nop
   81bf8:	370c      	adds	r7, #12
   81bfa:	46bd      	mov	sp, r7
   81bfc:	bc80      	pop	{r7}
   81bfe:	4770      	bx	lr

00081c00 <print_menu_main>:

void print_menu_main(void)
{
   81c00:	b580      	push	{r7, lr}
   81c02:	af00      	add	r7, sp, #0
	lcd_clear();
   81c04:	4b8a      	ldr	r3, [pc, #552]	; (81e30 <print_menu_main+0x230>)
   81c06:	4798      	blx	r3
	
	switch(menu_main_column)
   81c08:	4b8a      	ldr	r3, [pc, #552]	; (81e34 <print_menu_main+0x234>)
   81c0a:	781b      	ldrb	r3, [r3, #0]
   81c0c:	2b01      	cmp	r3, #1
   81c0e:	d068      	beq.n	81ce2 <print_menu_main+0xe2>
   81c10:	2b02      	cmp	r3, #2
   81c12:	f000 80b7 	beq.w	81d84 <print_menu_main+0x184>
   81c16:	2b00      	cmp	r3, #0
   81c18:	f040 8105 	bne.w	81e26 <print_menu_main+0x226>
	{
		case 0:
		print_s(1 - menu_main_scroll, 3, "Settings  ");
   81c1c:	4b86      	ldr	r3, [pc, #536]	; (81e38 <print_menu_main+0x238>)
   81c1e:	781b      	ldrb	r3, [r3, #0]
   81c20:	f1c3 0301 	rsb	r3, r3, #1
   81c24:	b2db      	uxtb	r3, r3
   81c26:	4a85      	ldr	r2, [pc, #532]	; (81e3c <print_menu_main+0x23c>)
   81c28:	2103      	movs	r1, #3
   81c2a:	4618      	mov	r0, r3
   81c2c:	4b84      	ldr	r3, [pc, #528]	; (81e40 <print_menu_main+0x240>)
   81c2e:	4798      	blx	r3
		sprintf(sprintf_cache, "Robot ID: %1d", rbt_id);
   81c30:	4b84      	ldr	r3, [pc, #528]	; (81e44 <print_menu_main+0x244>)
   81c32:	f993 3000 	ldrsb.w	r3, [r3]
   81c36:	461a      	mov	r2, r3
   81c38:	4983      	ldr	r1, [pc, #524]	; (81e48 <print_menu_main+0x248>)
   81c3a:	4884      	ldr	r0, [pc, #528]	; (81e4c <print_menu_main+0x24c>)
   81c3c:	4b84      	ldr	r3, [pc, #528]	; (81e50 <print_menu_main+0x250>)
   81c3e:	4798      	blx	r3
		print_s(2 - menu_main_scroll, 1, sprintf_cache);
   81c40:	4b7d      	ldr	r3, [pc, #500]	; (81e38 <print_menu_main+0x238>)
   81c42:	781b      	ldrb	r3, [r3, #0]
   81c44:	f1c3 0302 	rsb	r3, r3, #2
   81c48:	b2db      	uxtb	r3, r3
   81c4a:	4a80      	ldr	r2, [pc, #512]	; (81e4c <print_menu_main+0x24c>)
   81c4c:	2101      	movs	r1, #1
   81c4e:	4618      	mov	r0, r3
   81c50:	4b7b      	ldr	r3, [pc, #492]	; (81e40 <print_menu_main+0x240>)
   81c52:	4798      	blx	r3
		sprintf(sprintf_cache, "Speed: %2d", 15);	//speed_preset
   81c54:	220f      	movs	r2, #15
   81c56:	497f      	ldr	r1, [pc, #508]	; (81e54 <print_menu_main+0x254>)
   81c58:	487c      	ldr	r0, [pc, #496]	; (81e4c <print_menu_main+0x24c>)
   81c5a:	4b7d      	ldr	r3, [pc, #500]	; (81e50 <print_menu_main+0x250>)
   81c5c:	4798      	blx	r3
		print_s(3 - menu_main_scroll, 1, sprintf_cache);
   81c5e:	4b76      	ldr	r3, [pc, #472]	; (81e38 <print_menu_main+0x238>)
   81c60:	781b      	ldrb	r3, [r3, #0]
   81c62:	f1c3 0303 	rsb	r3, r3, #3
   81c66:	b2db      	uxtb	r3, r3
   81c68:	4a78      	ldr	r2, [pc, #480]	; (81e4c <print_menu_main+0x24c>)
   81c6a:	2101      	movs	r1, #1
   81c6c:	4618      	mov	r0, r3
   81c6e:	4b74      	ldr	r3, [pc, #464]	; (81e40 <print_menu_main+0x240>)
   81c70:	4798      	blx	r3
		sprintf(sprintf_cache, "WIFI: %1d", 1);	//rpi_tx.info.wifi
   81c72:	2201      	movs	r2, #1
   81c74:	4978      	ldr	r1, [pc, #480]	; (81e58 <print_menu_main+0x258>)
   81c76:	4875      	ldr	r0, [pc, #468]	; (81e4c <print_menu_main+0x24c>)
   81c78:	4b75      	ldr	r3, [pc, #468]	; (81e50 <print_menu_main+0x250>)
   81c7a:	4798      	blx	r3
		print_s(4 - menu_main_scroll, 1, sprintf_cache);
   81c7c:	4b6e      	ldr	r3, [pc, #440]	; (81e38 <print_menu_main+0x238>)
   81c7e:	781b      	ldrb	r3, [r3, #0]
   81c80:	f1c3 0304 	rsb	r3, r3, #4
   81c84:	b2db      	uxtb	r3, r3
   81c86:	4a71      	ldr	r2, [pc, #452]	; (81e4c <print_menu_main+0x24c>)
   81c88:	2101      	movs	r1, #1
   81c8a:	4618      	mov	r0, r3
   81c8c:	4b6c      	ldr	r3, [pc, #432]	; (81e40 <print_menu_main+0x240>)
   81c8e:	4798      	blx	r3
		print_s(5 - menu_main_scroll, 1, "Calibrate");
   81c90:	4b69      	ldr	r3, [pc, #420]	; (81e38 <print_menu_main+0x238>)
   81c92:	781b      	ldrb	r3, [r3, #0]
   81c94:	f1c3 0305 	rsb	r3, r3, #5
   81c98:	b2db      	uxtb	r3, r3
   81c9a:	4a70      	ldr	r2, [pc, #448]	; (81e5c <print_menu_main+0x25c>)
   81c9c:	2101      	movs	r1, #1
   81c9e:	4618      	mov	r0, r3
   81ca0:	4b67      	ldr	r3, [pc, #412]	; (81e40 <print_menu_main+0x240>)
   81ca2:	4798      	blx	r3
		print_s(6 - menu_main_scroll, 1, "Set field size ref");
   81ca4:	4b64      	ldr	r3, [pc, #400]	; (81e38 <print_menu_main+0x238>)
   81ca6:	781b      	ldrb	r3, [r3, #0]
   81ca8:	f1c3 0306 	rsb	r3, r3, #6
   81cac:	b2db      	uxtb	r3, r3
   81cae:	4a6c      	ldr	r2, [pc, #432]	; (81e60 <print_menu_main+0x260>)
   81cb0:	2101      	movs	r1, #1
   81cb2:	4618      	mov	r0, r3
   81cb4:	4b62      	ldr	r3, [pc, #392]	; (81e40 <print_menu_main+0x240>)
   81cb6:	4798      	blx	r3
		print_s(7 - menu_main_scroll, 1, "");
   81cb8:	4b5f      	ldr	r3, [pc, #380]	; (81e38 <print_menu_main+0x238>)
   81cba:	781b      	ldrb	r3, [r3, #0]
   81cbc:	f1c3 0307 	rsb	r3, r3, #7
   81cc0:	b2db      	uxtb	r3, r3
   81cc2:	4a68      	ldr	r2, [pc, #416]	; (81e64 <print_menu_main+0x264>)
   81cc4:	2101      	movs	r1, #1
   81cc6:	4618      	mov	r0, r3
   81cc8:	4b5d      	ldr	r3, [pc, #372]	; (81e40 <print_menu_main+0x240>)
   81cca:	4798      	blx	r3
		print_s(8 - menu_main_scroll, 1, "");
   81ccc:	4b5a      	ldr	r3, [pc, #360]	; (81e38 <print_menu_main+0x238>)
   81cce:	781b      	ldrb	r3, [r3, #0]
   81cd0:	f1c3 0308 	rsb	r3, r3, #8
   81cd4:	b2db      	uxtb	r3, r3
   81cd6:	4a63      	ldr	r2, [pc, #396]	; (81e64 <print_menu_main+0x264>)
   81cd8:	2101      	movs	r1, #1
   81cda:	4618      	mov	r0, r3
   81cdc:	4b58      	ldr	r3, [pc, #352]	; (81e40 <print_menu_main+0x240>)
   81cde:	4798      	blx	r3
		break;
   81ce0:	e0a1      	b.n	81e26 <print_menu_main+0x226>
		case 1:
		print_s(1 - menu_main_scroll, 3, "  Match  ");
   81ce2:	4b55      	ldr	r3, [pc, #340]	; (81e38 <print_menu_main+0x238>)
   81ce4:	781b      	ldrb	r3, [r3, #0]
   81ce6:	f1c3 0301 	rsb	r3, r3, #1
   81cea:	b2db      	uxtb	r3, r3
   81cec:	4a5e      	ldr	r2, [pc, #376]	; (81e68 <print_menu_main+0x268>)
   81cee:	2103      	movs	r1, #3
   81cf0:	4618      	mov	r0, r3
   81cf2:	4b53      	ldr	r3, [pc, #332]	; (81e40 <print_menu_main+0x240>)
   81cf4:	4798      	blx	r3
		print_s(2 - menu_main_scroll, 1, "Start match");
   81cf6:	4b50      	ldr	r3, [pc, #320]	; (81e38 <print_menu_main+0x238>)
   81cf8:	781b      	ldrb	r3, [r3, #0]
   81cfa:	f1c3 0302 	rsb	r3, r3, #2
   81cfe:	b2db      	uxtb	r3, r3
   81d00:	4a5a      	ldr	r2, [pc, #360]	; (81e6c <print_menu_main+0x26c>)
   81d02:	2101      	movs	r1, #1
   81d04:	4618      	mov	r0, r3
   81d06:	4b4e      	ldr	r3, [pc, #312]	; (81e40 <print_menu_main+0x240>)
   81d08:	4798      	blx	r3
		print_s(3 - menu_main_scroll, 1, "Sensor values");
   81d0a:	4b4b      	ldr	r3, [pc, #300]	; (81e38 <print_menu_main+0x238>)
   81d0c:	781b      	ldrb	r3, [r3, #0]
   81d0e:	f1c3 0303 	rsb	r3, r3, #3
   81d12:	b2db      	uxtb	r3, r3
   81d14:	4a56      	ldr	r2, [pc, #344]	; (81e70 <print_menu_main+0x270>)
   81d16:	2101      	movs	r1, #1
   81d18:	4618      	mov	r0, r3
   81d1a:	4b49      	ldr	r3, [pc, #292]	; (81e40 <print_menu_main+0x240>)
   81d1c:	4798      	blx	r3
		print_s(4 - menu_main_scroll, 1, "Drive angle pid");
   81d1e:	4b46      	ldr	r3, [pc, #280]	; (81e38 <print_menu_main+0x238>)
   81d20:	781b      	ldrb	r3, [r3, #0]
   81d22:	f1c3 0304 	rsb	r3, r3, #4
   81d26:	b2db      	uxtb	r3, r3
   81d28:	4a52      	ldr	r2, [pc, #328]	; (81e74 <print_menu_main+0x274>)
   81d2a:	2101      	movs	r1, #1
   81d2c:	4618      	mov	r0, r3
   81d2e:	4b44      	ldr	r3, [pc, #272]	; (81e40 <print_menu_main+0x240>)
   81d30:	4798      	blx	r3
		print_s(5 - menu_main_scroll, 1, "");
   81d32:	4b41      	ldr	r3, [pc, #260]	; (81e38 <print_menu_main+0x238>)
   81d34:	781b      	ldrb	r3, [r3, #0]
   81d36:	f1c3 0305 	rsb	r3, r3, #5
   81d3a:	b2db      	uxtb	r3, r3
   81d3c:	4a49      	ldr	r2, [pc, #292]	; (81e64 <print_menu_main+0x264>)
   81d3e:	2101      	movs	r1, #1
   81d40:	4618      	mov	r0, r3
   81d42:	4b3f      	ldr	r3, [pc, #252]	; (81e40 <print_menu_main+0x240>)
   81d44:	4798      	blx	r3
		print_s(6 - menu_main_scroll, 1, "");
   81d46:	4b3c      	ldr	r3, [pc, #240]	; (81e38 <print_menu_main+0x238>)
   81d48:	781b      	ldrb	r3, [r3, #0]
   81d4a:	f1c3 0306 	rsb	r3, r3, #6
   81d4e:	b2db      	uxtb	r3, r3
   81d50:	4a44      	ldr	r2, [pc, #272]	; (81e64 <print_menu_main+0x264>)
   81d52:	2101      	movs	r1, #1
   81d54:	4618      	mov	r0, r3
   81d56:	4b3a      	ldr	r3, [pc, #232]	; (81e40 <print_menu_main+0x240>)
   81d58:	4798      	blx	r3
		print_s(7 - menu_main_scroll, 1, "");
   81d5a:	4b37      	ldr	r3, [pc, #220]	; (81e38 <print_menu_main+0x238>)
   81d5c:	781b      	ldrb	r3, [r3, #0]
   81d5e:	f1c3 0307 	rsb	r3, r3, #7
   81d62:	b2db      	uxtb	r3, r3
   81d64:	4a3f      	ldr	r2, [pc, #252]	; (81e64 <print_menu_main+0x264>)
   81d66:	2101      	movs	r1, #1
   81d68:	4618      	mov	r0, r3
   81d6a:	4b35      	ldr	r3, [pc, #212]	; (81e40 <print_menu_main+0x240>)
   81d6c:	4798      	blx	r3
		print_s(8 - menu_main_scroll, 1, "");
   81d6e:	4b32      	ldr	r3, [pc, #200]	; (81e38 <print_menu_main+0x238>)
   81d70:	781b      	ldrb	r3, [r3, #0]
   81d72:	f1c3 0308 	rsb	r3, r3, #8
   81d76:	b2db      	uxtb	r3, r3
   81d78:	4a3a      	ldr	r2, [pc, #232]	; (81e64 <print_menu_main+0x264>)
   81d7a:	2101      	movs	r1, #1
   81d7c:	4618      	mov	r0, r3
   81d7e:	4b30      	ldr	r3, [pc, #192]	; (81e40 <print_menu_main+0x240>)
   81d80:	4798      	blx	r3
		break;
   81d82:	e050      	b.n	81e26 <print_menu_main+0x226>
		case 2:
		print_s(1 - menu_main_scroll, 3, "  Tests");
   81d84:	4b2c      	ldr	r3, [pc, #176]	; (81e38 <print_menu_main+0x238>)
   81d86:	781b      	ldrb	r3, [r3, #0]
   81d88:	f1c3 0301 	rsb	r3, r3, #1
   81d8c:	b2db      	uxtb	r3, r3
   81d8e:	4a3a      	ldr	r2, [pc, #232]	; (81e78 <print_menu_main+0x278>)
   81d90:	2103      	movs	r1, #3
   81d92:	4618      	mov	r0, r3
   81d94:	4b2a      	ldr	r3, [pc, #168]	; (81e40 <print_menu_main+0x240>)
   81d96:	4798      	blx	r3
		print_s(2 - menu_main_scroll, 1, "Turn to start");
   81d98:	4b27      	ldr	r3, [pc, #156]	; (81e38 <print_menu_main+0x238>)
   81d9a:	781b      	ldrb	r3, [r3, #0]
   81d9c:	f1c3 0302 	rsb	r3, r3, #2
   81da0:	b2db      	uxtb	r3, r3
   81da2:	4a36      	ldr	r2, [pc, #216]	; (81e7c <print_menu_main+0x27c>)
   81da4:	2101      	movs	r1, #1
   81da6:	4618      	mov	r0, r3
   81da8:	4b25      	ldr	r3, [pc, #148]	; (81e40 <print_menu_main+0x240>)
   81daa:	4798      	blx	r3
		print_s(3 - menu_main_scroll, 1, "Move to middle");
   81dac:	4b22      	ldr	r3, [pc, #136]	; (81e38 <print_menu_main+0x238>)
   81dae:	781b      	ldrb	r3, [r3, #0]
   81db0:	f1c3 0303 	rsb	r3, r3, #3
   81db4:	b2db      	uxtb	r3, r3
   81db6:	4a32      	ldr	r2, [pc, #200]	; (81e80 <print_menu_main+0x280>)
   81db8:	2101      	movs	r1, #1
   81dba:	4618      	mov	r0, r3
   81dbc:	4b20      	ldr	r3, [pc, #128]	; (81e40 <print_menu_main+0x240>)
   81dbe:	4798      	blx	r3
		print_s(4 - menu_main_scroll, 1, "Move to ball");
   81dc0:	4b1d      	ldr	r3, [pc, #116]	; (81e38 <print_menu_main+0x238>)
   81dc2:	781b      	ldrb	r3, [r3, #0]
   81dc4:	f1c3 0304 	rsb	r3, r3, #4
   81dc8:	b2db      	uxtb	r3, r3
   81dca:	4a2e      	ldr	r2, [pc, #184]	; (81e84 <print_menu_main+0x284>)
   81dcc:	2101      	movs	r1, #1
   81dce:	4618      	mov	r0, r3
   81dd0:	4b1b      	ldr	r3, [pc, #108]	; (81e40 <print_menu_main+0x240>)
   81dd2:	4798      	blx	r3
		print_s(5 - menu_main_scroll, 1, "RPI");
   81dd4:	4b18      	ldr	r3, [pc, #96]	; (81e38 <print_menu_main+0x238>)
   81dd6:	781b      	ldrb	r3, [r3, #0]
   81dd8:	f1c3 0305 	rsb	r3, r3, #5
   81ddc:	b2db      	uxtb	r3, r3
   81dde:	4a2a      	ldr	r2, [pc, #168]	; (81e88 <print_menu_main+0x288>)
   81de0:	2101      	movs	r1, #1
   81de2:	4618      	mov	r0, r3
   81de4:	4b16      	ldr	r3, [pc, #88]	; (81e40 <print_menu_main+0x240>)
   81de6:	4798      	blx	r3
		print_s(6 - menu_main_scroll, 1, "Stop on line");
   81de8:	4b13      	ldr	r3, [pc, #76]	; (81e38 <print_menu_main+0x238>)
   81dea:	781b      	ldrb	r3, [r3, #0]
   81dec:	f1c3 0306 	rsb	r3, r3, #6
   81df0:	b2db      	uxtb	r3, r3
   81df2:	4a26      	ldr	r2, [pc, #152]	; (81e8c <print_menu_main+0x28c>)
   81df4:	2101      	movs	r1, #1
   81df6:	4618      	mov	r0, r3
   81df8:	4b11      	ldr	r3, [pc, #68]	; (81e40 <print_menu_main+0x240>)
   81dfa:	4798      	blx	r3
		print_s(7 - menu_main_scroll, 1, "Encoder test");
   81dfc:	4b0e      	ldr	r3, [pc, #56]	; (81e38 <print_menu_main+0x238>)
   81dfe:	781b      	ldrb	r3, [r3, #0]
   81e00:	f1c3 0307 	rsb	r3, r3, #7
   81e04:	b2db      	uxtb	r3, r3
   81e06:	4a22      	ldr	r2, [pc, #136]	; (81e90 <print_menu_main+0x290>)
   81e08:	2101      	movs	r1, #1
   81e0a:	4618      	mov	r0, r3
   81e0c:	4b0c      	ldr	r3, [pc, #48]	; (81e40 <print_menu_main+0x240>)
   81e0e:	4798      	blx	r3
		print_s(8 - menu_main_scroll, 1, "");
   81e10:	4b09      	ldr	r3, [pc, #36]	; (81e38 <print_menu_main+0x238>)
   81e12:	781b      	ldrb	r3, [r3, #0]
   81e14:	f1c3 0308 	rsb	r3, r3, #8
   81e18:	b2db      	uxtb	r3, r3
   81e1a:	4a12      	ldr	r2, [pc, #72]	; (81e64 <print_menu_main+0x264>)
   81e1c:	2101      	movs	r1, #1
   81e1e:	4618      	mov	r0, r3
   81e20:	4b07      	ldr	r3, [pc, #28]	; (81e40 <print_menu_main+0x240>)
   81e22:	4798      	blx	r3
		break;
   81e24:	bf00      	nop
	}
	
	print_cursor();
   81e26:	4b1b      	ldr	r3, [pc, #108]	; (81e94 <print_menu_main+0x294>)
   81e28:	4798      	blx	r3
}
   81e2a:	bf00      	nop
   81e2c:	bd80      	pop	{r7, pc}
   81e2e:	bf00      	nop
   81e30:	00080605 	.word	0x00080605
   81e34:	20070198 	.word	0x20070198
   81e38:	20070b86 	.word	0x20070b86
   81e3c:	00086b4c 	.word	0x00086b4c
   81e40:	00080625 	.word	0x00080625
   81e44:	20070190 	.word	0x20070190
   81e48:	00086b58 	.word	0x00086b58
   81e4c:	20070be0 	.word	0x20070be0
   81e50:	00082385 	.word	0x00082385
   81e54:	00086b68 	.word	0x00086b68
   81e58:	00086b74 	.word	0x00086b74
   81e5c:	00086b80 	.word	0x00086b80
   81e60:	00086b8c 	.word	0x00086b8c
   81e64:	00086ba0 	.word	0x00086ba0
   81e68:	00086ba4 	.word	0x00086ba4
   81e6c:	00086bb0 	.word	0x00086bb0
   81e70:	00086bbc 	.word	0x00086bbc
   81e74:	00086bcc 	.word	0x00086bcc
   81e78:	00086bdc 	.word	0x00086bdc
   81e7c:	00086be4 	.word	0x00086be4
   81e80:	00086bf4 	.word	0x00086bf4
   81e84:	00086c04 	.word	0x00086c04
   81e88:	00086c14 	.word	0x00086c14
   81e8c:	00086c18 	.word	0x00086c18
   81e90:	00086c28 	.word	0x00086c28
   81e94:	00081e99 	.word	0x00081e99

00081e98 <print_cursor>:

void print_cursor(void)
{
   81e98:	b580      	push	{r7, lr}
   81e9a:	af00      	add	r7, sp, #0
	if (act_menu == MENU_MAIN && act_cursor_line == 1)
   81e9c:	4b39      	ldr	r3, [pc, #228]	; (81f84 <print_cursor+0xec>)
   81e9e:	781b      	ldrb	r3, [r3, #0]
   81ea0:	2b00      	cmp	r3, #0
   81ea2:	d133      	bne.n	81f0c <print_cursor+0x74>
   81ea4:	4b38      	ldr	r3, [pc, #224]	; (81f88 <print_cursor+0xf0>)
   81ea6:	781b      	ldrb	r3, [r3, #0]
   81ea8:	2b01      	cmp	r3, #1
   81eaa:	d12f      	bne.n	81f0c <print_cursor+0x74>
	{
		switch (menu_main_column)
   81eac:	4b37      	ldr	r3, [pc, #220]	; (81f8c <print_cursor+0xf4>)
   81eae:	781b      	ldrb	r3, [r3, #0]
   81eb0:	2b01      	cmp	r3, #1
   81eb2:	d00f      	beq.n	81ed4 <print_cursor+0x3c>
   81eb4:	2b02      	cmp	r3, #2
   81eb6:	d01d      	beq.n	81ef4 <print_cursor+0x5c>
   81eb8:	2b00      	cmp	r3, #0
   81eba:	d000      	beq.n	81ebe <print_cursor+0x26>
			case 2:
			print_s(1, 3, "<");
			print_s(2, 0, " ");
			break;
			default:
			break;
   81ebc:	e025      	b.n	81f0a <print_cursor+0x72>
			print_s(1, 12, ">");
   81ebe:	4a34      	ldr	r2, [pc, #208]	; (81f90 <print_cursor+0xf8>)
   81ec0:	210c      	movs	r1, #12
   81ec2:	2001      	movs	r0, #1
   81ec4:	4b33      	ldr	r3, [pc, #204]	; (81f94 <print_cursor+0xfc>)
   81ec6:	4798      	blx	r3
			print_s(2, 0, " ");
   81ec8:	4a33      	ldr	r2, [pc, #204]	; (81f98 <print_cursor+0x100>)
   81eca:	2100      	movs	r1, #0
   81ecc:	2002      	movs	r0, #2
   81ece:	4b31      	ldr	r3, [pc, #196]	; (81f94 <print_cursor+0xfc>)
   81ed0:	4798      	blx	r3
			break;
   81ed2:	e01a      	b.n	81f0a <print_cursor+0x72>
			print_s(1, 3, "<");
   81ed4:	4a31      	ldr	r2, [pc, #196]	; (81f9c <print_cursor+0x104>)
   81ed6:	2103      	movs	r1, #3
   81ed8:	2001      	movs	r0, #1
   81eda:	4b2e      	ldr	r3, [pc, #184]	; (81f94 <print_cursor+0xfc>)
   81edc:	4798      	blx	r3
			print_s(1, 11, ">");
   81ede:	4a2c      	ldr	r2, [pc, #176]	; (81f90 <print_cursor+0xf8>)
   81ee0:	210b      	movs	r1, #11
   81ee2:	2001      	movs	r0, #1
   81ee4:	4b2b      	ldr	r3, [pc, #172]	; (81f94 <print_cursor+0xfc>)
   81ee6:	4798      	blx	r3
			print_s(2, 0, " ");
   81ee8:	4a2b      	ldr	r2, [pc, #172]	; (81f98 <print_cursor+0x100>)
   81eea:	2100      	movs	r1, #0
   81eec:	2002      	movs	r0, #2
   81eee:	4b29      	ldr	r3, [pc, #164]	; (81f94 <print_cursor+0xfc>)
   81ef0:	4798      	blx	r3
			break;
   81ef2:	e00a      	b.n	81f0a <print_cursor+0x72>
			print_s(1, 3, "<");
   81ef4:	4a29      	ldr	r2, [pc, #164]	; (81f9c <print_cursor+0x104>)
   81ef6:	2103      	movs	r1, #3
   81ef8:	2001      	movs	r0, #1
   81efa:	4b26      	ldr	r3, [pc, #152]	; (81f94 <print_cursor+0xfc>)
   81efc:	4798      	blx	r3
			print_s(2, 0, " ");
   81efe:	4a26      	ldr	r2, [pc, #152]	; (81f98 <print_cursor+0x100>)
   81f00:	2100      	movs	r1, #0
   81f02:	2002      	movs	r0, #2
   81f04:	4b23      	ldr	r3, [pc, #140]	; (81f94 <print_cursor+0xfc>)
   81f06:	4798      	blx	r3
			break;
   81f08:	bf00      	nop
		}
	}
   81f0a:	e031      	b.n	81f70 <print_cursor+0xd8>
	else
	{
		if (prev_cursor_line == 1)
   81f0c:	4b24      	ldr	r3, [pc, #144]	; (81fa0 <print_cursor+0x108>)
   81f0e:	781b      	ldrb	r3, [r3, #0]
   81f10:	2b01      	cmp	r3, #1
   81f12:	d11f      	bne.n	81f54 <print_cursor+0xbc>
		{
			switch (menu_main_column)
   81f14:	4b1d      	ldr	r3, [pc, #116]	; (81f8c <print_cursor+0xf4>)
   81f16:	781b      	ldrb	r3, [r3, #0]
   81f18:	2b01      	cmp	r3, #1
   81f1a:	d00a      	beq.n	81f32 <print_cursor+0x9a>
   81f1c:	2b02      	cmp	r3, #2
   81f1e:	d013      	beq.n	81f48 <print_cursor+0xb0>
   81f20:	2b00      	cmp	r3, #0
   81f22:	d000      	beq.n	81f26 <print_cursor+0x8e>
				break;
				case 2:
				print_s(1, 3, " ");
				break;
				default:
				break;
   81f24:	e016      	b.n	81f54 <print_cursor+0xbc>
				print_s(1, 12, " ");
   81f26:	4a1c      	ldr	r2, [pc, #112]	; (81f98 <print_cursor+0x100>)
   81f28:	210c      	movs	r1, #12
   81f2a:	2001      	movs	r0, #1
   81f2c:	4b19      	ldr	r3, [pc, #100]	; (81f94 <print_cursor+0xfc>)
   81f2e:	4798      	blx	r3
				break;
   81f30:	e010      	b.n	81f54 <print_cursor+0xbc>
				print_s(1, 3, " ");
   81f32:	4a19      	ldr	r2, [pc, #100]	; (81f98 <print_cursor+0x100>)
   81f34:	2103      	movs	r1, #3
   81f36:	2001      	movs	r0, #1
   81f38:	4b16      	ldr	r3, [pc, #88]	; (81f94 <print_cursor+0xfc>)
   81f3a:	4798      	blx	r3
				print_s(1, 11, " ");
   81f3c:	4a16      	ldr	r2, [pc, #88]	; (81f98 <print_cursor+0x100>)
   81f3e:	210b      	movs	r1, #11
   81f40:	2001      	movs	r0, #1
   81f42:	4b14      	ldr	r3, [pc, #80]	; (81f94 <print_cursor+0xfc>)
   81f44:	4798      	blx	r3
				break;
   81f46:	e005      	b.n	81f54 <print_cursor+0xbc>
				print_s(1, 3, " ");
   81f48:	4a13      	ldr	r2, [pc, #76]	; (81f98 <print_cursor+0x100>)
   81f4a:	2103      	movs	r1, #3
   81f4c:	2001      	movs	r0, #1
   81f4e:	4b11      	ldr	r3, [pc, #68]	; (81f94 <print_cursor+0xfc>)
   81f50:	4798      	blx	r3
				break;
   81f52:	bf00      	nop
			}
		}
		
		print_s(prev_cursor_line_on_lcd, 0, " ");
   81f54:	4b13      	ldr	r3, [pc, #76]	; (81fa4 <print_cursor+0x10c>)
   81f56:	781b      	ldrb	r3, [r3, #0]
   81f58:	4a0f      	ldr	r2, [pc, #60]	; (81f98 <print_cursor+0x100>)
   81f5a:	2100      	movs	r1, #0
   81f5c:	4618      	mov	r0, r3
   81f5e:	4b0d      	ldr	r3, [pc, #52]	; (81f94 <print_cursor+0xfc>)
   81f60:	4798      	blx	r3
		print_s(act_cursor_line_on_lcd, 0, ">");
   81f62:	4b11      	ldr	r3, [pc, #68]	; (81fa8 <print_cursor+0x110>)
   81f64:	781b      	ldrb	r3, [r3, #0]
   81f66:	4a0a      	ldr	r2, [pc, #40]	; (81f90 <print_cursor+0xf8>)
   81f68:	2100      	movs	r1, #0
   81f6a:	4618      	mov	r0, r3
   81f6c:	4b09      	ldr	r3, [pc, #36]	; (81f94 <print_cursor+0xfc>)
   81f6e:	4798      	blx	r3
	}
	
	prev_cursor_line = act_cursor_line;
   81f70:	4b05      	ldr	r3, [pc, #20]	; (81f88 <print_cursor+0xf0>)
   81f72:	781a      	ldrb	r2, [r3, #0]
   81f74:	4b0a      	ldr	r3, [pc, #40]	; (81fa0 <print_cursor+0x108>)
   81f76:	701a      	strb	r2, [r3, #0]
	prev_cursor_line_on_lcd = act_cursor_line_on_lcd;
   81f78:	4b0b      	ldr	r3, [pc, #44]	; (81fa8 <print_cursor+0x110>)
   81f7a:	781a      	ldrb	r2, [r3, #0]
   81f7c:	4b09      	ldr	r3, [pc, #36]	; (81fa4 <print_cursor+0x10c>)
   81f7e:	701a      	strb	r2, [r3, #0]
}
   81f80:	bf00      	nop
   81f82:	bd80      	pop	{r7, pc}
   81f84:	20070b87 	.word	0x20070b87
   81f88:	20070194 	.word	0x20070194
   81f8c:	20070198 	.word	0x20070198
   81f90:	00086c38 	.word	0x00086c38
   81f94:	00080625 	.word	0x00080625
   81f98:	00086c3c 	.word	0x00086c3c
   81f9c:	00086c40 	.word	0x00086c40
   81fa0:	20070195 	.word	0x20070195
   81fa4:	20070193 	.word	0x20070193
   81fa8:	20070192 	.word	0x20070192

00081fac <button_events>:

event_t button_events(void)
{
   81fac:	b580      	push	{r7, lr}
   81fae:	b082      	sub	sp, #8
   81fb0:	af00      	add	r7, sp, #0
	event_t nextEvent = EVENT_NO_EVENT;
   81fb2:	2300      	movs	r3, #0
   81fb4:	71fb      	strb	r3, [r7, #7]

	if (getTicks() >= (ticks_button_update + 30))
   81fb6:	4b88      	ldr	r3, [pc, #544]	; (821d8 <button_events+0x22c>)
   81fb8:	4798      	blx	r3
   81fba:	4602      	mov	r2, r0
   81fbc:	4b87      	ldr	r3, [pc, #540]	; (821dc <button_events+0x230>)
   81fbe:	681b      	ldr	r3, [r3, #0]
   81fc0:	331e      	adds	r3, #30
   81fc2:	429a      	cmp	r2, r3
   81fc4:	f0c0 814a 	bcc.w	8225c <button_events+0x2b0>
	{
		ticks_button_update = getTicks();
   81fc8:	4b83      	ldr	r3, [pc, #524]	; (821d8 <button_events+0x22c>)
   81fca:	4798      	blx	r3
   81fcc:	4602      	mov	r2, r0
   81fce:	4b83      	ldr	r3, [pc, #524]	; (821dc <button_events+0x230>)
   81fd0:	601a      	str	r2, [r3, #0]
		
		pb_up_act = ioport_get_pin_level(PB_UP);
   81fd2:	2060      	movs	r0, #96	; 0x60
   81fd4:	4b82      	ldr	r3, [pc, #520]	; (821e0 <button_events+0x234>)
   81fd6:	4798      	blx	r3
   81fd8:	4603      	mov	r3, r0
   81fda:	461a      	mov	r2, r3
   81fdc:	4b81      	ldr	r3, [pc, #516]	; (821e4 <button_events+0x238>)
   81fde:	701a      	strb	r2, [r3, #0]
		pb_left_act = ioport_get_pin_level(PB_LEFT);
   81fe0:	2061      	movs	r0, #97	; 0x61
   81fe2:	4b7f      	ldr	r3, [pc, #508]	; (821e0 <button_events+0x234>)
   81fe4:	4798      	blx	r3
   81fe6:	4603      	mov	r3, r0
   81fe8:	461a      	mov	r2, r3
   81fea:	4b7f      	ldr	r3, [pc, #508]	; (821e8 <button_events+0x23c>)
   81fec:	701a      	strb	r2, [r3, #0]
		pb_mid_act = ioport_get_pin_level(PB_MID);
   81fee:	2062      	movs	r0, #98	; 0x62
   81ff0:	4b7b      	ldr	r3, [pc, #492]	; (821e0 <button_events+0x234>)
   81ff2:	4798      	blx	r3
   81ff4:	4603      	mov	r3, r0
   81ff6:	461a      	mov	r2, r3
   81ff8:	4b7c      	ldr	r3, [pc, #496]	; (821ec <button_events+0x240>)
   81ffa:	701a      	strb	r2, [r3, #0]
		pb_right_act = ioport_get_pin_level(PB_RIGHT);
   81ffc:	2063      	movs	r0, #99	; 0x63
   81ffe:	4b78      	ldr	r3, [pc, #480]	; (821e0 <button_events+0x234>)
   82000:	4798      	blx	r3
   82002:	4603      	mov	r3, r0
   82004:	461a      	mov	r2, r3
   82006:	4b7a      	ldr	r3, [pc, #488]	; (821f0 <button_events+0x244>)
   82008:	701a      	strb	r2, [r3, #0]
		pb_down_act = ioport_get_pin_level(PB_DOWN);
   8200a:	2064      	movs	r0, #100	; 0x64
   8200c:	4b74      	ldr	r3, [pc, #464]	; (821e0 <button_events+0x234>)
   8200e:	4798      	blx	r3
   82010:	4603      	mov	r3, r0
   82012:	461a      	mov	r2, r3
   82014:	4b77      	ldr	r3, [pc, #476]	; (821f4 <button_events+0x248>)
   82016:	701a      	strb	r2, [r3, #0]
		pb_return_act = ioport_get_pin_level(PB_RETURN);
   82018:	2065      	movs	r0, #101	; 0x65
   8201a:	4b71      	ldr	r3, [pc, #452]	; (821e0 <button_events+0x234>)
   8201c:	4798      	blx	r3
   8201e:	4603      	mov	r3, r0
   82020:	461a      	mov	r2, r3
   82022:	4b75      	ldr	r3, [pc, #468]	; (821f8 <button_events+0x24c>)
   82024:	701a      	strb	r2, [r3, #0]
		
		if (pb_up_act != pb_up_prev && pb_up_act == 0)
   82026:	4b6f      	ldr	r3, [pc, #444]	; (821e4 <button_events+0x238>)
   82028:	781a      	ldrb	r2, [r3, #0]
   8202a:	4b74      	ldr	r3, [pc, #464]	; (821fc <button_events+0x250>)
   8202c:	781b      	ldrb	r3, [r3, #0]
   8202e:	429a      	cmp	r2, r3
   82030:	d006      	beq.n	82040 <button_events+0x94>
   82032:	4b6c      	ldr	r3, [pc, #432]	; (821e4 <button_events+0x238>)
   82034:	781b      	ldrb	r3, [r3, #0]
   82036:	2b00      	cmp	r3, #0
   82038:	d102      	bne.n	82040 <button_events+0x94>
		{
			nextEvent = EVENT_BUTTON_UP_P;
   8203a:	2301      	movs	r3, #1
   8203c:	71fb      	strb	r3, [r7, #7]
   8203e:	e018      	b.n	82072 <button_events+0xc6>
		}
		else if (pb_up_act != pb_up_prev && pb_up_act == 1)
   82040:	4b68      	ldr	r3, [pc, #416]	; (821e4 <button_events+0x238>)
   82042:	781a      	ldrb	r2, [r3, #0]
   82044:	4b6d      	ldr	r3, [pc, #436]	; (821fc <button_events+0x250>)
   82046:	781b      	ldrb	r3, [r3, #0]
   82048:	429a      	cmp	r2, r3
   8204a:	d006      	beq.n	8205a <button_events+0xae>
   8204c:	4b65      	ldr	r3, [pc, #404]	; (821e4 <button_events+0x238>)
   8204e:	781b      	ldrb	r3, [r3, #0]
   82050:	2b01      	cmp	r3, #1
   82052:	d102      	bne.n	8205a <button_events+0xae>
		{
			nextEvent = EVENT_BUTTON_UP_R;
   82054:	2303      	movs	r3, #3
   82056:	71fb      	strb	r3, [r7, #7]
   82058:	e00b      	b.n	82072 <button_events+0xc6>
		}
		else if (pb_up_act == pb_up_prev && pb_up_act == 0)
   8205a:	4b62      	ldr	r3, [pc, #392]	; (821e4 <button_events+0x238>)
   8205c:	781a      	ldrb	r2, [r3, #0]
   8205e:	4b67      	ldr	r3, [pc, #412]	; (821fc <button_events+0x250>)
   82060:	781b      	ldrb	r3, [r3, #0]
   82062:	429a      	cmp	r2, r3
   82064:	d105      	bne.n	82072 <button_events+0xc6>
   82066:	4b5f      	ldr	r3, [pc, #380]	; (821e4 <button_events+0x238>)
   82068:	781b      	ldrb	r3, [r3, #0]
   8206a:	2b00      	cmp	r3, #0
   8206c:	d101      	bne.n	82072 <button_events+0xc6>
		{
			nextEvent = EVENT_BUTTON_UP_H;
   8206e:	2302      	movs	r3, #2
   82070:	71fb      	strb	r3, [r7, #7]
		}
		
		if (pb_left_act != pb_left_prev && pb_left_act == 0)
   82072:	4b5d      	ldr	r3, [pc, #372]	; (821e8 <button_events+0x23c>)
   82074:	781a      	ldrb	r2, [r3, #0]
   82076:	4b62      	ldr	r3, [pc, #392]	; (82200 <button_events+0x254>)
   82078:	781b      	ldrb	r3, [r3, #0]
   8207a:	429a      	cmp	r2, r3
   8207c:	d006      	beq.n	8208c <button_events+0xe0>
   8207e:	4b5a      	ldr	r3, [pc, #360]	; (821e8 <button_events+0x23c>)
   82080:	781b      	ldrb	r3, [r3, #0]
   82082:	2b00      	cmp	r3, #0
   82084:	d102      	bne.n	8208c <button_events+0xe0>
		{
			nextEvent = EVENT_BUTTON_LEFT_P;
   82086:	2304      	movs	r3, #4
   82088:	71fb      	strb	r3, [r7, #7]
   8208a:	e018      	b.n	820be <button_events+0x112>
		}
		else if (pb_left_act != pb_left_prev && pb_left_act == 1)
   8208c:	4b56      	ldr	r3, [pc, #344]	; (821e8 <button_events+0x23c>)
   8208e:	781a      	ldrb	r2, [r3, #0]
   82090:	4b5b      	ldr	r3, [pc, #364]	; (82200 <button_events+0x254>)
   82092:	781b      	ldrb	r3, [r3, #0]
   82094:	429a      	cmp	r2, r3
   82096:	d006      	beq.n	820a6 <button_events+0xfa>
   82098:	4b53      	ldr	r3, [pc, #332]	; (821e8 <button_events+0x23c>)
   8209a:	781b      	ldrb	r3, [r3, #0]
   8209c:	2b01      	cmp	r3, #1
   8209e:	d102      	bne.n	820a6 <button_events+0xfa>
		{
			nextEvent = EVENT_BUTTON_LEFT_R;
   820a0:	2306      	movs	r3, #6
   820a2:	71fb      	strb	r3, [r7, #7]
   820a4:	e00b      	b.n	820be <button_events+0x112>
		}
		else if (pb_left_act == pb_left_prev && pb_left_act == 0)
   820a6:	4b50      	ldr	r3, [pc, #320]	; (821e8 <button_events+0x23c>)
   820a8:	781a      	ldrb	r2, [r3, #0]
   820aa:	4b55      	ldr	r3, [pc, #340]	; (82200 <button_events+0x254>)
   820ac:	781b      	ldrb	r3, [r3, #0]
   820ae:	429a      	cmp	r2, r3
   820b0:	d105      	bne.n	820be <button_events+0x112>
   820b2:	4b4d      	ldr	r3, [pc, #308]	; (821e8 <button_events+0x23c>)
   820b4:	781b      	ldrb	r3, [r3, #0]
   820b6:	2b00      	cmp	r3, #0
   820b8:	d101      	bne.n	820be <button_events+0x112>
		{
			nextEvent = EVENT_BUTTON_LEFT_H;
   820ba:	2305      	movs	r3, #5
   820bc:	71fb      	strb	r3, [r7, #7]
		}
		
		if (pb_mid_act != pb_mid_prev && pb_mid_act == 0)
   820be:	4b4b      	ldr	r3, [pc, #300]	; (821ec <button_events+0x240>)
   820c0:	781a      	ldrb	r2, [r3, #0]
   820c2:	4b50      	ldr	r3, [pc, #320]	; (82204 <button_events+0x258>)
   820c4:	781b      	ldrb	r3, [r3, #0]
   820c6:	429a      	cmp	r2, r3
   820c8:	d006      	beq.n	820d8 <button_events+0x12c>
   820ca:	4b48      	ldr	r3, [pc, #288]	; (821ec <button_events+0x240>)
   820cc:	781b      	ldrb	r3, [r3, #0]
   820ce:	2b00      	cmp	r3, #0
   820d0:	d102      	bne.n	820d8 <button_events+0x12c>
		{
			nextEvent = EVENT_BUTTON_MID_P;
   820d2:	2307      	movs	r3, #7
   820d4:	71fb      	strb	r3, [r7, #7]
   820d6:	e018      	b.n	8210a <button_events+0x15e>
		}
		else if (pb_mid_act != pb_mid_prev && pb_mid_act == 1)
   820d8:	4b44      	ldr	r3, [pc, #272]	; (821ec <button_events+0x240>)
   820da:	781a      	ldrb	r2, [r3, #0]
   820dc:	4b49      	ldr	r3, [pc, #292]	; (82204 <button_events+0x258>)
   820de:	781b      	ldrb	r3, [r3, #0]
   820e0:	429a      	cmp	r2, r3
   820e2:	d006      	beq.n	820f2 <button_events+0x146>
   820e4:	4b41      	ldr	r3, [pc, #260]	; (821ec <button_events+0x240>)
   820e6:	781b      	ldrb	r3, [r3, #0]
   820e8:	2b01      	cmp	r3, #1
   820ea:	d102      	bne.n	820f2 <button_events+0x146>
		{
			nextEvent = EVENT_BUTTON_MID_R;
   820ec:	2309      	movs	r3, #9
   820ee:	71fb      	strb	r3, [r7, #7]
   820f0:	e00b      	b.n	8210a <button_events+0x15e>
		}
		else if (pb_mid_act == pb_mid_prev && pb_mid_act == 0)
   820f2:	4b3e      	ldr	r3, [pc, #248]	; (821ec <button_events+0x240>)
   820f4:	781a      	ldrb	r2, [r3, #0]
   820f6:	4b43      	ldr	r3, [pc, #268]	; (82204 <button_events+0x258>)
   820f8:	781b      	ldrb	r3, [r3, #0]
   820fa:	429a      	cmp	r2, r3
   820fc:	d105      	bne.n	8210a <button_events+0x15e>
   820fe:	4b3b      	ldr	r3, [pc, #236]	; (821ec <button_events+0x240>)
   82100:	781b      	ldrb	r3, [r3, #0]
   82102:	2b00      	cmp	r3, #0
   82104:	d101      	bne.n	8210a <button_events+0x15e>
		{
			nextEvent = EVENT_BUTTON_MID_H;
   82106:	2308      	movs	r3, #8
   82108:	71fb      	strb	r3, [r7, #7]
		}
		
		if (pb_right_act != pb_right_prev && pb_right_act == 0)
   8210a:	4b39      	ldr	r3, [pc, #228]	; (821f0 <button_events+0x244>)
   8210c:	781a      	ldrb	r2, [r3, #0]
   8210e:	4b3e      	ldr	r3, [pc, #248]	; (82208 <button_events+0x25c>)
   82110:	781b      	ldrb	r3, [r3, #0]
   82112:	429a      	cmp	r2, r3
   82114:	d006      	beq.n	82124 <button_events+0x178>
   82116:	4b36      	ldr	r3, [pc, #216]	; (821f0 <button_events+0x244>)
   82118:	781b      	ldrb	r3, [r3, #0]
   8211a:	2b00      	cmp	r3, #0
   8211c:	d102      	bne.n	82124 <button_events+0x178>
		{
			nextEvent = EVENT_BUTTON_RIGHT_P;
   8211e:	230a      	movs	r3, #10
   82120:	71fb      	strb	r3, [r7, #7]
   82122:	e018      	b.n	82156 <button_events+0x1aa>
		}
		else if (pb_right_act != pb_right_prev && pb_right_act == 1)
   82124:	4b32      	ldr	r3, [pc, #200]	; (821f0 <button_events+0x244>)
   82126:	781a      	ldrb	r2, [r3, #0]
   82128:	4b37      	ldr	r3, [pc, #220]	; (82208 <button_events+0x25c>)
   8212a:	781b      	ldrb	r3, [r3, #0]
   8212c:	429a      	cmp	r2, r3
   8212e:	d006      	beq.n	8213e <button_events+0x192>
   82130:	4b2f      	ldr	r3, [pc, #188]	; (821f0 <button_events+0x244>)
   82132:	781b      	ldrb	r3, [r3, #0]
   82134:	2b01      	cmp	r3, #1
   82136:	d102      	bne.n	8213e <button_events+0x192>
		{
			nextEvent = EVENT_BUTTON_RIGHT_R;
   82138:	230c      	movs	r3, #12
   8213a:	71fb      	strb	r3, [r7, #7]
   8213c:	e00b      	b.n	82156 <button_events+0x1aa>
		}
		else if (pb_right_act == pb_right_prev && pb_right_act == 0)
   8213e:	4b2c      	ldr	r3, [pc, #176]	; (821f0 <button_events+0x244>)
   82140:	781a      	ldrb	r2, [r3, #0]
   82142:	4b31      	ldr	r3, [pc, #196]	; (82208 <button_events+0x25c>)
   82144:	781b      	ldrb	r3, [r3, #0]
   82146:	429a      	cmp	r2, r3
   82148:	d105      	bne.n	82156 <button_events+0x1aa>
   8214a:	4b29      	ldr	r3, [pc, #164]	; (821f0 <button_events+0x244>)
   8214c:	781b      	ldrb	r3, [r3, #0]
   8214e:	2b00      	cmp	r3, #0
   82150:	d101      	bne.n	82156 <button_events+0x1aa>
		{
			nextEvent = EVENT_BUTTON_RIGHT_H;
   82152:	230b      	movs	r3, #11
   82154:	71fb      	strb	r3, [r7, #7]
		}
		
		if (pb_down_act != pb_down_prev && pb_down_act == 0)
   82156:	4b27      	ldr	r3, [pc, #156]	; (821f4 <button_events+0x248>)
   82158:	781a      	ldrb	r2, [r3, #0]
   8215a:	4b2c      	ldr	r3, [pc, #176]	; (8220c <button_events+0x260>)
   8215c:	781b      	ldrb	r3, [r3, #0]
   8215e:	429a      	cmp	r2, r3
   82160:	d006      	beq.n	82170 <button_events+0x1c4>
   82162:	4b24      	ldr	r3, [pc, #144]	; (821f4 <button_events+0x248>)
   82164:	781b      	ldrb	r3, [r3, #0]
   82166:	2b00      	cmp	r3, #0
   82168:	d102      	bne.n	82170 <button_events+0x1c4>
		{
			nextEvent = EVENT_BUTTON_DOWN_P;
   8216a:	230d      	movs	r3, #13
   8216c:	71fb      	strb	r3, [r7, #7]
   8216e:	e018      	b.n	821a2 <button_events+0x1f6>
		}
		else if (pb_down_act != pb_down_prev && pb_down_act == 1)
   82170:	4b20      	ldr	r3, [pc, #128]	; (821f4 <button_events+0x248>)
   82172:	781a      	ldrb	r2, [r3, #0]
   82174:	4b25      	ldr	r3, [pc, #148]	; (8220c <button_events+0x260>)
   82176:	781b      	ldrb	r3, [r3, #0]
   82178:	429a      	cmp	r2, r3
   8217a:	d006      	beq.n	8218a <button_events+0x1de>
   8217c:	4b1d      	ldr	r3, [pc, #116]	; (821f4 <button_events+0x248>)
   8217e:	781b      	ldrb	r3, [r3, #0]
   82180:	2b01      	cmp	r3, #1
   82182:	d102      	bne.n	8218a <button_events+0x1de>
		{
			nextEvent = EVENT_BUTTON_DOWN_R;
   82184:	230f      	movs	r3, #15
   82186:	71fb      	strb	r3, [r7, #7]
   82188:	e00b      	b.n	821a2 <button_events+0x1f6>
		}
		else if (pb_down_act == pb_down_prev && pb_down_act == 0)
   8218a:	4b1a      	ldr	r3, [pc, #104]	; (821f4 <button_events+0x248>)
   8218c:	781a      	ldrb	r2, [r3, #0]
   8218e:	4b1f      	ldr	r3, [pc, #124]	; (8220c <button_events+0x260>)
   82190:	781b      	ldrb	r3, [r3, #0]
   82192:	429a      	cmp	r2, r3
   82194:	d105      	bne.n	821a2 <button_events+0x1f6>
   82196:	4b17      	ldr	r3, [pc, #92]	; (821f4 <button_events+0x248>)
   82198:	781b      	ldrb	r3, [r3, #0]
   8219a:	2b00      	cmp	r3, #0
   8219c:	d101      	bne.n	821a2 <button_events+0x1f6>
		{
			nextEvent = EVENT_BUTTON_DOWN_H;
   8219e:	230e      	movs	r3, #14
   821a0:	71fb      	strb	r3, [r7, #7]
		}
		
		if (pb_return_act != pb_return_prev && pb_return_act == 0)
   821a2:	4b15      	ldr	r3, [pc, #84]	; (821f8 <button_events+0x24c>)
   821a4:	781a      	ldrb	r2, [r3, #0]
   821a6:	4b1a      	ldr	r3, [pc, #104]	; (82210 <button_events+0x264>)
   821a8:	781b      	ldrb	r3, [r3, #0]
   821aa:	429a      	cmp	r2, r3
   821ac:	d006      	beq.n	821bc <button_events+0x210>
   821ae:	4b12      	ldr	r3, [pc, #72]	; (821f8 <button_events+0x24c>)
   821b0:	781b      	ldrb	r3, [r3, #0]
   821b2:	2b00      	cmp	r3, #0
   821b4:	d102      	bne.n	821bc <button_events+0x210>
		{
			nextEvent = EVENT_BUTTON_RETURN_P;
   821b6:	2310      	movs	r3, #16
   821b8:	71fb      	strb	r3, [r7, #7]
   821ba:	e037      	b.n	8222c <button_events+0x280>
		}
		else if (pb_return_act != pb_return_prev && pb_return_act == 1)
   821bc:	4b0e      	ldr	r3, [pc, #56]	; (821f8 <button_events+0x24c>)
   821be:	781a      	ldrb	r2, [r3, #0]
   821c0:	4b13      	ldr	r3, [pc, #76]	; (82210 <button_events+0x264>)
   821c2:	781b      	ldrb	r3, [r3, #0]
   821c4:	429a      	cmp	r2, r3
   821c6:	d025      	beq.n	82214 <button_events+0x268>
   821c8:	4b0b      	ldr	r3, [pc, #44]	; (821f8 <button_events+0x24c>)
   821ca:	781b      	ldrb	r3, [r3, #0]
   821cc:	2b01      	cmp	r3, #1
   821ce:	d121      	bne.n	82214 <button_events+0x268>
		{
			nextEvent = EVENT_BUTTON_RETURN_R;
   821d0:	2312      	movs	r3, #18
   821d2:	71fb      	strb	r3, [r7, #7]
   821d4:	e02a      	b.n	8222c <button_events+0x280>
   821d6:	bf00      	nop
   821d8:	000808e1 	.word	0x000808e1
   821dc:	20070bc8 	.word	0x20070bc8
   821e0:	0008172f 	.word	0x0008172f
   821e4:	20070bf5 	.word	0x20070bf5
   821e8:	20070bd9 	.word	0x20070bd9
   821ec:	20070bf4 	.word	0x20070bf4
   821f0:	20070bf6 	.word	0x20070bf6
   821f4:	20070bd4 	.word	0x20070bd4
   821f8:	20070bd0 	.word	0x20070bd0
   821fc:	20070bd5 	.word	0x20070bd5
   82200:	20070bd3 	.word	0x20070bd3
   82204:	20070bd1 	.word	0x20070bd1
   82208:	20070bd7 	.word	0x20070bd7
   8220c:	20070bd2 	.word	0x20070bd2
   82210:	20070bd8 	.word	0x20070bd8
		}
		else if (pb_return_act == pb_up_prev && pb_return_act == 0)
   82214:	4b14      	ldr	r3, [pc, #80]	; (82268 <button_events+0x2bc>)
   82216:	781a      	ldrb	r2, [r3, #0]
   82218:	4b14      	ldr	r3, [pc, #80]	; (8226c <button_events+0x2c0>)
   8221a:	781b      	ldrb	r3, [r3, #0]
   8221c:	429a      	cmp	r2, r3
   8221e:	d105      	bne.n	8222c <button_events+0x280>
   82220:	4b11      	ldr	r3, [pc, #68]	; (82268 <button_events+0x2bc>)
   82222:	781b      	ldrb	r3, [r3, #0]
   82224:	2b00      	cmp	r3, #0
   82226:	d101      	bne.n	8222c <button_events+0x280>
		{
			nextEvent = EVENT_BUTTON_RETURN_H;
   82228:	2311      	movs	r3, #17
   8222a:	71fb      	strb	r3, [r7, #7]
		}
		
		pb_up_prev = pb_up_act;
   8222c:	4b10      	ldr	r3, [pc, #64]	; (82270 <button_events+0x2c4>)
   8222e:	781a      	ldrb	r2, [r3, #0]
   82230:	4b0e      	ldr	r3, [pc, #56]	; (8226c <button_events+0x2c0>)
   82232:	701a      	strb	r2, [r3, #0]
		pb_left_prev = pb_left_act;
   82234:	4b0f      	ldr	r3, [pc, #60]	; (82274 <button_events+0x2c8>)
   82236:	781a      	ldrb	r2, [r3, #0]
   82238:	4b0f      	ldr	r3, [pc, #60]	; (82278 <button_events+0x2cc>)
   8223a:	701a      	strb	r2, [r3, #0]
		pb_mid_prev = pb_mid_act;
   8223c:	4b0f      	ldr	r3, [pc, #60]	; (8227c <button_events+0x2d0>)
   8223e:	781a      	ldrb	r2, [r3, #0]
   82240:	4b0f      	ldr	r3, [pc, #60]	; (82280 <button_events+0x2d4>)
   82242:	701a      	strb	r2, [r3, #0]
		pb_right_prev = pb_right_act;
   82244:	4b0f      	ldr	r3, [pc, #60]	; (82284 <button_events+0x2d8>)
   82246:	781a      	ldrb	r2, [r3, #0]
   82248:	4b0f      	ldr	r3, [pc, #60]	; (82288 <button_events+0x2dc>)
   8224a:	701a      	strb	r2, [r3, #0]
		pb_down_prev = pb_down_act;
   8224c:	4b0f      	ldr	r3, [pc, #60]	; (8228c <button_events+0x2e0>)
   8224e:	781a      	ldrb	r2, [r3, #0]
   82250:	4b0f      	ldr	r3, [pc, #60]	; (82290 <button_events+0x2e4>)
   82252:	701a      	strb	r2, [r3, #0]
		pb_return_prev = pb_return_act;
   82254:	4b04      	ldr	r3, [pc, #16]	; (82268 <button_events+0x2bc>)
   82256:	781a      	ldrb	r2, [r3, #0]
   82258:	4b0e      	ldr	r3, [pc, #56]	; (82294 <button_events+0x2e8>)
   8225a:	701a      	strb	r2, [r3, #0]
	}

	return nextEvent;
   8225c:	79fb      	ldrb	r3, [r7, #7]
}
   8225e:	4618      	mov	r0, r3
   82260:	3708      	adds	r7, #8
   82262:	46bd      	mov	sp, r7
   82264:	bd80      	pop	{r7, pc}
   82266:	bf00      	nop
   82268:	20070bd0 	.word	0x20070bd0
   8226c:	20070bd5 	.word	0x20070bd5
   82270:	20070bf5 	.word	0x20070bf5
   82274:	20070bd9 	.word	0x20070bd9
   82278:	20070bd3 	.word	0x20070bd3
   8227c:	20070bf4 	.word	0x20070bf4
   82280:	20070bd1 	.word	0x20070bd1
   82284:	20070bf6 	.word	0x20070bf6
   82288:	20070bd7 	.word	0x20070bd7
   8228c:	20070bd4 	.word	0x20070bd4
   82290:	20070bd2 	.word	0x20070bd2
   82294:	20070bd8 	.word	0x20070bd8

00082298 <__libc_init_array>:
   82298:	b570      	push	{r4, r5, r6, lr}
   8229a:	4e0f      	ldr	r6, [pc, #60]	; (822d8 <__libc_init_array+0x40>)
   8229c:	4d0f      	ldr	r5, [pc, #60]	; (822dc <__libc_init_array+0x44>)
   8229e:	1b76      	subs	r6, r6, r5
   822a0:	10b6      	asrs	r6, r6, #2
   822a2:	bf18      	it	ne
   822a4:	2400      	movne	r4, #0
   822a6:	d005      	beq.n	822b4 <__libc_init_array+0x1c>
   822a8:	3401      	adds	r4, #1
   822aa:	f855 3b04 	ldr.w	r3, [r5], #4
   822ae:	4798      	blx	r3
   822b0:	42a6      	cmp	r6, r4
   822b2:	d1f9      	bne.n	822a8 <__libc_init_array+0x10>
   822b4:	4e0a      	ldr	r6, [pc, #40]	; (822e0 <__libc_init_array+0x48>)
   822b6:	4d0b      	ldr	r5, [pc, #44]	; (822e4 <__libc_init_array+0x4c>)
   822b8:	f004 fe0a 	bl	86ed0 <_init>
   822bc:	1b76      	subs	r6, r6, r5
   822be:	10b6      	asrs	r6, r6, #2
   822c0:	bf18      	it	ne
   822c2:	2400      	movne	r4, #0
   822c4:	d006      	beq.n	822d4 <__libc_init_array+0x3c>
   822c6:	3401      	adds	r4, #1
   822c8:	f855 3b04 	ldr.w	r3, [r5], #4
   822cc:	4798      	blx	r3
   822ce:	42a6      	cmp	r6, r4
   822d0:	d1f9      	bne.n	822c6 <__libc_init_array+0x2e>
   822d2:	bd70      	pop	{r4, r5, r6, pc}
   822d4:	bd70      	pop	{r4, r5, r6, pc}
   822d6:	bf00      	nop
   822d8:	00086edc 	.word	0x00086edc
   822dc:	00086edc 	.word	0x00086edc
   822e0:	00086ee4 	.word	0x00086ee4
   822e4:	00086edc 	.word	0x00086edc

000822e8 <memset>:
   822e8:	b470      	push	{r4, r5, r6}
   822ea:	0786      	lsls	r6, r0, #30
   822ec:	d046      	beq.n	8237c <memset+0x94>
   822ee:	1e54      	subs	r4, r2, #1
   822f0:	2a00      	cmp	r2, #0
   822f2:	d041      	beq.n	82378 <memset+0x90>
   822f4:	b2ca      	uxtb	r2, r1
   822f6:	4603      	mov	r3, r0
   822f8:	e002      	b.n	82300 <memset+0x18>
   822fa:	f114 34ff 	adds.w	r4, r4, #4294967295
   822fe:	d33b      	bcc.n	82378 <memset+0x90>
   82300:	f803 2b01 	strb.w	r2, [r3], #1
   82304:	079d      	lsls	r5, r3, #30
   82306:	d1f8      	bne.n	822fa <memset+0x12>
   82308:	2c03      	cmp	r4, #3
   8230a:	d92e      	bls.n	8236a <memset+0x82>
   8230c:	b2cd      	uxtb	r5, r1
   8230e:	ea45 2505 	orr.w	r5, r5, r5, lsl #8
   82312:	2c0f      	cmp	r4, #15
   82314:	ea45 4505 	orr.w	r5, r5, r5, lsl #16
   82318:	d919      	bls.n	8234e <memset+0x66>
   8231a:	4626      	mov	r6, r4
   8231c:	f103 0210 	add.w	r2, r3, #16
   82320:	3e10      	subs	r6, #16
   82322:	2e0f      	cmp	r6, #15
   82324:	f842 5c10 	str.w	r5, [r2, #-16]
   82328:	f842 5c0c 	str.w	r5, [r2, #-12]
   8232c:	f842 5c08 	str.w	r5, [r2, #-8]
   82330:	f842 5c04 	str.w	r5, [r2, #-4]
   82334:	f102 0210 	add.w	r2, r2, #16
   82338:	d8f2      	bhi.n	82320 <memset+0x38>
   8233a:	f1a4 0210 	sub.w	r2, r4, #16
   8233e:	f022 020f 	bic.w	r2, r2, #15
   82342:	f004 040f 	and.w	r4, r4, #15
   82346:	3210      	adds	r2, #16
   82348:	2c03      	cmp	r4, #3
   8234a:	4413      	add	r3, r2
   8234c:	d90d      	bls.n	8236a <memset+0x82>
   8234e:	461e      	mov	r6, r3
   82350:	4622      	mov	r2, r4
   82352:	3a04      	subs	r2, #4
   82354:	2a03      	cmp	r2, #3
   82356:	f846 5b04 	str.w	r5, [r6], #4
   8235a:	d8fa      	bhi.n	82352 <memset+0x6a>
   8235c:	1f22      	subs	r2, r4, #4
   8235e:	f022 0203 	bic.w	r2, r2, #3
   82362:	3204      	adds	r2, #4
   82364:	4413      	add	r3, r2
   82366:	f004 0403 	and.w	r4, r4, #3
   8236a:	b12c      	cbz	r4, 82378 <memset+0x90>
   8236c:	b2c9      	uxtb	r1, r1
   8236e:	441c      	add	r4, r3
   82370:	f803 1b01 	strb.w	r1, [r3], #1
   82374:	429c      	cmp	r4, r3
   82376:	d1fb      	bne.n	82370 <memset+0x88>
   82378:	bc70      	pop	{r4, r5, r6}
   8237a:	4770      	bx	lr
   8237c:	4614      	mov	r4, r2
   8237e:	4603      	mov	r3, r0
   82380:	e7c2      	b.n	82308 <memset+0x20>
   82382:	bf00      	nop

00082384 <sprintf>:
   82384:	b40e      	push	{r1, r2, r3}
   82386:	4601      	mov	r1, r0
   82388:	b5f0      	push	{r4, r5, r6, r7, lr}
   8238a:	f06f 4500 	mvn.w	r5, #2147483648	; 0x80000000
   8238e:	f44f 7702 	mov.w	r7, #520	; 0x208
   82392:	f64f 76ff 	movw	r6, #65535	; 0xffff
   82396:	b09c      	sub	sp, #112	; 0x70
   82398:	ac21      	add	r4, sp, #132	; 0x84
   8239a:	f854 2b04 	ldr.w	r2, [r4], #4
   8239e:	4b0b      	ldr	r3, [pc, #44]	; (823cc <sprintf+0x48>)
   823a0:	9102      	str	r1, [sp, #8]
   823a2:	9106      	str	r1, [sp, #24]
   823a4:	6818      	ldr	r0, [r3, #0]
   823a6:	a902      	add	r1, sp, #8
   823a8:	4623      	mov	r3, r4
   823aa:	9401      	str	r4, [sp, #4]
   823ac:	f8ad 7014 	strh.w	r7, [sp, #20]
   823b0:	9504      	str	r5, [sp, #16]
   823b2:	9507      	str	r5, [sp, #28]
   823b4:	f8ad 6016 	strh.w	r6, [sp, #22]
   823b8:	f000 f838 	bl	8242c <_svfprintf_r>
   823bc:	2200      	movs	r2, #0
   823be:	9b02      	ldr	r3, [sp, #8]
   823c0:	701a      	strb	r2, [r3, #0]
   823c2:	b01c      	add	sp, #112	; 0x70
   823c4:	e8bd 40f0 	ldmia.w	sp!, {r4, r5, r6, r7, lr}
   823c8:	b003      	add	sp, #12
   823ca:	4770      	bx	lr
   823cc:	2007019c 	.word	0x2007019c

000823d0 <strlen>:
   823d0:	f020 0103 	bic.w	r1, r0, #3
   823d4:	f010 0003 	ands.w	r0, r0, #3
   823d8:	f1c0 0000 	rsb	r0, r0, #0
   823dc:	f851 3b04 	ldr.w	r3, [r1], #4
   823e0:	f100 0c04 	add.w	ip, r0, #4
   823e4:	ea4f 0ccc 	mov.w	ip, ip, lsl #3
   823e8:	f06f 0200 	mvn.w	r2, #0
   823ec:	bf1c      	itt	ne
   823ee:	fa22 f20c 	lsrne.w	r2, r2, ip
   823f2:	4313      	orrne	r3, r2
   823f4:	f04f 0c01 	mov.w	ip, #1
   823f8:	ea4c 2c0c 	orr.w	ip, ip, ip, lsl #8
   823fc:	ea4c 4c0c 	orr.w	ip, ip, ip, lsl #16
   82400:	eba3 020c 	sub.w	r2, r3, ip
   82404:	ea22 0203 	bic.w	r2, r2, r3
   82408:	ea12 12cc 	ands.w	r2, r2, ip, lsl #7
   8240c:	bf04      	itt	eq
   8240e:	f851 3b04 	ldreq.w	r3, [r1], #4
   82412:	3004      	addeq	r0, #4
   82414:	d0f4      	beq.n	82400 <strlen+0x30>
   82416:	f1c2 0100 	rsb	r1, r2, #0
   8241a:	ea02 0201 	and.w	r2, r2, r1
   8241e:	fab2 f282 	clz	r2, r2
   82422:	f1c2 021f 	rsb	r2, r2, #31
   82426:	eb00 00d2 	add.w	r0, r0, r2, lsr #3
   8242a:	4770      	bx	lr

0008242c <_svfprintf_r>:
   8242c:	e92d 4ff0 	stmdb	sp!, {r4, r5, r6, r7, r8, r9, sl, fp, lr}
   82430:	b0c3      	sub	sp, #268	; 0x10c
   82432:	460c      	mov	r4, r1
   82434:	910b      	str	r1, [sp, #44]	; 0x2c
   82436:	4692      	mov	sl, r2
   82438:	930f      	str	r3, [sp, #60]	; 0x3c
   8243a:	900c      	str	r0, [sp, #48]	; 0x30
   8243c:	f002 fa58 	bl	848f0 <_localeconv_r>
   82440:	6803      	ldr	r3, [r0, #0]
   82442:	4618      	mov	r0, r3
   82444:	931a      	str	r3, [sp, #104]	; 0x68
   82446:	f7ff ffc3 	bl	823d0 <strlen>
   8244a:	89a3      	ldrh	r3, [r4, #12]
   8244c:	9019      	str	r0, [sp, #100]	; 0x64
   8244e:	0619      	lsls	r1, r3, #24
   82450:	d503      	bpl.n	8245a <_svfprintf_r+0x2e>
   82452:	6923      	ldr	r3, [r4, #16]
   82454:	2b00      	cmp	r3, #0
   82456:	f001 8035 	beq.w	834c4 <_svfprintf_r+0x1098>
   8245a:	2300      	movs	r3, #0
   8245c:	f10d 09c8 	add.w	r9, sp, #200	; 0xc8
   82460:	46c8      	mov	r8, r9
   82462:	9315      	str	r3, [sp, #84]	; 0x54
   82464:	9313      	str	r3, [sp, #76]	; 0x4c
   82466:	9314      	str	r3, [sp, #80]	; 0x50
   82468:	9318      	str	r3, [sp, #96]	; 0x60
   8246a:	931b      	str	r3, [sp, #108]	; 0x6c
   8246c:	9309      	str	r3, [sp, #36]	; 0x24
   8246e:	9316      	str	r3, [sp, #88]	; 0x58
   82470:	9317      	str	r3, [sp, #92]	; 0x5c
   82472:	9327      	str	r3, [sp, #156]	; 0x9c
   82474:	9326      	str	r3, [sp, #152]	; 0x98
   82476:	f8cd 9094 	str.w	r9, [sp, #148]	; 0x94
   8247a:	f89a 3000 	ldrb.w	r3, [sl]
   8247e:	4654      	mov	r4, sl
   82480:	b1eb      	cbz	r3, 824be <_svfprintf_r+0x92>
   82482:	2b25      	cmp	r3, #37	; 0x25
   82484:	d102      	bne.n	8248c <_svfprintf_r+0x60>
   82486:	e01a      	b.n	824be <_svfprintf_r+0x92>
   82488:	2b25      	cmp	r3, #37	; 0x25
   8248a:	d003      	beq.n	82494 <_svfprintf_r+0x68>
   8248c:	f814 3f01 	ldrb.w	r3, [r4, #1]!
   82490:	2b00      	cmp	r3, #0
   82492:	d1f9      	bne.n	82488 <_svfprintf_r+0x5c>
   82494:	eba4 050a 	sub.w	r5, r4, sl
   82498:	b18d      	cbz	r5, 824be <_svfprintf_r+0x92>
   8249a:	9b26      	ldr	r3, [sp, #152]	; 0x98
   8249c:	9a27      	ldr	r2, [sp, #156]	; 0x9c
   8249e:	3301      	adds	r3, #1
   824a0:	442a      	add	r2, r5
   824a2:	2b07      	cmp	r3, #7
   824a4:	f8c8 a000 	str.w	sl, [r8]
   824a8:	f8c8 5004 	str.w	r5, [r8, #4]
   824ac:	9227      	str	r2, [sp, #156]	; 0x9c
   824ae:	9326      	str	r3, [sp, #152]	; 0x98
   824b0:	f300 808a 	bgt.w	825c8 <_svfprintf_r+0x19c>
   824b4:	f108 0808 	add.w	r8, r8, #8
   824b8:	9b09      	ldr	r3, [sp, #36]	; 0x24
   824ba:	442b      	add	r3, r5
   824bc:	9309      	str	r3, [sp, #36]	; 0x24
   824be:	7823      	ldrb	r3, [r4, #0]
   824c0:	2b00      	cmp	r3, #0
   824c2:	f000 8089 	beq.w	825d8 <_svfprintf_r+0x1ac>
   824c6:	2300      	movs	r3, #0
   824c8:	f04f 30ff 	mov.w	r0, #4294967295
   824cc:	461a      	mov	r2, r3
   824ce:	f88d 3077 	strb.w	r3, [sp, #119]	; 0x77
   824d2:	4619      	mov	r1, r3
   824d4:	930d      	str	r3, [sp, #52]	; 0x34
   824d6:	469b      	mov	fp, r3
   824d8:	7863      	ldrb	r3, [r4, #1]
   824da:	f104 0a01 	add.w	sl, r4, #1
   824de:	900a      	str	r0, [sp, #40]	; 0x28
   824e0:	f10a 0a01 	add.w	sl, sl, #1
   824e4:	f1a3 0020 	sub.w	r0, r3, #32
   824e8:	2858      	cmp	r0, #88	; 0x58
   824ea:	f200 83b7 	bhi.w	82c5c <_svfprintf_r+0x830>
   824ee:	e8df f010 	tbh	[pc, r0, lsl #1]
   824f2:	034c      	.short	0x034c
   824f4:	03b503b5 	.word	0x03b503b5
   824f8:	03b50354 	.word	0x03b50354
   824fc:	03b503b5 	.word	0x03b503b5
   82500:	03b503b5 	.word	0x03b503b5
   82504:	005903b5 	.word	0x005903b5
   82508:	03b50359 	.word	0x03b50359
   8250c:	02140066 	.word	0x02140066
   82510:	022f03b5 	.word	0x022f03b5
   82514:	03a503a5 	.word	0x03a503a5
   82518:	03a503a5 	.word	0x03a503a5
   8251c:	03a503a5 	.word	0x03a503a5
   82520:	03a503a5 	.word	0x03a503a5
   82524:	03b503a5 	.word	0x03b503a5
   82528:	03b503b5 	.word	0x03b503b5
   8252c:	03b503b5 	.word	0x03b503b5
   82530:	03b503b5 	.word	0x03b503b5
   82534:	03b503b5 	.word	0x03b503b5
   82538:	028b03b5 	.word	0x028b03b5
   8253c:	03b502d3 	.word	0x03b502d3
   82540:	03b502d3 	.word	0x03b502d3
   82544:	03b503b5 	.word	0x03b503b5
   82548:	031b03b5 	.word	0x031b03b5
   8254c:	03b503b5 	.word	0x03b503b5
   82550:	03b50320 	.word	0x03b50320
   82554:	03b503b5 	.word	0x03b503b5
   82558:	03b503b5 	.word	0x03b503b5
   8255c:	03b50234 	.word	0x03b50234
   82560:	024b03b5 	.word	0x024b03b5
   82564:	03b503b5 	.word	0x03b503b5
   82568:	03b503b5 	.word	0x03b503b5
   8256c:	03b503b5 	.word	0x03b503b5
   82570:	03b503b5 	.word	0x03b503b5
   82574:	03b503b5 	.word	0x03b503b5
   82578:	039e0276 	.word	0x039e0276
   8257c:	02d302d3 	.word	0x02d302d3
   82580:	036302d3 	.word	0x036302d3
   82584:	03b5039e 	.word	0x03b5039e
   82588:	036803b5 	.word	0x036803b5
   8258c:	037503b5 	.word	0x037503b5
   82590:	038c01dd 	.word	0x038c01dd
   82594:	03b5035e 	.word	0x03b5035e
   82598:	03b501f2 	.word	0x03b501f2
   8259c:	03b50087 	.word	0x03b50087
   825a0:	033203b5 	.word	0x033203b5
   825a4:	9c0f      	ldr	r4, [sp, #60]	; 0x3c
   825a6:	6823      	ldr	r3, [r4, #0]
   825a8:	4618      	mov	r0, r3
   825aa:	930d      	str	r3, [sp, #52]	; 0x34
   825ac:	4623      	mov	r3, r4
   825ae:	2800      	cmp	r0, #0
   825b0:	f103 0304 	add.w	r3, r3, #4
   825b4:	930f      	str	r3, [sp, #60]	; 0x3c
   825b6:	da04      	bge.n	825c2 <_svfprintf_r+0x196>
   825b8:	9b0d      	ldr	r3, [sp, #52]	; 0x34
   825ba:	425b      	negs	r3, r3
   825bc:	930d      	str	r3, [sp, #52]	; 0x34
   825be:	f04b 0b04 	orr.w	fp, fp, #4
   825c2:	f89a 3000 	ldrb.w	r3, [sl]
   825c6:	e78b      	b.n	824e0 <_svfprintf_r+0xb4>
   825c8:	aa25      	add	r2, sp, #148	; 0x94
   825ca:	990b      	ldr	r1, [sp, #44]	; 0x2c
   825cc:	980c      	ldr	r0, [sp, #48]	; 0x30
   825ce:	f003 f819 	bl	85604 <__ssprint_r>
   825d2:	b940      	cbnz	r0, 825e6 <_svfprintf_r+0x1ba>
   825d4:	46c8      	mov	r8, r9
   825d6:	e76f      	b.n	824b8 <_svfprintf_r+0x8c>
   825d8:	9b27      	ldr	r3, [sp, #156]	; 0x9c
   825da:	b123      	cbz	r3, 825e6 <_svfprintf_r+0x1ba>
   825dc:	980c      	ldr	r0, [sp, #48]	; 0x30
   825de:	aa25      	add	r2, sp, #148	; 0x94
   825e0:	990b      	ldr	r1, [sp, #44]	; 0x2c
   825e2:	f003 f80f 	bl	85604 <__ssprint_r>
   825e6:	9b0b      	ldr	r3, [sp, #44]	; 0x2c
   825e8:	899b      	ldrh	r3, [r3, #12]
   825ea:	f013 0f40 	tst.w	r3, #64	; 0x40
   825ee:	9b09      	ldr	r3, [sp, #36]	; 0x24
   825f0:	bf18      	it	ne
   825f2:	f04f 33ff 	movne.w	r3, #4294967295
   825f6:	9309      	str	r3, [sp, #36]	; 0x24
   825f8:	9809      	ldr	r0, [sp, #36]	; 0x24
   825fa:	b043      	add	sp, #268	; 0x10c
   825fc:	e8bd 8ff0 	ldmia.w	sp!, {r4, r5, r6, r7, r8, r9, sl, fp, pc}
   82600:	f01b 0f20 	tst.w	fp, #32
   82604:	9311      	str	r3, [sp, #68]	; 0x44
   82606:	f040 81af 	bne.w	82968 <_svfprintf_r+0x53c>
   8260a:	9a0f      	ldr	r2, [sp, #60]	; 0x3c
   8260c:	f01b 0f10 	tst.w	fp, #16
   82610:	4613      	mov	r3, r2
   82612:	f040 859a 	bne.w	8314a <_svfprintf_r+0xd1e>
   82616:	f01b 0f40 	tst.w	fp, #64	; 0x40
   8261a:	f000 8596 	beq.w	8314a <_svfprintf_r+0xd1e>
   8261e:	2500      	movs	r5, #0
   82620:	2301      	movs	r3, #1
   82622:	8814      	ldrh	r4, [r2, #0]
   82624:	3204      	adds	r2, #4
   82626:	920f      	str	r2, [sp, #60]	; 0x3c
   82628:	2200      	movs	r2, #0
   8262a:	4617      	mov	r7, r2
   8262c:	f88d 2077 	strb.w	r2, [sp, #119]	; 0x77
   82630:	990a      	ldr	r1, [sp, #40]	; 0x28
   82632:	1c4a      	adds	r2, r1, #1
   82634:	f000 8210 	beq.w	82a58 <_svfprintf_r+0x62c>
   82638:	f02b 0280 	bic.w	r2, fp, #128	; 0x80
   8263c:	9207      	str	r2, [sp, #28]
   8263e:	ea54 0205 	orrs.w	r2, r4, r5
   82642:	f040 820f 	bne.w	82a64 <_svfprintf_r+0x638>
   82646:	2900      	cmp	r1, #0
   82648:	f040 8431 	bne.w	82eae <_svfprintf_r+0xa82>
   8264c:	2b00      	cmp	r3, #0
   8264e:	f040 8539 	bne.w	830c4 <_svfprintf_r+0xc98>
   82652:	f01b 0301 	ands.w	r3, fp, #1
   82656:	930e      	str	r3, [sp, #56]	; 0x38
   82658:	f000 8662 	beq.w	83320 <_svfprintf_r+0xef4>
   8265c:	2330      	movs	r3, #48	; 0x30
   8265e:	ae42      	add	r6, sp, #264	; 0x108
   82660:	f806 3d41 	strb.w	r3, [r6, #-65]!
   82664:	9b0a      	ldr	r3, [sp, #40]	; 0x28
   82666:	9a0e      	ldr	r2, [sp, #56]	; 0x38
   82668:	4293      	cmp	r3, r2
   8266a:	bfb8      	it	lt
   8266c:	4613      	movlt	r3, r2
   8266e:	9308      	str	r3, [sp, #32]
   82670:	2300      	movs	r3, #0
   82672:	9312      	str	r3, [sp, #72]	; 0x48
   82674:	b117      	cbz	r7, 8267c <_svfprintf_r+0x250>
   82676:	9b08      	ldr	r3, [sp, #32]
   82678:	3301      	adds	r3, #1
   8267a:	9308      	str	r3, [sp, #32]
   8267c:	9b07      	ldr	r3, [sp, #28]
   8267e:	f013 0302 	ands.w	r3, r3, #2
   82682:	9310      	str	r3, [sp, #64]	; 0x40
   82684:	d002      	beq.n	8268c <_svfprintf_r+0x260>
   82686:	9b08      	ldr	r3, [sp, #32]
   82688:	3302      	adds	r3, #2
   8268a:	9308      	str	r3, [sp, #32]
   8268c:	9b07      	ldr	r3, [sp, #28]
   8268e:	f013 0584 	ands.w	r5, r3, #132	; 0x84
   82692:	f040 8310 	bne.w	82cb6 <_svfprintf_r+0x88a>
   82696:	9b0d      	ldr	r3, [sp, #52]	; 0x34
   82698:	9a08      	ldr	r2, [sp, #32]
   8269a:	eba3 0b02 	sub.w	fp, r3, r2
   8269e:	f1bb 0f00 	cmp.w	fp, #0
   826a2:	f340 8308 	ble.w	82cb6 <_svfprintf_r+0x88a>
   826a6:	f1bb 0f10 	cmp.w	fp, #16
   826aa:	f340 87b2 	ble.w	83612 <_svfprintf_r+0x11e6>
   826ae:	9c27      	ldr	r4, [sp, #156]	; 0x9c
   826b0:	4643      	mov	r3, r8
   826b2:	4621      	mov	r1, r4
   826b4:	46a8      	mov	r8, r5
   826b6:	2710      	movs	r7, #16
   826b8:	9a26      	ldr	r2, [sp, #152]	; 0x98
   826ba:	9c0c      	ldr	r4, [sp, #48]	; 0x30
   826bc:	9d0b      	ldr	r5, [sp, #44]	; 0x2c
   826be:	e006      	b.n	826ce <_svfprintf_r+0x2a2>
   826c0:	f1ab 0b10 	sub.w	fp, fp, #16
   826c4:	f1bb 0f10 	cmp.w	fp, #16
   826c8:	f103 0308 	add.w	r3, r3, #8
   826cc:	dd18      	ble.n	82700 <_svfprintf_r+0x2d4>
   826ce:	3201      	adds	r2, #1
   826d0:	48ab      	ldr	r0, [pc, #684]	; (82980 <_svfprintf_r+0x554>)
   826d2:	3110      	adds	r1, #16
   826d4:	2a07      	cmp	r2, #7
   826d6:	9127      	str	r1, [sp, #156]	; 0x9c
   826d8:	9226      	str	r2, [sp, #152]	; 0x98
   826da:	e883 0081 	stmia.w	r3, {r0, r7}
   826de:	ddef      	ble.n	826c0 <_svfprintf_r+0x294>
   826e0:	aa25      	add	r2, sp, #148	; 0x94
   826e2:	4629      	mov	r1, r5
   826e4:	4620      	mov	r0, r4
   826e6:	f002 ff8d 	bl	85604 <__ssprint_r>
   826ea:	2800      	cmp	r0, #0
   826ec:	f47f af7b 	bne.w	825e6 <_svfprintf_r+0x1ba>
   826f0:	f1ab 0b10 	sub.w	fp, fp, #16
   826f4:	f1bb 0f10 	cmp.w	fp, #16
   826f8:	464b      	mov	r3, r9
   826fa:	9927      	ldr	r1, [sp, #156]	; 0x9c
   826fc:	9a26      	ldr	r2, [sp, #152]	; 0x98
   826fe:	dce6      	bgt.n	826ce <_svfprintf_r+0x2a2>
   82700:	4645      	mov	r5, r8
   82702:	460c      	mov	r4, r1
   82704:	4698      	mov	r8, r3
   82706:	3201      	adds	r2, #1
   82708:	4b9d      	ldr	r3, [pc, #628]	; (82980 <_svfprintf_r+0x554>)
   8270a:	445c      	add	r4, fp
   8270c:	2a07      	cmp	r2, #7
   8270e:	9427      	str	r4, [sp, #156]	; 0x9c
   82710:	9226      	str	r2, [sp, #152]	; 0x98
   82712:	e888 0808 	stmia.w	r8, {r3, fp}
   82716:	f300 82c3 	bgt.w	82ca0 <_svfprintf_r+0x874>
   8271a:	f89d 7077 	ldrb.w	r7, [sp, #119]	; 0x77
   8271e:	f108 0808 	add.w	r8, r8, #8
   82722:	b187      	cbz	r7, 82746 <_svfprintf_r+0x31a>
   82724:	2101      	movs	r1, #1
   82726:	9b26      	ldr	r3, [sp, #152]	; 0x98
   82728:	440c      	add	r4, r1
   8272a:	440b      	add	r3, r1
   8272c:	f10d 0277 	add.w	r2, sp, #119	; 0x77
   82730:	2b07      	cmp	r3, #7
   82732:	9427      	str	r4, [sp, #156]	; 0x9c
   82734:	9326      	str	r3, [sp, #152]	; 0x98
   82736:	f8c8 1004 	str.w	r1, [r8, #4]
   8273a:	f8c8 2000 	str.w	r2, [r8]
   8273e:	f300 83cd 	bgt.w	82edc <_svfprintf_r+0xab0>
   82742:	f108 0808 	add.w	r8, r8, #8
   82746:	9b10      	ldr	r3, [sp, #64]	; 0x40
   82748:	b17b      	cbz	r3, 8276a <_svfprintf_r+0x33e>
   8274a:	2102      	movs	r1, #2
   8274c:	9b26      	ldr	r3, [sp, #152]	; 0x98
   8274e:	440c      	add	r4, r1
   82750:	3301      	adds	r3, #1
   82752:	aa1e      	add	r2, sp, #120	; 0x78
   82754:	2b07      	cmp	r3, #7
   82756:	9427      	str	r4, [sp, #156]	; 0x9c
   82758:	9326      	str	r3, [sp, #152]	; 0x98
   8275a:	f8c8 1004 	str.w	r1, [r8, #4]
   8275e:	f8c8 2000 	str.w	r2, [r8]
   82762:	f300 8411 	bgt.w	82f88 <_svfprintf_r+0xb5c>
   82766:	f108 0808 	add.w	r8, r8, #8
   8276a:	2d80      	cmp	r5, #128	; 0x80
   8276c:	f000 8304 	beq.w	82d78 <_svfprintf_r+0x94c>
   82770:	9b0a      	ldr	r3, [sp, #40]	; 0x28
   82772:	9a0e      	ldr	r2, [sp, #56]	; 0x38
   82774:	1a9f      	subs	r7, r3, r2
   82776:	2f00      	cmp	r7, #0
   82778:	dd37      	ble.n	827ea <_svfprintf_r+0x3be>
   8277a:	2f10      	cmp	r7, #16
   8277c:	f340 8679 	ble.w	83472 <_svfprintf_r+0x1046>
   82780:	4d80      	ldr	r5, [pc, #512]	; (82984 <_svfprintf_r+0x558>)
   82782:	4642      	mov	r2, r8
   82784:	4621      	mov	r1, r4
   82786:	46b0      	mov	r8, r6
   82788:	f04f 0b10 	mov.w	fp, #16
   8278c:	462e      	mov	r6, r5
   8278e:	9b26      	ldr	r3, [sp, #152]	; 0x98
   82790:	9c0c      	ldr	r4, [sp, #48]	; 0x30
   82792:	9d0b      	ldr	r5, [sp, #44]	; 0x2c
   82794:	e004      	b.n	827a0 <_svfprintf_r+0x374>
   82796:	3f10      	subs	r7, #16
   82798:	2f10      	cmp	r7, #16
   8279a:	f102 0208 	add.w	r2, r2, #8
   8279e:	dd15      	ble.n	827cc <_svfprintf_r+0x3a0>
   827a0:	3301      	adds	r3, #1
   827a2:	3110      	adds	r1, #16
   827a4:	2b07      	cmp	r3, #7
   827a6:	9127      	str	r1, [sp, #156]	; 0x9c
   827a8:	9326      	str	r3, [sp, #152]	; 0x98
   827aa:	e882 0840 	stmia.w	r2, {r6, fp}
   827ae:	ddf2      	ble.n	82796 <_svfprintf_r+0x36a>
   827b0:	aa25      	add	r2, sp, #148	; 0x94
   827b2:	4629      	mov	r1, r5
   827b4:	4620      	mov	r0, r4
   827b6:	f002 ff25 	bl	85604 <__ssprint_r>
   827ba:	2800      	cmp	r0, #0
   827bc:	f47f af13 	bne.w	825e6 <_svfprintf_r+0x1ba>
   827c0:	3f10      	subs	r7, #16
   827c2:	2f10      	cmp	r7, #16
   827c4:	464a      	mov	r2, r9
   827c6:	9927      	ldr	r1, [sp, #156]	; 0x9c
   827c8:	9b26      	ldr	r3, [sp, #152]	; 0x98
   827ca:	dce9      	bgt.n	827a0 <_svfprintf_r+0x374>
   827cc:	4635      	mov	r5, r6
   827ce:	460c      	mov	r4, r1
   827d0:	4646      	mov	r6, r8
   827d2:	4690      	mov	r8, r2
   827d4:	3301      	adds	r3, #1
   827d6:	443c      	add	r4, r7
   827d8:	2b07      	cmp	r3, #7
   827da:	9427      	str	r4, [sp, #156]	; 0x9c
   827dc:	9326      	str	r3, [sp, #152]	; 0x98
   827de:	e888 00a0 	stmia.w	r8, {r5, r7}
   827e2:	f300 8370 	bgt.w	82ec6 <_svfprintf_r+0xa9a>
   827e6:	f108 0808 	add.w	r8, r8, #8
   827ea:	9b07      	ldr	r3, [sp, #28]
   827ec:	05df      	lsls	r7, r3, #23
   827ee:	f100 8264 	bmi.w	82cba <_svfprintf_r+0x88e>
   827f2:	9b26      	ldr	r3, [sp, #152]	; 0x98
   827f4:	990e      	ldr	r1, [sp, #56]	; 0x38
   827f6:	3301      	adds	r3, #1
   827f8:	440c      	add	r4, r1
   827fa:	2b07      	cmp	r3, #7
   827fc:	9427      	str	r4, [sp, #156]	; 0x9c
   827fe:	f8c8 6000 	str.w	r6, [r8]
   82802:	f8c8 1004 	str.w	r1, [r8, #4]
   82806:	9326      	str	r3, [sp, #152]	; 0x98
   82808:	f300 83b3 	bgt.w	82f72 <_svfprintf_r+0xb46>
   8280c:	f108 0808 	add.w	r8, r8, #8
   82810:	9b07      	ldr	r3, [sp, #28]
   82812:	075b      	lsls	r3, r3, #29
   82814:	d53b      	bpl.n	8288e <_svfprintf_r+0x462>
   82816:	9b0d      	ldr	r3, [sp, #52]	; 0x34
   82818:	9a08      	ldr	r2, [sp, #32]
   8281a:	1a9d      	subs	r5, r3, r2
   8281c:	2d00      	cmp	r5, #0
   8281e:	dd36      	ble.n	8288e <_svfprintf_r+0x462>
   82820:	2d10      	cmp	r5, #16
   82822:	f340 8721 	ble.w	83668 <_svfprintf_r+0x123c>
   82826:	2610      	movs	r6, #16
   82828:	9b26      	ldr	r3, [sp, #152]	; 0x98
   8282a:	9f0c      	ldr	r7, [sp, #48]	; 0x30
   8282c:	f8dd b02c 	ldr.w	fp, [sp, #44]	; 0x2c
   82830:	e004      	b.n	8283c <_svfprintf_r+0x410>
   82832:	3d10      	subs	r5, #16
   82834:	2d10      	cmp	r5, #16
   82836:	f108 0808 	add.w	r8, r8, #8
   8283a:	dd16      	ble.n	8286a <_svfprintf_r+0x43e>
   8283c:	3301      	adds	r3, #1
   8283e:	4a50      	ldr	r2, [pc, #320]	; (82980 <_svfprintf_r+0x554>)
   82840:	3410      	adds	r4, #16
   82842:	2b07      	cmp	r3, #7
   82844:	9427      	str	r4, [sp, #156]	; 0x9c
   82846:	9326      	str	r3, [sp, #152]	; 0x98
   82848:	e888 0044 	stmia.w	r8, {r2, r6}
   8284c:	ddf1      	ble.n	82832 <_svfprintf_r+0x406>
   8284e:	aa25      	add	r2, sp, #148	; 0x94
   82850:	4659      	mov	r1, fp
   82852:	4638      	mov	r0, r7
   82854:	f002 fed6 	bl	85604 <__ssprint_r>
   82858:	2800      	cmp	r0, #0
   8285a:	f47f aec4 	bne.w	825e6 <_svfprintf_r+0x1ba>
   8285e:	3d10      	subs	r5, #16
   82860:	2d10      	cmp	r5, #16
   82862:	46c8      	mov	r8, r9
   82864:	9c27      	ldr	r4, [sp, #156]	; 0x9c
   82866:	9b26      	ldr	r3, [sp, #152]	; 0x98
   82868:	dce8      	bgt.n	8283c <_svfprintf_r+0x410>
   8286a:	3301      	adds	r3, #1
   8286c:	4a44      	ldr	r2, [pc, #272]	; (82980 <_svfprintf_r+0x554>)
   8286e:	442c      	add	r4, r5
   82870:	2b07      	cmp	r3, #7
   82872:	9427      	str	r4, [sp, #156]	; 0x9c
   82874:	9326      	str	r3, [sp, #152]	; 0x98
   82876:	e888 0024 	stmia.w	r8, {r2, r5}
   8287a:	dd08      	ble.n	8288e <_svfprintf_r+0x462>
   8287c:	aa25      	add	r2, sp, #148	; 0x94
   8287e:	990b      	ldr	r1, [sp, #44]	; 0x2c
   82880:	980c      	ldr	r0, [sp, #48]	; 0x30
   82882:	f002 febf 	bl	85604 <__ssprint_r>
   82886:	2800      	cmp	r0, #0
   82888:	f47f aead 	bne.w	825e6 <_svfprintf_r+0x1ba>
   8288c:	9c27      	ldr	r4, [sp, #156]	; 0x9c
   8288e:	9b09      	ldr	r3, [sp, #36]	; 0x24
   82890:	9a0d      	ldr	r2, [sp, #52]	; 0x34
   82892:	9908      	ldr	r1, [sp, #32]
   82894:	428a      	cmp	r2, r1
   82896:	bfac      	ite	ge
   82898:	189b      	addge	r3, r3, r2
   8289a:	185b      	addlt	r3, r3, r1
   8289c:	9309      	str	r3, [sp, #36]	; 0x24
   8289e:	2c00      	cmp	r4, #0
   828a0:	f040 82fb 	bne.w	82e9a <_svfprintf_r+0xa6e>
   828a4:	2300      	movs	r3, #0
   828a6:	46c8      	mov	r8, r9
   828a8:	9326      	str	r3, [sp, #152]	; 0x98
   828aa:	e5e6      	b.n	8247a <_svfprintf_r+0x4e>
   828ac:	9311      	str	r3, [sp, #68]	; 0x44
   828ae:	f01b 0320 	ands.w	r3, fp, #32
   828b2:	f040 8145 	bne.w	82b40 <_svfprintf_r+0x714>
   828b6:	f01b 0210 	ands.w	r2, fp, #16
   828ba:	f040 8466 	bne.w	8318a <_svfprintf_r+0xd5e>
   828be:	f01b 0340 	ands.w	r3, fp, #64	; 0x40
   828c2:	f000 8462 	beq.w	8318a <_svfprintf_r+0xd5e>
   828c6:	990f      	ldr	r1, [sp, #60]	; 0x3c
   828c8:	4613      	mov	r3, r2
   828ca:	460a      	mov	r2, r1
   828cc:	3204      	adds	r2, #4
   828ce:	880c      	ldrh	r4, [r1, #0]
   828d0:	2500      	movs	r5, #0
   828d2:	920f      	str	r2, [sp, #60]	; 0x3c
   828d4:	e6a8      	b.n	82628 <_svfprintf_r+0x1fc>
   828d6:	2500      	movs	r5, #0
   828d8:	9a0f      	ldr	r2, [sp, #60]	; 0x3c
   828da:	9311      	str	r3, [sp, #68]	; 0x44
   828dc:	6816      	ldr	r6, [r2, #0]
   828de:	f88d 5077 	strb.w	r5, [sp, #119]	; 0x77
   828e2:	1d14      	adds	r4, r2, #4
   828e4:	2e00      	cmp	r6, #0
   828e6:	f000 86cd 	beq.w	83684 <_svfprintf_r+0x1258>
   828ea:	9a0a      	ldr	r2, [sp, #40]	; 0x28
   828ec:	1c53      	adds	r3, r2, #1
   828ee:	f000 861b 	beq.w	83528 <_svfprintf_r+0x10fc>
   828f2:	4629      	mov	r1, r5
   828f4:	4630      	mov	r0, r6
   828f6:	f002 faaf 	bl	84e58 <memchr>
   828fa:	2800      	cmp	r0, #0
   828fc:	f000 870d 	beq.w	8371a <_svfprintf_r+0x12ee>
   82900:	1b83      	subs	r3, r0, r6
   82902:	950a      	str	r5, [sp, #40]	; 0x28
   82904:	930e      	str	r3, [sp, #56]	; 0x38
   82906:	940f      	str	r4, [sp, #60]	; 0x3c
   82908:	f8cd b01c 	str.w	fp, [sp, #28]
   8290c:	ea23 73e3 	bic.w	r3, r3, r3, asr #31
   82910:	9308      	str	r3, [sp, #32]
   82912:	9512      	str	r5, [sp, #72]	; 0x48
   82914:	f89d 7077 	ldrb.w	r7, [sp, #119]	; 0x77
   82918:	e6ac      	b.n	82674 <_svfprintf_r+0x248>
   8291a:	f89a 3000 	ldrb.w	r3, [sl]
   8291e:	f10a 0401 	add.w	r4, sl, #1
   82922:	2b2a      	cmp	r3, #42	; 0x2a
   82924:	f000 87c2 	beq.w	838ac <_svfprintf_r+0x1480>
   82928:	f1a3 0030 	sub.w	r0, r3, #48	; 0x30
   8292c:	2809      	cmp	r0, #9
   8292e:	46a2      	mov	sl, r4
   82930:	f200 8718 	bhi.w	83764 <_svfprintf_r+0x1338>
   82934:	2300      	movs	r3, #0
   82936:	461c      	mov	r4, r3
   82938:	f81a 3b01 	ldrb.w	r3, [sl], #1
   8293c:	eb04 0484 	add.w	r4, r4, r4, lsl #2
   82940:	eb00 0444 	add.w	r4, r0, r4, lsl #1
   82944:	f1a3 0030 	sub.w	r0, r3, #48	; 0x30
   82948:	2809      	cmp	r0, #9
   8294a:	d9f5      	bls.n	82938 <_svfprintf_r+0x50c>
   8294c:	940a      	str	r4, [sp, #40]	; 0x28
   8294e:	e5c9      	b.n	824e4 <_svfprintf_r+0xb8>
   82950:	f04b 0b80 	orr.w	fp, fp, #128	; 0x80
   82954:	f89a 3000 	ldrb.w	r3, [sl]
   82958:	e5c2      	b.n	824e0 <_svfprintf_r+0xb4>
   8295a:	f04b 0b10 	orr.w	fp, fp, #16
   8295e:	f01b 0f20 	tst.w	fp, #32
   82962:	9311      	str	r3, [sp, #68]	; 0x44
   82964:	f43f ae51 	beq.w	8260a <_svfprintf_r+0x1de>
   82968:	9c0f      	ldr	r4, [sp, #60]	; 0x3c
   8296a:	3407      	adds	r4, #7
   8296c:	f024 0307 	bic.w	r3, r4, #7
   82970:	f103 0208 	add.w	r2, r3, #8
   82974:	e9d3 4500 	ldrd	r4, r5, [r3]
   82978:	920f      	str	r2, [sp, #60]	; 0x3c
   8297a:	2301      	movs	r3, #1
   8297c:	e654      	b.n	82628 <_svfprintf_r+0x1fc>
   8297e:	bf00      	nop
   82980:	00086c8c 	.word	0x00086c8c
   82984:	00086c9c 	.word	0x00086c9c
   82988:	9311      	str	r3, [sp, #68]	; 0x44
   8298a:	2a00      	cmp	r2, #0
   8298c:	f040 87ad 	bne.w	838ea <_svfprintf_r+0x14be>
   82990:	4bbe      	ldr	r3, [pc, #760]	; (82c8c <_svfprintf_r+0x860>)
   82992:	f01b 0f20 	tst.w	fp, #32
   82996:	9318      	str	r3, [sp, #96]	; 0x60
   82998:	f040 80e7 	bne.w	82b6a <_svfprintf_r+0x73e>
   8299c:	9a0f      	ldr	r2, [sp, #60]	; 0x3c
   8299e:	f01b 0f10 	tst.w	fp, #16
   829a2:	4613      	mov	r3, r2
   829a4:	f040 83d8 	bne.w	83158 <_svfprintf_r+0xd2c>
   829a8:	f01b 0f40 	tst.w	fp, #64	; 0x40
   829ac:	f000 83d4 	beq.w	83158 <_svfprintf_r+0xd2c>
   829b0:	2500      	movs	r5, #0
   829b2:	3304      	adds	r3, #4
   829b4:	8814      	ldrh	r4, [r2, #0]
   829b6:	930f      	str	r3, [sp, #60]	; 0x3c
   829b8:	f01b 0f01 	tst.w	fp, #1
   829bc:	f000 80e3 	beq.w	82b86 <_svfprintf_r+0x75a>
   829c0:	ea54 0305 	orrs.w	r3, r4, r5
   829c4:	f000 80df 	beq.w	82b86 <_svfprintf_r+0x75a>
   829c8:	2330      	movs	r3, #48	; 0x30
   829ca:	f89d 2044 	ldrb.w	r2, [sp, #68]	; 0x44
   829ce:	f88d 3078 	strb.w	r3, [sp, #120]	; 0x78
   829d2:	f88d 2079 	strb.w	r2, [sp, #121]	; 0x79
   829d6:	f04b 0b02 	orr.w	fp, fp, #2
   829da:	2302      	movs	r3, #2
   829dc:	e624      	b.n	82628 <_svfprintf_r+0x1fc>
   829de:	2201      	movs	r2, #1
   829e0:	9311      	str	r3, [sp, #68]	; 0x44
   829e2:	2300      	movs	r3, #0
   829e4:	4611      	mov	r1, r2
   829e6:	980f      	ldr	r0, [sp, #60]	; 0x3c
   829e8:	9208      	str	r2, [sp, #32]
   829ea:	6802      	ldr	r2, [r0, #0]
   829ec:	461f      	mov	r7, r3
   829ee:	f88d 3077 	strb.w	r3, [sp, #119]	; 0x77
   829f2:	930a      	str	r3, [sp, #40]	; 0x28
   829f4:	9312      	str	r3, [sp, #72]	; 0x48
   829f6:	1d03      	adds	r3, r0, #4
   829f8:	f8cd b01c 	str.w	fp, [sp, #28]
   829fc:	910e      	str	r1, [sp, #56]	; 0x38
   829fe:	f88d 20a0 	strb.w	r2, [sp, #160]	; 0xa0
   82a02:	930f      	str	r3, [sp, #60]	; 0x3c
   82a04:	ae28      	add	r6, sp, #160	; 0xa0
   82a06:	e639      	b.n	8267c <_svfprintf_r+0x250>
   82a08:	9311      	str	r3, [sp, #68]	; 0x44
   82a0a:	2a00      	cmp	r2, #0
   82a0c:	f040 8784 	bne.w	83918 <_svfprintf_r+0x14ec>
   82a10:	f04b 0b10 	orr.w	fp, fp, #16
   82a14:	f01b 0f20 	tst.w	fp, #32
   82a18:	f040 8475 	bne.w	83306 <_svfprintf_r+0xeda>
   82a1c:	9a0f      	ldr	r2, [sp, #60]	; 0x3c
   82a1e:	f01b 0f10 	tst.w	fp, #16
   82a22:	4613      	mov	r3, r2
   82a24:	f040 839d 	bne.w	83162 <_svfprintf_r+0xd36>
   82a28:	f01b 0f40 	tst.w	fp, #64	; 0x40
   82a2c:	f000 8399 	beq.w	83162 <_svfprintf_r+0xd36>
   82a30:	f9b2 4000 	ldrsh.w	r4, [r2]
   82a34:	3304      	adds	r3, #4
   82a36:	17e5      	asrs	r5, r4, #31
   82a38:	930f      	str	r3, [sp, #60]	; 0x3c
   82a3a:	4622      	mov	r2, r4
   82a3c:	462b      	mov	r3, r5
   82a3e:	2a00      	cmp	r2, #0
   82a40:	f173 0300 	sbcs.w	r3, r3, #0
   82a44:	f2c0 8398 	blt.w	83178 <_svfprintf_r+0xd4c>
   82a48:	990a      	ldr	r1, [sp, #40]	; 0x28
   82a4a:	f89d 7077 	ldrb.w	r7, [sp, #119]	; 0x77
   82a4e:	1c4a      	adds	r2, r1, #1
   82a50:	f04f 0301 	mov.w	r3, #1
   82a54:	f47f adf0 	bne.w	82638 <_svfprintf_r+0x20c>
   82a58:	ea54 0205 	orrs.w	r2, r4, r5
   82a5c:	f000 8229 	beq.w	82eb2 <_svfprintf_r+0xa86>
   82a60:	f8cd b01c 	str.w	fp, [sp, #28]
   82a64:	2b01      	cmp	r3, #1
   82a66:	f000 830e 	beq.w	83086 <_svfprintf_r+0xc5a>
   82a6a:	2b02      	cmp	r3, #2
   82a6c:	f040 829c 	bne.w	82fa8 <_svfprintf_r+0xb7c>
   82a70:	464e      	mov	r6, r9
   82a72:	9818      	ldr	r0, [sp, #96]	; 0x60
   82a74:	0923      	lsrs	r3, r4, #4
   82a76:	ea43 7305 	orr.w	r3, r3, r5, lsl #28
   82a7a:	0929      	lsrs	r1, r5, #4
   82a7c:	f004 020f 	and.w	r2, r4, #15
   82a80:	460d      	mov	r5, r1
   82a82:	461c      	mov	r4, r3
   82a84:	5c83      	ldrb	r3, [r0, r2]
   82a86:	f806 3d01 	strb.w	r3, [r6, #-1]!
   82a8a:	ea54 0305 	orrs.w	r3, r4, r5
   82a8e:	d1f1      	bne.n	82a74 <_svfprintf_r+0x648>
   82a90:	eba9 0306 	sub.w	r3, r9, r6
   82a94:	930e      	str	r3, [sp, #56]	; 0x38
   82a96:	e5e5      	b.n	82664 <_svfprintf_r+0x238>
   82a98:	9311      	str	r3, [sp, #68]	; 0x44
   82a9a:	2a00      	cmp	r2, #0
   82a9c:	f040 8738 	bne.w	83910 <_svfprintf_r+0x14e4>
   82aa0:	9c0f      	ldr	r4, [sp, #60]	; 0x3c
   82aa2:	f01b 0f08 	tst.w	fp, #8
   82aa6:	f104 0407 	add.w	r4, r4, #7
   82aaa:	f000 84cf 	beq.w	8344c <_svfprintf_r+0x1020>
   82aae:	f024 0307 	bic.w	r3, r4, #7
   82ab2:	f103 0208 	add.w	r2, r3, #8
   82ab6:	920f      	str	r2, [sp, #60]	; 0x3c
   82ab8:	681a      	ldr	r2, [r3, #0]
   82aba:	685b      	ldr	r3, [r3, #4]
   82abc:	9215      	str	r2, [sp, #84]	; 0x54
   82abe:	9314      	str	r3, [sp, #80]	; 0x50
   82ac0:	9b14      	ldr	r3, [sp, #80]	; 0x50
   82ac2:	9d15      	ldr	r5, [sp, #84]	; 0x54
   82ac4:	f023 4400 	bic.w	r4, r3, #2147483648	; 0x80000000
   82ac8:	4628      	mov	r0, r5
   82aca:	4621      	mov	r1, r4
   82acc:	f04f 32ff 	mov.w	r2, #4294967295
   82ad0:	4b6f      	ldr	r3, [pc, #444]	; (82c90 <_svfprintf_r+0x864>)
   82ad2:	f003 fe6b 	bl	867ac <__aeabi_dcmpun>
   82ad6:	2800      	cmp	r0, #0
   82ad8:	f040 8434 	bne.w	83344 <_svfprintf_r+0xf18>
   82adc:	4628      	mov	r0, r5
   82ade:	4621      	mov	r1, r4
   82ae0:	f04f 32ff 	mov.w	r2, #4294967295
   82ae4:	4b6a      	ldr	r3, [pc, #424]	; (82c90 <_svfprintf_r+0x864>)
   82ae6:	f003 fe43 	bl	86770 <__aeabi_dcmple>
   82aea:	2800      	cmp	r0, #0
   82aec:	f040 842a 	bne.w	83344 <_svfprintf_r+0xf18>
   82af0:	a815      	add	r0, sp, #84	; 0x54
   82af2:	c80d      	ldmia	r0, {r0, r2, r3}
   82af4:	9914      	ldr	r1, [sp, #80]	; 0x50
   82af6:	f003 fe31 	bl	8675c <__aeabi_dcmplt>
   82afa:	2800      	cmp	r0, #0
   82afc:	f040 85d4 	bne.w	836a8 <_svfprintf_r+0x127c>
   82b00:	f89d 7077 	ldrb.w	r7, [sp, #119]	; 0x77
   82b04:	2303      	movs	r3, #3
   82b06:	461a      	mov	r2, r3
   82b08:	9308      	str	r3, [sp, #32]
   82b0a:	2300      	movs	r3, #0
   82b0c:	4e61      	ldr	r6, [pc, #388]	; (82c94 <_svfprintf_r+0x868>)
   82b0e:	4619      	mov	r1, r3
   82b10:	930a      	str	r3, [sp, #40]	; 0x28
   82b12:	4b61      	ldr	r3, [pc, #388]	; (82c98 <_svfprintf_r+0x86c>)
   82b14:	920e      	str	r2, [sp, #56]	; 0x38
   82b16:	9a11      	ldr	r2, [sp, #68]	; 0x44
   82b18:	f02b 0080 	bic.w	r0, fp, #128	; 0x80
   82b1c:	9007      	str	r0, [sp, #28]
   82b1e:	9112      	str	r1, [sp, #72]	; 0x48
   82b20:	2a47      	cmp	r2, #71	; 0x47
   82b22:	bfd8      	it	le
   82b24:	461e      	movle	r6, r3
   82b26:	e5a5      	b.n	82674 <_svfprintf_r+0x248>
   82b28:	f04b 0b08 	orr.w	fp, fp, #8
   82b2c:	f89a 3000 	ldrb.w	r3, [sl]
   82b30:	e4d6      	b.n	824e0 <_svfprintf_r+0xb4>
   82b32:	f04b 0b10 	orr.w	fp, fp, #16
   82b36:	9311      	str	r3, [sp, #68]	; 0x44
   82b38:	f01b 0320 	ands.w	r3, fp, #32
   82b3c:	f43f aebb 	beq.w	828b6 <_svfprintf_r+0x48a>
   82b40:	9c0f      	ldr	r4, [sp, #60]	; 0x3c
   82b42:	3407      	adds	r4, #7
   82b44:	f024 0307 	bic.w	r3, r4, #7
   82b48:	f103 0208 	add.w	r2, r3, #8
   82b4c:	e9d3 4500 	ldrd	r4, r5, [r3]
   82b50:	920f      	str	r2, [sp, #60]	; 0x3c
   82b52:	2300      	movs	r3, #0
   82b54:	e568      	b.n	82628 <_svfprintf_r+0x1fc>
   82b56:	9311      	str	r3, [sp, #68]	; 0x44
   82b58:	2a00      	cmp	r2, #0
   82b5a:	f040 86c2 	bne.w	838e2 <_svfprintf_r+0x14b6>
   82b5e:	4b4f      	ldr	r3, [pc, #316]	; (82c9c <_svfprintf_r+0x870>)
   82b60:	f01b 0f20 	tst.w	fp, #32
   82b64:	9318      	str	r3, [sp, #96]	; 0x60
   82b66:	f43f af19 	beq.w	8299c <_svfprintf_r+0x570>
   82b6a:	9c0f      	ldr	r4, [sp, #60]	; 0x3c
   82b6c:	f01b 0f01 	tst.w	fp, #1
   82b70:	f104 0407 	add.w	r4, r4, #7
   82b74:	f024 0307 	bic.w	r3, r4, #7
   82b78:	f103 0208 	add.w	r2, r3, #8
   82b7c:	920f      	str	r2, [sp, #60]	; 0x3c
   82b7e:	e9d3 4500 	ldrd	r4, r5, [r3]
   82b82:	f47f af1d 	bne.w	829c0 <_svfprintf_r+0x594>
   82b86:	2302      	movs	r3, #2
   82b88:	e54e      	b.n	82628 <_svfprintf_r+0x1fc>
   82b8a:	f89a 3000 	ldrb.w	r3, [sl]
   82b8e:	2900      	cmp	r1, #0
   82b90:	f47f aca6 	bne.w	824e0 <_svfprintf_r+0xb4>
   82b94:	2201      	movs	r2, #1
   82b96:	2120      	movs	r1, #32
   82b98:	e4a2      	b.n	824e0 <_svfprintf_r+0xb4>
   82b9a:	f04b 0b01 	orr.w	fp, fp, #1
   82b9e:	f89a 3000 	ldrb.w	r3, [sl]
   82ba2:	e49d      	b.n	824e0 <_svfprintf_r+0xb4>
   82ba4:	f89a 3000 	ldrb.w	r3, [sl]
   82ba8:	2201      	movs	r2, #1
   82baa:	212b      	movs	r1, #43	; 0x2b
   82bac:	e498      	b.n	824e0 <_svfprintf_r+0xb4>
   82bae:	f04b 0b20 	orr.w	fp, fp, #32
   82bb2:	f89a 3000 	ldrb.w	r3, [sl]
   82bb6:	e493      	b.n	824e0 <_svfprintf_r+0xb4>
   82bb8:	f04b 0b40 	orr.w	fp, fp, #64	; 0x40
   82bbc:	f89a 3000 	ldrb.w	r3, [sl]
   82bc0:	e48e      	b.n	824e0 <_svfprintf_r+0xb4>
   82bc2:	f89a 3000 	ldrb.w	r3, [sl]
   82bc6:	2b6c      	cmp	r3, #108	; 0x6c
   82bc8:	bf03      	ittte	eq
   82bca:	f89a 3001 	ldrbeq.w	r3, [sl, #1]
   82bce:	f04b 0b20 	orreq.w	fp, fp, #32
   82bd2:	f10a 0a01 	addeq.w	sl, sl, #1
   82bd6:	f04b 0b10 	orrne.w	fp, fp, #16
   82bda:	e481      	b.n	824e0 <_svfprintf_r+0xb4>
   82bdc:	2a00      	cmp	r2, #0
   82bde:	f040 867c 	bne.w	838da <_svfprintf_r+0x14ae>
   82be2:	f01b 0f20 	tst.w	fp, #32
   82be6:	f040 8452 	bne.w	8348e <_svfprintf_r+0x1062>
   82bea:	f01b 0f10 	tst.w	fp, #16
   82bee:	f040 8438 	bne.w	83462 <_svfprintf_r+0x1036>
   82bf2:	f01b 0f40 	tst.w	fp, #64	; 0x40
   82bf6:	f000 8434 	beq.w	83462 <_svfprintf_r+0x1036>
   82bfa:	9a0f      	ldr	r2, [sp, #60]	; 0x3c
   82bfc:	6813      	ldr	r3, [r2, #0]
   82bfe:	3204      	adds	r2, #4
   82c00:	920f      	str	r2, [sp, #60]	; 0x3c
   82c02:	f8bd 2024 	ldrh.w	r2, [sp, #36]	; 0x24
   82c06:	801a      	strh	r2, [r3, #0]
   82c08:	e437      	b.n	8247a <_svfprintf_r+0x4e>
   82c0a:	2378      	movs	r3, #120	; 0x78
   82c0c:	2230      	movs	r2, #48	; 0x30
   82c0e:	980f      	ldr	r0, [sp, #60]	; 0x3c
   82c10:	f88d 3079 	strb.w	r3, [sp, #121]	; 0x79
   82c14:	9311      	str	r3, [sp, #68]	; 0x44
   82c16:	1d03      	adds	r3, r0, #4
   82c18:	930f      	str	r3, [sp, #60]	; 0x3c
   82c1a:	4b20      	ldr	r3, [pc, #128]	; (82c9c <_svfprintf_r+0x870>)
   82c1c:	6804      	ldr	r4, [r0, #0]
   82c1e:	9318      	str	r3, [sp, #96]	; 0x60
   82c20:	f04b 0b02 	orr.w	fp, fp, #2
   82c24:	f88d 2078 	strb.w	r2, [sp, #120]	; 0x78
   82c28:	2500      	movs	r5, #0
   82c2a:	2302      	movs	r3, #2
   82c2c:	e4fc      	b.n	82628 <_svfprintf_r+0x1fc>
   82c2e:	9311      	str	r3, [sp, #68]	; 0x44
   82c30:	2a00      	cmp	r2, #0
   82c32:	f43f aeef 	beq.w	82a14 <_svfprintf_r+0x5e8>
   82c36:	f88d 1077 	strb.w	r1, [sp, #119]	; 0x77
   82c3a:	e6eb      	b.n	82a14 <_svfprintf_r+0x5e8>
   82c3c:	2000      	movs	r0, #0
   82c3e:	4604      	mov	r4, r0
   82c40:	f1a3 0030 	sub.w	r0, r3, #48	; 0x30
   82c44:	f81a 3b01 	ldrb.w	r3, [sl], #1
   82c48:	eb04 0484 	add.w	r4, r4, r4, lsl #2
   82c4c:	eb00 0444 	add.w	r4, r0, r4, lsl #1
   82c50:	f1a3 0030 	sub.w	r0, r3, #48	; 0x30
   82c54:	2809      	cmp	r0, #9
   82c56:	d9f5      	bls.n	82c44 <_svfprintf_r+0x818>
   82c58:	940d      	str	r4, [sp, #52]	; 0x34
   82c5a:	e443      	b.n	824e4 <_svfprintf_r+0xb8>
   82c5c:	9311      	str	r3, [sp, #68]	; 0x44
   82c5e:	2a00      	cmp	r2, #0
   82c60:	f040 864a 	bne.w	838f8 <_svfprintf_r+0x14cc>
   82c64:	9a11      	ldr	r2, [sp, #68]	; 0x44
   82c66:	2a00      	cmp	r2, #0
   82c68:	f43f acb6 	beq.w	825d8 <_svfprintf_r+0x1ac>
   82c6c:	2300      	movs	r3, #0
   82c6e:	2101      	movs	r1, #1
   82c70:	461f      	mov	r7, r3
   82c72:	9108      	str	r1, [sp, #32]
   82c74:	f88d 20a0 	strb.w	r2, [sp, #160]	; 0xa0
   82c78:	f8cd b01c 	str.w	fp, [sp, #28]
   82c7c:	f88d 3077 	strb.w	r3, [sp, #119]	; 0x77
   82c80:	930a      	str	r3, [sp, #40]	; 0x28
   82c82:	9312      	str	r3, [sp, #72]	; 0x48
   82c84:	910e      	str	r1, [sp, #56]	; 0x38
   82c86:	ae28      	add	r6, sp, #160	; 0xa0
   82c88:	e4f8      	b.n	8267c <_svfprintf_r+0x250>
   82c8a:	bf00      	nop
   82c8c:	00086c58 	.word	0x00086c58
   82c90:	7fefffff 	.word	0x7fefffff
   82c94:	00086c4c 	.word	0x00086c4c
   82c98:	00086c48 	.word	0x00086c48
   82c9c:	00086c6c 	.word	0x00086c6c
   82ca0:	aa25      	add	r2, sp, #148	; 0x94
   82ca2:	990b      	ldr	r1, [sp, #44]	; 0x2c
   82ca4:	980c      	ldr	r0, [sp, #48]	; 0x30
   82ca6:	f002 fcad 	bl	85604 <__ssprint_r>
   82caa:	2800      	cmp	r0, #0
   82cac:	f47f ac9b 	bne.w	825e6 <_svfprintf_r+0x1ba>
   82cb0:	46c8      	mov	r8, r9
   82cb2:	f89d 7077 	ldrb.w	r7, [sp, #119]	; 0x77
   82cb6:	9c27      	ldr	r4, [sp, #156]	; 0x9c
   82cb8:	e533      	b.n	82722 <_svfprintf_r+0x2f6>
   82cba:	9b11      	ldr	r3, [sp, #68]	; 0x44
   82cbc:	2b65      	cmp	r3, #101	; 0x65
   82cbe:	f340 809a 	ble.w	82df6 <_svfprintf_r+0x9ca>
   82cc2:	a815      	add	r0, sp, #84	; 0x54
   82cc4:	c80d      	ldmia	r0, {r0, r2, r3}
   82cc6:	9914      	ldr	r1, [sp, #80]	; 0x50
   82cc8:	f003 fd3e 	bl	86748 <__aeabi_dcmpeq>
   82ccc:	2800      	cmp	r0, #0
   82cce:	f000 8193 	beq.w	82ff8 <_svfprintf_r+0xbcc>
   82cd2:	2101      	movs	r1, #1
   82cd4:	9b26      	ldr	r3, [sp, #152]	; 0x98
   82cd6:	4ab5      	ldr	r2, [pc, #724]	; (82fac <_svfprintf_r+0xb80>)
   82cd8:	440b      	add	r3, r1
   82cda:	440c      	add	r4, r1
   82cdc:	2b07      	cmp	r3, #7
   82cde:	9427      	str	r4, [sp, #156]	; 0x9c
   82ce0:	9326      	str	r3, [sp, #152]	; 0x98
   82ce2:	f8c8 1004 	str.w	r1, [r8, #4]
   82ce6:	f8c8 2000 	str.w	r2, [r8]
   82cea:	f300 83c6 	bgt.w	8347a <_svfprintf_r+0x104e>
   82cee:	f108 0808 	add.w	r8, r8, #8
   82cf2:	9b1f      	ldr	r3, [sp, #124]	; 0x7c
   82cf4:	9a13      	ldr	r2, [sp, #76]	; 0x4c
   82cf6:	9c27      	ldr	r4, [sp, #156]	; 0x9c
   82cf8:	4293      	cmp	r3, r2
   82cfa:	db03      	blt.n	82d04 <_svfprintf_r+0x8d8>
   82cfc:	9b07      	ldr	r3, [sp, #28]
   82cfe:	07dd      	lsls	r5, r3, #31
   82d00:	f57f ad86 	bpl.w	82810 <_svfprintf_r+0x3e4>
   82d04:	9b26      	ldr	r3, [sp, #152]	; 0x98
   82d06:	9919      	ldr	r1, [sp, #100]	; 0x64
   82d08:	3301      	adds	r3, #1
   82d0a:	9a1a      	ldr	r2, [sp, #104]	; 0x68
   82d0c:	440c      	add	r4, r1
   82d0e:	2b07      	cmp	r3, #7
   82d10:	f8c8 2000 	str.w	r2, [r8]
   82d14:	f8c8 1004 	str.w	r1, [r8, #4]
   82d18:	9427      	str	r4, [sp, #156]	; 0x9c
   82d1a:	9326      	str	r3, [sp, #152]	; 0x98
   82d1c:	f300 83c4 	bgt.w	834a8 <_svfprintf_r+0x107c>
   82d20:	f108 0808 	add.w	r8, r8, #8
   82d24:	9b13      	ldr	r3, [sp, #76]	; 0x4c
   82d26:	1e5e      	subs	r6, r3, #1
   82d28:	2e00      	cmp	r6, #0
   82d2a:	f77f ad71 	ble.w	82810 <_svfprintf_r+0x3e4>
   82d2e:	2e10      	cmp	r6, #16
   82d30:	f340 8575 	ble.w	8381e <_svfprintf_r+0x13f2>
   82d34:	4622      	mov	r2, r4
   82d36:	2710      	movs	r7, #16
   82d38:	9b26      	ldr	r3, [sp, #152]	; 0x98
   82d3a:	4d9d      	ldr	r5, [pc, #628]	; (82fb0 <_svfprintf_r+0xb84>)
   82d3c:	f8dd b030 	ldr.w	fp, [sp, #48]	; 0x30
   82d40:	9c0b      	ldr	r4, [sp, #44]	; 0x2c
   82d42:	e005      	b.n	82d50 <_svfprintf_r+0x924>
   82d44:	f108 0808 	add.w	r8, r8, #8
   82d48:	3e10      	subs	r6, #16
   82d4a:	2e10      	cmp	r6, #16
   82d4c:	f340 8225 	ble.w	8319a <_svfprintf_r+0xd6e>
   82d50:	3301      	adds	r3, #1
   82d52:	3210      	adds	r2, #16
   82d54:	2b07      	cmp	r3, #7
   82d56:	9227      	str	r2, [sp, #156]	; 0x9c
   82d58:	9326      	str	r3, [sp, #152]	; 0x98
   82d5a:	e888 00a0 	stmia.w	r8, {r5, r7}
   82d5e:	ddf1      	ble.n	82d44 <_svfprintf_r+0x918>
   82d60:	aa25      	add	r2, sp, #148	; 0x94
   82d62:	4621      	mov	r1, r4
   82d64:	4658      	mov	r0, fp
   82d66:	f002 fc4d 	bl	85604 <__ssprint_r>
   82d6a:	2800      	cmp	r0, #0
   82d6c:	f47f ac3b 	bne.w	825e6 <_svfprintf_r+0x1ba>
   82d70:	46c8      	mov	r8, r9
   82d72:	9a27      	ldr	r2, [sp, #156]	; 0x9c
   82d74:	9b26      	ldr	r3, [sp, #152]	; 0x98
   82d76:	e7e7      	b.n	82d48 <_svfprintf_r+0x91c>
   82d78:	9b0d      	ldr	r3, [sp, #52]	; 0x34
   82d7a:	9a08      	ldr	r2, [sp, #32]
   82d7c:	1a9f      	subs	r7, r3, r2
   82d7e:	2f00      	cmp	r7, #0
   82d80:	f77f acf6 	ble.w	82770 <_svfprintf_r+0x344>
   82d84:	2f10      	cmp	r7, #16
   82d86:	f340 84a8 	ble.w	836da <_svfprintf_r+0x12ae>
   82d8a:	4d89      	ldr	r5, [pc, #548]	; (82fb0 <_svfprintf_r+0xb84>)
   82d8c:	4642      	mov	r2, r8
   82d8e:	4621      	mov	r1, r4
   82d90:	46b0      	mov	r8, r6
   82d92:	f04f 0b10 	mov.w	fp, #16
   82d96:	462e      	mov	r6, r5
   82d98:	9b26      	ldr	r3, [sp, #152]	; 0x98
   82d9a:	9c0c      	ldr	r4, [sp, #48]	; 0x30
   82d9c:	9d0b      	ldr	r5, [sp, #44]	; 0x2c
   82d9e:	e004      	b.n	82daa <_svfprintf_r+0x97e>
   82da0:	3f10      	subs	r7, #16
   82da2:	2f10      	cmp	r7, #16
   82da4:	f102 0208 	add.w	r2, r2, #8
   82da8:	dd15      	ble.n	82dd6 <_svfprintf_r+0x9aa>
   82daa:	3301      	adds	r3, #1
   82dac:	3110      	adds	r1, #16
   82dae:	2b07      	cmp	r3, #7
   82db0:	9127      	str	r1, [sp, #156]	; 0x9c
   82db2:	9326      	str	r3, [sp, #152]	; 0x98
   82db4:	e882 0840 	stmia.w	r2, {r6, fp}
   82db8:	ddf2      	ble.n	82da0 <_svfprintf_r+0x974>
   82dba:	aa25      	add	r2, sp, #148	; 0x94
   82dbc:	4629      	mov	r1, r5
   82dbe:	4620      	mov	r0, r4
   82dc0:	f002 fc20 	bl	85604 <__ssprint_r>
   82dc4:	2800      	cmp	r0, #0
   82dc6:	f47f ac0e 	bne.w	825e6 <_svfprintf_r+0x1ba>
   82dca:	3f10      	subs	r7, #16
   82dcc:	2f10      	cmp	r7, #16
   82dce:	464a      	mov	r2, r9
   82dd0:	9927      	ldr	r1, [sp, #156]	; 0x9c
   82dd2:	9b26      	ldr	r3, [sp, #152]	; 0x98
   82dd4:	dce9      	bgt.n	82daa <_svfprintf_r+0x97e>
   82dd6:	4635      	mov	r5, r6
   82dd8:	460c      	mov	r4, r1
   82dda:	4646      	mov	r6, r8
   82ddc:	4690      	mov	r8, r2
   82dde:	3301      	adds	r3, #1
   82de0:	443c      	add	r4, r7
   82de2:	2b07      	cmp	r3, #7
   82de4:	9427      	str	r4, [sp, #156]	; 0x9c
   82de6:	9326      	str	r3, [sp, #152]	; 0x98
   82de8:	e888 00a0 	stmia.w	r8, {r5, r7}
   82dec:	f300 829e 	bgt.w	8332c <_svfprintf_r+0xf00>
   82df0:	f108 0808 	add.w	r8, r8, #8
   82df4:	e4bc      	b.n	82770 <_svfprintf_r+0x344>
   82df6:	9b13      	ldr	r3, [sp, #76]	; 0x4c
   82df8:	2b01      	cmp	r3, #1
   82dfa:	f340 824f 	ble.w	8329c <_svfprintf_r+0xe70>
   82dfe:	2301      	movs	r3, #1
   82e00:	9f26      	ldr	r7, [sp, #152]	; 0x98
   82e02:	441c      	add	r4, r3
   82e04:	441f      	add	r7, r3
   82e06:	2f07      	cmp	r7, #7
   82e08:	9427      	str	r4, [sp, #156]	; 0x9c
   82e0a:	f8c8 6000 	str.w	r6, [r8]
   82e0e:	9726      	str	r7, [sp, #152]	; 0x98
   82e10:	f8c8 3004 	str.w	r3, [r8, #4]
   82e14:	f300 825f 	bgt.w	832d6 <_svfprintf_r+0xeaa>
   82e18:	f108 0808 	add.w	r8, r8, #8
   82e1c:	9a19      	ldr	r2, [sp, #100]	; 0x64
   82e1e:	3701      	adds	r7, #1
   82e20:	9b1a      	ldr	r3, [sp, #104]	; 0x68
   82e22:	4414      	add	r4, r2
   82e24:	2f07      	cmp	r7, #7
   82e26:	9427      	str	r4, [sp, #156]	; 0x9c
   82e28:	9726      	str	r7, [sp, #152]	; 0x98
   82e2a:	f8c8 3000 	str.w	r3, [r8]
   82e2e:	f8c8 2004 	str.w	r2, [r8, #4]
   82e32:	f300 825c 	bgt.w	832ee <_svfprintf_r+0xec2>
   82e36:	f108 0808 	add.w	r8, r8, #8
   82e3a:	a815      	add	r0, sp, #84	; 0x54
   82e3c:	c80d      	ldmia	r0, {r0, r2, r3}
   82e3e:	9914      	ldr	r1, [sp, #80]	; 0x50
   82e40:	f003 fc82 	bl	86748 <__aeabi_dcmpeq>
   82e44:	9b13      	ldr	r3, [sp, #76]	; 0x4c
   82e46:	2800      	cmp	r0, #0
   82e48:	f040 8141 	bne.w	830ce <_svfprintf_r+0xca2>
   82e4c:	3b01      	subs	r3, #1
   82e4e:	3701      	adds	r7, #1
   82e50:	3601      	adds	r6, #1
   82e52:	441c      	add	r4, r3
   82e54:	2f07      	cmp	r7, #7
   82e56:	f8c8 6000 	str.w	r6, [r8]
   82e5a:	9726      	str	r7, [sp, #152]	; 0x98
   82e5c:	9427      	str	r4, [sp, #156]	; 0x9c
   82e5e:	f8c8 3004 	str.w	r3, [r8, #4]
   82e62:	f300 8166 	bgt.w	83132 <_svfprintf_r+0xd06>
   82e66:	f108 0808 	add.w	r8, r8, #8
   82e6a:	9a1b      	ldr	r2, [sp, #108]	; 0x6c
   82e6c:	3701      	adds	r7, #1
   82e6e:	4414      	add	r4, r2
   82e70:	ab21      	add	r3, sp, #132	; 0x84
   82e72:	2f07      	cmp	r7, #7
   82e74:	9427      	str	r4, [sp, #156]	; 0x9c
   82e76:	9726      	str	r7, [sp, #152]	; 0x98
   82e78:	f8c8 2004 	str.w	r2, [r8, #4]
   82e7c:	f8c8 3000 	str.w	r3, [r8]
   82e80:	f77f acc4 	ble.w	8280c <_svfprintf_r+0x3e0>
   82e84:	aa25      	add	r2, sp, #148	; 0x94
   82e86:	990b      	ldr	r1, [sp, #44]	; 0x2c
   82e88:	980c      	ldr	r0, [sp, #48]	; 0x30
   82e8a:	f002 fbbb 	bl	85604 <__ssprint_r>
   82e8e:	2800      	cmp	r0, #0
   82e90:	f47f aba9 	bne.w	825e6 <_svfprintf_r+0x1ba>
   82e94:	46c8      	mov	r8, r9
   82e96:	9c27      	ldr	r4, [sp, #156]	; 0x9c
   82e98:	e4ba      	b.n	82810 <_svfprintf_r+0x3e4>
   82e9a:	aa25      	add	r2, sp, #148	; 0x94
   82e9c:	990b      	ldr	r1, [sp, #44]	; 0x2c
   82e9e:	980c      	ldr	r0, [sp, #48]	; 0x30
   82ea0:	f002 fbb0 	bl	85604 <__ssprint_r>
   82ea4:	2800      	cmp	r0, #0
   82ea6:	f43f acfd 	beq.w	828a4 <_svfprintf_r+0x478>
   82eaa:	f7ff bb9c 	b.w	825e6 <_svfprintf_r+0x1ba>
   82eae:	f8dd b01c 	ldr.w	fp, [sp, #28]
   82eb2:	2b01      	cmp	r3, #1
   82eb4:	f000 817e 	beq.w	831b4 <_svfprintf_r+0xd88>
   82eb8:	2b02      	cmp	r3, #2
   82eba:	d171      	bne.n	82fa0 <_svfprintf_r+0xb74>
   82ebc:	f8cd b01c 	str.w	fp, [sp, #28]
   82ec0:	2400      	movs	r4, #0
   82ec2:	2500      	movs	r5, #0
   82ec4:	e5d4      	b.n	82a70 <_svfprintf_r+0x644>
   82ec6:	aa25      	add	r2, sp, #148	; 0x94
   82ec8:	990b      	ldr	r1, [sp, #44]	; 0x2c
   82eca:	980c      	ldr	r0, [sp, #48]	; 0x30
   82ecc:	f002 fb9a 	bl	85604 <__ssprint_r>
   82ed0:	2800      	cmp	r0, #0
   82ed2:	f47f ab88 	bne.w	825e6 <_svfprintf_r+0x1ba>
   82ed6:	46c8      	mov	r8, r9
   82ed8:	9c27      	ldr	r4, [sp, #156]	; 0x9c
   82eda:	e486      	b.n	827ea <_svfprintf_r+0x3be>
   82edc:	aa25      	add	r2, sp, #148	; 0x94
   82ede:	990b      	ldr	r1, [sp, #44]	; 0x2c
   82ee0:	980c      	ldr	r0, [sp, #48]	; 0x30
   82ee2:	f002 fb8f 	bl	85604 <__ssprint_r>
   82ee6:	2800      	cmp	r0, #0
   82ee8:	f47f ab7d 	bne.w	825e6 <_svfprintf_r+0x1ba>
   82eec:	46c8      	mov	r8, r9
   82eee:	9c27      	ldr	r4, [sp, #156]	; 0x9c
   82ef0:	e429      	b.n	82746 <_svfprintf_r+0x31a>
   82ef2:	2001      	movs	r0, #1
   82ef4:	9b26      	ldr	r3, [sp, #152]	; 0x98
   82ef6:	4a2d      	ldr	r2, [pc, #180]	; (82fac <_svfprintf_r+0xb80>)
   82ef8:	4403      	add	r3, r0
   82efa:	4404      	add	r4, r0
   82efc:	2b07      	cmp	r3, #7
   82efe:	9427      	str	r4, [sp, #156]	; 0x9c
   82f00:	9326      	str	r3, [sp, #152]	; 0x98
   82f02:	f8c8 0004 	str.w	r0, [r8, #4]
   82f06:	f8c8 2000 	str.w	r2, [r8]
   82f0a:	f340 82d8 	ble.w	834be <_svfprintf_r+0x1092>
   82f0e:	aa25      	add	r2, sp, #148	; 0x94
   82f10:	990b      	ldr	r1, [sp, #44]	; 0x2c
   82f12:	980c      	ldr	r0, [sp, #48]	; 0x30
   82f14:	f002 fb76 	bl	85604 <__ssprint_r>
   82f18:	2800      	cmp	r0, #0
   82f1a:	f47f ab64 	bne.w	825e6 <_svfprintf_r+0x1ba>
   82f1e:	46c8      	mov	r8, r9
   82f20:	991f      	ldr	r1, [sp, #124]	; 0x7c
   82f22:	9c27      	ldr	r4, [sp, #156]	; 0x9c
   82f24:	b929      	cbnz	r1, 82f32 <_svfprintf_r+0xb06>
   82f26:	9b13      	ldr	r3, [sp, #76]	; 0x4c
   82f28:	b91b      	cbnz	r3, 82f32 <_svfprintf_r+0xb06>
   82f2a:	9b07      	ldr	r3, [sp, #28]
   82f2c:	07d8      	lsls	r0, r3, #31
   82f2e:	f57f ac6f 	bpl.w	82810 <_svfprintf_r+0x3e4>
   82f32:	9819      	ldr	r0, [sp, #100]	; 0x64
   82f34:	9b26      	ldr	r3, [sp, #152]	; 0x98
   82f36:	4602      	mov	r2, r0
   82f38:	3301      	adds	r3, #1
   82f3a:	4422      	add	r2, r4
   82f3c:	9c1a      	ldr	r4, [sp, #104]	; 0x68
   82f3e:	2b07      	cmp	r3, #7
   82f40:	9227      	str	r2, [sp, #156]	; 0x9c
   82f42:	f8c8 4000 	str.w	r4, [r8]
   82f46:	f8c8 0004 	str.w	r0, [r8, #4]
   82f4a:	9326      	str	r3, [sp, #152]	; 0x98
   82f4c:	f300 8431 	bgt.w	837b2 <_svfprintf_r+0x1386>
   82f50:	f108 0808 	add.w	r8, r8, #8
   82f54:	2900      	cmp	r1, #0
   82f56:	f2c0 8409 	blt.w	8376c <_svfprintf_r+0x1340>
   82f5a:	9913      	ldr	r1, [sp, #76]	; 0x4c
   82f5c:	3301      	adds	r3, #1
   82f5e:	188c      	adds	r4, r1, r2
   82f60:	2b07      	cmp	r3, #7
   82f62:	9427      	str	r4, [sp, #156]	; 0x9c
   82f64:	9326      	str	r3, [sp, #152]	; 0x98
   82f66:	f8c8 6000 	str.w	r6, [r8]
   82f6a:	f8c8 1004 	str.w	r1, [r8, #4]
   82f6e:	f77f ac4d 	ble.w	8280c <_svfprintf_r+0x3e0>
   82f72:	aa25      	add	r2, sp, #148	; 0x94
   82f74:	990b      	ldr	r1, [sp, #44]	; 0x2c
   82f76:	980c      	ldr	r0, [sp, #48]	; 0x30
   82f78:	f002 fb44 	bl	85604 <__ssprint_r>
   82f7c:	2800      	cmp	r0, #0
   82f7e:	f47f ab32 	bne.w	825e6 <_svfprintf_r+0x1ba>
   82f82:	9c27      	ldr	r4, [sp, #156]	; 0x9c
   82f84:	46c8      	mov	r8, r9
   82f86:	e443      	b.n	82810 <_svfprintf_r+0x3e4>
   82f88:	aa25      	add	r2, sp, #148	; 0x94
   82f8a:	990b      	ldr	r1, [sp, #44]	; 0x2c
   82f8c:	980c      	ldr	r0, [sp, #48]	; 0x30
   82f8e:	f002 fb39 	bl	85604 <__ssprint_r>
   82f92:	2800      	cmp	r0, #0
   82f94:	f47f ab27 	bne.w	825e6 <_svfprintf_r+0x1ba>
   82f98:	46c8      	mov	r8, r9
   82f9a:	9c27      	ldr	r4, [sp, #156]	; 0x9c
   82f9c:	f7ff bbe5 	b.w	8276a <_svfprintf_r+0x33e>
   82fa0:	2400      	movs	r4, #0
   82fa2:	2500      	movs	r5, #0
   82fa4:	f8cd b01c 	str.w	fp, [sp, #28]
   82fa8:	4649      	mov	r1, r9
   82faa:	e004      	b.n	82fb6 <_svfprintf_r+0xb8a>
   82fac:	00086c88 	.word	0x00086c88
   82fb0:	00086c9c 	.word	0x00086c9c
   82fb4:	4631      	mov	r1, r6
   82fb6:	08e2      	lsrs	r2, r4, #3
   82fb8:	ea42 7245 	orr.w	r2, r2, r5, lsl #29
   82fbc:	08e8      	lsrs	r0, r5, #3
   82fbe:	f004 0307 	and.w	r3, r4, #7
   82fc2:	4605      	mov	r5, r0
   82fc4:	4614      	mov	r4, r2
   82fc6:	3330      	adds	r3, #48	; 0x30
   82fc8:	ea54 0205 	orrs.w	r2, r4, r5
   82fcc:	f801 3c01 	strb.w	r3, [r1, #-1]
   82fd0:	f101 36ff 	add.w	r6, r1, #4294967295
   82fd4:	d1ee      	bne.n	82fb4 <_svfprintf_r+0xb88>
   82fd6:	9a07      	ldr	r2, [sp, #28]
   82fd8:	07d2      	lsls	r2, r2, #31
   82fda:	f57f ad59 	bpl.w	82a90 <_svfprintf_r+0x664>
   82fde:	2b30      	cmp	r3, #48	; 0x30
   82fe0:	f43f ad56 	beq.w	82a90 <_svfprintf_r+0x664>
   82fe4:	2330      	movs	r3, #48	; 0x30
   82fe6:	3902      	subs	r1, #2
   82fe8:	f806 3c01 	strb.w	r3, [r6, #-1]
   82fec:	eba9 0301 	sub.w	r3, r9, r1
   82ff0:	930e      	str	r3, [sp, #56]	; 0x38
   82ff2:	460e      	mov	r6, r1
   82ff4:	f7ff bb36 	b.w	82664 <_svfprintf_r+0x238>
   82ff8:	991f      	ldr	r1, [sp, #124]	; 0x7c
   82ffa:	2900      	cmp	r1, #0
   82ffc:	f77f af79 	ble.w	82ef2 <_svfprintf_r+0xac6>
   83000:	9b12      	ldr	r3, [sp, #72]	; 0x48
   83002:	9a13      	ldr	r2, [sp, #76]	; 0x4c
   83004:	4293      	cmp	r3, r2
   83006:	bfa8      	it	ge
   83008:	4613      	movge	r3, r2
   8300a:	2b00      	cmp	r3, #0
   8300c:	461f      	mov	r7, r3
   8300e:	dd0b      	ble.n	83028 <_svfprintf_r+0xbfc>
   83010:	9b26      	ldr	r3, [sp, #152]	; 0x98
   83012:	443c      	add	r4, r7
   83014:	3301      	adds	r3, #1
   83016:	2b07      	cmp	r3, #7
   83018:	9427      	str	r4, [sp, #156]	; 0x9c
   8301a:	e888 00c0 	stmia.w	r8, {r6, r7}
   8301e:	9326      	str	r3, [sp, #152]	; 0x98
   83020:	f300 82fb 	bgt.w	8361a <_svfprintf_r+0x11ee>
   83024:	f108 0808 	add.w	r8, r8, #8
   83028:	9b12      	ldr	r3, [sp, #72]	; 0x48
   8302a:	2f00      	cmp	r7, #0
   8302c:	bfa8      	it	ge
   8302e:	1bdb      	subge	r3, r3, r7
   83030:	2b00      	cmp	r3, #0
   83032:	461f      	mov	r7, r3
   83034:	f340 80d7 	ble.w	831e6 <_svfprintf_r+0xdba>
   83038:	2b10      	cmp	r3, #16
   8303a:	f340 8434 	ble.w	838a6 <_svfprintf_r+0x147a>
   8303e:	4dba      	ldr	r5, [pc, #744]	; (83328 <_svfprintf_r+0xefc>)
   83040:	4642      	mov	r2, r8
   83042:	4621      	mov	r1, r4
   83044:	46b0      	mov	r8, r6
   83046:	f04f 0b10 	mov.w	fp, #16
   8304a:	462e      	mov	r6, r5
   8304c:	9b26      	ldr	r3, [sp, #152]	; 0x98
   8304e:	9c0c      	ldr	r4, [sp, #48]	; 0x30
   83050:	9d0b      	ldr	r5, [sp, #44]	; 0x2c
   83052:	e004      	b.n	8305e <_svfprintf_r+0xc32>
   83054:	3208      	adds	r2, #8
   83056:	3f10      	subs	r7, #16
   83058:	2f10      	cmp	r7, #16
   8305a:	f340 80b5 	ble.w	831c8 <_svfprintf_r+0xd9c>
   8305e:	3301      	adds	r3, #1
   83060:	3110      	adds	r1, #16
   83062:	2b07      	cmp	r3, #7
   83064:	9127      	str	r1, [sp, #156]	; 0x9c
   83066:	9326      	str	r3, [sp, #152]	; 0x98
   83068:	e882 0840 	stmia.w	r2, {r6, fp}
   8306c:	ddf2      	ble.n	83054 <_svfprintf_r+0xc28>
   8306e:	aa25      	add	r2, sp, #148	; 0x94
   83070:	4629      	mov	r1, r5
   83072:	4620      	mov	r0, r4
   83074:	f002 fac6 	bl	85604 <__ssprint_r>
   83078:	2800      	cmp	r0, #0
   8307a:	f47f aab4 	bne.w	825e6 <_svfprintf_r+0x1ba>
   8307e:	464a      	mov	r2, r9
   83080:	9927      	ldr	r1, [sp, #156]	; 0x9c
   83082:	9b26      	ldr	r3, [sp, #152]	; 0x98
   83084:	e7e7      	b.n	83056 <_svfprintf_r+0xc2a>
   83086:	2d00      	cmp	r5, #0
   83088:	bf08      	it	eq
   8308a:	2c0a      	cmpeq	r4, #10
   8308c:	f0c0 8090 	bcc.w	831b0 <_svfprintf_r+0xd84>
   83090:	464e      	mov	r6, r9
   83092:	4620      	mov	r0, r4
   83094:	4629      	mov	r1, r5
   83096:	220a      	movs	r2, #10
   83098:	2300      	movs	r3, #0
   8309a:	f003 fbc5 	bl	86828 <__aeabi_uldivmod>
   8309e:	3230      	adds	r2, #48	; 0x30
   830a0:	f806 2d01 	strb.w	r2, [r6, #-1]!
   830a4:	4620      	mov	r0, r4
   830a6:	4629      	mov	r1, r5
   830a8:	2300      	movs	r3, #0
   830aa:	220a      	movs	r2, #10
   830ac:	f003 fbbc 	bl	86828 <__aeabi_uldivmod>
   830b0:	4604      	mov	r4, r0
   830b2:	460d      	mov	r5, r1
   830b4:	ea54 0305 	orrs.w	r3, r4, r5
   830b8:	d1eb      	bne.n	83092 <_svfprintf_r+0xc66>
   830ba:	eba9 0306 	sub.w	r3, r9, r6
   830be:	930e      	str	r3, [sp, #56]	; 0x38
   830c0:	f7ff bad0 	b.w	82664 <_svfprintf_r+0x238>
   830c4:	9b0a      	ldr	r3, [sp, #40]	; 0x28
   830c6:	464e      	mov	r6, r9
   830c8:	930e      	str	r3, [sp, #56]	; 0x38
   830ca:	f7ff bacb 	b.w	82664 <_svfprintf_r+0x238>
   830ce:	1e5e      	subs	r6, r3, #1
   830d0:	2e00      	cmp	r6, #0
   830d2:	f77f aeca 	ble.w	82e6a <_svfprintf_r+0xa3e>
   830d6:	2e10      	cmp	r6, #16
   830d8:	f340 83e3 	ble.w	838a2 <_svfprintf_r+0x1476>
   830dc:	4622      	mov	r2, r4
   830de:	f04f 0b10 	mov.w	fp, #16
   830e2:	4d91      	ldr	r5, [pc, #580]	; (83328 <_svfprintf_r+0xefc>)
   830e4:	9c0c      	ldr	r4, [sp, #48]	; 0x30
   830e6:	e004      	b.n	830f2 <_svfprintf_r+0xcc6>
   830e8:	3e10      	subs	r6, #16
   830ea:	2e10      	cmp	r6, #16
   830ec:	f108 0808 	add.w	r8, r8, #8
   830f0:	dd15      	ble.n	8311e <_svfprintf_r+0xcf2>
   830f2:	3701      	adds	r7, #1
   830f4:	3210      	adds	r2, #16
   830f6:	2f07      	cmp	r7, #7
   830f8:	9227      	str	r2, [sp, #156]	; 0x9c
   830fa:	9726      	str	r7, [sp, #152]	; 0x98
   830fc:	e888 0820 	stmia.w	r8, {r5, fp}
   83100:	ddf2      	ble.n	830e8 <_svfprintf_r+0xcbc>
   83102:	aa25      	add	r2, sp, #148	; 0x94
   83104:	990b      	ldr	r1, [sp, #44]	; 0x2c
   83106:	4620      	mov	r0, r4
   83108:	f002 fa7c 	bl	85604 <__ssprint_r>
   8310c:	2800      	cmp	r0, #0
   8310e:	f47f aa6a 	bne.w	825e6 <_svfprintf_r+0x1ba>
   83112:	3e10      	subs	r6, #16
   83114:	2e10      	cmp	r6, #16
   83116:	46c8      	mov	r8, r9
   83118:	9a27      	ldr	r2, [sp, #156]	; 0x9c
   8311a:	9f26      	ldr	r7, [sp, #152]	; 0x98
   8311c:	dce9      	bgt.n	830f2 <_svfprintf_r+0xcc6>
   8311e:	4614      	mov	r4, r2
   83120:	3701      	adds	r7, #1
   83122:	4434      	add	r4, r6
   83124:	2f07      	cmp	r7, #7
   83126:	9427      	str	r4, [sp, #156]	; 0x9c
   83128:	9726      	str	r7, [sp, #152]	; 0x98
   8312a:	e888 0060 	stmia.w	r8, {r5, r6}
   8312e:	f77f ae9a 	ble.w	82e66 <_svfprintf_r+0xa3a>
   83132:	aa25      	add	r2, sp, #148	; 0x94
   83134:	990b      	ldr	r1, [sp, #44]	; 0x2c
   83136:	980c      	ldr	r0, [sp, #48]	; 0x30
   83138:	f002 fa64 	bl	85604 <__ssprint_r>
   8313c:	2800      	cmp	r0, #0
   8313e:	f47f aa52 	bne.w	825e6 <_svfprintf_r+0x1ba>
   83142:	9c27      	ldr	r4, [sp, #156]	; 0x9c
   83144:	9f26      	ldr	r7, [sp, #152]	; 0x98
   83146:	46c8      	mov	r8, r9
   83148:	e68f      	b.n	82e6a <_svfprintf_r+0xa3e>
   8314a:	3204      	adds	r2, #4
   8314c:	681c      	ldr	r4, [r3, #0]
   8314e:	2500      	movs	r5, #0
   83150:	2301      	movs	r3, #1
   83152:	920f      	str	r2, [sp, #60]	; 0x3c
   83154:	f7ff ba68 	b.w	82628 <_svfprintf_r+0x1fc>
   83158:	681c      	ldr	r4, [r3, #0]
   8315a:	3304      	adds	r3, #4
   8315c:	930f      	str	r3, [sp, #60]	; 0x3c
   8315e:	2500      	movs	r5, #0
   83160:	e42a      	b.n	829b8 <_svfprintf_r+0x58c>
   83162:	681c      	ldr	r4, [r3, #0]
   83164:	3304      	adds	r3, #4
   83166:	17e5      	asrs	r5, r4, #31
   83168:	4622      	mov	r2, r4
   8316a:	930f      	str	r3, [sp, #60]	; 0x3c
   8316c:	462b      	mov	r3, r5
   8316e:	2a00      	cmp	r2, #0
   83170:	f173 0300 	sbcs.w	r3, r3, #0
   83174:	f6bf ac68 	bge.w	82a48 <_svfprintf_r+0x61c>
   83178:	272d      	movs	r7, #45	; 0x2d
   8317a:	4264      	negs	r4, r4
   8317c:	eb65 0545 	sbc.w	r5, r5, r5, lsl #1
   83180:	f88d 7077 	strb.w	r7, [sp, #119]	; 0x77
   83184:	2301      	movs	r3, #1
   83186:	f7ff ba53 	b.w	82630 <_svfprintf_r+0x204>
   8318a:	990f      	ldr	r1, [sp, #60]	; 0x3c
   8318c:	2500      	movs	r5, #0
   8318e:	460a      	mov	r2, r1
   83190:	3204      	adds	r2, #4
   83192:	680c      	ldr	r4, [r1, #0]
   83194:	920f      	str	r2, [sp, #60]	; 0x3c
   83196:	f7ff ba47 	b.w	82628 <_svfprintf_r+0x1fc>
   8319a:	4614      	mov	r4, r2
   8319c:	3301      	adds	r3, #1
   8319e:	4434      	add	r4, r6
   831a0:	2b07      	cmp	r3, #7
   831a2:	9427      	str	r4, [sp, #156]	; 0x9c
   831a4:	9326      	str	r3, [sp, #152]	; 0x98
   831a6:	e888 0060 	stmia.w	r8, {r5, r6}
   831aa:	f77f ab2f 	ble.w	8280c <_svfprintf_r+0x3e0>
   831ae:	e6e0      	b.n	82f72 <_svfprintf_r+0xb46>
   831b0:	f8dd b01c 	ldr.w	fp, [sp, #28]
   831b4:	2301      	movs	r3, #1
   831b6:	ae42      	add	r6, sp, #264	; 0x108
   831b8:	3430      	adds	r4, #48	; 0x30
   831ba:	f8cd b01c 	str.w	fp, [sp, #28]
   831be:	f806 4d41 	strb.w	r4, [r6, #-65]!
   831c2:	930e      	str	r3, [sp, #56]	; 0x38
   831c4:	f7ff ba4e 	b.w	82664 <_svfprintf_r+0x238>
   831c8:	4635      	mov	r5, r6
   831ca:	460c      	mov	r4, r1
   831cc:	4646      	mov	r6, r8
   831ce:	4690      	mov	r8, r2
   831d0:	3301      	adds	r3, #1
   831d2:	443c      	add	r4, r7
   831d4:	2b07      	cmp	r3, #7
   831d6:	9427      	str	r4, [sp, #156]	; 0x9c
   831d8:	9326      	str	r3, [sp, #152]	; 0x98
   831da:	e888 00a0 	stmia.w	r8, {r5, r7}
   831de:	f300 8246 	bgt.w	8366e <_svfprintf_r+0x1242>
   831e2:	f108 0808 	add.w	r8, r8, #8
   831e6:	9a1f      	ldr	r2, [sp, #124]	; 0x7c
   831e8:	9b13      	ldr	r3, [sp, #76]	; 0x4c
   831ea:	429a      	cmp	r2, r3
   831ec:	db45      	blt.n	8327a <_svfprintf_r+0xe4e>
   831ee:	9b07      	ldr	r3, [sp, #28]
   831f0:	07d9      	lsls	r1, r3, #31
   831f2:	d442      	bmi.n	8327a <_svfprintf_r+0xe4e>
   831f4:	9b13      	ldr	r3, [sp, #76]	; 0x4c
   831f6:	9812      	ldr	r0, [sp, #72]	; 0x48
   831f8:	1a9a      	subs	r2, r3, r2
   831fa:	1a1d      	subs	r5, r3, r0
   831fc:	4295      	cmp	r5, r2
   831fe:	bfa8      	it	ge
   83200:	4615      	movge	r5, r2
   83202:	2d00      	cmp	r5, #0
   83204:	dd0e      	ble.n	83224 <_svfprintf_r+0xdf8>
   83206:	9926      	ldr	r1, [sp, #152]	; 0x98
   83208:	4406      	add	r6, r0
   8320a:	3101      	adds	r1, #1
   8320c:	442c      	add	r4, r5
   8320e:	2907      	cmp	r1, #7
   83210:	f8c8 6000 	str.w	r6, [r8]
   83214:	9427      	str	r4, [sp, #156]	; 0x9c
   83216:	f8c8 5004 	str.w	r5, [r8, #4]
   8321a:	9126      	str	r1, [sp, #152]	; 0x98
   8321c:	f300 8216 	bgt.w	8364c <_svfprintf_r+0x1220>
   83220:	f108 0808 	add.w	r8, r8, #8
   83224:	2d00      	cmp	r5, #0
   83226:	bfb4      	ite	lt
   83228:	4616      	movlt	r6, r2
   8322a:	1b56      	subge	r6, r2, r5
   8322c:	2e00      	cmp	r6, #0
   8322e:	f77f aaef 	ble.w	82810 <_svfprintf_r+0x3e4>
   83232:	2e10      	cmp	r6, #16
   83234:	f340 82f3 	ble.w	8381e <_svfprintf_r+0x13f2>
   83238:	4622      	mov	r2, r4
   8323a:	2710      	movs	r7, #16
   8323c:	9b26      	ldr	r3, [sp, #152]	; 0x98
   8323e:	4d3a      	ldr	r5, [pc, #232]	; (83328 <_svfprintf_r+0xefc>)
   83240:	f8dd b030 	ldr.w	fp, [sp, #48]	; 0x30
   83244:	9c0b      	ldr	r4, [sp, #44]	; 0x2c
   83246:	e004      	b.n	83252 <_svfprintf_r+0xe26>
   83248:	f108 0808 	add.w	r8, r8, #8
   8324c:	3e10      	subs	r6, #16
   8324e:	2e10      	cmp	r6, #16
   83250:	dda3      	ble.n	8319a <_svfprintf_r+0xd6e>
   83252:	3301      	adds	r3, #1
   83254:	3210      	adds	r2, #16
   83256:	2b07      	cmp	r3, #7
   83258:	9227      	str	r2, [sp, #156]	; 0x9c
   8325a:	9326      	str	r3, [sp, #152]	; 0x98
   8325c:	e888 00a0 	stmia.w	r8, {r5, r7}
   83260:	ddf2      	ble.n	83248 <_svfprintf_r+0xe1c>
   83262:	aa25      	add	r2, sp, #148	; 0x94
   83264:	4621      	mov	r1, r4
   83266:	4658      	mov	r0, fp
   83268:	f002 f9cc 	bl	85604 <__ssprint_r>
   8326c:	2800      	cmp	r0, #0
   8326e:	f47f a9ba 	bne.w	825e6 <_svfprintf_r+0x1ba>
   83272:	46c8      	mov	r8, r9
   83274:	9a27      	ldr	r2, [sp, #156]	; 0x9c
   83276:	9b26      	ldr	r3, [sp, #152]	; 0x98
   83278:	e7e8      	b.n	8324c <_svfprintf_r+0xe20>
   8327a:	9b26      	ldr	r3, [sp, #152]	; 0x98
   8327c:	9819      	ldr	r0, [sp, #100]	; 0x64
   8327e:	3301      	adds	r3, #1
   83280:	991a      	ldr	r1, [sp, #104]	; 0x68
   83282:	4404      	add	r4, r0
   83284:	2b07      	cmp	r3, #7
   83286:	9427      	str	r4, [sp, #156]	; 0x9c
   83288:	f8c8 1000 	str.w	r1, [r8]
   8328c:	f8c8 0004 	str.w	r0, [r8, #4]
   83290:	9326      	str	r3, [sp, #152]	; 0x98
   83292:	f300 81cf 	bgt.w	83634 <_svfprintf_r+0x1208>
   83296:	f108 0808 	add.w	r8, r8, #8
   8329a:	e7ab      	b.n	831f4 <_svfprintf_r+0xdc8>
   8329c:	9b07      	ldr	r3, [sp, #28]
   8329e:	07da      	lsls	r2, r3, #31
   832a0:	f53f adad 	bmi.w	82dfe <_svfprintf_r+0x9d2>
   832a4:	2301      	movs	r3, #1
   832a6:	9f26      	ldr	r7, [sp, #152]	; 0x98
   832a8:	441c      	add	r4, r3
   832aa:	441f      	add	r7, r3
   832ac:	2f07      	cmp	r7, #7
   832ae:	9427      	str	r4, [sp, #156]	; 0x9c
   832b0:	f8c8 6000 	str.w	r6, [r8]
   832b4:	9726      	str	r7, [sp, #152]	; 0x98
   832b6:	f8c8 3004 	str.w	r3, [r8, #4]
   832ba:	f77f add4 	ble.w	82e66 <_svfprintf_r+0xa3a>
   832be:	aa25      	add	r2, sp, #148	; 0x94
   832c0:	990b      	ldr	r1, [sp, #44]	; 0x2c
   832c2:	980c      	ldr	r0, [sp, #48]	; 0x30
   832c4:	f002 f99e 	bl	85604 <__ssprint_r>
   832c8:	2800      	cmp	r0, #0
   832ca:	f47f a98c 	bne.w	825e6 <_svfprintf_r+0x1ba>
   832ce:	46c8      	mov	r8, r9
   832d0:	9c27      	ldr	r4, [sp, #156]	; 0x9c
   832d2:	9f26      	ldr	r7, [sp, #152]	; 0x98
   832d4:	e5c9      	b.n	82e6a <_svfprintf_r+0xa3e>
   832d6:	aa25      	add	r2, sp, #148	; 0x94
   832d8:	990b      	ldr	r1, [sp, #44]	; 0x2c
   832da:	980c      	ldr	r0, [sp, #48]	; 0x30
   832dc:	f002 f992 	bl	85604 <__ssprint_r>
   832e0:	2800      	cmp	r0, #0
   832e2:	f47f a980 	bne.w	825e6 <_svfprintf_r+0x1ba>
   832e6:	46c8      	mov	r8, r9
   832e8:	9c27      	ldr	r4, [sp, #156]	; 0x9c
   832ea:	9f26      	ldr	r7, [sp, #152]	; 0x98
   832ec:	e596      	b.n	82e1c <_svfprintf_r+0x9f0>
   832ee:	aa25      	add	r2, sp, #148	; 0x94
   832f0:	990b      	ldr	r1, [sp, #44]	; 0x2c
   832f2:	980c      	ldr	r0, [sp, #48]	; 0x30
   832f4:	f002 f986 	bl	85604 <__ssprint_r>
   832f8:	2800      	cmp	r0, #0
   832fa:	f47f a974 	bne.w	825e6 <_svfprintf_r+0x1ba>
   832fe:	46c8      	mov	r8, r9
   83300:	9c27      	ldr	r4, [sp, #156]	; 0x9c
   83302:	9f26      	ldr	r7, [sp, #152]	; 0x98
   83304:	e599      	b.n	82e3a <_svfprintf_r+0xa0e>
   83306:	9c0f      	ldr	r4, [sp, #60]	; 0x3c
   83308:	3407      	adds	r4, #7
   8330a:	f024 0407 	bic.w	r4, r4, #7
   8330e:	f104 0108 	add.w	r1, r4, #8
   83312:	e9d4 2300 	ldrd	r2, r3, [r4]
   83316:	910f      	str	r1, [sp, #60]	; 0x3c
   83318:	4614      	mov	r4, r2
   8331a:	461d      	mov	r5, r3
   8331c:	f7ff bb8f 	b.w	82a3e <_svfprintf_r+0x612>
   83320:	464e      	mov	r6, r9
   83322:	f7ff b99f 	b.w	82664 <_svfprintf_r+0x238>
   83326:	bf00      	nop
   83328:	00086c9c 	.word	0x00086c9c
   8332c:	aa25      	add	r2, sp, #148	; 0x94
   8332e:	990b      	ldr	r1, [sp, #44]	; 0x2c
   83330:	980c      	ldr	r0, [sp, #48]	; 0x30
   83332:	f002 f967 	bl	85604 <__ssprint_r>
   83336:	2800      	cmp	r0, #0
   83338:	f47f a955 	bne.w	825e6 <_svfprintf_r+0x1ba>
   8333c:	46c8      	mov	r8, r9
   8333e:	9c27      	ldr	r4, [sp, #156]	; 0x9c
   83340:	f7ff ba16 	b.w	82770 <_svfprintf_r+0x344>
   83344:	9c15      	ldr	r4, [sp, #84]	; 0x54
   83346:	4622      	mov	r2, r4
   83348:	4620      	mov	r0, r4
   8334a:	9c14      	ldr	r4, [sp, #80]	; 0x50
   8334c:	4623      	mov	r3, r4
   8334e:	4621      	mov	r1, r4
   83350:	f003 fa2c 	bl	867ac <__aeabi_dcmpun>
   83354:	2800      	cmp	r0, #0
   83356:	f040 8273 	bne.w	83840 <_svfprintf_r+0x1414>
   8335a:	9b0a      	ldr	r3, [sp, #40]	; 0x28
   8335c:	3301      	adds	r3, #1
   8335e:	9b11      	ldr	r3, [sp, #68]	; 0x44
   83360:	f023 0320 	bic.w	r3, r3, #32
   83364:	930e      	str	r3, [sp, #56]	; 0x38
   83366:	f000 819c 	beq.w	836a2 <_svfprintf_r+0x1276>
   8336a:	2b47      	cmp	r3, #71	; 0x47
   8336c:	f000 80d6 	beq.w	8351c <_svfprintf_r+0x10f0>
   83370:	f44b 7380 	orr.w	r3, fp, #256	; 0x100
   83374:	9307      	str	r3, [sp, #28]
   83376:	9b14      	ldr	r3, [sp, #80]	; 0x50
   83378:	1e1f      	subs	r7, r3, #0
   8337a:	9b15      	ldr	r3, [sp, #84]	; 0x54
   8337c:	9308      	str	r3, [sp, #32]
   8337e:	bfb7      	itett	lt
   83380:	463b      	movlt	r3, r7
   83382:	2300      	movge	r3, #0
   83384:	f103 4700 	addlt.w	r7, r3, #2147483648	; 0x80000000
   83388:	232d      	movlt	r3, #45	; 0x2d
   8338a:	9310      	str	r3, [sp, #64]	; 0x40
   8338c:	9b11      	ldr	r3, [sp, #68]	; 0x44
   8338e:	2b66      	cmp	r3, #102	; 0x66
   83390:	f000 8190 	beq.w	836b4 <_svfprintf_r+0x1288>
   83394:	2b46      	cmp	r3, #70	; 0x46
   83396:	f000 80a4 	beq.w	834e2 <_svfprintf_r+0x10b6>
   8339a:	2002      	movs	r0, #2
   8339c:	9b0e      	ldr	r3, [sp, #56]	; 0x38
   8339e:	a923      	add	r1, sp, #140	; 0x8c
   833a0:	2b45      	cmp	r3, #69	; 0x45
   833a2:	bf0a      	itet	eq
   833a4:	9b0a      	ldreq	r3, [sp, #40]	; 0x28
   833a6:	9d0a      	ldrne	r5, [sp, #40]	; 0x28
   833a8:	1c5d      	addeq	r5, r3, #1
   833aa:	e88d 0021 	stmia.w	sp, {r0, r5}
   833ae:	9104      	str	r1, [sp, #16]
   833b0:	a820      	add	r0, sp, #128	; 0x80
   833b2:	a91f      	add	r1, sp, #124	; 0x7c
   833b4:	463b      	mov	r3, r7
   833b6:	9003      	str	r0, [sp, #12]
   833b8:	9a08      	ldr	r2, [sp, #32]
   833ba:	9102      	str	r1, [sp, #8]
   833bc:	980c      	ldr	r0, [sp, #48]	; 0x30
   833be:	f000 fb5b 	bl	83a78 <_dtoa_r>
   833c2:	9b11      	ldr	r3, [sp, #68]	; 0x44
   833c4:	4606      	mov	r6, r0
   833c6:	2b67      	cmp	r3, #103	; 0x67
   833c8:	f040 81ba 	bne.w	83740 <_svfprintf_r+0x1314>
   833cc:	f01b 0f01 	tst.w	fp, #1
   833d0:	f000 8223 	beq.w	8381a <_svfprintf_r+0x13ee>
   833d4:	1974      	adds	r4, r6, r5
   833d6:	9a16      	ldr	r2, [sp, #88]	; 0x58
   833d8:	9808      	ldr	r0, [sp, #32]
   833da:	9b17      	ldr	r3, [sp, #92]	; 0x5c
   833dc:	4639      	mov	r1, r7
   833de:	f003 f9b3 	bl	86748 <__aeabi_dcmpeq>
   833e2:	2800      	cmp	r0, #0
   833e4:	f040 8124 	bne.w	83630 <_svfprintf_r+0x1204>
   833e8:	9b23      	ldr	r3, [sp, #140]	; 0x8c
   833ea:	42a3      	cmp	r3, r4
   833ec:	d206      	bcs.n	833fc <_svfprintf_r+0xfd0>
   833ee:	2130      	movs	r1, #48	; 0x30
   833f0:	1c5a      	adds	r2, r3, #1
   833f2:	9223      	str	r2, [sp, #140]	; 0x8c
   833f4:	7019      	strb	r1, [r3, #0]
   833f6:	9b23      	ldr	r3, [sp, #140]	; 0x8c
   833f8:	429c      	cmp	r4, r3
   833fa:	d8f9      	bhi.n	833f0 <_svfprintf_r+0xfc4>
   833fc:	1b9b      	subs	r3, r3, r6
   833fe:	9313      	str	r3, [sp, #76]	; 0x4c
   83400:	9b0e      	ldr	r3, [sp, #56]	; 0x38
   83402:	2b47      	cmp	r3, #71	; 0x47
   83404:	f000 80a2 	beq.w	8354c <_svfprintf_r+0x1120>
   83408:	9b11      	ldr	r3, [sp, #68]	; 0x44
   8340a:	2b65      	cmp	r3, #101	; 0x65
   8340c:	f340 81a7 	ble.w	8375e <_svfprintf_r+0x1332>
   83410:	9b11      	ldr	r3, [sp, #68]	; 0x44
   83412:	2b66      	cmp	r3, #102	; 0x66
   83414:	9b1f      	ldr	r3, [sp, #124]	; 0x7c
   83416:	9312      	str	r3, [sp, #72]	; 0x48
   83418:	f000 8171 	beq.w	836fe <_svfprintf_r+0x12d2>
   8341c:	9b13      	ldr	r3, [sp, #76]	; 0x4c
   8341e:	9a12      	ldr	r2, [sp, #72]	; 0x48
   83420:	4619      	mov	r1, r3
   83422:	4291      	cmp	r1, r2
   83424:	f300 815d 	bgt.w	836e2 <_svfprintf_r+0x12b6>
   83428:	f01b 0f01 	tst.w	fp, #1
   8342c:	f040 81f0 	bne.w	83810 <_svfprintf_r+0x13e4>
   83430:	ea22 73e2 	bic.w	r3, r2, r2, asr #31
   83434:	9308      	str	r3, [sp, #32]
   83436:	2367      	movs	r3, #103	; 0x67
   83438:	920e      	str	r2, [sp, #56]	; 0x38
   8343a:	9311      	str	r3, [sp, #68]	; 0x44
   8343c:	9b10      	ldr	r3, [sp, #64]	; 0x40
   8343e:	2b00      	cmp	r3, #0
   83440:	d17d      	bne.n	8353e <_svfprintf_r+0x1112>
   83442:	930a      	str	r3, [sp, #40]	; 0x28
   83444:	f89d 7077 	ldrb.w	r7, [sp, #119]	; 0x77
   83448:	f7ff b914 	b.w	82674 <_svfprintf_r+0x248>
   8344c:	f024 0407 	bic.w	r4, r4, #7
   83450:	6823      	ldr	r3, [r4, #0]
   83452:	9315      	str	r3, [sp, #84]	; 0x54
   83454:	6863      	ldr	r3, [r4, #4]
   83456:	9314      	str	r3, [sp, #80]	; 0x50
   83458:	f104 0308 	add.w	r3, r4, #8
   8345c:	930f      	str	r3, [sp, #60]	; 0x3c
   8345e:	f7ff bb2f 	b.w	82ac0 <_svfprintf_r+0x694>
   83462:	9a0f      	ldr	r2, [sp, #60]	; 0x3c
   83464:	6813      	ldr	r3, [r2, #0]
   83466:	3204      	adds	r2, #4
   83468:	920f      	str	r2, [sp, #60]	; 0x3c
   8346a:	9a09      	ldr	r2, [sp, #36]	; 0x24
   8346c:	601a      	str	r2, [r3, #0]
   8346e:	f7ff b804 	b.w	8247a <_svfprintf_r+0x4e>
   83472:	9b26      	ldr	r3, [sp, #152]	; 0x98
   83474:	4daf      	ldr	r5, [pc, #700]	; (83734 <_svfprintf_r+0x1308>)
   83476:	f7ff b9ad 	b.w	827d4 <_svfprintf_r+0x3a8>
   8347a:	aa25      	add	r2, sp, #148	; 0x94
   8347c:	990b      	ldr	r1, [sp, #44]	; 0x2c
   8347e:	980c      	ldr	r0, [sp, #48]	; 0x30
   83480:	f002 f8c0 	bl	85604 <__ssprint_r>
   83484:	2800      	cmp	r0, #0
   83486:	f47f a8ae 	bne.w	825e6 <_svfprintf_r+0x1ba>
   8348a:	46c8      	mov	r8, r9
   8348c:	e431      	b.n	82cf2 <_svfprintf_r+0x8c6>
   8348e:	9a0f      	ldr	r2, [sp, #60]	; 0x3c
   83490:	4613      	mov	r3, r2
   83492:	3304      	adds	r3, #4
   83494:	930f      	str	r3, [sp, #60]	; 0x3c
   83496:	9b09      	ldr	r3, [sp, #36]	; 0x24
   83498:	6811      	ldr	r1, [r2, #0]
   8349a:	17dd      	asrs	r5, r3, #31
   8349c:	461a      	mov	r2, r3
   8349e:	462b      	mov	r3, r5
   834a0:	e9c1 2300 	strd	r2, r3, [r1]
   834a4:	f7fe bfe9 	b.w	8247a <_svfprintf_r+0x4e>
   834a8:	aa25      	add	r2, sp, #148	; 0x94
   834aa:	990b      	ldr	r1, [sp, #44]	; 0x2c
   834ac:	980c      	ldr	r0, [sp, #48]	; 0x30
   834ae:	f002 f8a9 	bl	85604 <__ssprint_r>
   834b2:	2800      	cmp	r0, #0
   834b4:	f47f a897 	bne.w	825e6 <_svfprintf_r+0x1ba>
   834b8:	46c8      	mov	r8, r9
   834ba:	9c27      	ldr	r4, [sp, #156]	; 0x9c
   834bc:	e432      	b.n	82d24 <_svfprintf_r+0x8f8>
   834be:	f108 0808 	add.w	r8, r8, #8
   834c2:	e52f      	b.n	82f24 <_svfprintf_r+0xaf8>
   834c4:	2140      	movs	r1, #64	; 0x40
   834c6:	980c      	ldr	r0, [sp, #48]	; 0x30
   834c8:	f001 fa24 	bl	84914 <_malloc_r>
   834cc:	9a0b      	ldr	r2, [sp, #44]	; 0x2c
   834ce:	6010      	str	r0, [r2, #0]
   834d0:	6110      	str	r0, [r2, #16]
   834d2:	2800      	cmp	r0, #0
   834d4:	f000 8214 	beq.w	83900 <_svfprintf_r+0x14d4>
   834d8:	2340      	movs	r3, #64	; 0x40
   834da:	9a0b      	ldr	r2, [sp, #44]	; 0x2c
   834dc:	6153      	str	r3, [r2, #20]
   834de:	f7fe bfbc 	b.w	8245a <_svfprintf_r+0x2e>
   834e2:	2003      	movs	r0, #3
   834e4:	9c0a      	ldr	r4, [sp, #40]	; 0x28
   834e6:	a923      	add	r1, sp, #140	; 0x8c
   834e8:	e88d 0011 	stmia.w	sp, {r0, r4}
   834ec:	9104      	str	r1, [sp, #16]
   834ee:	a820      	add	r0, sp, #128	; 0x80
   834f0:	a91f      	add	r1, sp, #124	; 0x7c
   834f2:	9003      	str	r0, [sp, #12]
   834f4:	9a08      	ldr	r2, [sp, #32]
   834f6:	463b      	mov	r3, r7
   834f8:	9102      	str	r1, [sp, #8]
   834fa:	980c      	ldr	r0, [sp, #48]	; 0x30
   834fc:	f000 fabc 	bl	83a78 <_dtoa_r>
   83500:	4625      	mov	r5, r4
   83502:	4606      	mov	r6, r0
   83504:	9b11      	ldr	r3, [sp, #68]	; 0x44
   83506:	1974      	adds	r4, r6, r5
   83508:	2b46      	cmp	r3, #70	; 0x46
   8350a:	f47f af64 	bne.w	833d6 <_svfprintf_r+0xfaa>
   8350e:	7833      	ldrb	r3, [r6, #0]
   83510:	2b30      	cmp	r3, #48	; 0x30
   83512:	f000 8187 	beq.w	83824 <_svfprintf_r+0x13f8>
   83516:	9d1f      	ldr	r5, [sp, #124]	; 0x7c
   83518:	442c      	add	r4, r5
   8351a:	e75c      	b.n	833d6 <_svfprintf_r+0xfaa>
   8351c:	9b0a      	ldr	r3, [sp, #40]	; 0x28
   8351e:	2b00      	cmp	r3, #0
   83520:	bf08      	it	eq
   83522:	2301      	moveq	r3, #1
   83524:	930a      	str	r3, [sp, #40]	; 0x28
   83526:	e723      	b.n	83370 <_svfprintf_r+0xf44>
   83528:	4630      	mov	r0, r6
   8352a:	950a      	str	r5, [sp, #40]	; 0x28
   8352c:	f7fe ff50 	bl	823d0 <strlen>
   83530:	940f      	str	r4, [sp, #60]	; 0x3c
   83532:	900e      	str	r0, [sp, #56]	; 0x38
   83534:	f8cd b01c 	str.w	fp, [sp, #28]
   83538:	4603      	mov	r3, r0
   8353a:	f7ff b9e7 	b.w	8290c <_svfprintf_r+0x4e0>
   8353e:	272d      	movs	r7, #45	; 0x2d
   83540:	2300      	movs	r3, #0
   83542:	f88d 7077 	strb.w	r7, [sp, #119]	; 0x77
   83546:	930a      	str	r3, [sp, #40]	; 0x28
   83548:	f7ff b895 	b.w	82676 <_svfprintf_r+0x24a>
   8354c:	9b1f      	ldr	r3, [sp, #124]	; 0x7c
   8354e:	461a      	mov	r2, r3
   83550:	9312      	str	r3, [sp, #72]	; 0x48
   83552:	3303      	adds	r3, #3
   83554:	db04      	blt.n	83560 <_svfprintf_r+0x1134>
   83556:	9b0a      	ldr	r3, [sp, #40]	; 0x28
   83558:	4619      	mov	r1, r3
   8355a:	4291      	cmp	r1, r2
   8355c:	f6bf af5e 	bge.w	8341c <_svfprintf_r+0xff0>
   83560:	9b11      	ldr	r3, [sp, #68]	; 0x44
   83562:	3b02      	subs	r3, #2
   83564:	9311      	str	r3, [sp, #68]	; 0x44
   83566:	9b12      	ldr	r3, [sp, #72]	; 0x48
   83568:	f89d 2044 	ldrb.w	r2, [sp, #68]	; 0x44
   8356c:	3b01      	subs	r3, #1
   8356e:	2b00      	cmp	r3, #0
   83570:	f88d 2084 	strb.w	r2, [sp, #132]	; 0x84
   83574:	bfb4      	ite	lt
   83576:	222d      	movlt	r2, #45	; 0x2d
   83578:	222b      	movge	r2, #43	; 0x2b
   8357a:	931f      	str	r3, [sp, #124]	; 0x7c
   8357c:	bfb8      	it	lt
   8357e:	9b12      	ldrlt	r3, [sp, #72]	; 0x48
   83580:	f88d 2085 	strb.w	r2, [sp, #133]	; 0x85
   83584:	bfb8      	it	lt
   83586:	f1c3 0301 	rsblt	r3, r3, #1
   8358a:	2b09      	cmp	r3, #9
   8358c:	f340 811f 	ble.w	837ce <_svfprintf_r+0x13a2>
   83590:	f10d 0093 	add.w	r0, sp, #147	; 0x93
   83594:	4601      	mov	r1, r0
   83596:	4c68      	ldr	r4, [pc, #416]	; (83738 <_svfprintf_r+0x130c>)
   83598:	e000      	b.n	8359c <_svfprintf_r+0x1170>
   8359a:	4611      	mov	r1, r2
   8359c:	fb84 5203 	smull	r5, r2, r4, r3
   835a0:	17dd      	asrs	r5, r3, #31
   835a2:	ebc5 05a2 	rsb	r5, r5, r2, asr #2
   835a6:	eb05 0285 	add.w	r2, r5, r5, lsl #2
   835aa:	eba3 0242 	sub.w	r2, r3, r2, lsl #1
   835ae:	3230      	adds	r2, #48	; 0x30
   835b0:	2d09      	cmp	r5, #9
   835b2:	f801 2c01 	strb.w	r2, [r1, #-1]
   835b6:	462b      	mov	r3, r5
   835b8:	f101 32ff 	add.w	r2, r1, #4294967295
   835bc:	dced      	bgt.n	8359a <_svfprintf_r+0x116e>
   835be:	3330      	adds	r3, #48	; 0x30
   835c0:	3902      	subs	r1, #2
   835c2:	b2dc      	uxtb	r4, r3
   835c4:	4288      	cmp	r0, r1
   835c6:	f802 4c01 	strb.w	r4, [r2, #-1]
   835ca:	f240 8192 	bls.w	838f2 <_svfprintf_r+0x14c6>
   835ce:	f10d 0186 	add.w	r1, sp, #134	; 0x86
   835d2:	4613      	mov	r3, r2
   835d4:	e001      	b.n	835da <_svfprintf_r+0x11ae>
   835d6:	f813 4b01 	ldrb.w	r4, [r3], #1
   835da:	4283      	cmp	r3, r0
   835dc:	f801 4b01 	strb.w	r4, [r1], #1
   835e0:	d1f9      	bne.n	835d6 <_svfprintf_r+0x11aa>
   835e2:	3301      	adds	r3, #1
   835e4:	1a9b      	subs	r3, r3, r2
   835e6:	f10d 0286 	add.w	r2, sp, #134	; 0x86
   835ea:	4413      	add	r3, r2
   835ec:	aa21      	add	r2, sp, #132	; 0x84
   835ee:	1a9b      	subs	r3, r3, r2
   835f0:	9a13      	ldr	r2, [sp, #76]	; 0x4c
   835f2:	931b      	str	r3, [sp, #108]	; 0x6c
   835f4:	2a01      	cmp	r2, #1
   835f6:	4413      	add	r3, r2
   835f8:	930e      	str	r3, [sp, #56]	; 0x38
   835fa:	f340 8148 	ble.w	8388e <_svfprintf_r+0x1462>
   835fe:	9b0e      	ldr	r3, [sp, #56]	; 0x38
   83600:	9a19      	ldr	r2, [sp, #100]	; 0x64
   83602:	4413      	add	r3, r2
   83604:	930e      	str	r3, [sp, #56]	; 0x38
   83606:	ea23 73e3 	bic.w	r3, r3, r3, asr #31
   8360a:	9308      	str	r3, [sp, #32]
   8360c:	2300      	movs	r3, #0
   8360e:	9312      	str	r3, [sp, #72]	; 0x48
   83610:	e714      	b.n	8343c <_svfprintf_r+0x1010>
   83612:	9c27      	ldr	r4, [sp, #156]	; 0x9c
   83614:	9a26      	ldr	r2, [sp, #152]	; 0x98
   83616:	f7ff b876 	b.w	82706 <_svfprintf_r+0x2da>
   8361a:	aa25      	add	r2, sp, #148	; 0x94
   8361c:	990b      	ldr	r1, [sp, #44]	; 0x2c
   8361e:	980c      	ldr	r0, [sp, #48]	; 0x30
   83620:	f001 fff0 	bl	85604 <__ssprint_r>
   83624:	2800      	cmp	r0, #0
   83626:	f47e afde 	bne.w	825e6 <_svfprintf_r+0x1ba>
   8362a:	46c8      	mov	r8, r9
   8362c:	9c27      	ldr	r4, [sp, #156]	; 0x9c
   8362e:	e4fb      	b.n	83028 <_svfprintf_r+0xbfc>
   83630:	4623      	mov	r3, r4
   83632:	e6e3      	b.n	833fc <_svfprintf_r+0xfd0>
   83634:	aa25      	add	r2, sp, #148	; 0x94
   83636:	990b      	ldr	r1, [sp, #44]	; 0x2c
   83638:	980c      	ldr	r0, [sp, #48]	; 0x30
   8363a:	f001 ffe3 	bl	85604 <__ssprint_r>
   8363e:	2800      	cmp	r0, #0
   83640:	f47e afd1 	bne.w	825e6 <_svfprintf_r+0x1ba>
   83644:	46c8      	mov	r8, r9
   83646:	9a1f      	ldr	r2, [sp, #124]	; 0x7c
   83648:	9c27      	ldr	r4, [sp, #156]	; 0x9c
   8364a:	e5d3      	b.n	831f4 <_svfprintf_r+0xdc8>
   8364c:	aa25      	add	r2, sp, #148	; 0x94
   8364e:	990b      	ldr	r1, [sp, #44]	; 0x2c
   83650:	980c      	ldr	r0, [sp, #48]	; 0x30
   83652:	f001 ffd7 	bl	85604 <__ssprint_r>
   83656:	2800      	cmp	r0, #0
   83658:	f47e afc5 	bne.w	825e6 <_svfprintf_r+0x1ba>
   8365c:	9a1f      	ldr	r2, [sp, #124]	; 0x7c
   8365e:	9b13      	ldr	r3, [sp, #76]	; 0x4c
   83660:	46c8      	mov	r8, r9
   83662:	9c27      	ldr	r4, [sp, #156]	; 0x9c
   83664:	1a9a      	subs	r2, r3, r2
   83666:	e5dd      	b.n	83224 <_svfprintf_r+0xdf8>
   83668:	9b26      	ldr	r3, [sp, #152]	; 0x98
   8366a:	f7ff b8fe 	b.w	8286a <_svfprintf_r+0x43e>
   8366e:	aa25      	add	r2, sp, #148	; 0x94
   83670:	990b      	ldr	r1, [sp, #44]	; 0x2c
   83672:	980c      	ldr	r0, [sp, #48]	; 0x30
   83674:	f001 ffc6 	bl	85604 <__ssprint_r>
   83678:	2800      	cmp	r0, #0
   8367a:	f47e afb4 	bne.w	825e6 <_svfprintf_r+0x1ba>
   8367e:	46c8      	mov	r8, r9
   83680:	9c27      	ldr	r4, [sp, #156]	; 0x9c
   83682:	e5b0      	b.n	831e6 <_svfprintf_r+0xdba>
   83684:	9b0a      	ldr	r3, [sp, #40]	; 0x28
   83686:	4637      	mov	r7, r6
   83688:	2b06      	cmp	r3, #6
   8368a:	bf28      	it	cs
   8368c:	2306      	movcs	r3, #6
   8368e:	960a      	str	r6, [sp, #40]	; 0x28
   83690:	9612      	str	r6, [sp, #72]	; 0x48
   83692:	9308      	str	r3, [sp, #32]
   83694:	940f      	str	r4, [sp, #60]	; 0x3c
   83696:	f8cd b01c 	str.w	fp, [sp, #28]
   8369a:	930e      	str	r3, [sp, #56]	; 0x38
   8369c:	4e27      	ldr	r6, [pc, #156]	; (8373c <_svfprintf_r+0x1310>)
   8369e:	f7fe bfe9 	b.w	82674 <_svfprintf_r+0x248>
   836a2:	2306      	movs	r3, #6
   836a4:	930a      	str	r3, [sp, #40]	; 0x28
   836a6:	e663      	b.n	83370 <_svfprintf_r+0xf44>
   836a8:	232d      	movs	r3, #45	; 0x2d
   836aa:	461f      	mov	r7, r3
   836ac:	f88d 3077 	strb.w	r3, [sp, #119]	; 0x77
   836b0:	f7ff ba28 	b.w	82b04 <_svfprintf_r+0x6d8>
   836b4:	2003      	movs	r0, #3
   836b6:	9c0a      	ldr	r4, [sp, #40]	; 0x28
   836b8:	a923      	add	r1, sp, #140	; 0x8c
   836ba:	e88d 0011 	stmia.w	sp, {r0, r4}
   836be:	9104      	str	r1, [sp, #16]
   836c0:	a820      	add	r0, sp, #128	; 0x80
   836c2:	a91f      	add	r1, sp, #124	; 0x7c
   836c4:	9003      	str	r0, [sp, #12]
   836c6:	9a08      	ldr	r2, [sp, #32]
   836c8:	463b      	mov	r3, r7
   836ca:	9102      	str	r1, [sp, #8]
   836cc:	980c      	ldr	r0, [sp, #48]	; 0x30
   836ce:	f000 f9d3 	bl	83a78 <_dtoa_r>
   836d2:	4625      	mov	r5, r4
   836d4:	4606      	mov	r6, r0
   836d6:	1904      	adds	r4, r0, r4
   836d8:	e719      	b.n	8350e <_svfprintf_r+0x10e2>
   836da:	9b26      	ldr	r3, [sp, #152]	; 0x98
   836dc:	4d15      	ldr	r5, [pc, #84]	; (83734 <_svfprintf_r+0x1308>)
   836de:	f7ff bb7e 	b.w	82dde <_svfprintf_r+0x9b2>
   836e2:	9a19      	ldr	r2, [sp, #100]	; 0x64
   836e4:	9b13      	ldr	r3, [sp, #76]	; 0x4c
   836e6:	4413      	add	r3, r2
   836e8:	9a12      	ldr	r2, [sp, #72]	; 0x48
   836ea:	930e      	str	r3, [sp, #56]	; 0x38
   836ec:	2a00      	cmp	r2, #0
   836ee:	f340 80c7 	ble.w	83880 <_svfprintf_r+0x1454>
   836f2:	ea23 73e3 	bic.w	r3, r3, r3, asr #31
   836f6:	9308      	str	r3, [sp, #32]
   836f8:	2367      	movs	r3, #103	; 0x67
   836fa:	9311      	str	r3, [sp, #68]	; 0x44
   836fc:	e69e      	b.n	8343c <_svfprintf_r+0x1010>
   836fe:	2b00      	cmp	r3, #0
   83700:	f340 80e1 	ble.w	838c6 <_svfprintf_r+0x149a>
   83704:	9a0a      	ldr	r2, [sp, #40]	; 0x28
   83706:	2a00      	cmp	r2, #0
   83708:	f040 80b0 	bne.w	8386c <_svfprintf_r+0x1440>
   8370c:	f01b 0f01 	tst.w	fp, #1
   83710:	f040 80ac 	bne.w	8386c <_svfprintf_r+0x1440>
   83714:	9308      	str	r3, [sp, #32]
   83716:	930e      	str	r3, [sp, #56]	; 0x38
   83718:	e690      	b.n	8343c <_svfprintf_r+0x1010>
   8371a:	9b0a      	ldr	r3, [sp, #40]	; 0x28
   8371c:	940f      	str	r4, [sp, #60]	; 0x3c
   8371e:	9308      	str	r3, [sp, #32]
   83720:	930e      	str	r3, [sp, #56]	; 0x38
   83722:	900a      	str	r0, [sp, #40]	; 0x28
   83724:	f8cd b01c 	str.w	fp, [sp, #28]
   83728:	9012      	str	r0, [sp, #72]	; 0x48
   8372a:	f89d 7077 	ldrb.w	r7, [sp, #119]	; 0x77
   8372e:	f7fe bfa1 	b.w	82674 <_svfprintf_r+0x248>
   83732:	bf00      	nop
   83734:	00086c9c 	.word	0x00086c9c
   83738:	66666667 	.word	0x66666667
   8373c:	00086c80 	.word	0x00086c80
   83740:	9b11      	ldr	r3, [sp, #68]	; 0x44
   83742:	2b47      	cmp	r3, #71	; 0x47
   83744:	f47f ae46 	bne.w	833d4 <_svfprintf_r+0xfa8>
   83748:	f01b 0f01 	tst.w	fp, #1
   8374c:	f47f aeda 	bne.w	83504 <_svfprintf_r+0x10d8>
   83750:	9b23      	ldr	r3, [sp, #140]	; 0x8c
   83752:	1b9b      	subs	r3, r3, r6
   83754:	9313      	str	r3, [sp, #76]	; 0x4c
   83756:	9b0e      	ldr	r3, [sp, #56]	; 0x38
   83758:	2b47      	cmp	r3, #71	; 0x47
   8375a:	f43f aef7 	beq.w	8354c <_svfprintf_r+0x1120>
   8375e:	9b1f      	ldr	r3, [sp, #124]	; 0x7c
   83760:	9312      	str	r3, [sp, #72]	; 0x48
   83762:	e700      	b.n	83566 <_svfprintf_r+0x113a>
   83764:	2000      	movs	r0, #0
   83766:	900a      	str	r0, [sp, #40]	; 0x28
   83768:	f7fe bebc 	b.w	824e4 <_svfprintf_r+0xb8>
   8376c:	424f      	negs	r7, r1
   8376e:	3110      	adds	r1, #16
   83770:	da35      	bge.n	837de <_svfprintf_r+0x13b2>
   83772:	2410      	movs	r4, #16
   83774:	4d6a      	ldr	r5, [pc, #424]	; (83920 <_svfprintf_r+0x14f4>)
   83776:	f8dd b030 	ldr.w	fp, [sp, #48]	; 0x30
   8377a:	e004      	b.n	83786 <_svfprintf_r+0x135a>
   8377c:	f108 0808 	add.w	r8, r8, #8
   83780:	3f10      	subs	r7, #16
   83782:	2f10      	cmp	r7, #16
   83784:	dd2c      	ble.n	837e0 <_svfprintf_r+0x13b4>
   83786:	3301      	adds	r3, #1
   83788:	3210      	adds	r2, #16
   8378a:	2b07      	cmp	r3, #7
   8378c:	9227      	str	r2, [sp, #156]	; 0x9c
   8378e:	9326      	str	r3, [sp, #152]	; 0x98
   83790:	f8c8 5000 	str.w	r5, [r8]
   83794:	f8c8 4004 	str.w	r4, [r8, #4]
   83798:	ddf0      	ble.n	8377c <_svfprintf_r+0x1350>
   8379a:	aa25      	add	r2, sp, #148	; 0x94
   8379c:	990b      	ldr	r1, [sp, #44]	; 0x2c
   8379e:	4658      	mov	r0, fp
   837a0:	f001 ff30 	bl	85604 <__ssprint_r>
   837a4:	2800      	cmp	r0, #0
   837a6:	f47e af1e 	bne.w	825e6 <_svfprintf_r+0x1ba>
   837aa:	46c8      	mov	r8, r9
   837ac:	9a27      	ldr	r2, [sp, #156]	; 0x9c
   837ae:	9b26      	ldr	r3, [sp, #152]	; 0x98
   837b0:	e7e6      	b.n	83780 <_svfprintf_r+0x1354>
   837b2:	aa25      	add	r2, sp, #148	; 0x94
   837b4:	990b      	ldr	r1, [sp, #44]	; 0x2c
   837b6:	980c      	ldr	r0, [sp, #48]	; 0x30
   837b8:	f001 ff24 	bl	85604 <__ssprint_r>
   837bc:	2800      	cmp	r0, #0
   837be:	f47e af12 	bne.w	825e6 <_svfprintf_r+0x1ba>
   837c2:	46c8      	mov	r8, r9
   837c4:	991f      	ldr	r1, [sp, #124]	; 0x7c
   837c6:	9a27      	ldr	r2, [sp, #156]	; 0x9c
   837c8:	9b26      	ldr	r3, [sp, #152]	; 0x98
   837ca:	f7ff bbc3 	b.w	82f54 <_svfprintf_r+0xb28>
   837ce:	2230      	movs	r2, #48	; 0x30
   837d0:	4413      	add	r3, r2
   837d2:	f88d 3087 	strb.w	r3, [sp, #135]	; 0x87
   837d6:	f88d 2086 	strb.w	r2, [sp, #134]	; 0x86
   837da:	ab22      	add	r3, sp, #136	; 0x88
   837dc:	e706      	b.n	835ec <_svfprintf_r+0x11c0>
   837de:	4d50      	ldr	r5, [pc, #320]	; (83920 <_svfprintf_r+0x14f4>)
   837e0:	3301      	adds	r3, #1
   837e2:	443a      	add	r2, r7
   837e4:	2b07      	cmp	r3, #7
   837e6:	e888 00a0 	stmia.w	r8, {r5, r7}
   837ea:	9227      	str	r2, [sp, #156]	; 0x9c
   837ec:	9326      	str	r3, [sp, #152]	; 0x98
   837ee:	f108 0808 	add.w	r8, r8, #8
   837f2:	f77f abb2 	ble.w	82f5a <_svfprintf_r+0xb2e>
   837f6:	aa25      	add	r2, sp, #148	; 0x94
   837f8:	990b      	ldr	r1, [sp, #44]	; 0x2c
   837fa:	980c      	ldr	r0, [sp, #48]	; 0x30
   837fc:	f001 ff02 	bl	85604 <__ssprint_r>
   83800:	2800      	cmp	r0, #0
   83802:	f47e aef0 	bne.w	825e6 <_svfprintf_r+0x1ba>
   83806:	46c8      	mov	r8, r9
   83808:	9a27      	ldr	r2, [sp, #156]	; 0x9c
   8380a:	9b26      	ldr	r3, [sp, #152]	; 0x98
   8380c:	f7ff bba5 	b.w	82f5a <_svfprintf_r+0xb2e>
   83810:	9b12      	ldr	r3, [sp, #72]	; 0x48
   83812:	9a19      	ldr	r2, [sp, #100]	; 0x64
   83814:	4413      	add	r3, r2
   83816:	930e      	str	r3, [sp, #56]	; 0x38
   83818:	e76b      	b.n	836f2 <_svfprintf_r+0x12c6>
   8381a:	9b23      	ldr	r3, [sp, #140]	; 0x8c
   8381c:	e5ee      	b.n	833fc <_svfprintf_r+0xfd0>
   8381e:	9b26      	ldr	r3, [sp, #152]	; 0x98
   83820:	4d3f      	ldr	r5, [pc, #252]	; (83920 <_svfprintf_r+0x14f4>)
   83822:	e4bb      	b.n	8319c <_svfprintf_r+0xd70>
   83824:	9a16      	ldr	r2, [sp, #88]	; 0x58
   83826:	9808      	ldr	r0, [sp, #32]
   83828:	9b17      	ldr	r3, [sp, #92]	; 0x5c
   8382a:	4639      	mov	r1, r7
   8382c:	f002 ff8c 	bl	86748 <__aeabi_dcmpeq>
   83830:	2800      	cmp	r0, #0
   83832:	f47f ae70 	bne.w	83516 <_svfprintf_r+0x10ea>
   83836:	f1c5 0501 	rsb	r5, r5, #1
   8383a:	951f      	str	r5, [sp, #124]	; 0x7c
   8383c:	442c      	add	r4, r5
   8383e:	e5ca      	b.n	833d6 <_svfprintf_r+0xfaa>
   83840:	9b14      	ldr	r3, [sp, #80]	; 0x50
   83842:	4e38      	ldr	r6, [pc, #224]	; (83924 <_svfprintf_r+0x14f8>)
   83844:	2b00      	cmp	r3, #0
   83846:	bfbe      	ittt	lt
   83848:	232d      	movlt	r3, #45	; 0x2d
   8384a:	461f      	movlt	r7, r3
   8384c:	f88d 3077 	strblt.w	r3, [sp, #119]	; 0x77
   83850:	f04f 0303 	mov.w	r3, #3
   83854:	461a      	mov	r2, r3
   83856:	9308      	str	r3, [sp, #32]
   83858:	f04f 0300 	mov.w	r3, #0
   8385c:	bfa8      	it	ge
   8385e:	f89d 7077 	ldrbge.w	r7, [sp, #119]	; 0x77
   83862:	4619      	mov	r1, r3
   83864:	930a      	str	r3, [sp, #40]	; 0x28
   83866:	4b30      	ldr	r3, [pc, #192]	; (83928 <_svfprintf_r+0x14fc>)
   83868:	f7ff b954 	b.w	82b14 <_svfprintf_r+0x6e8>
   8386c:	9b12      	ldr	r3, [sp, #72]	; 0x48
   8386e:	9a19      	ldr	r2, [sp, #100]	; 0x64
   83870:	4413      	add	r3, r2
   83872:	9a0a      	ldr	r2, [sp, #40]	; 0x28
   83874:	441a      	add	r2, r3
   83876:	ea22 73e2 	bic.w	r3, r2, r2, asr #31
   8387a:	920e      	str	r2, [sp, #56]	; 0x38
   8387c:	9308      	str	r3, [sp, #32]
   8387e:	e5dd      	b.n	8343c <_svfprintf_r+0x1010>
   83880:	9b12      	ldr	r3, [sp, #72]	; 0x48
   83882:	9a0e      	ldr	r2, [sp, #56]	; 0x38
   83884:	f1c3 0301 	rsb	r3, r3, #1
   83888:	441a      	add	r2, r3
   8388a:	4613      	mov	r3, r2
   8388c:	e7c3      	b.n	83816 <_svfprintf_r+0x13ea>
   8388e:	f01b 0301 	ands.w	r3, fp, #1
   83892:	9312      	str	r3, [sp, #72]	; 0x48
   83894:	f47f aeb3 	bne.w	835fe <_svfprintf_r+0x11d2>
   83898:	9b0e      	ldr	r3, [sp, #56]	; 0x38
   8389a:	ea23 73e3 	bic.w	r3, r3, r3, asr #31
   8389e:	9308      	str	r3, [sp, #32]
   838a0:	e5cc      	b.n	8343c <_svfprintf_r+0x1010>
   838a2:	4d1f      	ldr	r5, [pc, #124]	; (83920 <_svfprintf_r+0x14f4>)
   838a4:	e43c      	b.n	83120 <_svfprintf_r+0xcf4>
   838a6:	9b26      	ldr	r3, [sp, #152]	; 0x98
   838a8:	4d1d      	ldr	r5, [pc, #116]	; (83920 <_svfprintf_r+0x14f4>)
   838aa:	e491      	b.n	831d0 <_svfprintf_r+0xda4>
   838ac:	9d0f      	ldr	r5, [sp, #60]	; 0x3c
   838ae:	f89a 3001 	ldrb.w	r3, [sl, #1]
   838b2:	6828      	ldr	r0, [r5, #0]
   838b4:	46a2      	mov	sl, r4
   838b6:	ea40 70e0 	orr.w	r0, r0, r0, asr #31
   838ba:	900a      	str	r0, [sp, #40]	; 0x28
   838bc:	4628      	mov	r0, r5
   838be:	3004      	adds	r0, #4
   838c0:	900f      	str	r0, [sp, #60]	; 0x3c
   838c2:	f7fe be0d 	b.w	824e0 <_svfprintf_r+0xb4>
   838c6:	9b0a      	ldr	r3, [sp, #40]	; 0x28
   838c8:	b913      	cbnz	r3, 838d0 <_svfprintf_r+0x14a4>
   838ca:	f01b 0f01 	tst.w	fp, #1
   838ce:	d002      	beq.n	838d6 <_svfprintf_r+0x14aa>
   838d0:	9b19      	ldr	r3, [sp, #100]	; 0x64
   838d2:	3301      	adds	r3, #1
   838d4:	e7cd      	b.n	83872 <_svfprintf_r+0x1446>
   838d6:	2301      	movs	r3, #1
   838d8:	e71c      	b.n	83714 <_svfprintf_r+0x12e8>
   838da:	f88d 1077 	strb.w	r1, [sp, #119]	; 0x77
   838de:	f7ff b980 	b.w	82be2 <_svfprintf_r+0x7b6>
   838e2:	f88d 1077 	strb.w	r1, [sp, #119]	; 0x77
   838e6:	f7ff b93a 	b.w	82b5e <_svfprintf_r+0x732>
   838ea:	f88d 1077 	strb.w	r1, [sp, #119]	; 0x77
   838ee:	f7ff b84f 	b.w	82990 <_svfprintf_r+0x564>
   838f2:	f10d 0386 	add.w	r3, sp, #134	; 0x86
   838f6:	e679      	b.n	835ec <_svfprintf_r+0x11c0>
   838f8:	f88d 1077 	strb.w	r1, [sp, #119]	; 0x77
   838fc:	f7ff b9b2 	b.w	82c64 <_svfprintf_r+0x838>
   83900:	f04f 32ff 	mov.w	r2, #4294967295
   83904:	230c      	movs	r3, #12
   83906:	9209      	str	r2, [sp, #36]	; 0x24
   83908:	9a0c      	ldr	r2, [sp, #48]	; 0x30
   8390a:	6013      	str	r3, [r2, #0]
   8390c:	f7fe be74 	b.w	825f8 <_svfprintf_r+0x1cc>
   83910:	f88d 1077 	strb.w	r1, [sp, #119]	; 0x77
   83914:	f7ff b8c4 	b.w	82aa0 <_svfprintf_r+0x674>
   83918:	f88d 1077 	strb.w	r1, [sp, #119]	; 0x77
   8391c:	f7ff b878 	b.w	82a10 <_svfprintf_r+0x5e4>
   83920:	00086c9c 	.word	0x00086c9c
   83924:	00086c54 	.word	0x00086c54
   83928:	00086c50 	.word	0x00086c50

0008392c <register_fini>:
   8392c:	4b02      	ldr	r3, [pc, #8]	; (83938 <register_fini+0xc>)
   8392e:	b113      	cbz	r3, 83936 <register_fini+0xa>
   83930:	4802      	ldr	r0, [pc, #8]	; (8393c <register_fini+0x10>)
   83932:	f000 b805 	b.w	83940 <atexit>
   83936:	4770      	bx	lr
   83938:	00000000 	.word	0x00000000
   8393c:	000848bd 	.word	0x000848bd

00083940 <atexit>:
   83940:	2300      	movs	r3, #0
   83942:	4601      	mov	r1, r0
   83944:	461a      	mov	r2, r3
   83946:	4618      	mov	r0, r3
   83948:	f001 beda 	b.w	85700 <__register_exitproc>

0008394c <quorem>:
   8394c:	e92d 4ff0 	stmdb	sp!, {r4, r5, r6, r7, r8, r9, sl, fp, lr}
   83950:	6903      	ldr	r3, [r0, #16]
   83952:	690f      	ldr	r7, [r1, #16]
   83954:	b083      	sub	sp, #12
   83956:	429f      	cmp	r7, r3
   83958:	f300 8088 	bgt.w	83a6c <quorem+0x120>
   8395c:	3f01      	subs	r7, #1
   8395e:	f101 0614 	add.w	r6, r1, #20
   83962:	f100 0a14 	add.w	sl, r0, #20
   83966:	f856 3027 	ldr.w	r3, [r6, r7, lsl #2]
   8396a:	f85a 2027 	ldr.w	r2, [sl, r7, lsl #2]
   8396e:	3301      	adds	r3, #1
   83970:	fbb2 f8f3 	udiv	r8, r2, r3
   83974:	00bb      	lsls	r3, r7, #2
   83976:	9300      	str	r3, [sp, #0]
   83978:	eb06 0903 	add.w	r9, r6, r3
   8397c:	4453      	add	r3, sl
   8397e:	9301      	str	r3, [sp, #4]
   83980:	f1b8 0f00 	cmp.w	r8, #0
   83984:	d03b      	beq.n	839fe <quorem+0xb2>
   83986:	2300      	movs	r3, #0
   83988:	46b4      	mov	ip, r6
   8398a:	461c      	mov	r4, r3
   8398c:	46d6      	mov	lr, sl
   8398e:	f85c 2b04 	ldr.w	r2, [ip], #4
   83992:	f8de 5000 	ldr.w	r5, [lr]
   83996:	fa1f fb82 	uxth.w	fp, r2
   8399a:	fb08 330b 	mla	r3, r8, fp, r3
   8399e:	0c12      	lsrs	r2, r2, #16
   839a0:	ea4f 4b13 	mov.w	fp, r3, lsr #16
   839a4:	fb08 bb02 	mla	fp, r8, r2, fp
   839a8:	b29a      	uxth	r2, r3
   839aa:	1aa2      	subs	r2, r4, r2
   839ac:	b2ab      	uxth	r3, r5
   839ae:	fa1f f48b 	uxth.w	r4, fp
   839b2:	441a      	add	r2, r3
   839b4:	ebc4 4415 	rsb	r4, r4, r5, lsr #16
   839b8:	eb04 4422 	add.w	r4, r4, r2, asr #16
   839bc:	b292      	uxth	r2, r2
   839be:	ea42 4204 	orr.w	r2, r2, r4, lsl #16
   839c2:	45e1      	cmp	r9, ip
   839c4:	f84e 2b04 	str.w	r2, [lr], #4
   839c8:	ea4f 4424 	mov.w	r4, r4, asr #16
   839cc:	ea4f 431b 	mov.w	r3, fp, lsr #16
   839d0:	d2dd      	bcs.n	8398e <quorem+0x42>
   839d2:	9b00      	ldr	r3, [sp, #0]
   839d4:	f85a 3003 	ldr.w	r3, [sl, r3]
   839d8:	b98b      	cbnz	r3, 839fe <quorem+0xb2>
   839da:	9c01      	ldr	r4, [sp, #4]
   839dc:	1f23      	subs	r3, r4, #4
   839de:	459a      	cmp	sl, r3
   839e0:	d20c      	bcs.n	839fc <quorem+0xb0>
   839e2:	f854 3c04 	ldr.w	r3, [r4, #-4]
   839e6:	b94b      	cbnz	r3, 839fc <quorem+0xb0>
   839e8:	f1a4 0308 	sub.w	r3, r4, #8
   839ec:	e002      	b.n	839f4 <quorem+0xa8>
   839ee:	681a      	ldr	r2, [r3, #0]
   839f0:	3b04      	subs	r3, #4
   839f2:	b91a      	cbnz	r2, 839fc <quorem+0xb0>
   839f4:	459a      	cmp	sl, r3
   839f6:	f107 37ff 	add.w	r7, r7, #4294967295
   839fa:	d3f8      	bcc.n	839ee <quorem+0xa2>
   839fc:	6107      	str	r7, [r0, #16]
   839fe:	4604      	mov	r4, r0
   83a00:	f001 fcf0 	bl	853e4 <__mcmp>
   83a04:	2800      	cmp	r0, #0
   83a06:	db2d      	blt.n	83a64 <quorem+0x118>
   83a08:	4655      	mov	r5, sl
   83a0a:	2300      	movs	r3, #0
   83a0c:	f108 0801 	add.w	r8, r8, #1
   83a10:	f856 1b04 	ldr.w	r1, [r6], #4
   83a14:	6828      	ldr	r0, [r5, #0]
   83a16:	b28a      	uxth	r2, r1
   83a18:	1a9a      	subs	r2, r3, r2
   83a1a:	0c0b      	lsrs	r3, r1, #16
   83a1c:	b281      	uxth	r1, r0
   83a1e:	440a      	add	r2, r1
   83a20:	ebc3 4310 	rsb	r3, r3, r0, lsr #16
   83a24:	eb03 4322 	add.w	r3, r3, r2, asr #16
   83a28:	b292      	uxth	r2, r2
   83a2a:	ea42 4203 	orr.w	r2, r2, r3, lsl #16
   83a2e:	45b1      	cmp	r9, r6
   83a30:	f845 2b04 	str.w	r2, [r5], #4
   83a34:	ea4f 4323 	mov.w	r3, r3, asr #16
   83a38:	d2ea      	bcs.n	83a10 <quorem+0xc4>
   83a3a:	f85a 2027 	ldr.w	r2, [sl, r7, lsl #2]
   83a3e:	eb0a 0387 	add.w	r3, sl, r7, lsl #2
   83a42:	b97a      	cbnz	r2, 83a64 <quorem+0x118>
   83a44:	1f1a      	subs	r2, r3, #4
   83a46:	4592      	cmp	sl, r2
   83a48:	d20b      	bcs.n	83a62 <quorem+0x116>
   83a4a:	f853 2c04 	ldr.w	r2, [r3, #-4]
   83a4e:	b942      	cbnz	r2, 83a62 <quorem+0x116>
   83a50:	3b08      	subs	r3, #8
   83a52:	e002      	b.n	83a5a <quorem+0x10e>
   83a54:	681a      	ldr	r2, [r3, #0]
   83a56:	3b04      	subs	r3, #4
   83a58:	b91a      	cbnz	r2, 83a62 <quorem+0x116>
   83a5a:	459a      	cmp	sl, r3
   83a5c:	f107 37ff 	add.w	r7, r7, #4294967295
   83a60:	d3f8      	bcc.n	83a54 <quorem+0x108>
   83a62:	6127      	str	r7, [r4, #16]
   83a64:	4640      	mov	r0, r8
   83a66:	b003      	add	sp, #12
   83a68:	e8bd 8ff0 	ldmia.w	sp!, {r4, r5, r6, r7, r8, r9, sl, fp, pc}
   83a6c:	2000      	movs	r0, #0
   83a6e:	b003      	add	sp, #12
   83a70:	e8bd 8ff0 	ldmia.w	sp!, {r4, r5, r6, r7, r8, r9, sl, fp, pc}
   83a74:	0000      	movs	r0, r0
	...

00083a78 <_dtoa_r>:
   83a78:	e92d 4ff0 	stmdb	sp!, {r4, r5, r6, r7, r8, r9, sl, fp, lr}
   83a7c:	6c05      	ldr	r5, [r0, #64]	; 0x40
   83a7e:	b09b      	sub	sp, #108	; 0x6c
   83a80:	4604      	mov	r4, r0
   83a82:	4692      	mov	sl, r2
   83a84:	469b      	mov	fp, r3
   83a86:	9e27      	ldr	r6, [sp, #156]	; 0x9c
   83a88:	b14d      	cbz	r5, 83a9e <_dtoa_r+0x26>
   83a8a:	2301      	movs	r3, #1
   83a8c:	6c42      	ldr	r2, [r0, #68]	; 0x44
   83a8e:	4629      	mov	r1, r5
   83a90:	4093      	lsls	r3, r2
   83a92:	60ab      	str	r3, [r5, #8]
   83a94:	606a      	str	r2, [r5, #4]
   83a96:	f001 facd 	bl	85034 <_Bfree>
   83a9a:	2300      	movs	r3, #0
   83a9c:	6423      	str	r3, [r4, #64]	; 0x40
   83a9e:	f1bb 0f00 	cmp.w	fp, #0
   83aa2:	465d      	mov	r5, fp
   83aa4:	db35      	blt.n	83b12 <_dtoa_r+0x9a>
   83aa6:	2300      	movs	r3, #0
   83aa8:	6033      	str	r3, [r6, #0]
   83aaa:	4b9d      	ldr	r3, [pc, #628]	; (83d20 <_dtoa_r+0x2a8>)
   83aac:	43ab      	bics	r3, r5
   83aae:	d015      	beq.n	83adc <_dtoa_r+0x64>
   83ab0:	2200      	movs	r2, #0
   83ab2:	2300      	movs	r3, #0
   83ab4:	4650      	mov	r0, sl
   83ab6:	4659      	mov	r1, fp
   83ab8:	f002 fe46 	bl	86748 <__aeabi_dcmpeq>
   83abc:	4680      	mov	r8, r0
   83abe:	2800      	cmp	r0, #0
   83ac0:	d02d      	beq.n	83b1e <_dtoa_r+0xa6>
   83ac2:	2301      	movs	r3, #1
   83ac4:	9a26      	ldr	r2, [sp, #152]	; 0x98
   83ac6:	6013      	str	r3, [r2, #0]
   83ac8:	9b28      	ldr	r3, [sp, #160]	; 0xa0
   83aca:	2b00      	cmp	r3, #0
   83acc:	f000 80bd 	beq.w	83c4a <_dtoa_r+0x1d2>
   83ad0:	4894      	ldr	r0, [pc, #592]	; (83d24 <_dtoa_r+0x2ac>)
   83ad2:	6018      	str	r0, [r3, #0]
   83ad4:	3801      	subs	r0, #1
   83ad6:	b01b      	add	sp, #108	; 0x6c
   83ad8:	e8bd 8ff0 	ldmia.w	sp!, {r4, r5, r6, r7, r8, r9, sl, fp, pc}
   83adc:	f242 730f 	movw	r3, #9999	; 0x270f
   83ae0:	9a26      	ldr	r2, [sp, #152]	; 0x98
   83ae2:	6013      	str	r3, [r2, #0]
   83ae4:	f1ba 0f00 	cmp.w	sl, #0
   83ae8:	d10d      	bne.n	83b06 <_dtoa_r+0x8e>
   83aea:	f3c5 0513 	ubfx	r5, r5, #0, #20
   83aee:	b955      	cbnz	r5, 83b06 <_dtoa_r+0x8e>
   83af0:	9b28      	ldr	r3, [sp, #160]	; 0xa0
   83af2:	488d      	ldr	r0, [pc, #564]	; (83d28 <_dtoa_r+0x2b0>)
   83af4:	2b00      	cmp	r3, #0
   83af6:	d0ee      	beq.n	83ad6 <_dtoa_r+0x5e>
   83af8:	f100 0308 	add.w	r3, r0, #8
   83afc:	9a28      	ldr	r2, [sp, #160]	; 0xa0
   83afe:	6013      	str	r3, [r2, #0]
   83b00:	b01b      	add	sp, #108	; 0x6c
   83b02:	e8bd 8ff0 	ldmia.w	sp!, {r4, r5, r6, r7, r8, r9, sl, fp, pc}
   83b06:	9b28      	ldr	r3, [sp, #160]	; 0xa0
   83b08:	4888      	ldr	r0, [pc, #544]	; (83d2c <_dtoa_r+0x2b4>)
   83b0a:	2b00      	cmp	r3, #0
   83b0c:	d0e3      	beq.n	83ad6 <_dtoa_r+0x5e>
   83b0e:	1cc3      	adds	r3, r0, #3
   83b10:	e7f4      	b.n	83afc <_dtoa_r+0x84>
   83b12:	2301      	movs	r3, #1
   83b14:	f02b 4500 	bic.w	r5, fp, #2147483648	; 0x80000000
   83b18:	6033      	str	r3, [r6, #0]
   83b1a:	46ab      	mov	fp, r5
   83b1c:	e7c5      	b.n	83aaa <_dtoa_r+0x32>
   83b1e:	aa18      	add	r2, sp, #96	; 0x60
   83b20:	ab19      	add	r3, sp, #100	; 0x64
   83b22:	9201      	str	r2, [sp, #4]
   83b24:	9300      	str	r3, [sp, #0]
   83b26:	4652      	mov	r2, sl
   83b28:	465b      	mov	r3, fp
   83b2a:	4620      	mov	r0, r4
   83b2c:	f001 fd04 	bl	85538 <__d2b>
   83b30:	0d2b      	lsrs	r3, r5, #20
   83b32:	4681      	mov	r9, r0
   83b34:	d071      	beq.n	83c1a <_dtoa_r+0x1a2>
   83b36:	4650      	mov	r0, sl
   83b38:	f3cb 0213 	ubfx	r2, fp, #0, #20
   83b3c:	f042 517f 	orr.w	r1, r2, #1069547520	; 0x3fc00000
   83b40:	9f18      	ldr	r7, [sp, #96]	; 0x60
   83b42:	f2a3 36ff 	subw	r6, r3, #1023	; 0x3ff
   83b46:	f8cd 8050 	str.w	r8, [sp, #80]	; 0x50
   83b4a:	f441 1140 	orr.w	r1, r1, #3145728	; 0x300000
   83b4e:	2200      	movs	r2, #0
   83b50:	4b77      	ldr	r3, [pc, #476]	; (83d30 <_dtoa_r+0x2b8>)
   83b52:	f002 f9dd 	bl	85f10 <__aeabi_dsub>
   83b56:	a36c      	add	r3, pc, #432	; (adr r3, 83d08 <_dtoa_r+0x290>)
   83b58:	e9d3 2300 	ldrd	r2, r3, [r3]
   83b5c:	f002 fb8c 	bl	86278 <__aeabi_dmul>
   83b60:	a36b      	add	r3, pc, #428	; (adr r3, 83d10 <_dtoa_r+0x298>)
   83b62:	e9d3 2300 	ldrd	r2, r3, [r3]
   83b66:	f002 f9d5 	bl	85f14 <__adddf3>
   83b6a:	e9cd 0102 	strd	r0, r1, [sp, #8]
   83b6e:	4630      	mov	r0, r6
   83b70:	f002 fb1c 	bl	861ac <__aeabi_i2d>
   83b74:	a368      	add	r3, pc, #416	; (adr r3, 83d18 <_dtoa_r+0x2a0>)
   83b76:	e9d3 2300 	ldrd	r2, r3, [r3]
   83b7a:	f002 fb7d 	bl	86278 <__aeabi_dmul>
   83b7e:	4602      	mov	r2, r0
   83b80:	460b      	mov	r3, r1
   83b82:	e9dd 0102 	ldrd	r0, r1, [sp, #8]
   83b86:	f002 f9c5 	bl	85f14 <__adddf3>
   83b8a:	e9cd 0104 	strd	r0, r1, [sp, #16]
   83b8e:	f002 fe23 	bl	867d8 <__aeabi_d2iz>
   83b92:	2200      	movs	r2, #0
   83b94:	9002      	str	r0, [sp, #8]
   83b96:	2300      	movs	r3, #0
   83b98:	e9dd 0104 	ldrd	r0, r1, [sp, #16]
   83b9c:	f002 fdde 	bl	8675c <__aeabi_dcmplt>
   83ba0:	2800      	cmp	r0, #0
   83ba2:	f040 816d 	bne.w	83e80 <_dtoa_r+0x408>
   83ba6:	9d02      	ldr	r5, [sp, #8]
   83ba8:	2d16      	cmp	r5, #22
   83baa:	f200 8157 	bhi.w	83e5c <_dtoa_r+0x3e4>
   83bae:	4961      	ldr	r1, [pc, #388]	; (83d34 <_dtoa_r+0x2bc>)
   83bb0:	4652      	mov	r2, sl
   83bb2:	eb01 01c5 	add.w	r1, r1, r5, lsl #3
   83bb6:	465b      	mov	r3, fp
   83bb8:	e9d1 0100 	ldrd	r0, r1, [r1]
   83bbc:	f002 fdec 	bl	86798 <__aeabi_dcmpgt>
   83bc0:	2800      	cmp	r0, #0
   83bc2:	f000 81be 	beq.w	83f42 <_dtoa_r+0x4ca>
   83bc6:	1e6b      	subs	r3, r5, #1
   83bc8:	9302      	str	r3, [sp, #8]
   83bca:	2300      	movs	r3, #0
   83bcc:	930e      	str	r3, [sp, #56]	; 0x38
   83bce:	1bbf      	subs	r7, r7, r6
   83bd0:	1e7b      	subs	r3, r7, #1
   83bd2:	9308      	str	r3, [sp, #32]
   83bd4:	f100 814e 	bmi.w	83e74 <_dtoa_r+0x3fc>
   83bd8:	2300      	movs	r3, #0
   83bda:	930a      	str	r3, [sp, #40]	; 0x28
   83bdc:	9b02      	ldr	r3, [sp, #8]
   83bde:	2b00      	cmp	r3, #0
   83be0:	f2c0 813f 	blt.w	83e62 <_dtoa_r+0x3ea>
   83be4:	9a08      	ldr	r2, [sp, #32]
   83be6:	930d      	str	r3, [sp, #52]	; 0x34
   83be8:	4611      	mov	r1, r2
   83bea:	4419      	add	r1, r3
   83bec:	2300      	movs	r3, #0
   83bee:	9108      	str	r1, [sp, #32]
   83bf0:	930c      	str	r3, [sp, #48]	; 0x30
   83bf2:	9b24      	ldr	r3, [sp, #144]	; 0x90
   83bf4:	2b09      	cmp	r3, #9
   83bf6:	d82a      	bhi.n	83c4e <_dtoa_r+0x1d6>
   83bf8:	2b05      	cmp	r3, #5
   83bfa:	f340 8658 	ble.w	848ae <_dtoa_r+0xe36>
   83bfe:	2500      	movs	r5, #0
   83c00:	3b04      	subs	r3, #4
   83c02:	9324      	str	r3, [sp, #144]	; 0x90
   83c04:	9b24      	ldr	r3, [sp, #144]	; 0x90
   83c06:	3b02      	subs	r3, #2
   83c08:	2b03      	cmp	r3, #3
   83c0a:	f200 863f 	bhi.w	8488c <_dtoa_r+0xe14>
   83c0e:	e8df f013 	tbh	[pc, r3, lsl #1]
   83c12:	03ce      	.short	0x03ce
   83c14:	03d902c3 	.word	0x03d902c3
   83c18:	045b      	.short	0x045b
   83c1a:	9f18      	ldr	r7, [sp, #96]	; 0x60
   83c1c:	9e19      	ldr	r6, [sp, #100]	; 0x64
   83c1e:	443e      	add	r6, r7
   83c20:	f206 4332 	addw	r3, r6, #1074	; 0x432
   83c24:	2b20      	cmp	r3, #32
   83c26:	f340 8187 	ble.w	83f38 <_dtoa_r+0x4c0>
   83c2a:	f1c3 0340 	rsb	r3, r3, #64	; 0x40
   83c2e:	f206 4012 	addw	r0, r6, #1042	; 0x412
   83c32:	409d      	lsls	r5, r3
   83c34:	fa2a f000 	lsr.w	r0, sl, r0
   83c38:	4328      	orrs	r0, r5
   83c3a:	f002 faa7 	bl	8618c <__aeabi_ui2d>
   83c3e:	2301      	movs	r3, #1
   83c40:	3e01      	subs	r6, #1
   83c42:	9314      	str	r3, [sp, #80]	; 0x50
   83c44:	f1a1 71f8 	sub.w	r1, r1, #32505856	; 0x1f00000
   83c48:	e781      	b.n	83b4e <_dtoa_r+0xd6>
   83c4a:	483b      	ldr	r0, [pc, #236]	; (83d38 <_dtoa_r+0x2c0>)
   83c4c:	e743      	b.n	83ad6 <_dtoa_r+0x5e>
   83c4e:	2100      	movs	r1, #0
   83c50:	4620      	mov	r0, r4
   83c52:	6461      	str	r1, [r4, #68]	; 0x44
   83c54:	9125      	str	r1, [sp, #148]	; 0x94
   83c56:	f001 f9c7 	bl	84fe8 <_Balloc>
   83c5a:	f04f 33ff 	mov.w	r3, #4294967295
   83c5e:	9307      	str	r3, [sp, #28]
   83c60:	930f      	str	r3, [sp, #60]	; 0x3c
   83c62:	2301      	movs	r3, #1
   83c64:	9a25      	ldr	r2, [sp, #148]	; 0x94
   83c66:	9004      	str	r0, [sp, #16]
   83c68:	6420      	str	r0, [r4, #64]	; 0x40
   83c6a:	9224      	str	r2, [sp, #144]	; 0x90
   83c6c:	930b      	str	r3, [sp, #44]	; 0x2c
   83c6e:	9b19      	ldr	r3, [sp, #100]	; 0x64
   83c70:	2b00      	cmp	r3, #0
   83c72:	f2c0 80d3 	blt.w	83e1c <_dtoa_r+0x3a4>
   83c76:	9a02      	ldr	r2, [sp, #8]
   83c78:	2a0e      	cmp	r2, #14
   83c7a:	f300 80cf 	bgt.w	83e1c <_dtoa_r+0x3a4>
   83c7e:	4b2d      	ldr	r3, [pc, #180]	; (83d34 <_dtoa_r+0x2bc>)
   83c80:	eb03 03c2 	add.w	r3, r3, r2, lsl #3
   83c84:	e9d3 2300 	ldrd	r2, r3, [r3]
   83c88:	e9cd 2308 	strd	r2, r3, [sp, #32]
   83c8c:	9b25      	ldr	r3, [sp, #148]	; 0x94
   83c8e:	2b00      	cmp	r3, #0
   83c90:	f2c0 83b4 	blt.w	843fc <_dtoa_r+0x984>
   83c94:	e9dd 5608 	ldrd	r5, r6, [sp, #32]
   83c98:	4650      	mov	r0, sl
   83c9a:	462a      	mov	r2, r5
   83c9c:	4633      	mov	r3, r6
   83c9e:	4659      	mov	r1, fp
   83ca0:	f002 fc14 	bl	864cc <__aeabi_ddiv>
   83ca4:	f002 fd98 	bl	867d8 <__aeabi_d2iz>
   83ca8:	4680      	mov	r8, r0
   83caa:	f002 fa7f 	bl	861ac <__aeabi_i2d>
   83cae:	462a      	mov	r2, r5
   83cb0:	4633      	mov	r3, r6
   83cb2:	f002 fae1 	bl	86278 <__aeabi_dmul>
   83cb6:	4602      	mov	r2, r0
   83cb8:	460b      	mov	r3, r1
   83cba:	4650      	mov	r0, sl
   83cbc:	4659      	mov	r1, fp
   83cbe:	f002 f927 	bl	85f10 <__aeabi_dsub>
   83cc2:	9e07      	ldr	r6, [sp, #28]
   83cc4:	9f04      	ldr	r7, [sp, #16]
   83cc6:	f108 0530 	add.w	r5, r8, #48	; 0x30
   83cca:	2e01      	cmp	r6, #1
   83ccc:	703d      	strb	r5, [r7, #0]
   83cce:	4602      	mov	r2, r0
   83cd0:	460b      	mov	r3, r1
   83cd2:	f107 0501 	add.w	r5, r7, #1
   83cd6:	d064      	beq.n	83da2 <_dtoa_r+0x32a>
   83cd8:	2200      	movs	r2, #0
   83cda:	4b18      	ldr	r3, [pc, #96]	; (83d3c <_dtoa_r+0x2c4>)
   83cdc:	f002 facc 	bl	86278 <__aeabi_dmul>
   83ce0:	2200      	movs	r2, #0
   83ce2:	2300      	movs	r3, #0
   83ce4:	4606      	mov	r6, r0
   83ce6:	460f      	mov	r7, r1
   83ce8:	f002 fd2e 	bl	86748 <__aeabi_dcmpeq>
   83cec:	2800      	cmp	r0, #0
   83cee:	f040 8082 	bne.w	83df6 <_dtoa_r+0x37e>
   83cf2:	f8cd 9028 	str.w	r9, [sp, #40]	; 0x28
   83cf6:	f04f 0a00 	mov.w	sl, #0
   83cfa:	e9dd 8908 	ldrd	r8, r9, [sp, #32]
   83cfe:	f04f 0b00 	mov.w	fp, #0
   83d02:	940b      	str	r4, [sp, #44]	; 0x2c
   83d04:	e029      	b.n	83d5a <_dtoa_r+0x2e2>
   83d06:	bf00      	nop
   83d08:	636f4361 	.word	0x636f4361
   83d0c:	3fd287a7 	.word	0x3fd287a7
   83d10:	8b60c8b3 	.word	0x8b60c8b3
   83d14:	3fc68a28 	.word	0x3fc68a28
   83d18:	509f79fb 	.word	0x509f79fb
   83d1c:	3fd34413 	.word	0x3fd34413
   83d20:	7ff00000 	.word	0x7ff00000
   83d24:	00086c89 	.word	0x00086c89
   83d28:	00086cac 	.word	0x00086cac
   83d2c:	00086cb8 	.word	0x00086cb8
   83d30:	3ff80000 	.word	0x3ff80000
   83d34:	00086ce8 	.word	0x00086ce8
   83d38:	00086c88 	.word	0x00086c88
   83d3c:	40240000 	.word	0x40240000
   83d40:	2200      	movs	r2, #0
   83d42:	4b81      	ldr	r3, [pc, #516]	; (83f48 <_dtoa_r+0x4d0>)
   83d44:	f002 fa98 	bl	86278 <__aeabi_dmul>
   83d48:	4652      	mov	r2, sl
   83d4a:	465b      	mov	r3, fp
   83d4c:	4606      	mov	r6, r0
   83d4e:	460f      	mov	r7, r1
   83d50:	f002 fcfa 	bl	86748 <__aeabi_dcmpeq>
   83d54:	2800      	cmp	r0, #0
   83d56:	f040 83ba 	bne.w	844ce <_dtoa_r+0xa56>
   83d5a:	4642      	mov	r2, r8
   83d5c:	464b      	mov	r3, r9
   83d5e:	4630      	mov	r0, r6
   83d60:	4639      	mov	r1, r7
   83d62:	f002 fbb3 	bl	864cc <__aeabi_ddiv>
   83d66:	f002 fd37 	bl	867d8 <__aeabi_d2iz>
   83d6a:	4604      	mov	r4, r0
   83d6c:	f002 fa1e 	bl	861ac <__aeabi_i2d>
   83d70:	4642      	mov	r2, r8
   83d72:	464b      	mov	r3, r9
   83d74:	f002 fa80 	bl	86278 <__aeabi_dmul>
   83d78:	4602      	mov	r2, r0
   83d7a:	460b      	mov	r3, r1
   83d7c:	4630      	mov	r0, r6
   83d7e:	4639      	mov	r1, r7
   83d80:	f002 f8c6 	bl	85f10 <__aeabi_dsub>
   83d84:	f104 0630 	add.w	r6, r4, #48	; 0x30
   83d88:	f805 6b01 	strb.w	r6, [r5], #1
   83d8c:	9e04      	ldr	r6, [sp, #16]
   83d8e:	9f07      	ldr	r7, [sp, #28]
   83d90:	1bae      	subs	r6, r5, r6
   83d92:	42be      	cmp	r6, r7
   83d94:	4602      	mov	r2, r0
   83d96:	460b      	mov	r3, r1
   83d98:	d1d2      	bne.n	83d40 <_dtoa_r+0x2c8>
   83d9a:	46a0      	mov	r8, r4
   83d9c:	f8dd 9028 	ldr.w	r9, [sp, #40]	; 0x28
   83da0:	9c0b      	ldr	r4, [sp, #44]	; 0x2c
   83da2:	4610      	mov	r0, r2
   83da4:	4619      	mov	r1, r3
   83da6:	f002 f8b5 	bl	85f14 <__adddf3>
   83daa:	4606      	mov	r6, r0
   83dac:	460f      	mov	r7, r1
   83dae:	4602      	mov	r2, r0
   83db0:	460b      	mov	r3, r1
   83db2:	e9dd 0108 	ldrd	r0, r1, [sp, #32]
   83db6:	f002 fcd1 	bl	8675c <__aeabi_dcmplt>
   83dba:	b948      	cbnz	r0, 83dd0 <_dtoa_r+0x358>
   83dbc:	e9dd 0108 	ldrd	r0, r1, [sp, #32]
   83dc0:	4632      	mov	r2, r6
   83dc2:	463b      	mov	r3, r7
   83dc4:	f002 fcc0 	bl	86748 <__aeabi_dcmpeq>
   83dc8:	b1a8      	cbz	r0, 83df6 <_dtoa_r+0x37e>
   83dca:	f018 0f01 	tst.w	r8, #1
   83dce:	d012      	beq.n	83df6 <_dtoa_r+0x37e>
   83dd0:	f815 8c01 	ldrb.w	r8, [r5, #-1]
   83dd4:	1e6b      	subs	r3, r5, #1
   83dd6:	9a04      	ldr	r2, [sp, #16]
   83dd8:	e004      	b.n	83de4 <_dtoa_r+0x36c>
   83dda:	429a      	cmp	r2, r3
   83ddc:	f000 8402 	beq.w	845e4 <_dtoa_r+0xb6c>
   83de0:	f813 8d01 	ldrb.w	r8, [r3, #-1]!
   83de4:	f1b8 0f39 	cmp.w	r8, #57	; 0x39
   83de8:	f103 0501 	add.w	r5, r3, #1
   83dec:	d0f5      	beq.n	83dda <_dtoa_r+0x362>
   83dee:	f108 0801 	add.w	r8, r8, #1
   83df2:	f883 8000 	strb.w	r8, [r3]
   83df6:	4649      	mov	r1, r9
   83df8:	4620      	mov	r0, r4
   83dfa:	f001 f91b 	bl	85034 <_Bfree>
   83dfe:	2200      	movs	r2, #0
   83e00:	9b02      	ldr	r3, [sp, #8]
   83e02:	702a      	strb	r2, [r5, #0]
   83e04:	9a26      	ldr	r2, [sp, #152]	; 0x98
   83e06:	3301      	adds	r3, #1
   83e08:	6013      	str	r3, [r2, #0]
   83e0a:	9b28      	ldr	r3, [sp, #160]	; 0xa0
   83e0c:	2b00      	cmp	r3, #0
   83e0e:	f000 839f 	beq.w	84550 <_dtoa_r+0xad8>
   83e12:	9804      	ldr	r0, [sp, #16]
   83e14:	601d      	str	r5, [r3, #0]
   83e16:	b01b      	add	sp, #108	; 0x6c
   83e18:	e8bd 8ff0 	ldmia.w	sp!, {r4, r5, r6, r7, r8, r9, sl, fp, pc}
   83e1c:	9a0b      	ldr	r2, [sp, #44]	; 0x2c
   83e1e:	2a00      	cmp	r2, #0
   83e20:	d03e      	beq.n	83ea0 <_dtoa_r+0x428>
   83e22:	9a24      	ldr	r2, [sp, #144]	; 0x90
   83e24:	2a01      	cmp	r2, #1
   83e26:	f340 8311 	ble.w	8444c <_dtoa_r+0x9d4>
   83e2a:	9b07      	ldr	r3, [sp, #28]
   83e2c:	9a0c      	ldr	r2, [sp, #48]	; 0x30
   83e2e:	1e5f      	subs	r7, r3, #1
   83e30:	42ba      	cmp	r2, r7
   83e32:	f2c0 8390 	blt.w	84556 <_dtoa_r+0xade>
   83e36:	1bd7      	subs	r7, r2, r7
   83e38:	9b07      	ldr	r3, [sp, #28]
   83e3a:	2b00      	cmp	r3, #0
   83e3c:	f2c0 848c 	blt.w	84758 <_dtoa_r+0xce0>
   83e40:	9d0a      	ldr	r5, [sp, #40]	; 0x28
   83e42:	9b07      	ldr	r3, [sp, #28]
   83e44:	9a0a      	ldr	r2, [sp, #40]	; 0x28
   83e46:	2101      	movs	r1, #1
   83e48:	441a      	add	r2, r3
   83e4a:	920a      	str	r2, [sp, #40]	; 0x28
   83e4c:	9a08      	ldr	r2, [sp, #32]
   83e4e:	4620      	mov	r0, r4
   83e50:	441a      	add	r2, r3
   83e52:	9208      	str	r2, [sp, #32]
   83e54:	f001 f98a 	bl	8516c <__i2b>
   83e58:	4606      	mov	r6, r0
   83e5a:	e023      	b.n	83ea4 <_dtoa_r+0x42c>
   83e5c:	2301      	movs	r3, #1
   83e5e:	930e      	str	r3, [sp, #56]	; 0x38
   83e60:	e6b5      	b.n	83bce <_dtoa_r+0x156>
   83e62:	2300      	movs	r3, #0
   83e64:	9a0a      	ldr	r2, [sp, #40]	; 0x28
   83e66:	930d      	str	r3, [sp, #52]	; 0x34
   83e68:	9b02      	ldr	r3, [sp, #8]
   83e6a:	1ad2      	subs	r2, r2, r3
   83e6c:	425b      	negs	r3, r3
   83e6e:	920a      	str	r2, [sp, #40]	; 0x28
   83e70:	930c      	str	r3, [sp, #48]	; 0x30
   83e72:	e6be      	b.n	83bf2 <_dtoa_r+0x17a>
   83e74:	f1c7 0301 	rsb	r3, r7, #1
   83e78:	930a      	str	r3, [sp, #40]	; 0x28
   83e7a:	2300      	movs	r3, #0
   83e7c:	9308      	str	r3, [sp, #32]
   83e7e:	e6ad      	b.n	83bdc <_dtoa_r+0x164>
   83e80:	9d02      	ldr	r5, [sp, #8]
   83e82:	4628      	mov	r0, r5
   83e84:	f002 f992 	bl	861ac <__aeabi_i2d>
   83e88:	4602      	mov	r2, r0
   83e8a:	460b      	mov	r3, r1
   83e8c:	e9dd 0104 	ldrd	r0, r1, [sp, #16]
   83e90:	f002 fc5a 	bl	86748 <__aeabi_dcmpeq>
   83e94:	2800      	cmp	r0, #0
   83e96:	f47f ae86 	bne.w	83ba6 <_dtoa_r+0x12e>
   83e9a:	1e6b      	subs	r3, r5, #1
   83e9c:	9302      	str	r3, [sp, #8]
   83e9e:	e682      	b.n	83ba6 <_dtoa_r+0x12e>
   83ea0:	ad0a      	add	r5, sp, #40	; 0x28
   83ea2:	cde0      	ldmia	r5, {r5, r6, r7}
   83ea4:	2d00      	cmp	r5, #0
   83ea6:	dd0c      	ble.n	83ec2 <_dtoa_r+0x44a>
   83ea8:	9908      	ldr	r1, [sp, #32]
   83eaa:	2900      	cmp	r1, #0
   83eac:	460b      	mov	r3, r1
   83eae:	dd08      	ble.n	83ec2 <_dtoa_r+0x44a>
   83eb0:	42a9      	cmp	r1, r5
   83eb2:	bfa8      	it	ge
   83eb4:	462b      	movge	r3, r5
   83eb6:	9a0a      	ldr	r2, [sp, #40]	; 0x28
   83eb8:	1aed      	subs	r5, r5, r3
   83eba:	1ad2      	subs	r2, r2, r3
   83ebc:	1acb      	subs	r3, r1, r3
   83ebe:	920a      	str	r2, [sp, #40]	; 0x28
   83ec0:	9308      	str	r3, [sp, #32]
   83ec2:	9b0c      	ldr	r3, [sp, #48]	; 0x30
   83ec4:	b1d3      	cbz	r3, 83efc <_dtoa_r+0x484>
   83ec6:	9b0b      	ldr	r3, [sp, #44]	; 0x2c
   83ec8:	2b00      	cmp	r3, #0
   83eca:	f000 82b8 	beq.w	8443e <_dtoa_r+0x9c6>
   83ece:	2f00      	cmp	r7, #0
   83ed0:	dd10      	ble.n	83ef4 <_dtoa_r+0x47c>
   83ed2:	4631      	mov	r1, r6
   83ed4:	463a      	mov	r2, r7
   83ed6:	4620      	mov	r0, r4
   83ed8:	f001 f9e4 	bl	852a4 <__pow5mult>
   83edc:	464a      	mov	r2, r9
   83ede:	4601      	mov	r1, r0
   83ee0:	4606      	mov	r6, r0
   83ee2:	4620      	mov	r0, r4
   83ee4:	f001 f94c 	bl	85180 <__multiply>
   83ee8:	4603      	mov	r3, r0
   83eea:	4649      	mov	r1, r9
   83eec:	4620      	mov	r0, r4
   83eee:	4699      	mov	r9, r3
   83ef0:	f001 f8a0 	bl	85034 <_Bfree>
   83ef4:	9b0c      	ldr	r3, [sp, #48]	; 0x30
   83ef6:	1bda      	subs	r2, r3, r7
   83ef8:	f040 82a2 	bne.w	84440 <_dtoa_r+0x9c8>
   83efc:	2101      	movs	r1, #1
   83efe:	4620      	mov	r0, r4
   83f00:	f001 f934 	bl	8516c <__i2b>
   83f04:	9b0d      	ldr	r3, [sp, #52]	; 0x34
   83f06:	4680      	mov	r8, r0
   83f08:	2b00      	cmp	r3, #0
   83f0a:	dd1f      	ble.n	83f4c <_dtoa_r+0x4d4>
   83f0c:	4601      	mov	r1, r0
   83f0e:	461a      	mov	r2, r3
   83f10:	4620      	mov	r0, r4
   83f12:	f001 f9c7 	bl	852a4 <__pow5mult>
   83f16:	9b24      	ldr	r3, [sp, #144]	; 0x90
   83f18:	4680      	mov	r8, r0
   83f1a:	2b01      	cmp	r3, #1
   83f1c:	f340 8255 	ble.w	843ca <_dtoa_r+0x952>
   83f20:	2300      	movs	r3, #0
   83f22:	930c      	str	r3, [sp, #48]	; 0x30
   83f24:	f8d8 3010 	ldr.w	r3, [r8, #16]
   83f28:	eb08 0383 	add.w	r3, r8, r3, lsl #2
   83f2c:	6918      	ldr	r0, [r3, #16]
   83f2e:	f001 f8cd 	bl	850cc <__hi0bits>
   83f32:	f1c0 0020 	rsb	r0, r0, #32
   83f36:	e013      	b.n	83f60 <_dtoa_r+0x4e8>
   83f38:	f1c3 0520 	rsb	r5, r3, #32
   83f3c:	fa0a f005 	lsl.w	r0, sl, r5
   83f40:	e67b      	b.n	83c3a <_dtoa_r+0x1c2>
   83f42:	900e      	str	r0, [sp, #56]	; 0x38
   83f44:	e643      	b.n	83bce <_dtoa_r+0x156>
   83f46:	bf00      	nop
   83f48:	40240000 	.word	0x40240000
   83f4c:	9b24      	ldr	r3, [sp, #144]	; 0x90
   83f4e:	2b01      	cmp	r3, #1
   83f50:	f340 8285 	ble.w	8445e <_dtoa_r+0x9e6>
   83f54:	2300      	movs	r3, #0
   83f56:	930c      	str	r3, [sp, #48]	; 0x30
   83f58:	9b0d      	ldr	r3, [sp, #52]	; 0x34
   83f5a:	2001      	movs	r0, #1
   83f5c:	2b00      	cmp	r3, #0
   83f5e:	d1e1      	bne.n	83f24 <_dtoa_r+0x4ac>
   83f60:	9a08      	ldr	r2, [sp, #32]
   83f62:	4410      	add	r0, r2
   83f64:	f010 001f 	ands.w	r0, r0, #31
   83f68:	f000 80a1 	beq.w	840ae <_dtoa_r+0x636>
   83f6c:	f1c0 0320 	rsb	r3, r0, #32
   83f70:	2b04      	cmp	r3, #4
   83f72:	f340 8486 	ble.w	84882 <_dtoa_r+0xe0a>
   83f76:	9b0a      	ldr	r3, [sp, #40]	; 0x28
   83f78:	f1c0 001c 	rsb	r0, r0, #28
   83f7c:	4403      	add	r3, r0
   83f7e:	930a      	str	r3, [sp, #40]	; 0x28
   83f80:	4613      	mov	r3, r2
   83f82:	4403      	add	r3, r0
   83f84:	4405      	add	r5, r0
   83f86:	9308      	str	r3, [sp, #32]
   83f88:	9b0a      	ldr	r3, [sp, #40]	; 0x28
   83f8a:	2b00      	cmp	r3, #0
   83f8c:	dd05      	ble.n	83f9a <_dtoa_r+0x522>
   83f8e:	4649      	mov	r1, r9
   83f90:	461a      	mov	r2, r3
   83f92:	4620      	mov	r0, r4
   83f94:	f001 f9d6 	bl	85344 <__lshift>
   83f98:	4681      	mov	r9, r0
   83f9a:	9b08      	ldr	r3, [sp, #32]
   83f9c:	2b00      	cmp	r3, #0
   83f9e:	dd05      	ble.n	83fac <_dtoa_r+0x534>
   83fa0:	4641      	mov	r1, r8
   83fa2:	461a      	mov	r2, r3
   83fa4:	4620      	mov	r0, r4
   83fa6:	f001 f9cd 	bl	85344 <__lshift>
   83faa:	4680      	mov	r8, r0
   83fac:	9b0e      	ldr	r3, [sp, #56]	; 0x38
   83fae:	2b00      	cmp	r3, #0
   83fb0:	f040 8086 	bne.w	840c0 <_dtoa_r+0x648>
   83fb4:	9b07      	ldr	r3, [sp, #28]
   83fb6:	2b00      	cmp	r3, #0
   83fb8:	f340 8264 	ble.w	84484 <_dtoa_r+0xa0c>
   83fbc:	9b0b      	ldr	r3, [sp, #44]	; 0x2c
   83fbe:	2b00      	cmp	r3, #0
   83fc0:	f000 8098 	beq.w	840f4 <_dtoa_r+0x67c>
   83fc4:	2d00      	cmp	r5, #0
   83fc6:	dd05      	ble.n	83fd4 <_dtoa_r+0x55c>
   83fc8:	4631      	mov	r1, r6
   83fca:	462a      	mov	r2, r5
   83fcc:	4620      	mov	r0, r4
   83fce:	f001 f9b9 	bl	85344 <__lshift>
   83fd2:	4606      	mov	r6, r0
   83fd4:	9b0c      	ldr	r3, [sp, #48]	; 0x30
   83fd6:	2b00      	cmp	r3, #0
   83fd8:	f040 8336 	bne.w	84648 <_dtoa_r+0xbd0>
   83fdc:	9608      	str	r6, [sp, #32]
   83fde:	9b07      	ldr	r3, [sp, #28]
   83fe0:	9a04      	ldr	r2, [sp, #16]
   83fe2:	3b01      	subs	r3, #1
   83fe4:	18d3      	adds	r3, r2, r3
   83fe6:	930b      	str	r3, [sp, #44]	; 0x2c
   83fe8:	4617      	mov	r7, r2
   83fea:	f00a 0301 	and.w	r3, sl, #1
   83fee:	46c2      	mov	sl, r8
   83ff0:	f8dd b020 	ldr.w	fp, [sp, #32]
   83ff4:	930c      	str	r3, [sp, #48]	; 0x30
   83ff6:	4651      	mov	r1, sl
   83ff8:	4648      	mov	r0, r9
   83ffa:	f7ff fca7 	bl	8394c <quorem>
   83ffe:	4631      	mov	r1, r6
   84000:	4605      	mov	r5, r0
   84002:	4648      	mov	r0, r9
   84004:	f001 f9ee 	bl	853e4 <__mcmp>
   84008:	465a      	mov	r2, fp
   8400a:	9007      	str	r0, [sp, #28]
   8400c:	4651      	mov	r1, sl
   8400e:	4620      	mov	r0, r4
   84010:	f001 fa04 	bl	8541c <__mdiff>
   84014:	68c2      	ldr	r2, [r0, #12]
   84016:	4680      	mov	r8, r0
   84018:	f105 0330 	add.w	r3, r5, #48	; 0x30
   8401c:	2a00      	cmp	r2, #0
   8401e:	f040 8229 	bne.w	84474 <_dtoa_r+0x9fc>
   84022:	4601      	mov	r1, r0
   84024:	4648      	mov	r0, r9
   84026:	930a      	str	r3, [sp, #40]	; 0x28
   84028:	f001 f9dc 	bl	853e4 <__mcmp>
   8402c:	4641      	mov	r1, r8
   8402e:	9008      	str	r0, [sp, #32]
   84030:	4620      	mov	r0, r4
   84032:	f000 ffff 	bl	85034 <_Bfree>
   84036:	9a08      	ldr	r2, [sp, #32]
   84038:	9b0a      	ldr	r3, [sp, #40]	; 0x28
   8403a:	b932      	cbnz	r2, 8404a <_dtoa_r+0x5d2>
   8403c:	9924      	ldr	r1, [sp, #144]	; 0x90
   8403e:	b921      	cbnz	r1, 8404a <_dtoa_r+0x5d2>
   84040:	9a0c      	ldr	r2, [sp, #48]	; 0x30
   84042:	2a00      	cmp	r2, #0
   84044:	f000 83ee 	beq.w	84824 <_dtoa_r+0xdac>
   84048:	9a24      	ldr	r2, [sp, #144]	; 0x90
   8404a:	9907      	ldr	r1, [sp, #28]
   8404c:	2900      	cmp	r1, #0
   8404e:	f2c0 829f 	blt.w	84590 <_dtoa_r+0xb18>
   84052:	d105      	bne.n	84060 <_dtoa_r+0x5e8>
   84054:	9924      	ldr	r1, [sp, #144]	; 0x90
   84056:	b919      	cbnz	r1, 84060 <_dtoa_r+0x5e8>
   84058:	990c      	ldr	r1, [sp, #48]	; 0x30
   8405a:	2900      	cmp	r1, #0
   8405c:	f000 8298 	beq.w	84590 <_dtoa_r+0xb18>
   84060:	2a00      	cmp	r2, #0
   84062:	f300 8305 	bgt.w	84670 <_dtoa_r+0xbf8>
   84066:	9a0b      	ldr	r2, [sp, #44]	; 0x2c
   84068:	f107 0801 	add.w	r8, r7, #1
   8406c:	4297      	cmp	r7, r2
   8406e:	703b      	strb	r3, [r7, #0]
   84070:	4645      	mov	r5, r8
   84072:	f000 830b 	beq.w	8468c <_dtoa_r+0xc14>
   84076:	4649      	mov	r1, r9
   84078:	2300      	movs	r3, #0
   8407a:	220a      	movs	r2, #10
   8407c:	4620      	mov	r0, r4
   8407e:	f000 ffe3 	bl	85048 <__multadd>
   84082:	455e      	cmp	r6, fp
   84084:	4681      	mov	r9, r0
   84086:	4631      	mov	r1, r6
   84088:	f04f 0300 	mov.w	r3, #0
   8408c:	f04f 020a 	mov.w	r2, #10
   84090:	4620      	mov	r0, r4
   84092:	f000 81e9 	beq.w	84468 <_dtoa_r+0x9f0>
   84096:	f000 ffd7 	bl	85048 <__multadd>
   8409a:	4659      	mov	r1, fp
   8409c:	4606      	mov	r6, r0
   8409e:	2300      	movs	r3, #0
   840a0:	220a      	movs	r2, #10
   840a2:	4620      	mov	r0, r4
   840a4:	f000 ffd0 	bl	85048 <__multadd>
   840a8:	4647      	mov	r7, r8
   840aa:	4683      	mov	fp, r0
   840ac:	e7a3      	b.n	83ff6 <_dtoa_r+0x57e>
   840ae:	201c      	movs	r0, #28
   840b0:	9b0a      	ldr	r3, [sp, #40]	; 0x28
   840b2:	4405      	add	r5, r0
   840b4:	4403      	add	r3, r0
   840b6:	930a      	str	r3, [sp, #40]	; 0x28
   840b8:	9b08      	ldr	r3, [sp, #32]
   840ba:	4403      	add	r3, r0
   840bc:	9308      	str	r3, [sp, #32]
   840be:	e763      	b.n	83f88 <_dtoa_r+0x510>
   840c0:	4641      	mov	r1, r8
   840c2:	4648      	mov	r0, r9
   840c4:	f001 f98e 	bl	853e4 <__mcmp>
   840c8:	2800      	cmp	r0, #0
   840ca:	f6bf af73 	bge.w	83fb4 <_dtoa_r+0x53c>
   840ce:	9f02      	ldr	r7, [sp, #8]
   840d0:	4649      	mov	r1, r9
   840d2:	2300      	movs	r3, #0
   840d4:	220a      	movs	r2, #10
   840d6:	4620      	mov	r0, r4
   840d8:	3f01      	subs	r7, #1
   840da:	9702      	str	r7, [sp, #8]
   840dc:	f000 ffb4 	bl	85048 <__multadd>
   840e0:	9b0b      	ldr	r3, [sp, #44]	; 0x2c
   840e2:	4681      	mov	r9, r0
   840e4:	2b00      	cmp	r3, #0
   840e6:	f040 83b5 	bne.w	84854 <_dtoa_r+0xddc>
   840ea:	9b0f      	ldr	r3, [sp, #60]	; 0x3c
   840ec:	2b00      	cmp	r3, #0
   840ee:	f340 83be 	ble.w	8486e <_dtoa_r+0xdf6>
   840f2:	9307      	str	r3, [sp, #28]
   840f4:	f8dd a010 	ldr.w	sl, [sp, #16]
   840f8:	9f07      	ldr	r7, [sp, #28]
   840fa:	4655      	mov	r5, sl
   840fc:	e006      	b.n	8410c <_dtoa_r+0x694>
   840fe:	4649      	mov	r1, r9
   84100:	2300      	movs	r3, #0
   84102:	220a      	movs	r2, #10
   84104:	4620      	mov	r0, r4
   84106:	f000 ff9f 	bl	85048 <__multadd>
   8410a:	4681      	mov	r9, r0
   8410c:	4641      	mov	r1, r8
   8410e:	4648      	mov	r0, r9
   84110:	f7ff fc1c 	bl	8394c <quorem>
   84114:	3030      	adds	r0, #48	; 0x30
   84116:	f805 0b01 	strb.w	r0, [r5], #1
   8411a:	eba5 030a 	sub.w	r3, r5, sl
   8411e:	42bb      	cmp	r3, r7
   84120:	dbed      	blt.n	840fe <_dtoa_r+0x686>
   84122:	9b04      	ldr	r3, [sp, #16]
   84124:	9a07      	ldr	r2, [sp, #28]
   84126:	4682      	mov	sl, r0
   84128:	2a01      	cmp	r2, #1
   8412a:	bfac      	ite	ge
   8412c:	189b      	addge	r3, r3, r2
   8412e:	3301      	addlt	r3, #1
   84130:	f04f 0b00 	mov.w	fp, #0
   84134:	461d      	mov	r5, r3
   84136:	4649      	mov	r1, r9
   84138:	2201      	movs	r2, #1
   8413a:	4620      	mov	r0, r4
   8413c:	f001 f902 	bl	85344 <__lshift>
   84140:	4641      	mov	r1, r8
   84142:	4681      	mov	r9, r0
   84144:	f001 f94e 	bl	853e4 <__mcmp>
   84148:	2800      	cmp	r0, #0
   8414a:	f340 823f 	ble.w	845cc <_dtoa_r+0xb54>
   8414e:	f815 2c01 	ldrb.w	r2, [r5, #-1]
   84152:	1e6b      	subs	r3, r5, #1
   84154:	9904      	ldr	r1, [sp, #16]
   84156:	e004      	b.n	84162 <_dtoa_r+0x6ea>
   84158:	428b      	cmp	r3, r1
   8415a:	f000 81ae 	beq.w	844ba <_dtoa_r+0xa42>
   8415e:	f813 2d01 	ldrb.w	r2, [r3, #-1]!
   84162:	2a39      	cmp	r2, #57	; 0x39
   84164:	f103 0501 	add.w	r5, r3, #1
   84168:	d0f6      	beq.n	84158 <_dtoa_r+0x6e0>
   8416a:	3201      	adds	r2, #1
   8416c:	701a      	strb	r2, [r3, #0]
   8416e:	4641      	mov	r1, r8
   84170:	4620      	mov	r0, r4
   84172:	f000 ff5f 	bl	85034 <_Bfree>
   84176:	2e00      	cmp	r6, #0
   84178:	f43f ae3d 	beq.w	83df6 <_dtoa_r+0x37e>
   8417c:	f1bb 0f00 	cmp.w	fp, #0
   84180:	d005      	beq.n	8418e <_dtoa_r+0x716>
   84182:	45b3      	cmp	fp, r6
   84184:	d003      	beq.n	8418e <_dtoa_r+0x716>
   84186:	4659      	mov	r1, fp
   84188:	4620      	mov	r0, r4
   8418a:	f000 ff53 	bl	85034 <_Bfree>
   8418e:	4631      	mov	r1, r6
   84190:	4620      	mov	r0, r4
   84192:	f000 ff4f 	bl	85034 <_Bfree>
   84196:	e62e      	b.n	83df6 <_dtoa_r+0x37e>
   84198:	2300      	movs	r3, #0
   8419a:	930b      	str	r3, [sp, #44]	; 0x2c
   8419c:	9b02      	ldr	r3, [sp, #8]
   8419e:	9a25      	ldr	r2, [sp, #148]	; 0x94
   841a0:	4413      	add	r3, r2
   841a2:	930f      	str	r3, [sp, #60]	; 0x3c
   841a4:	3301      	adds	r3, #1
   841a6:	2b01      	cmp	r3, #1
   841a8:	461f      	mov	r7, r3
   841aa:	461e      	mov	r6, r3
   841ac:	bfb8      	it	lt
   841ae:	2701      	movlt	r7, #1
   841b0:	9307      	str	r3, [sp, #28]
   841b2:	2100      	movs	r1, #0
   841b4:	2f17      	cmp	r7, #23
   841b6:	6461      	str	r1, [r4, #68]	; 0x44
   841b8:	d90a      	bls.n	841d0 <_dtoa_r+0x758>
   841ba:	2201      	movs	r2, #1
   841bc:	2304      	movs	r3, #4
   841be:	005b      	lsls	r3, r3, #1
   841c0:	f103 0014 	add.w	r0, r3, #20
   841c4:	4287      	cmp	r7, r0
   841c6:	4611      	mov	r1, r2
   841c8:	f102 0201 	add.w	r2, r2, #1
   841cc:	d2f7      	bcs.n	841be <_dtoa_r+0x746>
   841ce:	6461      	str	r1, [r4, #68]	; 0x44
   841d0:	4620      	mov	r0, r4
   841d2:	f000 ff09 	bl	84fe8 <_Balloc>
   841d6:	2e0e      	cmp	r6, #14
   841d8:	9004      	str	r0, [sp, #16]
   841da:	6420      	str	r0, [r4, #64]	; 0x40
   841dc:	f63f ad47 	bhi.w	83c6e <_dtoa_r+0x1f6>
   841e0:	2d00      	cmp	r5, #0
   841e2:	f43f ad44 	beq.w	83c6e <_dtoa_r+0x1f6>
   841e6:	9902      	ldr	r1, [sp, #8]
   841e8:	e9cd ab10 	strd	sl, fp, [sp, #64]	; 0x40
   841ec:	2900      	cmp	r1, #0
   841ee:	f340 8203 	ble.w	845f8 <_dtoa_r+0xb80>
   841f2:	4bb9      	ldr	r3, [pc, #740]	; (844d8 <_dtoa_r+0xa60>)
   841f4:	f001 020f 	and.w	r2, r1, #15
   841f8:	110d      	asrs	r5, r1, #4
   841fa:	eb03 03c2 	add.w	r3, r3, r2, lsl #3
   841fe:	06e9      	lsls	r1, r5, #27
   84200:	e9d3 6700 	ldrd	r6, r7, [r3]
   84204:	f140 81af 	bpl.w	84566 <_dtoa_r+0xaee>
   84208:	4bb4      	ldr	r3, [pc, #720]	; (844dc <_dtoa_r+0xa64>)
   8420a:	4650      	mov	r0, sl
   8420c:	e9d3 2308 	ldrd	r2, r3, [r3, #32]
   84210:	4659      	mov	r1, fp
   84212:	f002 f95b 	bl	864cc <__aeabi_ddiv>
   84216:	f04f 0a03 	mov.w	sl, #3
   8421a:	e9cd 0112 	strd	r0, r1, [sp, #72]	; 0x48
   8421e:	f005 050f 	and.w	r5, r5, #15
   84222:	b18d      	cbz	r5, 84248 <_dtoa_r+0x7d0>
   84224:	f8df 82b4 	ldr.w	r8, [pc, #692]	; 844dc <_dtoa_r+0xa64>
   84228:	07ea      	lsls	r2, r5, #31
   8422a:	d509      	bpl.n	84240 <_dtoa_r+0x7c8>
   8422c:	e9d8 2300 	ldrd	r2, r3, [r8]
   84230:	4630      	mov	r0, r6
   84232:	4639      	mov	r1, r7
   84234:	f002 f820 	bl	86278 <__aeabi_dmul>
   84238:	4606      	mov	r6, r0
   8423a:	460f      	mov	r7, r1
   8423c:	f10a 0a01 	add.w	sl, sl, #1
   84240:	106d      	asrs	r5, r5, #1
   84242:	f108 0808 	add.w	r8, r8, #8
   84246:	d1ef      	bne.n	84228 <_dtoa_r+0x7b0>
   84248:	463b      	mov	r3, r7
   8424a:	e9dd 0112 	ldrd	r0, r1, [sp, #72]	; 0x48
   8424e:	4632      	mov	r2, r6
   84250:	f002 f93c 	bl	864cc <__aeabi_ddiv>
   84254:	4607      	mov	r7, r0
   84256:	4688      	mov	r8, r1
   84258:	9b0e      	ldr	r3, [sp, #56]	; 0x38
   8425a:	b143      	cbz	r3, 8426e <_dtoa_r+0x7f6>
   8425c:	2200      	movs	r2, #0
   8425e:	4ba0      	ldr	r3, [pc, #640]	; (844e0 <_dtoa_r+0xa68>)
   84260:	4638      	mov	r0, r7
   84262:	4641      	mov	r1, r8
   84264:	f002 fa7a 	bl	8675c <__aeabi_dcmplt>
   84268:	2800      	cmp	r0, #0
   8426a:	f040 8287 	bne.w	8477c <_dtoa_r+0xd04>
   8426e:	4650      	mov	r0, sl
   84270:	f001 ff9c 	bl	861ac <__aeabi_i2d>
   84274:	463a      	mov	r2, r7
   84276:	4643      	mov	r3, r8
   84278:	f001 fffe 	bl	86278 <__aeabi_dmul>
   8427c:	4b99      	ldr	r3, [pc, #612]	; (844e4 <_dtoa_r+0xa6c>)
   8427e:	2200      	movs	r2, #0
   84280:	f001 fe48 	bl	85f14 <__adddf3>
   84284:	9b07      	ldr	r3, [sp, #28]
   84286:	4605      	mov	r5, r0
   84288:	f1a1 7650 	sub.w	r6, r1, #54525952	; 0x3400000
   8428c:	2b00      	cmp	r3, #0
   8428e:	f000 813f 	beq.w	84510 <_dtoa_r+0xa98>
   84292:	9b02      	ldr	r3, [sp, #8]
   84294:	9315      	str	r3, [sp, #84]	; 0x54
   84296:	9b07      	ldr	r3, [sp, #28]
   84298:	9312      	str	r3, [sp, #72]	; 0x48
   8429a:	9b0b      	ldr	r3, [sp, #44]	; 0x2c
   8429c:	2b00      	cmp	r3, #0
   8429e:	f000 81fb 	beq.w	84698 <_dtoa_r+0xc20>
   842a2:	9a12      	ldr	r2, [sp, #72]	; 0x48
   842a4:	4b8c      	ldr	r3, [pc, #560]	; (844d8 <_dtoa_r+0xa60>)
   842a6:	2000      	movs	r0, #0
   842a8:	eb03 03c2 	add.w	r3, r3, r2, lsl #3
   842ac:	e953 2302 	ldrd	r2, r3, [r3, #-8]
   842b0:	498d      	ldr	r1, [pc, #564]	; (844e8 <_dtoa_r+0xa70>)
   842b2:	f002 f90b 	bl	864cc <__aeabi_ddiv>
   842b6:	462a      	mov	r2, r5
   842b8:	4633      	mov	r3, r6
   842ba:	f001 fe29 	bl	85f10 <__aeabi_dsub>
   842be:	4682      	mov	sl, r0
   842c0:	468b      	mov	fp, r1
   842c2:	4638      	mov	r0, r7
   842c4:	4641      	mov	r1, r8
   842c6:	f002 fa87 	bl	867d8 <__aeabi_d2iz>
   842ca:	4605      	mov	r5, r0
   842cc:	f001 ff6e 	bl	861ac <__aeabi_i2d>
   842d0:	4602      	mov	r2, r0
   842d2:	460b      	mov	r3, r1
   842d4:	4638      	mov	r0, r7
   842d6:	4641      	mov	r1, r8
   842d8:	f001 fe1a 	bl	85f10 <__aeabi_dsub>
   842dc:	3530      	adds	r5, #48	; 0x30
   842de:	fa5f f885 	uxtb.w	r8, r5
   842e2:	9d04      	ldr	r5, [sp, #16]
   842e4:	4606      	mov	r6, r0
   842e6:	460f      	mov	r7, r1
   842e8:	f885 8000 	strb.w	r8, [r5]
   842ec:	4602      	mov	r2, r0
   842ee:	460b      	mov	r3, r1
   842f0:	4650      	mov	r0, sl
   842f2:	4659      	mov	r1, fp
   842f4:	3501      	adds	r5, #1
   842f6:	f002 fa4f 	bl	86798 <__aeabi_dcmpgt>
   842fa:	2800      	cmp	r0, #0
   842fc:	d154      	bne.n	843a8 <_dtoa_r+0x930>
   842fe:	4632      	mov	r2, r6
   84300:	463b      	mov	r3, r7
   84302:	2000      	movs	r0, #0
   84304:	4976      	ldr	r1, [pc, #472]	; (844e0 <_dtoa_r+0xa68>)
   84306:	f001 fe03 	bl	85f10 <__aeabi_dsub>
   8430a:	4602      	mov	r2, r0
   8430c:	460b      	mov	r3, r1
   8430e:	4650      	mov	r0, sl
   84310:	4659      	mov	r1, fp
   84312:	f002 fa41 	bl	86798 <__aeabi_dcmpgt>
   84316:	2800      	cmp	r0, #0
   84318:	f040 8270 	bne.w	847fc <_dtoa_r+0xd84>
   8431c:	9a12      	ldr	r2, [sp, #72]	; 0x48
   8431e:	2a01      	cmp	r2, #1
   84320:	f000 8112 	beq.w	84548 <_dtoa_r+0xad0>
   84324:	9b12      	ldr	r3, [sp, #72]	; 0x48
   84326:	9a04      	ldr	r2, [sp, #16]
   84328:	f8cd 9048 	str.w	r9, [sp, #72]	; 0x48
   8432c:	4413      	add	r3, r2
   8432e:	4699      	mov	r9, r3
   84330:	e00f      	b.n	84352 <_dtoa_r+0x8da>
   84332:	4632      	mov	r2, r6
   84334:	463b      	mov	r3, r7
   84336:	2000      	movs	r0, #0
   84338:	4969      	ldr	r1, [pc, #420]	; (844e0 <_dtoa_r+0xa68>)
   8433a:	f001 fde9 	bl	85f10 <__aeabi_dsub>
   8433e:	4652      	mov	r2, sl
   84340:	465b      	mov	r3, fp
   84342:	f002 fa0b 	bl	8675c <__aeabi_dcmplt>
   84346:	2800      	cmp	r0, #0
   84348:	f040 8256 	bne.w	847f8 <_dtoa_r+0xd80>
   8434c:	454d      	cmp	r5, r9
   8434e:	f000 80f9 	beq.w	84544 <_dtoa_r+0xacc>
   84352:	4650      	mov	r0, sl
   84354:	4659      	mov	r1, fp
   84356:	2200      	movs	r2, #0
   84358:	4b64      	ldr	r3, [pc, #400]	; (844ec <_dtoa_r+0xa74>)
   8435a:	f001 ff8d 	bl	86278 <__aeabi_dmul>
   8435e:	2200      	movs	r2, #0
   84360:	4b62      	ldr	r3, [pc, #392]	; (844ec <_dtoa_r+0xa74>)
   84362:	4682      	mov	sl, r0
   84364:	468b      	mov	fp, r1
   84366:	4630      	mov	r0, r6
   84368:	4639      	mov	r1, r7
   8436a:	f001 ff85 	bl	86278 <__aeabi_dmul>
   8436e:	460f      	mov	r7, r1
   84370:	4606      	mov	r6, r0
   84372:	f002 fa31 	bl	867d8 <__aeabi_d2iz>
   84376:	4680      	mov	r8, r0
   84378:	f001 ff18 	bl	861ac <__aeabi_i2d>
   8437c:	4602      	mov	r2, r0
   8437e:	460b      	mov	r3, r1
   84380:	4630      	mov	r0, r6
   84382:	4639      	mov	r1, r7
   84384:	f001 fdc4 	bl	85f10 <__aeabi_dsub>
   84388:	f108 0830 	add.w	r8, r8, #48	; 0x30
   8438c:	fa5f f888 	uxtb.w	r8, r8
   84390:	f805 8b01 	strb.w	r8, [r5], #1
   84394:	4652      	mov	r2, sl
   84396:	465b      	mov	r3, fp
   84398:	4606      	mov	r6, r0
   8439a:	460f      	mov	r7, r1
   8439c:	f002 f9de 	bl	8675c <__aeabi_dcmplt>
   843a0:	2800      	cmp	r0, #0
   843a2:	d0c6      	beq.n	84332 <_dtoa_r+0x8ba>
   843a4:	f8dd 9048 	ldr.w	r9, [sp, #72]	; 0x48
   843a8:	9b15      	ldr	r3, [sp, #84]	; 0x54
   843aa:	9302      	str	r3, [sp, #8]
   843ac:	e523      	b.n	83df6 <_dtoa_r+0x37e>
   843ae:	2300      	movs	r3, #0
   843b0:	930b      	str	r3, [sp, #44]	; 0x2c
   843b2:	9b25      	ldr	r3, [sp, #148]	; 0x94
   843b4:	2b00      	cmp	r3, #0
   843b6:	f340 80dd 	ble.w	84574 <_dtoa_r+0xafc>
   843ba:	461f      	mov	r7, r3
   843bc:	461e      	mov	r6, r3
   843be:	930f      	str	r3, [sp, #60]	; 0x3c
   843c0:	9307      	str	r3, [sp, #28]
   843c2:	e6f6      	b.n	841b2 <_dtoa_r+0x73a>
   843c4:	2301      	movs	r3, #1
   843c6:	930b      	str	r3, [sp, #44]	; 0x2c
   843c8:	e7f3      	b.n	843b2 <_dtoa_r+0x93a>
   843ca:	f1ba 0f00 	cmp.w	sl, #0
   843ce:	f47f ada7 	bne.w	83f20 <_dtoa_r+0x4a8>
   843d2:	f3cb 0313 	ubfx	r3, fp, #0, #20
   843d6:	2b00      	cmp	r3, #0
   843d8:	f47f adbc 	bne.w	83f54 <_dtoa_r+0x4dc>
   843dc:	f02b 4700 	bic.w	r7, fp, #2147483648	; 0x80000000
   843e0:	0d3f      	lsrs	r7, r7, #20
   843e2:	053f      	lsls	r7, r7, #20
   843e4:	2f00      	cmp	r7, #0
   843e6:	f000 820d 	beq.w	84804 <_dtoa_r+0xd8c>
   843ea:	9b0a      	ldr	r3, [sp, #40]	; 0x28
   843ec:	3301      	adds	r3, #1
   843ee:	930a      	str	r3, [sp, #40]	; 0x28
   843f0:	9b08      	ldr	r3, [sp, #32]
   843f2:	3301      	adds	r3, #1
   843f4:	9308      	str	r3, [sp, #32]
   843f6:	2301      	movs	r3, #1
   843f8:	930c      	str	r3, [sp, #48]	; 0x30
   843fa:	e5ad      	b.n	83f58 <_dtoa_r+0x4e0>
   843fc:	9b07      	ldr	r3, [sp, #28]
   843fe:	2b00      	cmp	r3, #0
   84400:	f73f ac48 	bgt.w	83c94 <_dtoa_r+0x21c>
   84404:	f040 8222 	bne.w	8484c <_dtoa_r+0xdd4>
   84408:	e9dd 0108 	ldrd	r0, r1, [sp, #32]
   8440c:	2200      	movs	r2, #0
   8440e:	4b38      	ldr	r3, [pc, #224]	; (844f0 <_dtoa_r+0xa78>)
   84410:	f001 ff32 	bl	86278 <__aeabi_dmul>
   84414:	4652      	mov	r2, sl
   84416:	465b      	mov	r3, fp
   84418:	f002 f9b4 	bl	86784 <__aeabi_dcmpge>
   8441c:	f8dd 801c 	ldr.w	r8, [sp, #28]
   84420:	4646      	mov	r6, r8
   84422:	2800      	cmp	r0, #0
   84424:	d041      	beq.n	844aa <_dtoa_r+0xa32>
   84426:	9b25      	ldr	r3, [sp, #148]	; 0x94
   84428:	9d04      	ldr	r5, [sp, #16]
   8442a:	43db      	mvns	r3, r3
   8442c:	9302      	str	r3, [sp, #8]
   8442e:	4641      	mov	r1, r8
   84430:	4620      	mov	r0, r4
   84432:	f000 fdff 	bl	85034 <_Bfree>
   84436:	2e00      	cmp	r6, #0
   84438:	f43f acdd 	beq.w	83df6 <_dtoa_r+0x37e>
   8443c:	e6a7      	b.n	8418e <_dtoa_r+0x716>
   8443e:	9a0c      	ldr	r2, [sp, #48]	; 0x30
   84440:	4649      	mov	r1, r9
   84442:	4620      	mov	r0, r4
   84444:	f000 ff2e 	bl	852a4 <__pow5mult>
   84448:	4681      	mov	r9, r0
   8444a:	e557      	b.n	83efc <_dtoa_r+0x484>
   8444c:	9a14      	ldr	r2, [sp, #80]	; 0x50
   8444e:	2a00      	cmp	r2, #0
   84450:	f000 8188 	beq.w	84764 <_dtoa_r+0xcec>
   84454:	f203 4333 	addw	r3, r3, #1075	; 0x433
   84458:	9f0c      	ldr	r7, [sp, #48]	; 0x30
   8445a:	9d0a      	ldr	r5, [sp, #40]	; 0x28
   8445c:	e4f2      	b.n	83e44 <_dtoa_r+0x3cc>
   8445e:	f1ba 0f00 	cmp.w	sl, #0
   84462:	f47f ad77 	bne.w	83f54 <_dtoa_r+0x4dc>
   84466:	e7b4      	b.n	843d2 <_dtoa_r+0x95a>
   84468:	f000 fdee 	bl	85048 <__multadd>
   8446c:	4647      	mov	r7, r8
   8446e:	4606      	mov	r6, r0
   84470:	4683      	mov	fp, r0
   84472:	e5c0      	b.n	83ff6 <_dtoa_r+0x57e>
   84474:	4601      	mov	r1, r0
   84476:	4620      	mov	r0, r4
   84478:	9308      	str	r3, [sp, #32]
   8447a:	f000 fddb 	bl	85034 <_Bfree>
   8447e:	2201      	movs	r2, #1
   84480:	9b08      	ldr	r3, [sp, #32]
   84482:	e5e2      	b.n	8404a <_dtoa_r+0x5d2>
   84484:	9b24      	ldr	r3, [sp, #144]	; 0x90
   84486:	2b02      	cmp	r3, #2
   84488:	f77f ad98 	ble.w	83fbc <_dtoa_r+0x544>
   8448c:	9b07      	ldr	r3, [sp, #28]
   8448e:	2b00      	cmp	r3, #0
   84490:	d1c9      	bne.n	84426 <_dtoa_r+0x9ae>
   84492:	4641      	mov	r1, r8
   84494:	2205      	movs	r2, #5
   84496:	4620      	mov	r0, r4
   84498:	f000 fdd6 	bl	85048 <__multadd>
   8449c:	4601      	mov	r1, r0
   8449e:	4680      	mov	r8, r0
   844a0:	4648      	mov	r0, r9
   844a2:	f000 ff9f 	bl	853e4 <__mcmp>
   844a6:	2800      	cmp	r0, #0
   844a8:	ddbd      	ble.n	84426 <_dtoa_r+0x9ae>
   844aa:	2331      	movs	r3, #49	; 0x31
   844ac:	9a02      	ldr	r2, [sp, #8]
   844ae:	9904      	ldr	r1, [sp, #16]
   844b0:	3201      	adds	r2, #1
   844b2:	9202      	str	r2, [sp, #8]
   844b4:	700b      	strb	r3, [r1, #0]
   844b6:	1c4d      	adds	r5, r1, #1
   844b8:	e7b9      	b.n	8442e <_dtoa_r+0x9b6>
   844ba:	2331      	movs	r3, #49	; 0x31
   844bc:	9a02      	ldr	r2, [sp, #8]
   844be:	3201      	adds	r2, #1
   844c0:	9202      	str	r2, [sp, #8]
   844c2:	9a04      	ldr	r2, [sp, #16]
   844c4:	7013      	strb	r3, [r2, #0]
   844c6:	e652      	b.n	8416e <_dtoa_r+0x6f6>
   844c8:	2301      	movs	r3, #1
   844ca:	930b      	str	r3, [sp, #44]	; 0x2c
   844cc:	e666      	b.n	8419c <_dtoa_r+0x724>
   844ce:	f8dd 9028 	ldr.w	r9, [sp, #40]	; 0x28
   844d2:	9c0b      	ldr	r4, [sp, #44]	; 0x2c
   844d4:	e48f      	b.n	83df6 <_dtoa_r+0x37e>
   844d6:	bf00      	nop
   844d8:	00086ce8 	.word	0x00086ce8
   844dc:	00086cc0 	.word	0x00086cc0
   844e0:	3ff00000 	.word	0x3ff00000
   844e4:	401c0000 	.word	0x401c0000
   844e8:	3fe00000 	.word	0x3fe00000
   844ec:	40240000 	.word	0x40240000
   844f0:	40140000 	.word	0x40140000
   844f4:	4650      	mov	r0, sl
   844f6:	f001 fe59 	bl	861ac <__aeabi_i2d>
   844fa:	463a      	mov	r2, r7
   844fc:	4643      	mov	r3, r8
   844fe:	f001 febb 	bl	86278 <__aeabi_dmul>
   84502:	2200      	movs	r2, #0
   84504:	4bc1      	ldr	r3, [pc, #772]	; (8480c <_dtoa_r+0xd94>)
   84506:	f001 fd05 	bl	85f14 <__adddf3>
   8450a:	4605      	mov	r5, r0
   8450c:	f1a1 7650 	sub.w	r6, r1, #54525952	; 0x3400000
   84510:	4641      	mov	r1, r8
   84512:	2200      	movs	r2, #0
   84514:	4bbe      	ldr	r3, [pc, #760]	; (84810 <_dtoa_r+0xd98>)
   84516:	4638      	mov	r0, r7
   84518:	f001 fcfa 	bl	85f10 <__aeabi_dsub>
   8451c:	462a      	mov	r2, r5
   8451e:	4633      	mov	r3, r6
   84520:	4682      	mov	sl, r0
   84522:	468b      	mov	fp, r1
   84524:	f002 f938 	bl	86798 <__aeabi_dcmpgt>
   84528:	4680      	mov	r8, r0
   8452a:	2800      	cmp	r0, #0
   8452c:	f040 8110 	bne.w	84750 <_dtoa_r+0xcd8>
   84530:	462a      	mov	r2, r5
   84532:	f106 4300 	add.w	r3, r6, #2147483648	; 0x80000000
   84536:	4650      	mov	r0, sl
   84538:	4659      	mov	r1, fp
   8453a:	f002 f90f 	bl	8675c <__aeabi_dcmplt>
   8453e:	b118      	cbz	r0, 84548 <_dtoa_r+0xad0>
   84540:	4646      	mov	r6, r8
   84542:	e770      	b.n	84426 <_dtoa_r+0x9ae>
   84544:	f8dd 9048 	ldr.w	r9, [sp, #72]	; 0x48
   84548:	e9dd ab10 	ldrd	sl, fp, [sp, #64]	; 0x40
   8454c:	f7ff bb8f 	b.w	83c6e <_dtoa_r+0x1f6>
   84550:	9804      	ldr	r0, [sp, #16]
   84552:	f7ff bac0 	b.w	83ad6 <_dtoa_r+0x5e>
   84556:	9b0c      	ldr	r3, [sp, #48]	; 0x30
   84558:	9a0d      	ldr	r2, [sp, #52]	; 0x34
   8455a:	1afb      	subs	r3, r7, r3
   8455c:	441a      	add	r2, r3
   8455e:	970c      	str	r7, [sp, #48]	; 0x30
   84560:	920d      	str	r2, [sp, #52]	; 0x34
   84562:	2700      	movs	r7, #0
   84564:	e468      	b.n	83e38 <_dtoa_r+0x3c0>
   84566:	e9dd 2310 	ldrd	r2, r3, [sp, #64]	; 0x40
   8456a:	f04f 0a02 	mov.w	sl, #2
   8456e:	e9cd 2312 	strd	r2, r3, [sp, #72]	; 0x48
   84572:	e656      	b.n	84222 <_dtoa_r+0x7aa>
   84574:	2100      	movs	r1, #0
   84576:	2301      	movs	r3, #1
   84578:	4620      	mov	r0, r4
   8457a:	6461      	str	r1, [r4, #68]	; 0x44
   8457c:	9325      	str	r3, [sp, #148]	; 0x94
   8457e:	f000 fd33 	bl	84fe8 <_Balloc>
   84582:	9b25      	ldr	r3, [sp, #148]	; 0x94
   84584:	9004      	str	r0, [sp, #16]
   84586:	9307      	str	r3, [sp, #28]
   84588:	9b25      	ldr	r3, [sp, #148]	; 0x94
   8458a:	6420      	str	r0, [r4, #64]	; 0x40
   8458c:	930f      	str	r3, [sp, #60]	; 0x3c
   8458e:	e627      	b.n	841e0 <_dtoa_r+0x768>
   84590:	2a00      	cmp	r2, #0
   84592:	46d0      	mov	r8, sl
   84594:	f8cd b020 	str.w	fp, [sp, #32]
   84598:	469a      	mov	sl, r3
   8459a:	dd11      	ble.n	845c0 <_dtoa_r+0xb48>
   8459c:	4649      	mov	r1, r9
   8459e:	2201      	movs	r2, #1
   845a0:	4620      	mov	r0, r4
   845a2:	f000 fecf 	bl	85344 <__lshift>
   845a6:	4641      	mov	r1, r8
   845a8:	4681      	mov	r9, r0
   845aa:	f000 ff1b 	bl	853e4 <__mcmp>
   845ae:	2800      	cmp	r0, #0
   845b0:	f340 8145 	ble.w	8483e <_dtoa_r+0xdc6>
   845b4:	f1ba 0f39 	cmp.w	sl, #57	; 0x39
   845b8:	f000 8105 	beq.w	847c6 <_dtoa_r+0xd4e>
   845bc:	f105 0a31 	add.w	sl, r5, #49	; 0x31
   845c0:	46b3      	mov	fp, r6
   845c2:	f887 a000 	strb.w	sl, [r7]
   845c6:	1c7d      	adds	r5, r7, #1
   845c8:	9e08      	ldr	r6, [sp, #32]
   845ca:	e5d0      	b.n	8416e <_dtoa_r+0x6f6>
   845cc:	d104      	bne.n	845d8 <_dtoa_r+0xb60>
   845ce:	f01a 0f01 	tst.w	sl, #1
   845d2:	d001      	beq.n	845d8 <_dtoa_r+0xb60>
   845d4:	e5bb      	b.n	8414e <_dtoa_r+0x6d6>
   845d6:	4615      	mov	r5, r2
   845d8:	f815 3c01 	ldrb.w	r3, [r5, #-1]
   845dc:	1e6a      	subs	r2, r5, #1
   845de:	2b30      	cmp	r3, #48	; 0x30
   845e0:	d0f9      	beq.n	845d6 <_dtoa_r+0xb5e>
   845e2:	e5c4      	b.n	8416e <_dtoa_r+0x6f6>
   845e4:	2230      	movs	r2, #48	; 0x30
   845e6:	9904      	ldr	r1, [sp, #16]
   845e8:	700a      	strb	r2, [r1, #0]
   845ea:	9a02      	ldr	r2, [sp, #8]
   845ec:	f815 8c01 	ldrb.w	r8, [r5, #-1]
   845f0:	3201      	adds	r2, #1
   845f2:	9202      	str	r2, [sp, #8]
   845f4:	f7ff bbfb 	b.w	83dee <_dtoa_r+0x376>
   845f8:	f000 80bb 	beq.w	84772 <_dtoa_r+0xcfa>
   845fc:	e9dd 0110 	ldrd	r0, r1, [sp, #64]	; 0x40
   84600:	9b02      	ldr	r3, [sp, #8]
   84602:	f04f 0a02 	mov.w	sl, #2
   84606:	425d      	negs	r5, r3
   84608:	4b82      	ldr	r3, [pc, #520]	; (84814 <_dtoa_r+0xd9c>)
   8460a:	f005 020f 	and.w	r2, r5, #15
   8460e:	eb03 03c2 	add.w	r3, r3, r2, lsl #3
   84612:	e9d3 2300 	ldrd	r2, r3, [r3]
   84616:	f001 fe2f 	bl	86278 <__aeabi_dmul>
   8461a:	112d      	asrs	r5, r5, #4
   8461c:	4607      	mov	r7, r0
   8461e:	4688      	mov	r8, r1
   84620:	f43f ae1a 	beq.w	84258 <_dtoa_r+0x7e0>
   84624:	4e7c      	ldr	r6, [pc, #496]	; (84818 <_dtoa_r+0xda0>)
   84626:	07eb      	lsls	r3, r5, #31
   84628:	d509      	bpl.n	8463e <_dtoa_r+0xbc6>
   8462a:	e9d6 2300 	ldrd	r2, r3, [r6]
   8462e:	4638      	mov	r0, r7
   84630:	4641      	mov	r1, r8
   84632:	f001 fe21 	bl	86278 <__aeabi_dmul>
   84636:	4607      	mov	r7, r0
   84638:	4688      	mov	r8, r1
   8463a:	f10a 0a01 	add.w	sl, sl, #1
   8463e:	106d      	asrs	r5, r5, #1
   84640:	f106 0608 	add.w	r6, r6, #8
   84644:	d1ef      	bne.n	84626 <_dtoa_r+0xbae>
   84646:	e607      	b.n	84258 <_dtoa_r+0x7e0>
   84648:	6871      	ldr	r1, [r6, #4]
   8464a:	4620      	mov	r0, r4
   8464c:	f000 fccc 	bl	84fe8 <_Balloc>
   84650:	4605      	mov	r5, r0
   84652:	6933      	ldr	r3, [r6, #16]
   84654:	f106 010c 	add.w	r1, r6, #12
   84658:	3302      	adds	r3, #2
   8465a:	009a      	lsls	r2, r3, #2
   8465c:	300c      	adds	r0, #12
   8465e:	f000 fc41 	bl	84ee4 <memcpy>
   84662:	4629      	mov	r1, r5
   84664:	2201      	movs	r2, #1
   84666:	4620      	mov	r0, r4
   84668:	f000 fe6c 	bl	85344 <__lshift>
   8466c:	9008      	str	r0, [sp, #32]
   8466e:	e4b6      	b.n	83fde <_dtoa_r+0x566>
   84670:	2b39      	cmp	r3, #57	; 0x39
   84672:	f8cd b020 	str.w	fp, [sp, #32]
   84676:	46d0      	mov	r8, sl
   84678:	f000 80a5 	beq.w	847c6 <_dtoa_r+0xd4e>
   8467c:	f103 0a01 	add.w	sl, r3, #1
   84680:	46b3      	mov	fp, r6
   84682:	f887 a000 	strb.w	sl, [r7]
   84686:	1c7d      	adds	r5, r7, #1
   84688:	9e08      	ldr	r6, [sp, #32]
   8468a:	e570      	b.n	8416e <_dtoa_r+0x6f6>
   8468c:	465a      	mov	r2, fp
   8468e:	46d0      	mov	r8, sl
   84690:	46b3      	mov	fp, r6
   84692:	469a      	mov	sl, r3
   84694:	4616      	mov	r6, r2
   84696:	e54e      	b.n	84136 <_dtoa_r+0x6be>
   84698:	9812      	ldr	r0, [sp, #72]	; 0x48
   8469a:	495e      	ldr	r1, [pc, #376]	; (84814 <_dtoa_r+0xd9c>)
   8469c:	462a      	mov	r2, r5
   8469e:	eb01 01c0 	add.w	r1, r1, r0, lsl #3
   846a2:	4633      	mov	r3, r6
   846a4:	e951 0102 	ldrd	r0, r1, [r1, #-8]
   846a8:	f001 fde6 	bl	86278 <__aeabi_dmul>
   846ac:	e9cd 0116 	strd	r0, r1, [sp, #88]	; 0x58
   846b0:	4638      	mov	r0, r7
   846b2:	4641      	mov	r1, r8
   846b4:	f002 f890 	bl	867d8 <__aeabi_d2iz>
   846b8:	4605      	mov	r5, r0
   846ba:	f001 fd77 	bl	861ac <__aeabi_i2d>
   846be:	4602      	mov	r2, r0
   846c0:	460b      	mov	r3, r1
   846c2:	4638      	mov	r0, r7
   846c4:	4641      	mov	r1, r8
   846c6:	f001 fc23 	bl	85f10 <__aeabi_dsub>
   846ca:	4606      	mov	r6, r0
   846cc:	9812      	ldr	r0, [sp, #72]	; 0x48
   846ce:	9a04      	ldr	r2, [sp, #16]
   846d0:	3530      	adds	r5, #48	; 0x30
   846d2:	2801      	cmp	r0, #1
   846d4:	7015      	strb	r5, [r2, #0]
   846d6:	460f      	mov	r7, r1
   846d8:	f102 0501 	add.w	r5, r2, #1
   846dc:	d026      	beq.n	8472c <_dtoa_r+0xcb4>
   846de:	9b12      	ldr	r3, [sp, #72]	; 0x48
   846e0:	9a04      	ldr	r2, [sp, #16]
   846e2:	f8cd 9048 	str.w	r9, [sp, #72]	; 0x48
   846e6:	4413      	add	r3, r2
   846e8:	f04f 0a00 	mov.w	sl, #0
   846ec:	4699      	mov	r9, r3
   846ee:	f8df b130 	ldr.w	fp, [pc, #304]	; 84820 <_dtoa_r+0xda8>
   846f2:	4652      	mov	r2, sl
   846f4:	465b      	mov	r3, fp
   846f6:	4630      	mov	r0, r6
   846f8:	4639      	mov	r1, r7
   846fa:	f001 fdbd 	bl	86278 <__aeabi_dmul>
   846fe:	460f      	mov	r7, r1
   84700:	4606      	mov	r6, r0
   84702:	f002 f869 	bl	867d8 <__aeabi_d2iz>
   84706:	4680      	mov	r8, r0
   84708:	f001 fd50 	bl	861ac <__aeabi_i2d>
   8470c:	4602      	mov	r2, r0
   8470e:	460b      	mov	r3, r1
   84710:	4630      	mov	r0, r6
   84712:	4639      	mov	r1, r7
   84714:	f001 fbfc 	bl	85f10 <__aeabi_dsub>
   84718:	f108 0830 	add.w	r8, r8, #48	; 0x30
   8471c:	f805 8b01 	strb.w	r8, [r5], #1
   84720:	454d      	cmp	r5, r9
   84722:	4606      	mov	r6, r0
   84724:	460f      	mov	r7, r1
   84726:	d1e4      	bne.n	846f2 <_dtoa_r+0xc7a>
   84728:	f8dd 9048 	ldr.w	r9, [sp, #72]	; 0x48
   8472c:	2200      	movs	r2, #0
   8472e:	e9dd 0116 	ldrd	r0, r1, [sp, #88]	; 0x58
   84732:	4b3a      	ldr	r3, [pc, #232]	; (8481c <_dtoa_r+0xda4>)
   84734:	f001 fbee 	bl	85f14 <__adddf3>
   84738:	4632      	mov	r2, r6
   8473a:	463b      	mov	r3, r7
   8473c:	f002 f80e 	bl	8675c <__aeabi_dcmplt>
   84740:	2800      	cmp	r0, #0
   84742:	d046      	beq.n	847d2 <_dtoa_r+0xd5a>
   84744:	9b15      	ldr	r3, [sp, #84]	; 0x54
   84746:	9302      	str	r3, [sp, #8]
   84748:	f815 8c01 	ldrb.w	r8, [r5, #-1]
   8474c:	f7ff bb42 	b.w	83dd4 <_dtoa_r+0x35c>
   84750:	f04f 0800 	mov.w	r8, #0
   84754:	4646      	mov	r6, r8
   84756:	e6a8      	b.n	844aa <_dtoa_r+0xa32>
   84758:	9b0a      	ldr	r3, [sp, #40]	; 0x28
   8475a:	9a07      	ldr	r2, [sp, #28]
   8475c:	1a9d      	subs	r5, r3, r2
   8475e:	2300      	movs	r3, #0
   84760:	f7ff bb70 	b.w	83e44 <_dtoa_r+0x3cc>
   84764:	9b18      	ldr	r3, [sp, #96]	; 0x60
   84766:	9f0c      	ldr	r7, [sp, #48]	; 0x30
   84768:	f1c3 0336 	rsb	r3, r3, #54	; 0x36
   8476c:	9d0a      	ldr	r5, [sp, #40]	; 0x28
   8476e:	f7ff bb69 	b.w	83e44 <_dtoa_r+0x3cc>
   84772:	e9dd 7810 	ldrd	r7, r8, [sp, #64]	; 0x40
   84776:	f04f 0a02 	mov.w	sl, #2
   8477a:	e56d      	b.n	84258 <_dtoa_r+0x7e0>
   8477c:	9b07      	ldr	r3, [sp, #28]
   8477e:	2b00      	cmp	r3, #0
   84780:	f43f aeb8 	beq.w	844f4 <_dtoa_r+0xa7c>
   84784:	9b0f      	ldr	r3, [sp, #60]	; 0x3c
   84786:	2b00      	cmp	r3, #0
   84788:	f77f aede 	ble.w	84548 <_dtoa_r+0xad0>
   8478c:	2200      	movs	r2, #0
   8478e:	4b24      	ldr	r3, [pc, #144]	; (84820 <_dtoa_r+0xda8>)
   84790:	4638      	mov	r0, r7
   84792:	4641      	mov	r1, r8
   84794:	f001 fd70 	bl	86278 <__aeabi_dmul>
   84798:	4607      	mov	r7, r0
   8479a:	4688      	mov	r8, r1
   8479c:	f10a 0001 	add.w	r0, sl, #1
   847a0:	f001 fd04 	bl	861ac <__aeabi_i2d>
   847a4:	463a      	mov	r2, r7
   847a6:	4643      	mov	r3, r8
   847a8:	f001 fd66 	bl	86278 <__aeabi_dmul>
   847ac:	2200      	movs	r2, #0
   847ae:	4b17      	ldr	r3, [pc, #92]	; (8480c <_dtoa_r+0xd94>)
   847b0:	f001 fbb0 	bl	85f14 <__adddf3>
   847b4:	9a02      	ldr	r2, [sp, #8]
   847b6:	9b0f      	ldr	r3, [sp, #60]	; 0x3c
   847b8:	3a01      	subs	r2, #1
   847ba:	4605      	mov	r5, r0
   847bc:	9215      	str	r2, [sp, #84]	; 0x54
   847be:	f1a1 7650 	sub.w	r6, r1, #54525952	; 0x3400000
   847c2:	9312      	str	r3, [sp, #72]	; 0x48
   847c4:	e569      	b.n	8429a <_dtoa_r+0x822>
   847c6:	2239      	movs	r2, #57	; 0x39
   847c8:	46b3      	mov	fp, r6
   847ca:	703a      	strb	r2, [r7, #0]
   847cc:	9e08      	ldr	r6, [sp, #32]
   847ce:	1c7d      	adds	r5, r7, #1
   847d0:	e4bf      	b.n	84152 <_dtoa_r+0x6da>
   847d2:	e9dd 2316 	ldrd	r2, r3, [sp, #88]	; 0x58
   847d6:	2000      	movs	r0, #0
   847d8:	4910      	ldr	r1, [pc, #64]	; (8481c <_dtoa_r+0xda4>)
   847da:	f001 fb99 	bl	85f10 <__aeabi_dsub>
   847de:	4632      	mov	r2, r6
   847e0:	463b      	mov	r3, r7
   847e2:	f001 ffd9 	bl	86798 <__aeabi_dcmpgt>
   847e6:	b908      	cbnz	r0, 847ec <_dtoa_r+0xd74>
   847e8:	e6ae      	b.n	84548 <_dtoa_r+0xad0>
   847ea:	4615      	mov	r5, r2
   847ec:	f815 3c01 	ldrb.w	r3, [r5, #-1]
   847f0:	1e6a      	subs	r2, r5, #1
   847f2:	2b30      	cmp	r3, #48	; 0x30
   847f4:	d0f9      	beq.n	847ea <_dtoa_r+0xd72>
   847f6:	e5d7      	b.n	843a8 <_dtoa_r+0x930>
   847f8:	f8dd 9048 	ldr.w	r9, [sp, #72]	; 0x48
   847fc:	9b15      	ldr	r3, [sp, #84]	; 0x54
   847fe:	9302      	str	r3, [sp, #8]
   84800:	f7ff bae8 	b.w	83dd4 <_dtoa_r+0x35c>
   84804:	970c      	str	r7, [sp, #48]	; 0x30
   84806:	f7ff bba7 	b.w	83f58 <_dtoa_r+0x4e0>
   8480a:	bf00      	nop
   8480c:	401c0000 	.word	0x401c0000
   84810:	40140000 	.word	0x40140000
   84814:	00086ce8 	.word	0x00086ce8
   84818:	00086cc0 	.word	0x00086cc0
   8481c:	3fe00000 	.word	0x3fe00000
   84820:	40240000 	.word	0x40240000
   84824:	2b39      	cmp	r3, #57	; 0x39
   84826:	f8cd b020 	str.w	fp, [sp, #32]
   8482a:	46d0      	mov	r8, sl
   8482c:	f8dd b01c 	ldr.w	fp, [sp, #28]
   84830:	469a      	mov	sl, r3
   84832:	d0c8      	beq.n	847c6 <_dtoa_r+0xd4e>
   84834:	f1bb 0f00 	cmp.w	fp, #0
   84838:	f73f aec0 	bgt.w	845bc <_dtoa_r+0xb44>
   8483c:	e6c0      	b.n	845c0 <_dtoa_r+0xb48>
   8483e:	f47f aebf 	bne.w	845c0 <_dtoa_r+0xb48>
   84842:	f01a 0f01 	tst.w	sl, #1
   84846:	f43f aebb 	beq.w	845c0 <_dtoa_r+0xb48>
   8484a:	e6b3      	b.n	845b4 <_dtoa_r+0xb3c>
   8484c:	f04f 0800 	mov.w	r8, #0
   84850:	4646      	mov	r6, r8
   84852:	e5e8      	b.n	84426 <_dtoa_r+0x9ae>
   84854:	4631      	mov	r1, r6
   84856:	2300      	movs	r3, #0
   84858:	220a      	movs	r2, #10
   8485a:	4620      	mov	r0, r4
   8485c:	f000 fbf4 	bl	85048 <__multadd>
   84860:	9b0f      	ldr	r3, [sp, #60]	; 0x3c
   84862:	4606      	mov	r6, r0
   84864:	2b00      	cmp	r3, #0
   84866:	dd07      	ble.n	84878 <_dtoa_r+0xe00>
   84868:	9307      	str	r3, [sp, #28]
   8486a:	f7ff bbab 	b.w	83fc4 <_dtoa_r+0x54c>
   8486e:	9b24      	ldr	r3, [sp, #144]	; 0x90
   84870:	2b02      	cmp	r3, #2
   84872:	dc1f      	bgt.n	848b4 <_dtoa_r+0xe3c>
   84874:	9b0f      	ldr	r3, [sp, #60]	; 0x3c
   84876:	e43c      	b.n	840f2 <_dtoa_r+0x67a>
   84878:	9b24      	ldr	r3, [sp, #144]	; 0x90
   8487a:	2b02      	cmp	r3, #2
   8487c:	dc1a      	bgt.n	848b4 <_dtoa_r+0xe3c>
   8487e:	9b0f      	ldr	r3, [sp, #60]	; 0x3c
   84880:	e7f2      	b.n	84868 <_dtoa_r+0xdf0>
   84882:	f43f ab81 	beq.w	83f88 <_dtoa_r+0x510>
   84886:	f1c0 003c 	rsb	r0, r0, #60	; 0x3c
   8488a:	e411      	b.n	840b0 <_dtoa_r+0x638>
   8488c:	2500      	movs	r5, #0
   8488e:	4620      	mov	r0, r4
   84890:	6465      	str	r5, [r4, #68]	; 0x44
   84892:	4629      	mov	r1, r5
   84894:	f000 fba8 	bl	84fe8 <_Balloc>
   84898:	f04f 33ff 	mov.w	r3, #4294967295
   8489c:	9307      	str	r3, [sp, #28]
   8489e:	930f      	str	r3, [sp, #60]	; 0x3c
   848a0:	2301      	movs	r3, #1
   848a2:	9004      	str	r0, [sp, #16]
   848a4:	9525      	str	r5, [sp, #148]	; 0x94
   848a6:	6420      	str	r0, [r4, #64]	; 0x40
   848a8:	930b      	str	r3, [sp, #44]	; 0x2c
   848aa:	f7ff b9e0 	b.w	83c6e <_dtoa_r+0x1f6>
   848ae:	2501      	movs	r5, #1
   848b0:	f7ff b9a8 	b.w	83c04 <_dtoa_r+0x18c>
   848b4:	9b0f      	ldr	r3, [sp, #60]	; 0x3c
   848b6:	9307      	str	r3, [sp, #28]
   848b8:	e5e8      	b.n	8448c <_dtoa_r+0xa14>
   848ba:	bf00      	nop

000848bc <__libc_fini_array>:
   848bc:	b538      	push	{r3, r4, r5, lr}
   848be:	4c0a      	ldr	r4, [pc, #40]	; (848e8 <__libc_fini_array+0x2c>)
   848c0:	4d0a      	ldr	r5, [pc, #40]	; (848ec <__libc_fini_array+0x30>)
   848c2:	1b64      	subs	r4, r4, r5
   848c4:	10a4      	asrs	r4, r4, #2
   848c6:	d00a      	beq.n	848de <__libc_fini_array+0x22>
   848c8:	f104 4380 	add.w	r3, r4, #1073741824	; 0x40000000
   848cc:	3b01      	subs	r3, #1
   848ce:	eb05 0583 	add.w	r5, r5, r3, lsl #2
   848d2:	3c01      	subs	r4, #1
   848d4:	f855 3904 	ldr.w	r3, [r5], #-4
   848d8:	4798      	blx	r3
   848da:	2c00      	cmp	r4, #0
   848dc:	d1f9      	bne.n	848d2 <__libc_fini_array+0x16>
   848de:	e8bd 4038 	ldmia.w	sp!, {r3, r4, r5, lr}
   848e2:	f002 baff 	b.w	86ee4 <_fini>
   848e6:	bf00      	nop
   848e8:	00086ef4 	.word	0x00086ef4
   848ec:	00086ef0 	.word	0x00086ef0

000848f0 <_localeconv_r>:
   848f0:	4a04      	ldr	r2, [pc, #16]	; (84904 <_localeconv_r+0x14>)
   848f2:	4b05      	ldr	r3, [pc, #20]	; (84908 <_localeconv_r+0x18>)
   848f4:	6812      	ldr	r2, [r2, #0]
   848f6:	6b50      	ldr	r0, [r2, #52]	; 0x34
   848f8:	2800      	cmp	r0, #0
   848fa:	bf08      	it	eq
   848fc:	4618      	moveq	r0, r3
   848fe:	30f0      	adds	r0, #240	; 0xf0
   84900:	4770      	bx	lr
   84902:	bf00      	nop
   84904:	2007019c 	.word	0x2007019c
   84908:	200709dc 	.word	0x200709dc

0008490c <__retarget_lock_acquire_recursive>:
   8490c:	4770      	bx	lr
   8490e:	bf00      	nop

00084910 <__retarget_lock_release_recursive>:
   84910:	4770      	bx	lr
   84912:	bf00      	nop

00084914 <_malloc_r>:
   84914:	e92d 4ff0 	stmdb	sp!, {r4, r5, r6, r7, r8, r9, sl, fp, lr}
   84918:	f101 060b 	add.w	r6, r1, #11
   8491c:	2e16      	cmp	r6, #22
   8491e:	b083      	sub	sp, #12
   84920:	4605      	mov	r5, r0
   84922:	f240 809e 	bls.w	84a62 <_malloc_r+0x14e>
   84926:	f036 0607 	bics.w	r6, r6, #7
   8492a:	f100 80bd 	bmi.w	84aa8 <_malloc_r+0x194>
   8492e:	42b1      	cmp	r1, r6
   84930:	f200 80ba 	bhi.w	84aa8 <_malloc_r+0x194>
   84934:	f000 fb4c 	bl	84fd0 <__malloc_lock>
   84938:	f5b6 7ffc 	cmp.w	r6, #504	; 0x1f8
   8493c:	f0c0 8285 	bcc.w	84e4a <_malloc_r+0x536>
   84940:	0a73      	lsrs	r3, r6, #9
   84942:	f000 80b8 	beq.w	84ab6 <_malloc_r+0x1a2>
   84946:	2b04      	cmp	r3, #4
   84948:	f200 816c 	bhi.w	84c24 <_malloc_r+0x310>
   8494c:	09b3      	lsrs	r3, r6, #6
   8494e:	f103 0039 	add.w	r0, r3, #57	; 0x39
   84952:	f103 0e38 	add.w	lr, r3, #56	; 0x38
   84956:	00c1      	lsls	r1, r0, #3
   84958:	4fb8      	ldr	r7, [pc, #736]	; (84c3c <_malloc_r+0x328>)
   8495a:	4439      	add	r1, r7
   8495c:	684c      	ldr	r4, [r1, #4]
   8495e:	3908      	subs	r1, #8
   84960:	42a1      	cmp	r1, r4
   84962:	d106      	bne.n	84972 <_malloc_r+0x5e>
   84964:	e00c      	b.n	84980 <_malloc_r+0x6c>
   84966:	2a00      	cmp	r2, #0
   84968:	f280 80ab 	bge.w	84ac2 <_malloc_r+0x1ae>
   8496c:	68e4      	ldr	r4, [r4, #12]
   8496e:	42a1      	cmp	r1, r4
   84970:	d006      	beq.n	84980 <_malloc_r+0x6c>
   84972:	6863      	ldr	r3, [r4, #4]
   84974:	f023 0303 	bic.w	r3, r3, #3
   84978:	1b9a      	subs	r2, r3, r6
   8497a:	2a0f      	cmp	r2, #15
   8497c:	ddf3      	ble.n	84966 <_malloc_r+0x52>
   8497e:	4670      	mov	r0, lr
   84980:	693c      	ldr	r4, [r7, #16]
   84982:	f8df e2cc 	ldr.w	lr, [pc, #716]	; 84c50 <_malloc_r+0x33c>
   84986:	4574      	cmp	r4, lr
   84988:	f000 819e 	beq.w	84cc8 <_malloc_r+0x3b4>
   8498c:	6863      	ldr	r3, [r4, #4]
   8498e:	f023 0303 	bic.w	r3, r3, #3
   84992:	1b9a      	subs	r2, r3, r6
   84994:	2a0f      	cmp	r2, #15
   84996:	f300 8183 	bgt.w	84ca0 <_malloc_r+0x38c>
   8499a:	2a00      	cmp	r2, #0
   8499c:	f8c7 e014 	str.w	lr, [r7, #20]
   849a0:	f8c7 e010 	str.w	lr, [r7, #16]
   849a4:	f280 8091 	bge.w	84aca <_malloc_r+0x1b6>
   849a8:	f5b3 7f00 	cmp.w	r3, #512	; 0x200
   849ac:	f080 8154 	bcs.w	84c58 <_malloc_r+0x344>
   849b0:	2201      	movs	r2, #1
   849b2:	08db      	lsrs	r3, r3, #3
   849b4:	6879      	ldr	r1, [r7, #4]
   849b6:	ea4f 0ca3 	mov.w	ip, r3, asr #2
   849ba:	4413      	add	r3, r2
   849bc:	f857 8033 	ldr.w	r8, [r7, r3, lsl #3]
   849c0:	fa02 f20c 	lsl.w	r2, r2, ip
   849c4:	eb07 0cc3 	add.w	ip, r7, r3, lsl #3
   849c8:	430a      	orrs	r2, r1
   849ca:	f1ac 0108 	sub.w	r1, ip, #8
   849ce:	60e1      	str	r1, [r4, #12]
   849d0:	f8c4 8008 	str.w	r8, [r4, #8]
   849d4:	607a      	str	r2, [r7, #4]
   849d6:	f847 4033 	str.w	r4, [r7, r3, lsl #3]
   849da:	f8c8 400c 	str.w	r4, [r8, #12]
   849de:	2401      	movs	r4, #1
   849e0:	1083      	asrs	r3, r0, #2
   849e2:	409c      	lsls	r4, r3
   849e4:	4294      	cmp	r4, r2
   849e6:	d87d      	bhi.n	84ae4 <_malloc_r+0x1d0>
   849e8:	4214      	tst	r4, r2
   849ea:	d106      	bne.n	849fa <_malloc_r+0xe6>
   849ec:	f020 0003 	bic.w	r0, r0, #3
   849f0:	0064      	lsls	r4, r4, #1
   849f2:	4214      	tst	r4, r2
   849f4:	f100 0004 	add.w	r0, r0, #4
   849f8:	d0fa      	beq.n	849f0 <_malloc_r+0xdc>
   849fa:	eb07 09c0 	add.w	r9, r7, r0, lsl #3
   849fe:	46cc      	mov	ip, r9
   84a00:	4680      	mov	r8, r0
   84a02:	f8dc 300c 	ldr.w	r3, [ip, #12]
   84a06:	459c      	cmp	ip, r3
   84a08:	d107      	bne.n	84a1a <_malloc_r+0x106>
   84a0a:	e15f      	b.n	84ccc <_malloc_r+0x3b8>
   84a0c:	2a00      	cmp	r2, #0
   84a0e:	f280 816d 	bge.w	84cec <_malloc_r+0x3d8>
   84a12:	68db      	ldr	r3, [r3, #12]
   84a14:	459c      	cmp	ip, r3
   84a16:	f000 8159 	beq.w	84ccc <_malloc_r+0x3b8>
   84a1a:	6859      	ldr	r1, [r3, #4]
   84a1c:	f021 0103 	bic.w	r1, r1, #3
   84a20:	1b8a      	subs	r2, r1, r6
   84a22:	2a0f      	cmp	r2, #15
   84a24:	ddf2      	ble.n	84a0c <_malloc_r+0xf8>
   84a26:	68dc      	ldr	r4, [r3, #12]
   84a28:	f8d3 c008 	ldr.w	ip, [r3, #8]
   84a2c:	f046 0801 	orr.w	r8, r6, #1
   84a30:	4628      	mov	r0, r5
   84a32:	441e      	add	r6, r3
   84a34:	f042 0501 	orr.w	r5, r2, #1
   84a38:	f8c3 8004 	str.w	r8, [r3, #4]
   84a3c:	f8cc 400c 	str.w	r4, [ip, #12]
   84a40:	f8c4 c008 	str.w	ip, [r4, #8]
   84a44:	617e      	str	r6, [r7, #20]
   84a46:	613e      	str	r6, [r7, #16]
   84a48:	f8c6 e00c 	str.w	lr, [r6, #12]
   84a4c:	f8c6 e008 	str.w	lr, [r6, #8]
   84a50:	6075      	str	r5, [r6, #4]
   84a52:	505a      	str	r2, [r3, r1]
   84a54:	9300      	str	r3, [sp, #0]
   84a56:	f000 fac1 	bl	84fdc <__malloc_unlock>
   84a5a:	9b00      	ldr	r3, [sp, #0]
   84a5c:	f103 0408 	add.w	r4, r3, #8
   84a60:	e01e      	b.n	84aa0 <_malloc_r+0x18c>
   84a62:	2910      	cmp	r1, #16
   84a64:	d820      	bhi.n	84aa8 <_malloc_r+0x194>
   84a66:	f000 fab3 	bl	84fd0 <__malloc_lock>
   84a6a:	2610      	movs	r6, #16
   84a6c:	2318      	movs	r3, #24
   84a6e:	2002      	movs	r0, #2
   84a70:	4f72      	ldr	r7, [pc, #456]	; (84c3c <_malloc_r+0x328>)
   84a72:	443b      	add	r3, r7
   84a74:	685c      	ldr	r4, [r3, #4]
   84a76:	f1a3 0208 	sub.w	r2, r3, #8
   84a7a:	4294      	cmp	r4, r2
   84a7c:	f000 812f 	beq.w	84cde <_malloc_r+0x3ca>
   84a80:	6863      	ldr	r3, [r4, #4]
   84a82:	68e1      	ldr	r1, [r4, #12]
   84a84:	f023 0303 	bic.w	r3, r3, #3
   84a88:	4423      	add	r3, r4
   84a8a:	685a      	ldr	r2, [r3, #4]
   84a8c:	68a6      	ldr	r6, [r4, #8]
   84a8e:	f042 0201 	orr.w	r2, r2, #1
   84a92:	60f1      	str	r1, [r6, #12]
   84a94:	4628      	mov	r0, r5
   84a96:	608e      	str	r6, [r1, #8]
   84a98:	605a      	str	r2, [r3, #4]
   84a9a:	f000 fa9f 	bl	84fdc <__malloc_unlock>
   84a9e:	3408      	adds	r4, #8
   84aa0:	4620      	mov	r0, r4
   84aa2:	b003      	add	sp, #12
   84aa4:	e8bd 8ff0 	ldmia.w	sp!, {r4, r5, r6, r7, r8, r9, sl, fp, pc}
   84aa8:	2400      	movs	r4, #0
   84aaa:	230c      	movs	r3, #12
   84aac:	4620      	mov	r0, r4
   84aae:	602b      	str	r3, [r5, #0]
   84ab0:	b003      	add	sp, #12
   84ab2:	e8bd 8ff0 	ldmia.w	sp!, {r4, r5, r6, r7, r8, r9, sl, fp, pc}
   84ab6:	2040      	movs	r0, #64	; 0x40
   84ab8:	f44f 7100 	mov.w	r1, #512	; 0x200
   84abc:	f04f 0e3f 	mov.w	lr, #63	; 0x3f
   84ac0:	e74a      	b.n	84958 <_malloc_r+0x44>
   84ac2:	4423      	add	r3, r4
   84ac4:	685a      	ldr	r2, [r3, #4]
   84ac6:	68e1      	ldr	r1, [r4, #12]
   84ac8:	e7e0      	b.n	84a8c <_malloc_r+0x178>
   84aca:	4423      	add	r3, r4
   84acc:	685a      	ldr	r2, [r3, #4]
   84ace:	4628      	mov	r0, r5
   84ad0:	f042 0201 	orr.w	r2, r2, #1
   84ad4:	605a      	str	r2, [r3, #4]
   84ad6:	3408      	adds	r4, #8
   84ad8:	f000 fa80 	bl	84fdc <__malloc_unlock>
   84adc:	4620      	mov	r0, r4
   84ade:	b003      	add	sp, #12
   84ae0:	e8bd 8ff0 	ldmia.w	sp!, {r4, r5, r6, r7, r8, r9, sl, fp, pc}
   84ae4:	68bc      	ldr	r4, [r7, #8]
   84ae6:	6863      	ldr	r3, [r4, #4]
   84ae8:	f023 0803 	bic.w	r8, r3, #3
   84aec:	45b0      	cmp	r8, r6
   84aee:	d304      	bcc.n	84afa <_malloc_r+0x1e6>
   84af0:	eba8 0306 	sub.w	r3, r8, r6
   84af4:	2b0f      	cmp	r3, #15
   84af6:	f300 8085 	bgt.w	84c04 <_malloc_r+0x2f0>
   84afa:	f8df 9158 	ldr.w	r9, [pc, #344]	; 84c54 <_malloc_r+0x340>
   84afe:	4b50      	ldr	r3, [pc, #320]	; (84c40 <_malloc_r+0x32c>)
   84b00:	f8d9 2000 	ldr.w	r2, [r9]
   84b04:	681b      	ldr	r3, [r3, #0]
   84b06:	3201      	adds	r2, #1
   84b08:	4433      	add	r3, r6
   84b0a:	eb04 0a08 	add.w	sl, r4, r8
   84b0e:	f000 8154 	beq.w	84dba <_malloc_r+0x4a6>
   84b12:	f503 5380 	add.w	r3, r3, #4096	; 0x1000
   84b16:	330f      	adds	r3, #15
   84b18:	f423 6b7f 	bic.w	fp, r3, #4080	; 0xff0
   84b1c:	f02b 0b0f 	bic.w	fp, fp, #15
   84b20:	4659      	mov	r1, fp
   84b22:	4628      	mov	r0, r5
   84b24:	f000 fd5c 	bl	855e0 <_sbrk_r>
   84b28:	1c41      	adds	r1, r0, #1
   84b2a:	4602      	mov	r2, r0
   84b2c:	f000 80fb 	beq.w	84d26 <_malloc_r+0x412>
   84b30:	4582      	cmp	sl, r0
   84b32:	f200 80f6 	bhi.w	84d22 <_malloc_r+0x40e>
   84b36:	4b43      	ldr	r3, [pc, #268]	; (84c44 <_malloc_r+0x330>)
   84b38:	6819      	ldr	r1, [r3, #0]
   84b3a:	4459      	add	r1, fp
   84b3c:	6019      	str	r1, [r3, #0]
   84b3e:	f000 814c 	beq.w	84dda <_malloc_r+0x4c6>
   84b42:	f8d9 0000 	ldr.w	r0, [r9]
   84b46:	3001      	adds	r0, #1
   84b48:	bf1b      	ittet	ne
   84b4a:	eba2 0a0a 	subne.w	sl, r2, sl
   84b4e:	4451      	addne	r1, sl
   84b50:	f8c9 2000 	streq.w	r2, [r9]
   84b54:	6019      	strne	r1, [r3, #0]
   84b56:	f012 0107 	ands.w	r1, r2, #7
   84b5a:	f000 8114 	beq.w	84d86 <_malloc_r+0x472>
   84b5e:	f1c1 0008 	rsb	r0, r1, #8
   84b62:	f5c1 5180 	rsb	r1, r1, #4096	; 0x1000
   84b66:	4402      	add	r2, r0
   84b68:	3108      	adds	r1, #8
   84b6a:	eb02 090b 	add.w	r9, r2, fp
   84b6e:	f3c9 090b 	ubfx	r9, r9, #0, #12
   84b72:	eba1 0909 	sub.w	r9, r1, r9
   84b76:	4649      	mov	r1, r9
   84b78:	4628      	mov	r0, r5
   84b7a:	9301      	str	r3, [sp, #4]
   84b7c:	9200      	str	r2, [sp, #0]
   84b7e:	f000 fd2f 	bl	855e0 <_sbrk_r>
   84b82:	1c43      	adds	r3, r0, #1
   84b84:	e89d 000c 	ldmia.w	sp, {r2, r3}
   84b88:	f000 8142 	beq.w	84e10 <_malloc_r+0x4fc>
   84b8c:	1a80      	subs	r0, r0, r2
   84b8e:	4448      	add	r0, r9
   84b90:	f040 0001 	orr.w	r0, r0, #1
   84b94:	6819      	ldr	r1, [r3, #0]
   84b96:	42bc      	cmp	r4, r7
   84b98:	4449      	add	r1, r9
   84b9a:	60ba      	str	r2, [r7, #8]
   84b9c:	6019      	str	r1, [r3, #0]
   84b9e:	6050      	str	r0, [r2, #4]
   84ba0:	d017      	beq.n	84bd2 <_malloc_r+0x2be>
   84ba2:	f1b8 0f0f 	cmp.w	r8, #15
   84ba6:	f240 80fa 	bls.w	84d9e <_malloc_r+0x48a>
   84baa:	f04f 0c05 	mov.w	ip, #5
   84bae:	6862      	ldr	r2, [r4, #4]
   84bb0:	f1a8 000c 	sub.w	r0, r8, #12
   84bb4:	f020 0007 	bic.w	r0, r0, #7
   84bb8:	f002 0201 	and.w	r2, r2, #1
   84bbc:	eb04 0e00 	add.w	lr, r4, r0
   84bc0:	4302      	orrs	r2, r0
   84bc2:	280f      	cmp	r0, #15
   84bc4:	6062      	str	r2, [r4, #4]
   84bc6:	f8ce c004 	str.w	ip, [lr, #4]
   84bca:	f8ce c008 	str.w	ip, [lr, #8]
   84bce:	f200 8116 	bhi.w	84dfe <_malloc_r+0x4ea>
   84bd2:	4b1d      	ldr	r3, [pc, #116]	; (84c48 <_malloc_r+0x334>)
   84bd4:	68bc      	ldr	r4, [r7, #8]
   84bd6:	681a      	ldr	r2, [r3, #0]
   84bd8:	4291      	cmp	r1, r2
   84bda:	bf88      	it	hi
   84bdc:	6019      	strhi	r1, [r3, #0]
   84bde:	4b1b      	ldr	r3, [pc, #108]	; (84c4c <_malloc_r+0x338>)
   84be0:	681a      	ldr	r2, [r3, #0]
   84be2:	4291      	cmp	r1, r2
   84be4:	6862      	ldr	r2, [r4, #4]
   84be6:	bf88      	it	hi
   84be8:	6019      	strhi	r1, [r3, #0]
   84bea:	f022 0203 	bic.w	r2, r2, #3
   84bee:	4296      	cmp	r6, r2
   84bf0:	eba2 0306 	sub.w	r3, r2, r6
   84bf4:	d801      	bhi.n	84bfa <_malloc_r+0x2e6>
   84bf6:	2b0f      	cmp	r3, #15
   84bf8:	dc04      	bgt.n	84c04 <_malloc_r+0x2f0>
   84bfa:	4628      	mov	r0, r5
   84bfc:	f000 f9ee 	bl	84fdc <__malloc_unlock>
   84c00:	2400      	movs	r4, #0
   84c02:	e74d      	b.n	84aa0 <_malloc_r+0x18c>
   84c04:	f046 0201 	orr.w	r2, r6, #1
   84c08:	f043 0301 	orr.w	r3, r3, #1
   84c0c:	4426      	add	r6, r4
   84c0e:	6062      	str	r2, [r4, #4]
   84c10:	4628      	mov	r0, r5
   84c12:	60be      	str	r6, [r7, #8]
   84c14:	3408      	adds	r4, #8
   84c16:	6073      	str	r3, [r6, #4]
   84c18:	f000 f9e0 	bl	84fdc <__malloc_unlock>
   84c1c:	4620      	mov	r0, r4
   84c1e:	b003      	add	sp, #12
   84c20:	e8bd 8ff0 	ldmia.w	sp!, {r4, r5, r6, r7, r8, r9, sl, fp, pc}
   84c24:	2b14      	cmp	r3, #20
   84c26:	d970      	bls.n	84d0a <_malloc_r+0x3f6>
   84c28:	2b54      	cmp	r3, #84	; 0x54
   84c2a:	f200 80a2 	bhi.w	84d72 <_malloc_r+0x45e>
   84c2e:	0b33      	lsrs	r3, r6, #12
   84c30:	f103 006f 	add.w	r0, r3, #111	; 0x6f
   84c34:	f103 0e6e 	add.w	lr, r3, #110	; 0x6e
   84c38:	00c1      	lsls	r1, r0, #3
   84c3a:	e68d      	b.n	84958 <_malloc_r+0x44>
   84c3c:	200705cc 	.word	0x200705cc
   84c40:	20070bb8 	.word	0x20070bb8
   84c44:	20070b88 	.word	0x20070b88
   84c48:	20070bb0 	.word	0x20070bb0
   84c4c:	20070bb4 	.word	0x20070bb4
   84c50:	200705d4 	.word	0x200705d4
   84c54:	200709d4 	.word	0x200709d4
   84c58:	0a5a      	lsrs	r2, r3, #9
   84c5a:	2a04      	cmp	r2, #4
   84c5c:	d95b      	bls.n	84d16 <_malloc_r+0x402>
   84c5e:	2a14      	cmp	r2, #20
   84c60:	f200 80ae 	bhi.w	84dc0 <_malloc_r+0x4ac>
   84c64:	f102 015c 	add.w	r1, r2, #92	; 0x5c
   84c68:	00c9      	lsls	r1, r1, #3
   84c6a:	325b      	adds	r2, #91	; 0x5b
   84c6c:	eb07 0c01 	add.w	ip, r7, r1
   84c70:	5879      	ldr	r1, [r7, r1]
   84c72:	f1ac 0c08 	sub.w	ip, ip, #8
   84c76:	458c      	cmp	ip, r1
   84c78:	f000 8088 	beq.w	84d8c <_malloc_r+0x478>
   84c7c:	684a      	ldr	r2, [r1, #4]
   84c7e:	f022 0203 	bic.w	r2, r2, #3
   84c82:	4293      	cmp	r3, r2
   84c84:	d273      	bcs.n	84d6e <_malloc_r+0x45a>
   84c86:	6889      	ldr	r1, [r1, #8]
   84c88:	458c      	cmp	ip, r1
   84c8a:	d1f7      	bne.n	84c7c <_malloc_r+0x368>
   84c8c:	f8dc 300c 	ldr.w	r3, [ip, #12]
   84c90:	687a      	ldr	r2, [r7, #4]
   84c92:	60e3      	str	r3, [r4, #12]
   84c94:	f8c4 c008 	str.w	ip, [r4, #8]
   84c98:	609c      	str	r4, [r3, #8]
   84c9a:	f8cc 400c 	str.w	r4, [ip, #12]
   84c9e:	e69e      	b.n	849de <_malloc_r+0xca>
   84ca0:	f046 0c01 	orr.w	ip, r6, #1
   84ca4:	f042 0101 	orr.w	r1, r2, #1
   84ca8:	4426      	add	r6, r4
   84caa:	f8c4 c004 	str.w	ip, [r4, #4]
   84cae:	4628      	mov	r0, r5
   84cb0:	617e      	str	r6, [r7, #20]
   84cb2:	613e      	str	r6, [r7, #16]
   84cb4:	f8c6 e00c 	str.w	lr, [r6, #12]
   84cb8:	f8c6 e008 	str.w	lr, [r6, #8]
   84cbc:	6071      	str	r1, [r6, #4]
   84cbe:	50e2      	str	r2, [r4, r3]
   84cc0:	f000 f98c 	bl	84fdc <__malloc_unlock>
   84cc4:	3408      	adds	r4, #8
   84cc6:	e6eb      	b.n	84aa0 <_malloc_r+0x18c>
   84cc8:	687a      	ldr	r2, [r7, #4]
   84cca:	e688      	b.n	849de <_malloc_r+0xca>
   84ccc:	f108 0801 	add.w	r8, r8, #1
   84cd0:	f018 0f03 	tst.w	r8, #3
   84cd4:	f10c 0c08 	add.w	ip, ip, #8
   84cd8:	f47f ae93 	bne.w	84a02 <_malloc_r+0xee>
   84cdc:	e02d      	b.n	84d3a <_malloc_r+0x426>
   84cde:	68dc      	ldr	r4, [r3, #12]
   84ce0:	42a3      	cmp	r3, r4
   84ce2:	bf08      	it	eq
   84ce4:	3002      	addeq	r0, #2
   84ce6:	f43f ae4b 	beq.w	84980 <_malloc_r+0x6c>
   84cea:	e6c9      	b.n	84a80 <_malloc_r+0x16c>
   84cec:	461c      	mov	r4, r3
   84cee:	4419      	add	r1, r3
   84cf0:	684a      	ldr	r2, [r1, #4]
   84cf2:	68db      	ldr	r3, [r3, #12]
   84cf4:	f854 6f08 	ldr.w	r6, [r4, #8]!
   84cf8:	f042 0201 	orr.w	r2, r2, #1
   84cfc:	604a      	str	r2, [r1, #4]
   84cfe:	4628      	mov	r0, r5
   84d00:	60f3      	str	r3, [r6, #12]
   84d02:	609e      	str	r6, [r3, #8]
   84d04:	f000 f96a 	bl	84fdc <__malloc_unlock>
   84d08:	e6ca      	b.n	84aa0 <_malloc_r+0x18c>
   84d0a:	f103 005c 	add.w	r0, r3, #92	; 0x5c
   84d0e:	f103 0e5b 	add.w	lr, r3, #91	; 0x5b
   84d12:	00c1      	lsls	r1, r0, #3
   84d14:	e620      	b.n	84958 <_malloc_r+0x44>
   84d16:	099a      	lsrs	r2, r3, #6
   84d18:	f102 0139 	add.w	r1, r2, #57	; 0x39
   84d1c:	00c9      	lsls	r1, r1, #3
   84d1e:	3238      	adds	r2, #56	; 0x38
   84d20:	e7a4      	b.n	84c6c <_malloc_r+0x358>
   84d22:	42bc      	cmp	r4, r7
   84d24:	d054      	beq.n	84dd0 <_malloc_r+0x4bc>
   84d26:	68bc      	ldr	r4, [r7, #8]
   84d28:	6862      	ldr	r2, [r4, #4]
   84d2a:	f022 0203 	bic.w	r2, r2, #3
   84d2e:	e75e      	b.n	84bee <_malloc_r+0x2da>
   84d30:	f859 3908 	ldr.w	r3, [r9], #-8
   84d34:	4599      	cmp	r9, r3
   84d36:	f040 8086 	bne.w	84e46 <_malloc_r+0x532>
   84d3a:	f010 0f03 	tst.w	r0, #3
   84d3e:	f100 30ff 	add.w	r0, r0, #4294967295
   84d42:	d1f5      	bne.n	84d30 <_malloc_r+0x41c>
   84d44:	687b      	ldr	r3, [r7, #4]
   84d46:	ea23 0304 	bic.w	r3, r3, r4
   84d4a:	607b      	str	r3, [r7, #4]
   84d4c:	0064      	lsls	r4, r4, #1
   84d4e:	429c      	cmp	r4, r3
   84d50:	f63f aec8 	bhi.w	84ae4 <_malloc_r+0x1d0>
   84d54:	2c00      	cmp	r4, #0
   84d56:	f43f aec5 	beq.w	84ae4 <_malloc_r+0x1d0>
   84d5a:	421c      	tst	r4, r3
   84d5c:	4640      	mov	r0, r8
   84d5e:	f47f ae4c 	bne.w	849fa <_malloc_r+0xe6>
   84d62:	0064      	lsls	r4, r4, #1
   84d64:	421c      	tst	r4, r3
   84d66:	f100 0004 	add.w	r0, r0, #4
   84d6a:	d0fa      	beq.n	84d62 <_malloc_r+0x44e>
   84d6c:	e645      	b.n	849fa <_malloc_r+0xe6>
   84d6e:	468c      	mov	ip, r1
   84d70:	e78c      	b.n	84c8c <_malloc_r+0x378>
   84d72:	f5b3 7faa 	cmp.w	r3, #340	; 0x154
   84d76:	d815      	bhi.n	84da4 <_malloc_r+0x490>
   84d78:	0bf3      	lsrs	r3, r6, #15
   84d7a:	f103 0078 	add.w	r0, r3, #120	; 0x78
   84d7e:	f103 0e77 	add.w	lr, r3, #119	; 0x77
   84d82:	00c1      	lsls	r1, r0, #3
   84d84:	e5e8      	b.n	84958 <_malloc_r+0x44>
   84d86:	f44f 5180 	mov.w	r1, #4096	; 0x1000
   84d8a:	e6ee      	b.n	84b6a <_malloc_r+0x256>
   84d8c:	2101      	movs	r1, #1
   84d8e:	687b      	ldr	r3, [r7, #4]
   84d90:	1092      	asrs	r2, r2, #2
   84d92:	fa01 f202 	lsl.w	r2, r1, r2
   84d96:	431a      	orrs	r2, r3
   84d98:	607a      	str	r2, [r7, #4]
   84d9a:	4663      	mov	r3, ip
   84d9c:	e779      	b.n	84c92 <_malloc_r+0x37e>
   84d9e:	2301      	movs	r3, #1
   84da0:	6053      	str	r3, [r2, #4]
   84da2:	e72a      	b.n	84bfa <_malloc_r+0x2e6>
   84da4:	f240 5254 	movw	r2, #1364	; 0x554
   84da8:	4293      	cmp	r3, r2
   84daa:	d822      	bhi.n	84df2 <_malloc_r+0x4de>
   84dac:	0cb3      	lsrs	r3, r6, #18
   84dae:	f103 007d 	add.w	r0, r3, #125	; 0x7d
   84db2:	f103 0e7c 	add.w	lr, r3, #124	; 0x7c
   84db6:	00c1      	lsls	r1, r0, #3
   84db8:	e5ce      	b.n	84958 <_malloc_r+0x44>
   84dba:	f103 0b10 	add.w	fp, r3, #16
   84dbe:	e6af      	b.n	84b20 <_malloc_r+0x20c>
   84dc0:	2a54      	cmp	r2, #84	; 0x54
   84dc2:	d829      	bhi.n	84e18 <_malloc_r+0x504>
   84dc4:	0b1a      	lsrs	r2, r3, #12
   84dc6:	f102 016f 	add.w	r1, r2, #111	; 0x6f
   84dca:	00c9      	lsls	r1, r1, #3
   84dcc:	326e      	adds	r2, #110	; 0x6e
   84dce:	e74d      	b.n	84c6c <_malloc_r+0x358>
   84dd0:	4b20      	ldr	r3, [pc, #128]	; (84e54 <_malloc_r+0x540>)
   84dd2:	6819      	ldr	r1, [r3, #0]
   84dd4:	4459      	add	r1, fp
   84dd6:	6019      	str	r1, [r3, #0]
   84dd8:	e6b3      	b.n	84b42 <_malloc_r+0x22e>
   84dda:	f3ca 000b 	ubfx	r0, sl, #0, #12
   84dde:	2800      	cmp	r0, #0
   84de0:	f47f aeaf 	bne.w	84b42 <_malloc_r+0x22e>
   84de4:	eb08 030b 	add.w	r3, r8, fp
   84de8:	68ba      	ldr	r2, [r7, #8]
   84dea:	f043 0301 	orr.w	r3, r3, #1
   84dee:	6053      	str	r3, [r2, #4]
   84df0:	e6ef      	b.n	84bd2 <_malloc_r+0x2be>
   84df2:	207f      	movs	r0, #127	; 0x7f
   84df4:	f44f 717e 	mov.w	r1, #1016	; 0x3f8
   84df8:	f04f 0e7e 	mov.w	lr, #126	; 0x7e
   84dfc:	e5ac      	b.n	84958 <_malloc_r+0x44>
   84dfe:	f104 0108 	add.w	r1, r4, #8
   84e02:	4628      	mov	r0, r5
   84e04:	9300      	str	r3, [sp, #0]
   84e06:	f000 fd5d 	bl	858c4 <_free_r>
   84e0a:	9b00      	ldr	r3, [sp, #0]
   84e0c:	6819      	ldr	r1, [r3, #0]
   84e0e:	e6e0      	b.n	84bd2 <_malloc_r+0x2be>
   84e10:	2001      	movs	r0, #1
   84e12:	f04f 0900 	mov.w	r9, #0
   84e16:	e6bd      	b.n	84b94 <_malloc_r+0x280>
   84e18:	f5b2 7faa 	cmp.w	r2, #340	; 0x154
   84e1c:	d805      	bhi.n	84e2a <_malloc_r+0x516>
   84e1e:	0bda      	lsrs	r2, r3, #15
   84e20:	f102 0178 	add.w	r1, r2, #120	; 0x78
   84e24:	00c9      	lsls	r1, r1, #3
   84e26:	3277      	adds	r2, #119	; 0x77
   84e28:	e720      	b.n	84c6c <_malloc_r+0x358>
   84e2a:	f240 5154 	movw	r1, #1364	; 0x554
   84e2e:	428a      	cmp	r2, r1
   84e30:	d805      	bhi.n	84e3e <_malloc_r+0x52a>
   84e32:	0c9a      	lsrs	r2, r3, #18
   84e34:	f102 017d 	add.w	r1, r2, #125	; 0x7d
   84e38:	00c9      	lsls	r1, r1, #3
   84e3a:	327c      	adds	r2, #124	; 0x7c
   84e3c:	e716      	b.n	84c6c <_malloc_r+0x358>
   84e3e:	f44f 717e 	mov.w	r1, #1016	; 0x3f8
   84e42:	227e      	movs	r2, #126	; 0x7e
   84e44:	e712      	b.n	84c6c <_malloc_r+0x358>
   84e46:	687b      	ldr	r3, [r7, #4]
   84e48:	e780      	b.n	84d4c <_malloc_r+0x438>
   84e4a:	08f0      	lsrs	r0, r6, #3
   84e4c:	f106 0308 	add.w	r3, r6, #8
   84e50:	e60e      	b.n	84a70 <_malloc_r+0x15c>
   84e52:	bf00      	nop
   84e54:	20070b88 	.word	0x20070b88

00084e58 <memchr>:
   84e58:	0783      	lsls	r3, r0, #30
   84e5a:	b470      	push	{r4, r5, r6}
   84e5c:	b2cd      	uxtb	r5, r1
   84e5e:	d03d      	beq.n	84edc <memchr+0x84>
   84e60:	1e54      	subs	r4, r2, #1
   84e62:	b30a      	cbz	r2, 84ea8 <memchr+0x50>
   84e64:	7803      	ldrb	r3, [r0, #0]
   84e66:	42ab      	cmp	r3, r5
   84e68:	d01f      	beq.n	84eaa <memchr+0x52>
   84e6a:	1c43      	adds	r3, r0, #1
   84e6c:	e005      	b.n	84e7a <memchr+0x22>
   84e6e:	f114 34ff 	adds.w	r4, r4, #4294967295
   84e72:	d319      	bcc.n	84ea8 <memchr+0x50>
   84e74:	7802      	ldrb	r2, [r0, #0]
   84e76:	42aa      	cmp	r2, r5
   84e78:	d017      	beq.n	84eaa <memchr+0x52>
   84e7a:	f013 0f03 	tst.w	r3, #3
   84e7e:	4618      	mov	r0, r3
   84e80:	f103 0301 	add.w	r3, r3, #1
   84e84:	d1f3      	bne.n	84e6e <memchr+0x16>
   84e86:	2c03      	cmp	r4, #3
   84e88:	d811      	bhi.n	84eae <memchr+0x56>
   84e8a:	b34c      	cbz	r4, 84ee0 <memchr+0x88>
   84e8c:	7803      	ldrb	r3, [r0, #0]
   84e8e:	42ab      	cmp	r3, r5
   84e90:	d00b      	beq.n	84eaa <memchr+0x52>
   84e92:	4404      	add	r4, r0
   84e94:	1c43      	adds	r3, r0, #1
   84e96:	e002      	b.n	84e9e <memchr+0x46>
   84e98:	7802      	ldrb	r2, [r0, #0]
   84e9a:	42aa      	cmp	r2, r5
   84e9c:	d005      	beq.n	84eaa <memchr+0x52>
   84e9e:	429c      	cmp	r4, r3
   84ea0:	4618      	mov	r0, r3
   84ea2:	f103 0301 	add.w	r3, r3, #1
   84ea6:	d1f7      	bne.n	84e98 <memchr+0x40>
   84ea8:	2000      	movs	r0, #0
   84eaa:	bc70      	pop	{r4, r5, r6}
   84eac:	4770      	bx	lr
   84eae:	0209      	lsls	r1, r1, #8
   84eb0:	b289      	uxth	r1, r1
   84eb2:	4329      	orrs	r1, r5
   84eb4:	ea41 4101 	orr.w	r1, r1, r1, lsl #16
   84eb8:	6803      	ldr	r3, [r0, #0]
   84eba:	4606      	mov	r6, r0
   84ebc:	404b      	eors	r3, r1
   84ebe:	f1a3 3201 	sub.w	r2, r3, #16843009	; 0x1010101
   84ec2:	ea22 0303 	bic.w	r3, r2, r3
   84ec6:	f013 3f80 	tst.w	r3, #2155905152	; 0x80808080
   84eca:	f100 0004 	add.w	r0, r0, #4
   84ece:	d103      	bne.n	84ed8 <memchr+0x80>
   84ed0:	3c04      	subs	r4, #4
   84ed2:	2c03      	cmp	r4, #3
   84ed4:	d8f0      	bhi.n	84eb8 <memchr+0x60>
   84ed6:	e7d8      	b.n	84e8a <memchr+0x32>
   84ed8:	4630      	mov	r0, r6
   84eda:	e7d7      	b.n	84e8c <memchr+0x34>
   84edc:	4614      	mov	r4, r2
   84ede:	e7d2      	b.n	84e86 <memchr+0x2e>
   84ee0:	4620      	mov	r0, r4
   84ee2:	e7e2      	b.n	84eaa <memchr+0x52>

00084ee4 <memcpy>:
   84ee4:	4684      	mov	ip, r0
   84ee6:	ea41 0300 	orr.w	r3, r1, r0
   84eea:	f013 0303 	ands.w	r3, r3, #3
   84eee:	d149      	bne.n	84f84 <memcpy+0xa0>
   84ef0:	3a40      	subs	r2, #64	; 0x40
   84ef2:	d323      	bcc.n	84f3c <memcpy+0x58>
   84ef4:	680b      	ldr	r3, [r1, #0]
   84ef6:	6003      	str	r3, [r0, #0]
   84ef8:	684b      	ldr	r3, [r1, #4]
   84efa:	6043      	str	r3, [r0, #4]
   84efc:	688b      	ldr	r3, [r1, #8]
   84efe:	6083      	str	r3, [r0, #8]
   84f00:	68cb      	ldr	r3, [r1, #12]
   84f02:	60c3      	str	r3, [r0, #12]
   84f04:	690b      	ldr	r3, [r1, #16]
   84f06:	6103      	str	r3, [r0, #16]
   84f08:	694b      	ldr	r3, [r1, #20]
   84f0a:	6143      	str	r3, [r0, #20]
   84f0c:	698b      	ldr	r3, [r1, #24]
   84f0e:	6183      	str	r3, [r0, #24]
   84f10:	69cb      	ldr	r3, [r1, #28]
   84f12:	61c3      	str	r3, [r0, #28]
   84f14:	6a0b      	ldr	r3, [r1, #32]
   84f16:	6203      	str	r3, [r0, #32]
   84f18:	6a4b      	ldr	r3, [r1, #36]	; 0x24
   84f1a:	6243      	str	r3, [r0, #36]	; 0x24
   84f1c:	6a8b      	ldr	r3, [r1, #40]	; 0x28
   84f1e:	6283      	str	r3, [r0, #40]	; 0x28
   84f20:	6acb      	ldr	r3, [r1, #44]	; 0x2c
   84f22:	62c3      	str	r3, [r0, #44]	; 0x2c
   84f24:	6b0b      	ldr	r3, [r1, #48]	; 0x30
   84f26:	6303      	str	r3, [r0, #48]	; 0x30
   84f28:	6b4b      	ldr	r3, [r1, #52]	; 0x34
   84f2a:	6343      	str	r3, [r0, #52]	; 0x34
   84f2c:	6b8b      	ldr	r3, [r1, #56]	; 0x38
   84f2e:	6383      	str	r3, [r0, #56]	; 0x38
   84f30:	6bcb      	ldr	r3, [r1, #60]	; 0x3c
   84f32:	63c3      	str	r3, [r0, #60]	; 0x3c
   84f34:	3040      	adds	r0, #64	; 0x40
   84f36:	3140      	adds	r1, #64	; 0x40
   84f38:	3a40      	subs	r2, #64	; 0x40
   84f3a:	d2db      	bcs.n	84ef4 <memcpy+0x10>
   84f3c:	3230      	adds	r2, #48	; 0x30
   84f3e:	d30b      	bcc.n	84f58 <memcpy+0x74>
   84f40:	680b      	ldr	r3, [r1, #0]
   84f42:	6003      	str	r3, [r0, #0]
   84f44:	684b      	ldr	r3, [r1, #4]
   84f46:	6043      	str	r3, [r0, #4]
   84f48:	688b      	ldr	r3, [r1, #8]
   84f4a:	6083      	str	r3, [r0, #8]
   84f4c:	68cb      	ldr	r3, [r1, #12]
   84f4e:	60c3      	str	r3, [r0, #12]
   84f50:	3010      	adds	r0, #16
   84f52:	3110      	adds	r1, #16
   84f54:	3a10      	subs	r2, #16
   84f56:	d2f3      	bcs.n	84f40 <memcpy+0x5c>
   84f58:	320c      	adds	r2, #12
   84f5a:	d305      	bcc.n	84f68 <memcpy+0x84>
   84f5c:	f851 3b04 	ldr.w	r3, [r1], #4
   84f60:	f840 3b04 	str.w	r3, [r0], #4
   84f64:	3a04      	subs	r2, #4
   84f66:	d2f9      	bcs.n	84f5c <memcpy+0x78>
   84f68:	3204      	adds	r2, #4
   84f6a:	d008      	beq.n	84f7e <memcpy+0x9a>
   84f6c:	07d2      	lsls	r2, r2, #31
   84f6e:	bf1c      	itt	ne
   84f70:	f811 3b01 	ldrbne.w	r3, [r1], #1
   84f74:	f800 3b01 	strbne.w	r3, [r0], #1
   84f78:	d301      	bcc.n	84f7e <memcpy+0x9a>
   84f7a:	880b      	ldrh	r3, [r1, #0]
   84f7c:	8003      	strh	r3, [r0, #0]
   84f7e:	4660      	mov	r0, ip
   84f80:	4770      	bx	lr
   84f82:	bf00      	nop
   84f84:	2a08      	cmp	r2, #8
   84f86:	d313      	bcc.n	84fb0 <memcpy+0xcc>
   84f88:	078b      	lsls	r3, r1, #30
   84f8a:	d0b1      	beq.n	84ef0 <memcpy+0xc>
   84f8c:	f010 0303 	ands.w	r3, r0, #3
   84f90:	d0ae      	beq.n	84ef0 <memcpy+0xc>
   84f92:	f1c3 0304 	rsb	r3, r3, #4
   84f96:	1ad2      	subs	r2, r2, r3
   84f98:	07db      	lsls	r3, r3, #31
   84f9a:	bf1c      	itt	ne
   84f9c:	f811 3b01 	ldrbne.w	r3, [r1], #1
   84fa0:	f800 3b01 	strbne.w	r3, [r0], #1
   84fa4:	d3a4      	bcc.n	84ef0 <memcpy+0xc>
   84fa6:	f831 3b02 	ldrh.w	r3, [r1], #2
   84faa:	f820 3b02 	strh.w	r3, [r0], #2
   84fae:	e79f      	b.n	84ef0 <memcpy+0xc>
   84fb0:	3a04      	subs	r2, #4
   84fb2:	d3d9      	bcc.n	84f68 <memcpy+0x84>
   84fb4:	3a01      	subs	r2, #1
   84fb6:	f811 3b01 	ldrb.w	r3, [r1], #1
   84fba:	f800 3b01 	strb.w	r3, [r0], #1
   84fbe:	d2f9      	bcs.n	84fb4 <memcpy+0xd0>
   84fc0:	780b      	ldrb	r3, [r1, #0]
   84fc2:	7003      	strb	r3, [r0, #0]
   84fc4:	784b      	ldrb	r3, [r1, #1]
   84fc6:	7043      	strb	r3, [r0, #1]
   84fc8:	788b      	ldrb	r3, [r1, #2]
   84fca:	7083      	strb	r3, [r0, #2]
   84fcc:	4660      	mov	r0, ip
   84fce:	4770      	bx	lr

00084fd0 <__malloc_lock>:
   84fd0:	4801      	ldr	r0, [pc, #4]	; (84fd8 <__malloc_lock+0x8>)
   84fd2:	f7ff bc9b 	b.w	8490c <__retarget_lock_acquire_recursive>
   84fd6:	bf00      	nop
   84fd8:	20070c0c 	.word	0x20070c0c

00084fdc <__malloc_unlock>:
   84fdc:	4801      	ldr	r0, [pc, #4]	; (84fe4 <__malloc_unlock+0x8>)
   84fde:	f7ff bc97 	b.w	84910 <__retarget_lock_release_recursive>
   84fe2:	bf00      	nop
   84fe4:	20070c0c 	.word	0x20070c0c

00084fe8 <_Balloc>:
   84fe8:	6cc3      	ldr	r3, [r0, #76]	; 0x4c
   84fea:	b570      	push	{r4, r5, r6, lr}
   84fec:	4605      	mov	r5, r0
   84fee:	460c      	mov	r4, r1
   84ff0:	b14b      	cbz	r3, 85006 <_Balloc+0x1e>
   84ff2:	f853 0024 	ldr.w	r0, [r3, r4, lsl #2]
   84ff6:	b180      	cbz	r0, 8501a <_Balloc+0x32>
   84ff8:	6802      	ldr	r2, [r0, #0]
   84ffa:	f843 2024 	str.w	r2, [r3, r4, lsl #2]
   84ffe:	2300      	movs	r3, #0
   85000:	6103      	str	r3, [r0, #16]
   85002:	60c3      	str	r3, [r0, #12]
   85004:	bd70      	pop	{r4, r5, r6, pc}
   85006:	2221      	movs	r2, #33	; 0x21
   85008:	2104      	movs	r1, #4
   8500a:	f000 fbdb 	bl	857c4 <_calloc_r>
   8500e:	64e8      	str	r0, [r5, #76]	; 0x4c
   85010:	4603      	mov	r3, r0
   85012:	2800      	cmp	r0, #0
   85014:	d1ed      	bne.n	84ff2 <_Balloc+0xa>
   85016:	2000      	movs	r0, #0
   85018:	bd70      	pop	{r4, r5, r6, pc}
   8501a:	2101      	movs	r1, #1
   8501c:	fa01 f604 	lsl.w	r6, r1, r4
   85020:	1d72      	adds	r2, r6, #5
   85022:	4628      	mov	r0, r5
   85024:	0092      	lsls	r2, r2, #2
   85026:	f000 fbcd 	bl	857c4 <_calloc_r>
   8502a:	2800      	cmp	r0, #0
   8502c:	d0f3      	beq.n	85016 <_Balloc+0x2e>
   8502e:	6044      	str	r4, [r0, #4]
   85030:	6086      	str	r6, [r0, #8]
   85032:	e7e4      	b.n	84ffe <_Balloc+0x16>

00085034 <_Bfree>:
   85034:	b131      	cbz	r1, 85044 <_Bfree+0x10>
   85036:	6cc3      	ldr	r3, [r0, #76]	; 0x4c
   85038:	684a      	ldr	r2, [r1, #4]
   8503a:	f853 0022 	ldr.w	r0, [r3, r2, lsl #2]
   8503e:	6008      	str	r0, [r1, #0]
   85040:	f843 1022 	str.w	r1, [r3, r2, lsl #2]
   85044:	4770      	bx	lr
   85046:	bf00      	nop

00085048 <__multadd>:
   85048:	b5f0      	push	{r4, r5, r6, r7, lr}
   8504a:	460c      	mov	r4, r1
   8504c:	4605      	mov	r5, r0
   8504e:	f04f 0e00 	mov.w	lr, #0
   85052:	690e      	ldr	r6, [r1, #16]
   85054:	b083      	sub	sp, #12
   85056:	f101 0714 	add.w	r7, r1, #20
   8505a:	6838      	ldr	r0, [r7, #0]
   8505c:	f10e 0e01 	add.w	lr, lr, #1
   85060:	b281      	uxth	r1, r0
   85062:	fb02 3301 	mla	r3, r2, r1, r3
   85066:	0c01      	lsrs	r1, r0, #16
   85068:	0c18      	lsrs	r0, r3, #16
   8506a:	fb02 0101 	mla	r1, r2, r1, r0
   8506e:	b29b      	uxth	r3, r3
   85070:	eb03 4301 	add.w	r3, r3, r1, lsl #16
   85074:	4576      	cmp	r6, lr
   85076:	f847 3b04 	str.w	r3, [r7], #4
   8507a:	ea4f 4311 	mov.w	r3, r1, lsr #16
   8507e:	dcec      	bgt.n	8505a <__multadd+0x12>
   85080:	b13b      	cbz	r3, 85092 <__multadd+0x4a>
   85082:	68a2      	ldr	r2, [r4, #8]
   85084:	4296      	cmp	r6, r2
   85086:	da07      	bge.n	85098 <__multadd+0x50>
   85088:	eb04 0286 	add.w	r2, r4, r6, lsl #2
   8508c:	3601      	adds	r6, #1
   8508e:	6153      	str	r3, [r2, #20]
   85090:	6126      	str	r6, [r4, #16]
   85092:	4620      	mov	r0, r4
   85094:	b003      	add	sp, #12
   85096:	bdf0      	pop	{r4, r5, r6, r7, pc}
   85098:	6861      	ldr	r1, [r4, #4]
   8509a:	4628      	mov	r0, r5
   8509c:	3101      	adds	r1, #1
   8509e:	9301      	str	r3, [sp, #4]
   850a0:	f7ff ffa2 	bl	84fe8 <_Balloc>
   850a4:	4607      	mov	r7, r0
   850a6:	6922      	ldr	r2, [r4, #16]
   850a8:	f104 010c 	add.w	r1, r4, #12
   850ac:	3202      	adds	r2, #2
   850ae:	0092      	lsls	r2, r2, #2
   850b0:	300c      	adds	r0, #12
   850b2:	f7ff ff17 	bl	84ee4 <memcpy>
   850b6:	6cea      	ldr	r2, [r5, #76]	; 0x4c
   850b8:	6861      	ldr	r1, [r4, #4]
   850ba:	9b01      	ldr	r3, [sp, #4]
   850bc:	f852 0021 	ldr.w	r0, [r2, r1, lsl #2]
   850c0:	6020      	str	r0, [r4, #0]
   850c2:	f842 4021 	str.w	r4, [r2, r1, lsl #2]
   850c6:	463c      	mov	r4, r7
   850c8:	e7de      	b.n	85088 <__multadd+0x40>
   850ca:	bf00      	nop

000850cc <__hi0bits>:
   850cc:	0c02      	lsrs	r2, r0, #16
   850ce:	0412      	lsls	r2, r2, #16
   850d0:	4603      	mov	r3, r0
   850d2:	b9b2      	cbnz	r2, 85102 <__hi0bits+0x36>
   850d4:	0403      	lsls	r3, r0, #16
   850d6:	2010      	movs	r0, #16
   850d8:	f013 4f7f 	tst.w	r3, #4278190080	; 0xff000000
   850dc:	bf04      	itt	eq
   850de:	021b      	lsleq	r3, r3, #8
   850e0:	3008      	addeq	r0, #8
   850e2:	f013 4f70 	tst.w	r3, #4026531840	; 0xf0000000
   850e6:	bf04      	itt	eq
   850e8:	011b      	lsleq	r3, r3, #4
   850ea:	3004      	addeq	r0, #4
   850ec:	f013 4f40 	tst.w	r3, #3221225472	; 0xc0000000
   850f0:	bf04      	itt	eq
   850f2:	009b      	lsleq	r3, r3, #2
   850f4:	3002      	addeq	r0, #2
   850f6:	2b00      	cmp	r3, #0
   850f8:	db02      	blt.n	85100 <__hi0bits+0x34>
   850fa:	005b      	lsls	r3, r3, #1
   850fc:	d403      	bmi.n	85106 <__hi0bits+0x3a>
   850fe:	2020      	movs	r0, #32
   85100:	4770      	bx	lr
   85102:	2000      	movs	r0, #0
   85104:	e7e8      	b.n	850d8 <__hi0bits+0xc>
   85106:	3001      	adds	r0, #1
   85108:	4770      	bx	lr
   8510a:	bf00      	nop

0008510c <__lo0bits>:
   8510c:	6803      	ldr	r3, [r0, #0]
   8510e:	4601      	mov	r1, r0
   85110:	f013 0207 	ands.w	r2, r3, #7
   85114:	d007      	beq.n	85126 <__lo0bits+0x1a>
   85116:	07da      	lsls	r2, r3, #31
   85118:	d421      	bmi.n	8515e <__lo0bits+0x52>
   8511a:	0798      	lsls	r0, r3, #30
   8511c:	d421      	bmi.n	85162 <__lo0bits+0x56>
   8511e:	089b      	lsrs	r3, r3, #2
   85120:	600b      	str	r3, [r1, #0]
   85122:	2002      	movs	r0, #2
   85124:	4770      	bx	lr
   85126:	b298      	uxth	r0, r3
   85128:	b198      	cbz	r0, 85152 <__lo0bits+0x46>
   8512a:	4610      	mov	r0, r2
   8512c:	f013 0fff 	tst.w	r3, #255	; 0xff
   85130:	bf04      	itt	eq
   85132:	0a1b      	lsreq	r3, r3, #8
   85134:	3008      	addeq	r0, #8
   85136:	071a      	lsls	r2, r3, #28
   85138:	bf04      	itt	eq
   8513a:	091b      	lsreq	r3, r3, #4
   8513c:	3004      	addeq	r0, #4
   8513e:	079a      	lsls	r2, r3, #30
   85140:	bf04      	itt	eq
   85142:	089b      	lsreq	r3, r3, #2
   85144:	3002      	addeq	r0, #2
   85146:	07da      	lsls	r2, r3, #31
   85148:	d407      	bmi.n	8515a <__lo0bits+0x4e>
   8514a:	085b      	lsrs	r3, r3, #1
   8514c:	d104      	bne.n	85158 <__lo0bits+0x4c>
   8514e:	2020      	movs	r0, #32
   85150:	4770      	bx	lr
   85152:	0c1b      	lsrs	r3, r3, #16
   85154:	2010      	movs	r0, #16
   85156:	e7e9      	b.n	8512c <__lo0bits+0x20>
   85158:	3001      	adds	r0, #1
   8515a:	600b      	str	r3, [r1, #0]
   8515c:	4770      	bx	lr
   8515e:	2000      	movs	r0, #0
   85160:	4770      	bx	lr
   85162:	085b      	lsrs	r3, r3, #1
   85164:	600b      	str	r3, [r1, #0]
   85166:	2001      	movs	r0, #1
   85168:	4770      	bx	lr
   8516a:	bf00      	nop

0008516c <__i2b>:
   8516c:	b510      	push	{r4, lr}
   8516e:	460c      	mov	r4, r1
   85170:	2101      	movs	r1, #1
   85172:	f7ff ff39 	bl	84fe8 <_Balloc>
   85176:	2201      	movs	r2, #1
   85178:	6144      	str	r4, [r0, #20]
   8517a:	6102      	str	r2, [r0, #16]
   8517c:	bd10      	pop	{r4, pc}
   8517e:	bf00      	nop

00085180 <__multiply>:
   85180:	e92d 4ff0 	stmdb	sp!, {r4, r5, r6, r7, r8, r9, sl, fp, lr}
   85184:	690c      	ldr	r4, [r1, #16]
   85186:	6915      	ldr	r5, [r2, #16]
   85188:	b083      	sub	sp, #12
   8518a:	42ac      	cmp	r4, r5
   8518c:	468b      	mov	fp, r1
   8518e:	4616      	mov	r6, r2
   85190:	da04      	bge.n	8519c <__multiply+0x1c>
   85192:	4622      	mov	r2, r4
   85194:	46b3      	mov	fp, r6
   85196:	462c      	mov	r4, r5
   85198:	460e      	mov	r6, r1
   8519a:	4615      	mov	r5, r2
   8519c:	f8db 3008 	ldr.w	r3, [fp, #8]
   851a0:	eb04 0805 	add.w	r8, r4, r5
   851a4:	f8db 1004 	ldr.w	r1, [fp, #4]
   851a8:	4598      	cmp	r8, r3
   851aa:	bfc8      	it	gt
   851ac:	3101      	addgt	r1, #1
   851ae:	f7ff ff1b 	bl	84fe8 <_Balloc>
   851b2:	f100 0914 	add.w	r9, r0, #20
   851b6:	eb09 0a88 	add.w	sl, r9, r8, lsl #2
   851ba:	45d1      	cmp	r9, sl
   851bc:	9000      	str	r0, [sp, #0]
   851be:	d205      	bcs.n	851cc <__multiply+0x4c>
   851c0:	464b      	mov	r3, r9
   851c2:	2100      	movs	r1, #0
   851c4:	f843 1b04 	str.w	r1, [r3], #4
   851c8:	459a      	cmp	sl, r3
   851ca:	d8fb      	bhi.n	851c4 <__multiply+0x44>
   851cc:	f106 0c14 	add.w	ip, r6, #20
   851d0:	eb0c 0385 	add.w	r3, ip, r5, lsl #2
   851d4:	f10b 0b14 	add.w	fp, fp, #20
   851d8:	459c      	cmp	ip, r3
   851da:	eb0b 0e84 	add.w	lr, fp, r4, lsl #2
   851de:	d24b      	bcs.n	85278 <__multiply+0xf8>
   851e0:	f8cd a004 	str.w	sl, [sp, #4]
   851e4:	469a      	mov	sl, r3
   851e6:	f8dc 5000 	ldr.w	r5, [ip]
   851ea:	b2af      	uxth	r7, r5
   851ec:	b1e7      	cbz	r7, 85228 <__multiply+0xa8>
   851ee:	464d      	mov	r5, r9
   851f0:	465e      	mov	r6, fp
   851f2:	2100      	movs	r1, #0
   851f4:	f856 2b04 	ldr.w	r2, [r6], #4
   851f8:	6828      	ldr	r0, [r5, #0]
   851fa:	b293      	uxth	r3, r2
   851fc:	b284      	uxth	r4, r0
   851fe:	0c12      	lsrs	r2, r2, #16
   85200:	fb07 4303 	mla	r3, r7, r3, r4
   85204:	0c00      	lsrs	r0, r0, #16
   85206:	fb07 0202 	mla	r2, r7, r2, r0
   8520a:	440b      	add	r3, r1
   8520c:	eb02 4113 	add.w	r1, r2, r3, lsr #16
   85210:	b29b      	uxth	r3, r3
   85212:	ea43 4301 	orr.w	r3, r3, r1, lsl #16
   85216:	45b6      	cmp	lr, r6
   85218:	f845 3b04 	str.w	r3, [r5], #4
   8521c:	ea4f 4111 	mov.w	r1, r1, lsr #16
   85220:	d8e8      	bhi.n	851f4 <__multiply+0x74>
   85222:	6029      	str	r1, [r5, #0]
   85224:	f8dc 5000 	ldr.w	r5, [ip]
   85228:	0c2d      	lsrs	r5, r5, #16
   8522a:	d01d      	beq.n	85268 <__multiply+0xe8>
   8522c:	f8d9 3000 	ldr.w	r3, [r9]
   85230:	4648      	mov	r0, r9
   85232:	461c      	mov	r4, r3
   85234:	4659      	mov	r1, fp
   85236:	2200      	movs	r2, #0
   85238:	880e      	ldrh	r6, [r1, #0]
   8523a:	0c24      	lsrs	r4, r4, #16
   8523c:	fb05 4406 	mla	r4, r5, r6, r4
   85240:	b29b      	uxth	r3, r3
   85242:	4422      	add	r2, r4
   85244:	ea43 4302 	orr.w	r3, r3, r2, lsl #16
   85248:	f840 3b04 	str.w	r3, [r0], #4
   8524c:	f851 3b04 	ldr.w	r3, [r1], #4
   85250:	6804      	ldr	r4, [r0, #0]
   85252:	0c1b      	lsrs	r3, r3, #16
   85254:	b2a6      	uxth	r6, r4
   85256:	fb05 6303 	mla	r3, r5, r3, r6
   8525a:	458e      	cmp	lr, r1
   8525c:	eb03 4312 	add.w	r3, r3, r2, lsr #16
   85260:	ea4f 4213 	mov.w	r2, r3, lsr #16
   85264:	d8e8      	bhi.n	85238 <__multiply+0xb8>
   85266:	6003      	str	r3, [r0, #0]
   85268:	f10c 0c04 	add.w	ip, ip, #4
   8526c:	45e2      	cmp	sl, ip
   8526e:	f109 0904 	add.w	r9, r9, #4
   85272:	d8b8      	bhi.n	851e6 <__multiply+0x66>
   85274:	f8dd a004 	ldr.w	sl, [sp, #4]
   85278:	f1b8 0f00 	cmp.w	r8, #0
   8527c:	dd0b      	ble.n	85296 <__multiply+0x116>
   8527e:	f85a 3c04 	ldr.w	r3, [sl, #-4]
   85282:	f1aa 0a04 	sub.w	sl, sl, #4
   85286:	b11b      	cbz	r3, 85290 <__multiply+0x110>
   85288:	e005      	b.n	85296 <__multiply+0x116>
   8528a:	f85a 3d04 	ldr.w	r3, [sl, #-4]!
   8528e:	b913      	cbnz	r3, 85296 <__multiply+0x116>
   85290:	f1b8 0801 	subs.w	r8, r8, #1
   85294:	d1f9      	bne.n	8528a <__multiply+0x10a>
   85296:	9800      	ldr	r0, [sp, #0]
   85298:	f8c0 8010 	str.w	r8, [r0, #16]
   8529c:	b003      	add	sp, #12
   8529e:	e8bd 8ff0 	ldmia.w	sp!, {r4, r5, r6, r7, r8, r9, sl, fp, pc}
   852a2:	bf00      	nop

000852a4 <__pow5mult>:
   852a4:	f012 0303 	ands.w	r3, r2, #3
   852a8:	e92d 41f0 	stmdb	sp!, {r4, r5, r6, r7, r8, lr}
   852ac:	4614      	mov	r4, r2
   852ae:	4607      	mov	r7, r0
   852b0:	d12e      	bne.n	85310 <__pow5mult+0x6c>
   852b2:	460d      	mov	r5, r1
   852b4:	10a4      	asrs	r4, r4, #2
   852b6:	d01c      	beq.n	852f2 <__pow5mult+0x4e>
   852b8:	6cbe      	ldr	r6, [r7, #72]	; 0x48
   852ba:	b396      	cbz	r6, 85322 <__pow5mult+0x7e>
   852bc:	07e3      	lsls	r3, r4, #31
   852be:	f04f 0800 	mov.w	r8, #0
   852c2:	d406      	bmi.n	852d2 <__pow5mult+0x2e>
   852c4:	1064      	asrs	r4, r4, #1
   852c6:	d014      	beq.n	852f2 <__pow5mult+0x4e>
   852c8:	6830      	ldr	r0, [r6, #0]
   852ca:	b1a8      	cbz	r0, 852f8 <__pow5mult+0x54>
   852cc:	4606      	mov	r6, r0
   852ce:	07e3      	lsls	r3, r4, #31
   852d0:	d5f8      	bpl.n	852c4 <__pow5mult+0x20>
   852d2:	4632      	mov	r2, r6
   852d4:	4629      	mov	r1, r5
   852d6:	4638      	mov	r0, r7
   852d8:	f7ff ff52 	bl	85180 <__multiply>
   852dc:	b1b5      	cbz	r5, 8530c <__pow5mult+0x68>
   852de:	686a      	ldr	r2, [r5, #4]
   852e0:	6cfb      	ldr	r3, [r7, #76]	; 0x4c
   852e2:	1064      	asrs	r4, r4, #1
   852e4:	f853 1022 	ldr.w	r1, [r3, r2, lsl #2]
   852e8:	6029      	str	r1, [r5, #0]
   852ea:	f843 5022 	str.w	r5, [r3, r2, lsl #2]
   852ee:	4605      	mov	r5, r0
   852f0:	d1ea      	bne.n	852c8 <__pow5mult+0x24>
   852f2:	4628      	mov	r0, r5
   852f4:	e8bd 81f0 	ldmia.w	sp!, {r4, r5, r6, r7, r8, pc}
   852f8:	4632      	mov	r2, r6
   852fa:	4631      	mov	r1, r6
   852fc:	4638      	mov	r0, r7
   852fe:	f7ff ff3f 	bl	85180 <__multiply>
   85302:	6030      	str	r0, [r6, #0]
   85304:	f8c0 8000 	str.w	r8, [r0]
   85308:	4606      	mov	r6, r0
   8530a:	e7e0      	b.n	852ce <__pow5mult+0x2a>
   8530c:	4605      	mov	r5, r0
   8530e:	e7d9      	b.n	852c4 <__pow5mult+0x20>
   85310:	4a0b      	ldr	r2, [pc, #44]	; (85340 <__pow5mult+0x9c>)
   85312:	3b01      	subs	r3, #1
   85314:	f852 2023 	ldr.w	r2, [r2, r3, lsl #2]
   85318:	2300      	movs	r3, #0
   8531a:	f7ff fe95 	bl	85048 <__multadd>
   8531e:	4605      	mov	r5, r0
   85320:	e7c8      	b.n	852b4 <__pow5mult+0x10>
   85322:	2101      	movs	r1, #1
   85324:	4638      	mov	r0, r7
   85326:	f7ff fe5f 	bl	84fe8 <_Balloc>
   8532a:	f240 2171 	movw	r1, #625	; 0x271
   8532e:	2201      	movs	r2, #1
   85330:	2300      	movs	r3, #0
   85332:	6141      	str	r1, [r0, #20]
   85334:	6102      	str	r2, [r0, #16]
   85336:	4606      	mov	r6, r0
   85338:	64b8      	str	r0, [r7, #72]	; 0x48
   8533a:	6003      	str	r3, [r0, #0]
   8533c:	e7be      	b.n	852bc <__pow5mult+0x18>
   8533e:	bf00      	nop
   85340:	00086db0 	.word	0x00086db0

00085344 <__lshift>:
   85344:	e92d 43f8 	stmdb	sp!, {r3, r4, r5, r6, r7, r8, r9, lr}
   85348:	690b      	ldr	r3, [r1, #16]
   8534a:	1154      	asrs	r4, r2, #5
   8534c:	eb04 0803 	add.w	r8, r4, r3
   85350:	688b      	ldr	r3, [r1, #8]
   85352:	f108 0501 	add.w	r5, r8, #1
   85356:	429d      	cmp	r5, r3
   85358:	460e      	mov	r6, r1
   8535a:	4691      	mov	r9, r2
   8535c:	4607      	mov	r7, r0
   8535e:	6849      	ldr	r1, [r1, #4]
   85360:	dd04      	ble.n	8536c <__lshift+0x28>
   85362:	005b      	lsls	r3, r3, #1
   85364:	429d      	cmp	r5, r3
   85366:	f101 0101 	add.w	r1, r1, #1
   8536a:	dcfa      	bgt.n	85362 <__lshift+0x1e>
   8536c:	4638      	mov	r0, r7
   8536e:	f7ff fe3b 	bl	84fe8 <_Balloc>
   85372:	2c00      	cmp	r4, #0
   85374:	f100 0314 	add.w	r3, r0, #20
   85378:	dd06      	ble.n	85388 <__lshift+0x44>
   8537a:	2100      	movs	r1, #0
   8537c:	eb03 0284 	add.w	r2, r3, r4, lsl #2
   85380:	f843 1b04 	str.w	r1, [r3], #4
   85384:	429a      	cmp	r2, r3
   85386:	d1fb      	bne.n	85380 <__lshift+0x3c>
   85388:	6934      	ldr	r4, [r6, #16]
   8538a:	f106 0114 	add.w	r1, r6, #20
   8538e:	f019 091f 	ands.w	r9, r9, #31
   85392:	eb01 0e84 	add.w	lr, r1, r4, lsl #2
   85396:	d01d      	beq.n	853d4 <__lshift+0x90>
   85398:	2200      	movs	r2, #0
   8539a:	f1c9 0c20 	rsb	ip, r9, #32
   8539e:	680c      	ldr	r4, [r1, #0]
   853a0:	fa04 f409 	lsl.w	r4, r4, r9
   853a4:	4314      	orrs	r4, r2
   853a6:	f843 4b04 	str.w	r4, [r3], #4
   853aa:	f851 2b04 	ldr.w	r2, [r1], #4
   853ae:	458e      	cmp	lr, r1
   853b0:	fa22 f20c 	lsr.w	r2, r2, ip
   853b4:	d8f3      	bhi.n	8539e <__lshift+0x5a>
   853b6:	601a      	str	r2, [r3, #0]
   853b8:	b10a      	cbz	r2, 853be <__lshift+0x7a>
   853ba:	f108 0502 	add.w	r5, r8, #2
   853be:	6cfb      	ldr	r3, [r7, #76]	; 0x4c
   853c0:	6872      	ldr	r2, [r6, #4]
   853c2:	3d01      	subs	r5, #1
   853c4:	f853 1022 	ldr.w	r1, [r3, r2, lsl #2]
   853c8:	6105      	str	r5, [r0, #16]
   853ca:	6031      	str	r1, [r6, #0]
   853cc:	f843 6022 	str.w	r6, [r3, r2, lsl #2]
   853d0:	e8bd 83f8 	ldmia.w	sp!, {r3, r4, r5, r6, r7, r8, r9, pc}
   853d4:	3b04      	subs	r3, #4
   853d6:	f851 2b04 	ldr.w	r2, [r1], #4
   853da:	458e      	cmp	lr, r1
   853dc:	f843 2f04 	str.w	r2, [r3, #4]!
   853e0:	d8f9      	bhi.n	853d6 <__lshift+0x92>
   853e2:	e7ec      	b.n	853be <__lshift+0x7a>

000853e4 <__mcmp>:
   853e4:	b430      	push	{r4, r5}
   853e6:	690b      	ldr	r3, [r1, #16]
   853e8:	4605      	mov	r5, r0
   853ea:	6900      	ldr	r0, [r0, #16]
   853ec:	1ac0      	subs	r0, r0, r3
   853ee:	d10f      	bne.n	85410 <__mcmp+0x2c>
   853f0:	009b      	lsls	r3, r3, #2
   853f2:	3514      	adds	r5, #20
   853f4:	3114      	adds	r1, #20
   853f6:	4419      	add	r1, r3
   853f8:	442b      	add	r3, r5
   853fa:	e001      	b.n	85400 <__mcmp+0x1c>
   853fc:	429d      	cmp	r5, r3
   853fe:	d207      	bcs.n	85410 <__mcmp+0x2c>
   85400:	f853 4d04 	ldr.w	r4, [r3, #-4]!
   85404:	f851 2d04 	ldr.w	r2, [r1, #-4]!
   85408:	4294      	cmp	r4, r2
   8540a:	d0f7      	beq.n	853fc <__mcmp+0x18>
   8540c:	d302      	bcc.n	85414 <__mcmp+0x30>
   8540e:	2001      	movs	r0, #1
   85410:	bc30      	pop	{r4, r5}
   85412:	4770      	bx	lr
   85414:	f04f 30ff 	mov.w	r0, #4294967295
   85418:	e7fa      	b.n	85410 <__mcmp+0x2c>
   8541a:	bf00      	nop

0008541c <__mdiff>:
   8541c:	e92d 4ff8 	stmdb	sp!, {r3, r4, r5, r6, r7, r8, r9, sl, fp, lr}
   85420:	690c      	ldr	r4, [r1, #16]
   85422:	4689      	mov	r9, r1
   85424:	6911      	ldr	r1, [r2, #16]
   85426:	4692      	mov	sl, r2
   85428:	1a64      	subs	r4, r4, r1
   8542a:	2c00      	cmp	r4, #0
   8542c:	d117      	bne.n	8545e <__mdiff+0x42>
   8542e:	0089      	lsls	r1, r1, #2
   85430:	f109 0714 	add.w	r7, r9, #20
   85434:	f102 0614 	add.w	r6, r2, #20
   85438:	187b      	adds	r3, r7, r1
   8543a:	4431      	add	r1, r6
   8543c:	e001      	b.n	85442 <__mdiff+0x26>
   8543e:	429f      	cmp	r7, r3
   85440:	d265      	bcs.n	8550e <__mdiff+0xf2>
   85442:	f853 5d04 	ldr.w	r5, [r3, #-4]!
   85446:	f851 2d04 	ldr.w	r2, [r1, #-4]!
   8544a:	4295      	cmp	r5, r2
   8544c:	d0f7      	beq.n	8543e <__mdiff+0x22>
   8544e:	d267      	bcs.n	85520 <__mdiff+0x104>
   85450:	464b      	mov	r3, r9
   85452:	46bb      	mov	fp, r7
   85454:	46d1      	mov	r9, sl
   85456:	4637      	mov	r7, r6
   85458:	469a      	mov	sl, r3
   8545a:	2401      	movs	r4, #1
   8545c:	e005      	b.n	8546a <__mdiff+0x4e>
   8545e:	db61      	blt.n	85524 <__mdiff+0x108>
   85460:	2400      	movs	r4, #0
   85462:	f109 0714 	add.w	r7, r9, #20
   85466:	f10a 0b14 	add.w	fp, sl, #20
   8546a:	f8d9 1004 	ldr.w	r1, [r9, #4]
   8546e:	f7ff fdbb 	bl	84fe8 <_Balloc>
   85472:	465d      	mov	r5, fp
   85474:	f04f 0800 	mov.w	r8, #0
   85478:	f8d9 e010 	ldr.w	lr, [r9, #16]
   8547c:	f8da 3010 	ldr.w	r3, [sl, #16]
   85480:	463e      	mov	r6, r7
   85482:	60c4      	str	r4, [r0, #12]
   85484:	eb0b 0c83 	add.w	ip, fp, r3, lsl #2
   85488:	eb07 078e 	add.w	r7, r7, lr, lsl #2
   8548c:	f100 0414 	add.w	r4, r0, #20
   85490:	f856 9b04 	ldr.w	r9, [r6], #4
   85494:	f855 2b04 	ldr.w	r2, [r5], #4
   85498:	fa1f f389 	uxth.w	r3, r9
   8549c:	4443      	add	r3, r8
   8549e:	fa1f f882 	uxth.w	r8, r2
   854a2:	0c12      	lsrs	r2, r2, #16
   854a4:	eba3 0308 	sub.w	r3, r3, r8
   854a8:	ebc2 4219 	rsb	r2, r2, r9, lsr #16
   854ac:	eb02 4223 	add.w	r2, r2, r3, asr #16
   854b0:	b29b      	uxth	r3, r3
   854b2:	ea43 4302 	orr.w	r3, r3, r2, lsl #16
   854b6:	45ac      	cmp	ip, r5
   854b8:	f844 3b04 	str.w	r3, [r4], #4
   854bc:	ea4f 4822 	mov.w	r8, r2, asr #16
   854c0:	d8e6      	bhi.n	85490 <__mdiff+0x74>
   854c2:	42b7      	cmp	r7, r6
   854c4:	d917      	bls.n	854f6 <__mdiff+0xda>
   854c6:	46a4      	mov	ip, r4
   854c8:	4635      	mov	r5, r6
   854ca:	f855 3b04 	ldr.w	r3, [r5], #4
   854ce:	b299      	uxth	r1, r3
   854d0:	4441      	add	r1, r8
   854d2:	140a      	asrs	r2, r1, #16
   854d4:	eb02 4213 	add.w	r2, r2, r3, lsr #16
   854d8:	b289      	uxth	r1, r1
   854da:	ea41 4302 	orr.w	r3, r1, r2, lsl #16
   854de:	42af      	cmp	r7, r5
   854e0:	f84c 3b04 	str.w	r3, [ip], #4
   854e4:	ea4f 4822 	mov.w	r8, r2, asr #16
   854e8:	d8ef      	bhi.n	854ca <__mdiff+0xae>
   854ea:	43f6      	mvns	r6, r6
   854ec:	4437      	add	r7, r6
   854ee:	f027 0703 	bic.w	r7, r7, #3
   854f2:	3704      	adds	r7, #4
   854f4:	443c      	add	r4, r7
   854f6:	3c04      	subs	r4, #4
   854f8:	b92b      	cbnz	r3, 85506 <__mdiff+0xea>
   854fa:	f854 3d04 	ldr.w	r3, [r4, #-4]!
   854fe:	f10e 3eff 	add.w	lr, lr, #4294967295
   85502:	2b00      	cmp	r3, #0
   85504:	d0f9      	beq.n	854fa <__mdiff+0xde>
   85506:	f8c0 e010 	str.w	lr, [r0, #16]
   8550a:	e8bd 8ff8 	ldmia.w	sp!, {r3, r4, r5, r6, r7, r8, r9, sl, fp, pc}
   8550e:	2100      	movs	r1, #0
   85510:	f7ff fd6a 	bl	84fe8 <_Balloc>
   85514:	2201      	movs	r2, #1
   85516:	2300      	movs	r3, #0
   85518:	6102      	str	r2, [r0, #16]
   8551a:	6143      	str	r3, [r0, #20]
   8551c:	e8bd 8ff8 	ldmia.w	sp!, {r3, r4, r5, r6, r7, r8, r9, sl, fp, pc}
   85520:	46b3      	mov	fp, r6
   85522:	e7a2      	b.n	8546a <__mdiff+0x4e>
   85524:	464b      	mov	r3, r9
   85526:	f109 0b14 	add.w	fp, r9, #20
   8552a:	f102 0714 	add.w	r7, r2, #20
   8552e:	4691      	mov	r9, r2
   85530:	2401      	movs	r4, #1
   85532:	469a      	mov	sl, r3
   85534:	e799      	b.n	8546a <__mdiff+0x4e>
   85536:	bf00      	nop

00085538 <__d2b>:
   85538:	b5f0      	push	{r4, r5, r6, r7, lr}
   8553a:	2101      	movs	r1, #1
   8553c:	b083      	sub	sp, #12
   8553e:	461c      	mov	r4, r3
   85540:	f3c3 550a 	ubfx	r5, r3, #20, #11
   85544:	4616      	mov	r6, r2
   85546:	f7ff fd4f 	bl	84fe8 <_Balloc>
   8554a:	f3c4 0413 	ubfx	r4, r4, #0, #20
   8554e:	4607      	mov	r7, r0
   85550:	b10d      	cbz	r5, 85556 <__d2b+0x1e>
   85552:	f444 1480 	orr.w	r4, r4, #1048576	; 0x100000
   85556:	9401      	str	r4, [sp, #4]
   85558:	b306      	cbz	r6, 8559c <__d2b+0x64>
   8555a:	a802      	add	r0, sp, #8
   8555c:	f840 6d08 	str.w	r6, [r0, #-8]!
   85560:	f7ff fdd4 	bl	8510c <__lo0bits>
   85564:	2800      	cmp	r0, #0
   85566:	d130      	bne.n	855ca <__d2b+0x92>
   85568:	e89d 000c 	ldmia.w	sp, {r2, r3}
   8556c:	617a      	str	r2, [r7, #20]
   8556e:	2b00      	cmp	r3, #0
   85570:	bf0c      	ite	eq
   85572:	2101      	moveq	r1, #1
   85574:	2102      	movne	r1, #2
   85576:	61bb      	str	r3, [r7, #24]
   85578:	6139      	str	r1, [r7, #16]
   8557a:	b9d5      	cbnz	r5, 855b2 <__d2b+0x7a>
   8557c:	9a08      	ldr	r2, [sp, #32]
   8557e:	eb07 0381 	add.w	r3, r7, r1, lsl #2
   85582:	f2a0 4032 	subw	r0, r0, #1074	; 0x432
   85586:	6010      	str	r0, [r2, #0]
   85588:	6918      	ldr	r0, [r3, #16]
   8558a:	f7ff fd9f 	bl	850cc <__hi0bits>
   8558e:	9b09      	ldr	r3, [sp, #36]	; 0x24
   85590:	ebc0 1041 	rsb	r0, r0, r1, lsl #5
   85594:	6018      	str	r0, [r3, #0]
   85596:	4638      	mov	r0, r7
   85598:	b003      	add	sp, #12
   8559a:	bdf0      	pop	{r4, r5, r6, r7, pc}
   8559c:	a801      	add	r0, sp, #4
   8559e:	f7ff fdb5 	bl	8510c <__lo0bits>
   855a2:	2201      	movs	r2, #1
   855a4:	9b01      	ldr	r3, [sp, #4]
   855a6:	4611      	mov	r1, r2
   855a8:	3020      	adds	r0, #32
   855aa:	613a      	str	r2, [r7, #16]
   855ac:	617b      	str	r3, [r7, #20]
   855ae:	2d00      	cmp	r5, #0
   855b0:	d0e4      	beq.n	8557c <__d2b+0x44>
   855b2:	f2a5 4333 	subw	r3, r5, #1075	; 0x433
   855b6:	9a08      	ldr	r2, [sp, #32]
   855b8:	4403      	add	r3, r0
   855ba:	6013      	str	r3, [r2, #0]
   855bc:	9b09      	ldr	r3, [sp, #36]	; 0x24
   855be:	f1c0 0035 	rsb	r0, r0, #53	; 0x35
   855c2:	6018      	str	r0, [r3, #0]
   855c4:	4638      	mov	r0, r7
   855c6:	b003      	add	sp, #12
   855c8:	bdf0      	pop	{r4, r5, r6, r7, pc}
   855ca:	9b01      	ldr	r3, [sp, #4]
   855cc:	f1c0 0220 	rsb	r2, r0, #32
   855d0:	9900      	ldr	r1, [sp, #0]
   855d2:	fa03 f202 	lsl.w	r2, r3, r2
   855d6:	430a      	orrs	r2, r1
   855d8:	40c3      	lsrs	r3, r0
   855da:	9301      	str	r3, [sp, #4]
   855dc:	617a      	str	r2, [r7, #20]
   855de:	e7c6      	b.n	8556e <__d2b+0x36>

000855e0 <_sbrk_r>:
   855e0:	b538      	push	{r3, r4, r5, lr}
   855e2:	2300      	movs	r3, #0
   855e4:	4c06      	ldr	r4, [pc, #24]	; (85600 <_sbrk_r+0x20>)
   855e6:	4605      	mov	r5, r0
   855e8:	4608      	mov	r0, r1
   855ea:	6023      	str	r3, [r4, #0]
   855ec:	f7fb ff9e 	bl	8152c <_sbrk>
   855f0:	1c43      	adds	r3, r0, #1
   855f2:	d000      	beq.n	855f6 <_sbrk_r+0x16>
   855f4:	bd38      	pop	{r3, r4, r5, pc}
   855f6:	6823      	ldr	r3, [r4, #0]
   855f8:	2b00      	cmp	r3, #0
   855fa:	d0fb      	beq.n	855f4 <_sbrk_r+0x14>
   855fc:	602b      	str	r3, [r5, #0]
   855fe:	bd38      	pop	{r3, r4, r5, pc}
   85600:	20070c20 	.word	0x20070c20

00085604 <__ssprint_r>:
   85604:	e92d 4ff0 	stmdb	sp!, {r4, r5, r6, r7, r8, r9, sl, fp, lr}
   85608:	6893      	ldr	r3, [r2, #8]
   8560a:	b083      	sub	sp, #12
   8560c:	4690      	mov	r8, r2
   8560e:	2b00      	cmp	r3, #0
   85610:	d070      	beq.n	856f4 <__ssprint_r+0xf0>
   85612:	4682      	mov	sl, r0
   85614:	460c      	mov	r4, r1
   85616:	6817      	ldr	r7, [r2, #0]
   85618:	688d      	ldr	r5, [r1, #8]
   8561a:	6808      	ldr	r0, [r1, #0]
   8561c:	e042      	b.n	856a4 <__ssprint_r+0xa0>
   8561e:	89a3      	ldrh	r3, [r4, #12]
   85620:	f413 6f90 	tst.w	r3, #1152	; 0x480
   85624:	d02e      	beq.n	85684 <__ssprint_r+0x80>
   85626:	6965      	ldr	r5, [r4, #20]
   85628:	6921      	ldr	r1, [r4, #16]
   8562a:	eb05 0545 	add.w	r5, r5, r5, lsl #1
   8562e:	eba0 0b01 	sub.w	fp, r0, r1
   85632:	eb05 75d5 	add.w	r5, r5, r5, lsr #31
   85636:	f10b 0001 	add.w	r0, fp, #1
   8563a:	106d      	asrs	r5, r5, #1
   8563c:	4430      	add	r0, r6
   8563e:	42a8      	cmp	r0, r5
   85640:	462a      	mov	r2, r5
   85642:	bf84      	itt	hi
   85644:	4605      	movhi	r5, r0
   85646:	462a      	movhi	r2, r5
   85648:	055b      	lsls	r3, r3, #21
   8564a:	d538      	bpl.n	856be <__ssprint_r+0xba>
   8564c:	4611      	mov	r1, r2
   8564e:	4650      	mov	r0, sl
   85650:	f7ff f960 	bl	84914 <_malloc_r>
   85654:	2800      	cmp	r0, #0
   85656:	d03c      	beq.n	856d2 <__ssprint_r+0xce>
   85658:	465a      	mov	r2, fp
   8565a:	6921      	ldr	r1, [r4, #16]
   8565c:	9001      	str	r0, [sp, #4]
   8565e:	f7ff fc41 	bl	84ee4 <memcpy>
   85662:	89a2      	ldrh	r2, [r4, #12]
   85664:	9b01      	ldr	r3, [sp, #4]
   85666:	f422 6290 	bic.w	r2, r2, #1152	; 0x480
   8566a:	f042 0280 	orr.w	r2, r2, #128	; 0x80
   8566e:	81a2      	strh	r2, [r4, #12]
   85670:	eba5 020b 	sub.w	r2, r5, fp
   85674:	eb03 000b 	add.w	r0, r3, fp
   85678:	6165      	str	r5, [r4, #20]
   8567a:	46b3      	mov	fp, r6
   8567c:	4635      	mov	r5, r6
   8567e:	6123      	str	r3, [r4, #16]
   85680:	6020      	str	r0, [r4, #0]
   85682:	60a2      	str	r2, [r4, #8]
   85684:	465a      	mov	r2, fp
   85686:	4649      	mov	r1, r9
   85688:	f000 fa18 	bl	85abc <memmove>
   8568c:	f8d8 3008 	ldr.w	r3, [r8, #8]
   85690:	68a2      	ldr	r2, [r4, #8]
   85692:	6820      	ldr	r0, [r4, #0]
   85694:	1b55      	subs	r5, r2, r5
   85696:	4458      	add	r0, fp
   85698:	1b9e      	subs	r6, r3, r6
   8569a:	60a5      	str	r5, [r4, #8]
   8569c:	6020      	str	r0, [r4, #0]
   8569e:	f8c8 6008 	str.w	r6, [r8, #8]
   856a2:	b33e      	cbz	r6, 856f4 <__ssprint_r+0xf0>
   856a4:	687e      	ldr	r6, [r7, #4]
   856a6:	463b      	mov	r3, r7
   856a8:	3708      	adds	r7, #8
   856aa:	2e00      	cmp	r6, #0
   856ac:	d0fa      	beq.n	856a4 <__ssprint_r+0xa0>
   856ae:	42ae      	cmp	r6, r5
   856b0:	f8d3 9000 	ldr.w	r9, [r3]
   856b4:	46ab      	mov	fp, r5
   856b6:	d2b2      	bcs.n	8561e <__ssprint_r+0x1a>
   856b8:	4635      	mov	r5, r6
   856ba:	46b3      	mov	fp, r6
   856bc:	e7e2      	b.n	85684 <__ssprint_r+0x80>
   856be:	4650      	mov	r0, sl
   856c0:	f000 fa60 	bl	85b84 <_realloc_r>
   856c4:	4603      	mov	r3, r0
   856c6:	2800      	cmp	r0, #0
   856c8:	d1d2      	bne.n	85670 <__ssprint_r+0x6c>
   856ca:	6921      	ldr	r1, [r4, #16]
   856cc:	4650      	mov	r0, sl
   856ce:	f000 f8f9 	bl	858c4 <_free_r>
   856d2:	230c      	movs	r3, #12
   856d4:	2200      	movs	r2, #0
   856d6:	f04f 30ff 	mov.w	r0, #4294967295
   856da:	f8ca 3000 	str.w	r3, [sl]
   856de:	89a3      	ldrh	r3, [r4, #12]
   856e0:	f043 0340 	orr.w	r3, r3, #64	; 0x40
   856e4:	81a3      	strh	r3, [r4, #12]
   856e6:	f8c8 2008 	str.w	r2, [r8, #8]
   856ea:	f8c8 2004 	str.w	r2, [r8, #4]
   856ee:	b003      	add	sp, #12
   856f0:	e8bd 8ff0 	ldmia.w	sp!, {r4, r5, r6, r7, r8, r9, sl, fp, pc}
   856f4:	2000      	movs	r0, #0
   856f6:	f8c8 0004 	str.w	r0, [r8, #4]
   856fa:	b003      	add	sp, #12
   856fc:	e8bd 8ff0 	ldmia.w	sp!, {r4, r5, r6, r7, r8, r9, sl, fp, pc}

00085700 <__register_exitproc>:
   85700:	e92d 43f8 	stmdb	sp!, {r3, r4, r5, r6, r7, r8, r9, lr}
   85704:	4d2c      	ldr	r5, [pc, #176]	; (857b8 <__register_exitproc+0xb8>)
   85706:	4606      	mov	r6, r0
   85708:	6828      	ldr	r0, [r5, #0]
   8570a:	4698      	mov	r8, r3
   8570c:	460f      	mov	r7, r1
   8570e:	4691      	mov	r9, r2
   85710:	f7ff f8fc 	bl	8490c <__retarget_lock_acquire_recursive>
   85714:	4b29      	ldr	r3, [pc, #164]	; (857bc <__register_exitproc+0xbc>)
   85716:	681c      	ldr	r4, [r3, #0]
   85718:	f8d4 3148 	ldr.w	r3, [r4, #328]	; 0x148
   8571c:	2b00      	cmp	r3, #0
   8571e:	d03e      	beq.n	8579e <__register_exitproc+0x9e>
   85720:	685a      	ldr	r2, [r3, #4]
   85722:	2a1f      	cmp	r2, #31
   85724:	dc1c      	bgt.n	85760 <__register_exitproc+0x60>
   85726:	f102 0e01 	add.w	lr, r2, #1
   8572a:	b176      	cbz	r6, 8574a <__register_exitproc+0x4a>
   8572c:	2101      	movs	r1, #1
   8572e:	eb03 0482 	add.w	r4, r3, r2, lsl #2
   85732:	f8c4 9088 	str.w	r9, [r4, #136]	; 0x88
   85736:	f8d3 0188 	ldr.w	r0, [r3, #392]	; 0x188
   8573a:	4091      	lsls	r1, r2
   8573c:	4308      	orrs	r0, r1
   8573e:	2e02      	cmp	r6, #2
   85740:	f8c3 0188 	str.w	r0, [r3, #392]	; 0x188
   85744:	f8c4 8108 	str.w	r8, [r4, #264]	; 0x108
   85748:	d023      	beq.n	85792 <__register_exitproc+0x92>
   8574a:	3202      	adds	r2, #2
   8574c:	f8c3 e004 	str.w	lr, [r3, #4]
   85750:	6828      	ldr	r0, [r5, #0]
   85752:	f843 7022 	str.w	r7, [r3, r2, lsl #2]
   85756:	f7ff f8db 	bl	84910 <__retarget_lock_release_recursive>
   8575a:	2000      	movs	r0, #0
   8575c:	e8bd 83f8 	ldmia.w	sp!, {r3, r4, r5, r6, r7, r8, r9, pc}
   85760:	4b17      	ldr	r3, [pc, #92]	; (857c0 <__register_exitproc+0xc0>)
   85762:	b30b      	cbz	r3, 857a8 <__register_exitproc+0xa8>
   85764:	f44f 70c8 	mov.w	r0, #400	; 0x190
   85768:	f3af 8000 	nop.w
   8576c:	4603      	mov	r3, r0
   8576e:	b1d8      	cbz	r0, 857a8 <__register_exitproc+0xa8>
   85770:	2000      	movs	r0, #0
   85772:	f8d4 1148 	ldr.w	r1, [r4, #328]	; 0x148
   85776:	f04f 0e01 	mov.w	lr, #1
   8577a:	6058      	str	r0, [r3, #4]
   8577c:	6019      	str	r1, [r3, #0]
   8577e:	4602      	mov	r2, r0
   85780:	f8c4 3148 	str.w	r3, [r4, #328]	; 0x148
   85784:	f8c3 0188 	str.w	r0, [r3, #392]	; 0x188
   85788:	f8c3 018c 	str.w	r0, [r3, #396]	; 0x18c
   8578c:	2e00      	cmp	r6, #0
   8578e:	d0dc      	beq.n	8574a <__register_exitproc+0x4a>
   85790:	e7cc      	b.n	8572c <__register_exitproc+0x2c>
   85792:	f8d3 018c 	ldr.w	r0, [r3, #396]	; 0x18c
   85796:	4301      	orrs	r1, r0
   85798:	f8c3 118c 	str.w	r1, [r3, #396]	; 0x18c
   8579c:	e7d5      	b.n	8574a <__register_exitproc+0x4a>
   8579e:	f504 73a6 	add.w	r3, r4, #332	; 0x14c
   857a2:	f8c4 3148 	str.w	r3, [r4, #328]	; 0x148
   857a6:	e7bb      	b.n	85720 <__register_exitproc+0x20>
   857a8:	6828      	ldr	r0, [r5, #0]
   857aa:	f7ff f8b1 	bl	84910 <__retarget_lock_release_recursive>
   857ae:	f04f 30ff 	mov.w	r0, #4294967295
   857b2:	e8bd 83f8 	ldmia.w	sp!, {r3, r4, r5, r6, r7, r8, r9, pc}
   857b6:	bf00      	nop
   857b8:	200705c8 	.word	0x200705c8
   857bc:	00086c44 	.word	0x00086c44
   857c0:	00000000 	.word	0x00000000

000857c4 <_calloc_r>:
   857c4:	b510      	push	{r4, lr}
   857c6:	fb02 f101 	mul.w	r1, r2, r1
   857ca:	f7ff f8a3 	bl	84914 <_malloc_r>
   857ce:	4604      	mov	r4, r0
   857d0:	b1d8      	cbz	r0, 8580a <_calloc_r+0x46>
   857d2:	f850 2c04 	ldr.w	r2, [r0, #-4]
   857d6:	f022 0203 	bic.w	r2, r2, #3
   857da:	3a04      	subs	r2, #4
   857dc:	2a24      	cmp	r2, #36	; 0x24
   857de:	d818      	bhi.n	85812 <_calloc_r+0x4e>
   857e0:	2a13      	cmp	r2, #19
   857e2:	d914      	bls.n	8580e <_calloc_r+0x4a>
   857e4:	2300      	movs	r3, #0
   857e6:	2a1b      	cmp	r2, #27
   857e8:	6003      	str	r3, [r0, #0]
   857ea:	6043      	str	r3, [r0, #4]
   857ec:	d916      	bls.n	8581c <_calloc_r+0x58>
   857ee:	2a24      	cmp	r2, #36	; 0x24
   857f0:	6083      	str	r3, [r0, #8]
   857f2:	60c3      	str	r3, [r0, #12]
   857f4:	bf11      	iteee	ne
   857f6:	f100 0210 	addne.w	r2, r0, #16
   857fa:	6103      	streq	r3, [r0, #16]
   857fc:	6143      	streq	r3, [r0, #20]
   857fe:	f100 0218 	addeq.w	r2, r0, #24
   85802:	2300      	movs	r3, #0
   85804:	6013      	str	r3, [r2, #0]
   85806:	6053      	str	r3, [r2, #4]
   85808:	6093      	str	r3, [r2, #8]
   8580a:	4620      	mov	r0, r4
   8580c:	bd10      	pop	{r4, pc}
   8580e:	4602      	mov	r2, r0
   85810:	e7f7      	b.n	85802 <_calloc_r+0x3e>
   85812:	2100      	movs	r1, #0
   85814:	f7fc fd68 	bl	822e8 <memset>
   85818:	4620      	mov	r0, r4
   8581a:	bd10      	pop	{r4, pc}
   8581c:	f100 0208 	add.w	r2, r0, #8
   85820:	e7ef      	b.n	85802 <_calloc_r+0x3e>
   85822:	bf00      	nop

00085824 <_malloc_trim_r>:
   85824:	b5f8      	push	{r3, r4, r5, r6, r7, lr}
   85826:	460c      	mov	r4, r1
   85828:	4f23      	ldr	r7, [pc, #140]	; (858b8 <_malloc_trim_r+0x94>)
   8582a:	4606      	mov	r6, r0
   8582c:	f7ff fbd0 	bl	84fd0 <__malloc_lock>
   85830:	68bb      	ldr	r3, [r7, #8]
   85832:	f5c4 617e 	rsb	r1, r4, #4064	; 0xfe0
   85836:	685d      	ldr	r5, [r3, #4]
   85838:	310f      	adds	r1, #15
   8583a:	f025 0503 	bic.w	r5, r5, #3
   8583e:	4429      	add	r1, r5
   85840:	f421 617f 	bic.w	r1, r1, #4080	; 0xff0
   85844:	f021 010f 	bic.w	r1, r1, #15
   85848:	f5a1 5480 	sub.w	r4, r1, #4096	; 0x1000
   8584c:	f5b4 5f80 	cmp.w	r4, #4096	; 0x1000
   85850:	db07      	blt.n	85862 <_malloc_trim_r+0x3e>
   85852:	2100      	movs	r1, #0
   85854:	4630      	mov	r0, r6
   85856:	f7ff fec3 	bl	855e0 <_sbrk_r>
   8585a:	68bb      	ldr	r3, [r7, #8]
   8585c:	442b      	add	r3, r5
   8585e:	4298      	cmp	r0, r3
   85860:	d004      	beq.n	8586c <_malloc_trim_r+0x48>
   85862:	4630      	mov	r0, r6
   85864:	f7ff fbba 	bl	84fdc <__malloc_unlock>
   85868:	2000      	movs	r0, #0
   8586a:	bdf8      	pop	{r3, r4, r5, r6, r7, pc}
   8586c:	4261      	negs	r1, r4
   8586e:	4630      	mov	r0, r6
   85870:	f7ff feb6 	bl	855e0 <_sbrk_r>
   85874:	3001      	adds	r0, #1
   85876:	d00d      	beq.n	85894 <_malloc_trim_r+0x70>
   85878:	4b10      	ldr	r3, [pc, #64]	; (858bc <_malloc_trim_r+0x98>)
   8587a:	68ba      	ldr	r2, [r7, #8]
   8587c:	6819      	ldr	r1, [r3, #0]
   8587e:	1b2d      	subs	r5, r5, r4
   85880:	f045 0501 	orr.w	r5, r5, #1
   85884:	4630      	mov	r0, r6
   85886:	1b09      	subs	r1, r1, r4
   85888:	6055      	str	r5, [r2, #4]
   8588a:	6019      	str	r1, [r3, #0]
   8588c:	f7ff fba6 	bl	84fdc <__malloc_unlock>
   85890:	2001      	movs	r0, #1
   85892:	bdf8      	pop	{r3, r4, r5, r6, r7, pc}
   85894:	2100      	movs	r1, #0
   85896:	4630      	mov	r0, r6
   85898:	f7ff fea2 	bl	855e0 <_sbrk_r>
   8589c:	68ba      	ldr	r2, [r7, #8]
   8589e:	1a83      	subs	r3, r0, r2
   858a0:	2b0f      	cmp	r3, #15
   858a2:	ddde      	ble.n	85862 <_malloc_trim_r+0x3e>
   858a4:	4c06      	ldr	r4, [pc, #24]	; (858c0 <_malloc_trim_r+0x9c>)
   858a6:	4905      	ldr	r1, [pc, #20]	; (858bc <_malloc_trim_r+0x98>)
   858a8:	6824      	ldr	r4, [r4, #0]
   858aa:	f043 0301 	orr.w	r3, r3, #1
   858ae:	1b00      	subs	r0, r0, r4
   858b0:	6053      	str	r3, [r2, #4]
   858b2:	6008      	str	r0, [r1, #0]
   858b4:	e7d5      	b.n	85862 <_malloc_trim_r+0x3e>
   858b6:	bf00      	nop
   858b8:	200705cc 	.word	0x200705cc
   858bc:	20070b88 	.word	0x20070b88
   858c0:	200709d4 	.word	0x200709d4

000858c4 <_free_r>:
   858c4:	2900      	cmp	r1, #0
   858c6:	d044      	beq.n	85952 <_free_r+0x8e>
   858c8:	e92d 41f0 	stmdb	sp!, {r4, r5, r6, r7, r8, lr}
   858cc:	460d      	mov	r5, r1
   858ce:	4680      	mov	r8, r0
   858d0:	f7ff fb7e 	bl	84fd0 <__malloc_lock>
   858d4:	f855 7c04 	ldr.w	r7, [r5, #-4]
   858d8:	4969      	ldr	r1, [pc, #420]	; (85a80 <_free_r+0x1bc>)
   858da:	f1a5 0408 	sub.w	r4, r5, #8
   858de:	f027 0301 	bic.w	r3, r7, #1
   858e2:	18e2      	adds	r2, r4, r3
   858e4:	688e      	ldr	r6, [r1, #8]
   858e6:	6850      	ldr	r0, [r2, #4]
   858e8:	42b2      	cmp	r2, r6
   858ea:	f020 0003 	bic.w	r0, r0, #3
   858ee:	d05e      	beq.n	859ae <_free_r+0xea>
   858f0:	07fe      	lsls	r6, r7, #31
   858f2:	6050      	str	r0, [r2, #4]
   858f4:	d40b      	bmi.n	8590e <_free_r+0x4a>
   858f6:	f855 7c08 	ldr.w	r7, [r5, #-8]
   858fa:	f101 0e08 	add.w	lr, r1, #8
   858fe:	1be4      	subs	r4, r4, r7
   85900:	68a5      	ldr	r5, [r4, #8]
   85902:	443b      	add	r3, r7
   85904:	4575      	cmp	r5, lr
   85906:	d06d      	beq.n	859e4 <_free_r+0x120>
   85908:	68e7      	ldr	r7, [r4, #12]
   8590a:	60ef      	str	r7, [r5, #12]
   8590c:	60bd      	str	r5, [r7, #8]
   8590e:	1815      	adds	r5, r2, r0
   85910:	686d      	ldr	r5, [r5, #4]
   85912:	07ed      	lsls	r5, r5, #31
   85914:	d53e      	bpl.n	85994 <_free_r+0xd0>
   85916:	f043 0201 	orr.w	r2, r3, #1
   8591a:	6062      	str	r2, [r4, #4]
   8591c:	50e3      	str	r3, [r4, r3]
   8591e:	f5b3 7f00 	cmp.w	r3, #512	; 0x200
   85922:	d217      	bcs.n	85954 <_free_r+0x90>
   85924:	2201      	movs	r2, #1
   85926:	08db      	lsrs	r3, r3, #3
   85928:	1098      	asrs	r0, r3, #2
   8592a:	684d      	ldr	r5, [r1, #4]
   8592c:	4413      	add	r3, r2
   8592e:	f851 7033 	ldr.w	r7, [r1, r3, lsl #3]
   85932:	4082      	lsls	r2, r0
   85934:	eb01 00c3 	add.w	r0, r1, r3, lsl #3
   85938:	432a      	orrs	r2, r5
   8593a:	3808      	subs	r0, #8
   8593c:	60e0      	str	r0, [r4, #12]
   8593e:	60a7      	str	r7, [r4, #8]
   85940:	604a      	str	r2, [r1, #4]
   85942:	f841 4033 	str.w	r4, [r1, r3, lsl #3]
   85946:	60fc      	str	r4, [r7, #12]
   85948:	4640      	mov	r0, r8
   8594a:	e8bd 41f0 	ldmia.w	sp!, {r4, r5, r6, r7, r8, lr}
   8594e:	f7ff bb45 	b.w	84fdc <__malloc_unlock>
   85952:	4770      	bx	lr
   85954:	0a5a      	lsrs	r2, r3, #9
   85956:	2a04      	cmp	r2, #4
   85958:	d852      	bhi.n	85a00 <_free_r+0x13c>
   8595a:	099a      	lsrs	r2, r3, #6
   8595c:	f102 0739 	add.w	r7, r2, #57	; 0x39
   85960:	00ff      	lsls	r7, r7, #3
   85962:	f102 0538 	add.w	r5, r2, #56	; 0x38
   85966:	19c8      	adds	r0, r1, r7
   85968:	59ca      	ldr	r2, [r1, r7]
   8596a:	3808      	subs	r0, #8
   8596c:	4290      	cmp	r0, r2
   8596e:	d04f      	beq.n	85a10 <_free_r+0x14c>
   85970:	6851      	ldr	r1, [r2, #4]
   85972:	f021 0103 	bic.w	r1, r1, #3
   85976:	428b      	cmp	r3, r1
   85978:	d232      	bcs.n	859e0 <_free_r+0x11c>
   8597a:	6892      	ldr	r2, [r2, #8]
   8597c:	4290      	cmp	r0, r2
   8597e:	d1f7      	bne.n	85970 <_free_r+0xac>
   85980:	68c3      	ldr	r3, [r0, #12]
   85982:	60a0      	str	r0, [r4, #8]
   85984:	60e3      	str	r3, [r4, #12]
   85986:	609c      	str	r4, [r3, #8]
   85988:	60c4      	str	r4, [r0, #12]
   8598a:	4640      	mov	r0, r8
   8598c:	e8bd 41f0 	ldmia.w	sp!, {r4, r5, r6, r7, r8, lr}
   85990:	f7ff bb24 	b.w	84fdc <__malloc_unlock>
   85994:	6895      	ldr	r5, [r2, #8]
   85996:	4f3b      	ldr	r7, [pc, #236]	; (85a84 <_free_r+0x1c0>)
   85998:	4403      	add	r3, r0
   8599a:	42bd      	cmp	r5, r7
   8599c:	d040      	beq.n	85a20 <_free_r+0x15c>
   8599e:	68d0      	ldr	r0, [r2, #12]
   859a0:	f043 0201 	orr.w	r2, r3, #1
   859a4:	60e8      	str	r0, [r5, #12]
   859a6:	6085      	str	r5, [r0, #8]
   859a8:	6062      	str	r2, [r4, #4]
   859aa:	50e3      	str	r3, [r4, r3]
   859ac:	e7b7      	b.n	8591e <_free_r+0x5a>
   859ae:	07ff      	lsls	r7, r7, #31
   859b0:	4403      	add	r3, r0
   859b2:	d407      	bmi.n	859c4 <_free_r+0x100>
   859b4:	f855 5c08 	ldr.w	r5, [r5, #-8]
   859b8:	1b64      	subs	r4, r4, r5
   859ba:	68e2      	ldr	r2, [r4, #12]
   859bc:	68a0      	ldr	r0, [r4, #8]
   859be:	442b      	add	r3, r5
   859c0:	60c2      	str	r2, [r0, #12]
   859c2:	6090      	str	r0, [r2, #8]
   859c4:	4a30      	ldr	r2, [pc, #192]	; (85a88 <_free_r+0x1c4>)
   859c6:	f043 0001 	orr.w	r0, r3, #1
   859ca:	6812      	ldr	r2, [r2, #0]
   859cc:	6060      	str	r0, [r4, #4]
   859ce:	4293      	cmp	r3, r2
   859d0:	608c      	str	r4, [r1, #8]
   859d2:	d3b9      	bcc.n	85948 <_free_r+0x84>
   859d4:	4b2d      	ldr	r3, [pc, #180]	; (85a8c <_free_r+0x1c8>)
   859d6:	4640      	mov	r0, r8
   859d8:	6819      	ldr	r1, [r3, #0]
   859da:	f7ff ff23 	bl	85824 <_malloc_trim_r>
   859de:	e7b3      	b.n	85948 <_free_r+0x84>
   859e0:	4610      	mov	r0, r2
   859e2:	e7cd      	b.n	85980 <_free_r+0xbc>
   859e4:	1811      	adds	r1, r2, r0
   859e6:	6849      	ldr	r1, [r1, #4]
   859e8:	07c9      	lsls	r1, r1, #31
   859ea:	d444      	bmi.n	85a76 <_free_r+0x1b2>
   859ec:	6891      	ldr	r1, [r2, #8]
   859ee:	4403      	add	r3, r0
   859f0:	68d2      	ldr	r2, [r2, #12]
   859f2:	f043 0001 	orr.w	r0, r3, #1
   859f6:	60ca      	str	r2, [r1, #12]
   859f8:	6091      	str	r1, [r2, #8]
   859fa:	6060      	str	r0, [r4, #4]
   859fc:	50e3      	str	r3, [r4, r3]
   859fe:	e7a3      	b.n	85948 <_free_r+0x84>
   85a00:	2a14      	cmp	r2, #20
   85a02:	d816      	bhi.n	85a32 <_free_r+0x16e>
   85a04:	f102 075c 	add.w	r7, r2, #92	; 0x5c
   85a08:	00ff      	lsls	r7, r7, #3
   85a0a:	f102 055b 	add.w	r5, r2, #91	; 0x5b
   85a0e:	e7aa      	b.n	85966 <_free_r+0xa2>
   85a10:	2301      	movs	r3, #1
   85a12:	10aa      	asrs	r2, r5, #2
   85a14:	684d      	ldr	r5, [r1, #4]
   85a16:	4093      	lsls	r3, r2
   85a18:	432b      	orrs	r3, r5
   85a1a:	604b      	str	r3, [r1, #4]
   85a1c:	4603      	mov	r3, r0
   85a1e:	e7b0      	b.n	85982 <_free_r+0xbe>
   85a20:	f043 0201 	orr.w	r2, r3, #1
   85a24:	614c      	str	r4, [r1, #20]
   85a26:	610c      	str	r4, [r1, #16]
   85a28:	60e5      	str	r5, [r4, #12]
   85a2a:	60a5      	str	r5, [r4, #8]
   85a2c:	6062      	str	r2, [r4, #4]
   85a2e:	50e3      	str	r3, [r4, r3]
   85a30:	e78a      	b.n	85948 <_free_r+0x84>
   85a32:	2a54      	cmp	r2, #84	; 0x54
   85a34:	d806      	bhi.n	85a44 <_free_r+0x180>
   85a36:	0b1a      	lsrs	r2, r3, #12
   85a38:	f102 076f 	add.w	r7, r2, #111	; 0x6f
   85a3c:	00ff      	lsls	r7, r7, #3
   85a3e:	f102 056e 	add.w	r5, r2, #110	; 0x6e
   85a42:	e790      	b.n	85966 <_free_r+0xa2>
   85a44:	f5b2 7faa 	cmp.w	r2, #340	; 0x154
   85a48:	d806      	bhi.n	85a58 <_free_r+0x194>
   85a4a:	0bda      	lsrs	r2, r3, #15
   85a4c:	f102 0778 	add.w	r7, r2, #120	; 0x78
   85a50:	00ff      	lsls	r7, r7, #3
   85a52:	f102 0577 	add.w	r5, r2, #119	; 0x77
   85a56:	e786      	b.n	85966 <_free_r+0xa2>
   85a58:	f240 5054 	movw	r0, #1364	; 0x554
   85a5c:	4282      	cmp	r2, r0
   85a5e:	d806      	bhi.n	85a6e <_free_r+0x1aa>
   85a60:	0c9a      	lsrs	r2, r3, #18
   85a62:	f102 077d 	add.w	r7, r2, #125	; 0x7d
   85a66:	00ff      	lsls	r7, r7, #3
   85a68:	f102 057c 	add.w	r5, r2, #124	; 0x7c
   85a6c:	e77b      	b.n	85966 <_free_r+0xa2>
   85a6e:	f44f 777e 	mov.w	r7, #1016	; 0x3f8
   85a72:	257e      	movs	r5, #126	; 0x7e
   85a74:	e777      	b.n	85966 <_free_r+0xa2>
   85a76:	f043 0101 	orr.w	r1, r3, #1
   85a7a:	6061      	str	r1, [r4, #4]
   85a7c:	6013      	str	r3, [r2, #0]
   85a7e:	e763      	b.n	85948 <_free_r+0x84>
   85a80:	200705cc 	.word	0x200705cc
   85a84:	200705d4 	.word	0x200705d4
   85a88:	200709d8 	.word	0x200709d8
   85a8c:	20070bb8 	.word	0x20070bb8

00085a90 <__ascii_mbtowc>:
   85a90:	b082      	sub	sp, #8
   85a92:	b149      	cbz	r1, 85aa8 <__ascii_mbtowc+0x18>
   85a94:	b15a      	cbz	r2, 85aae <__ascii_mbtowc+0x1e>
   85a96:	b16b      	cbz	r3, 85ab4 <__ascii_mbtowc+0x24>
   85a98:	7813      	ldrb	r3, [r2, #0]
   85a9a:	600b      	str	r3, [r1, #0]
   85a9c:	7812      	ldrb	r2, [r2, #0]
   85a9e:	1c10      	adds	r0, r2, #0
   85aa0:	bf18      	it	ne
   85aa2:	2001      	movne	r0, #1
   85aa4:	b002      	add	sp, #8
   85aa6:	4770      	bx	lr
   85aa8:	a901      	add	r1, sp, #4
   85aaa:	2a00      	cmp	r2, #0
   85aac:	d1f3      	bne.n	85a96 <__ascii_mbtowc+0x6>
   85aae:	4610      	mov	r0, r2
   85ab0:	b002      	add	sp, #8
   85ab2:	4770      	bx	lr
   85ab4:	f06f 0001 	mvn.w	r0, #1
   85ab8:	e7f4      	b.n	85aa4 <__ascii_mbtowc+0x14>
   85aba:	bf00      	nop

00085abc <memmove>:
   85abc:	4288      	cmp	r0, r1
   85abe:	b5f0      	push	{r4, r5, r6, r7, lr}
   85ac0:	d90d      	bls.n	85ade <memmove+0x22>
   85ac2:	188b      	adds	r3, r1, r2
   85ac4:	4298      	cmp	r0, r3
   85ac6:	d20a      	bcs.n	85ade <memmove+0x22>
   85ac8:	1884      	adds	r4, r0, r2
   85aca:	2a00      	cmp	r2, #0
   85acc:	d051      	beq.n	85b72 <memmove+0xb6>
   85ace:	4622      	mov	r2, r4
   85ad0:	f813 4d01 	ldrb.w	r4, [r3, #-1]!
   85ad4:	4299      	cmp	r1, r3
   85ad6:	f802 4d01 	strb.w	r4, [r2, #-1]!
   85ada:	d1f9      	bne.n	85ad0 <memmove+0x14>
   85adc:	bdf0      	pop	{r4, r5, r6, r7, pc}
   85ade:	2a0f      	cmp	r2, #15
   85ae0:	d948      	bls.n	85b74 <memmove+0xb8>
   85ae2:	ea41 0300 	orr.w	r3, r1, r0
   85ae6:	079b      	lsls	r3, r3, #30
   85ae8:	d146      	bne.n	85b78 <memmove+0xbc>
   85aea:	4615      	mov	r5, r2
   85aec:	f100 0410 	add.w	r4, r0, #16
   85af0:	f101 0310 	add.w	r3, r1, #16
   85af4:	f853 6c10 	ldr.w	r6, [r3, #-16]
   85af8:	3d10      	subs	r5, #16
   85afa:	f844 6c10 	str.w	r6, [r4, #-16]
   85afe:	f853 6c0c 	ldr.w	r6, [r3, #-12]
   85b02:	2d0f      	cmp	r5, #15
   85b04:	f844 6c0c 	str.w	r6, [r4, #-12]
   85b08:	f853 6c08 	ldr.w	r6, [r3, #-8]
   85b0c:	f104 0410 	add.w	r4, r4, #16
   85b10:	f844 6c18 	str.w	r6, [r4, #-24]
   85b14:	f853 6c04 	ldr.w	r6, [r3, #-4]
   85b18:	f103 0310 	add.w	r3, r3, #16
   85b1c:	f844 6c14 	str.w	r6, [r4, #-20]
   85b20:	d8e8      	bhi.n	85af4 <memmove+0x38>
   85b22:	f1a2 0310 	sub.w	r3, r2, #16
   85b26:	f023 030f 	bic.w	r3, r3, #15
   85b2a:	f002 0e0f 	and.w	lr, r2, #15
   85b2e:	3310      	adds	r3, #16
   85b30:	f1be 0f03 	cmp.w	lr, #3
   85b34:	4419      	add	r1, r3
   85b36:	4403      	add	r3, r0
   85b38:	d921      	bls.n	85b7e <memmove+0xc2>
   85b3a:	460e      	mov	r6, r1
   85b3c:	4674      	mov	r4, lr
   85b3e:	1f1d      	subs	r5, r3, #4
   85b40:	f856 7b04 	ldr.w	r7, [r6], #4
   85b44:	3c04      	subs	r4, #4
   85b46:	2c03      	cmp	r4, #3
   85b48:	f845 7f04 	str.w	r7, [r5, #4]!
   85b4c:	d8f8      	bhi.n	85b40 <memmove+0x84>
   85b4e:	f1ae 0404 	sub.w	r4, lr, #4
   85b52:	f024 0403 	bic.w	r4, r4, #3
   85b56:	3404      	adds	r4, #4
   85b58:	4421      	add	r1, r4
   85b5a:	4423      	add	r3, r4
   85b5c:	f002 0203 	and.w	r2, r2, #3
   85b60:	b162      	cbz	r2, 85b7c <memmove+0xc0>
   85b62:	3b01      	subs	r3, #1
   85b64:	440a      	add	r2, r1
   85b66:	f811 4b01 	ldrb.w	r4, [r1], #1
   85b6a:	428a      	cmp	r2, r1
   85b6c:	f803 4f01 	strb.w	r4, [r3, #1]!
   85b70:	d1f9      	bne.n	85b66 <memmove+0xaa>
   85b72:	bdf0      	pop	{r4, r5, r6, r7, pc}
   85b74:	4603      	mov	r3, r0
   85b76:	e7f3      	b.n	85b60 <memmove+0xa4>
   85b78:	4603      	mov	r3, r0
   85b7a:	e7f2      	b.n	85b62 <memmove+0xa6>
   85b7c:	bdf0      	pop	{r4, r5, r6, r7, pc}
   85b7e:	4672      	mov	r2, lr
   85b80:	e7ee      	b.n	85b60 <memmove+0xa4>
   85b82:	bf00      	nop

00085b84 <_realloc_r>:
   85b84:	2900      	cmp	r1, #0
   85b86:	f000 8094 	beq.w	85cb2 <_realloc_r+0x12e>
   85b8a:	e92d 4ff0 	stmdb	sp!, {r4, r5, r6, r7, r8, r9, sl, fp, lr}
   85b8e:	460c      	mov	r4, r1
   85b90:	4615      	mov	r5, r2
   85b92:	b083      	sub	sp, #12
   85b94:	4680      	mov	r8, r0
   85b96:	f105 060b 	add.w	r6, r5, #11
   85b9a:	f7ff fa19 	bl	84fd0 <__malloc_lock>
   85b9e:	f854 ec04 	ldr.w	lr, [r4, #-4]
   85ba2:	2e16      	cmp	r6, #22
   85ba4:	f02e 0703 	bic.w	r7, lr, #3
   85ba8:	f1a4 0908 	sub.w	r9, r4, #8
   85bac:	d83c      	bhi.n	85c28 <_realloc_r+0xa4>
   85bae:	2210      	movs	r2, #16
   85bb0:	4616      	mov	r6, r2
   85bb2:	42b5      	cmp	r5, r6
   85bb4:	d83d      	bhi.n	85c32 <_realloc_r+0xae>
   85bb6:	4297      	cmp	r7, r2
   85bb8:	da43      	bge.n	85c42 <_realloc_r+0xbe>
   85bba:	4bc6      	ldr	r3, [pc, #792]	; (85ed4 <_realloc_r+0x350>)
   85bbc:	eb09 0007 	add.w	r0, r9, r7
   85bc0:	6899      	ldr	r1, [r3, #8]
   85bc2:	4288      	cmp	r0, r1
   85bc4:	f000 80c3 	beq.w	85d4e <_realloc_r+0x1ca>
   85bc8:	6843      	ldr	r3, [r0, #4]
   85bca:	f023 0101 	bic.w	r1, r3, #1
   85bce:	4401      	add	r1, r0
   85bd0:	6849      	ldr	r1, [r1, #4]
   85bd2:	07c9      	lsls	r1, r1, #31
   85bd4:	d54d      	bpl.n	85c72 <_realloc_r+0xee>
   85bd6:	f01e 0f01 	tst.w	lr, #1
   85bda:	f000 809b 	beq.w	85d14 <_realloc_r+0x190>
   85bde:	4629      	mov	r1, r5
   85be0:	4640      	mov	r0, r8
   85be2:	f7fe fe97 	bl	84914 <_malloc_r>
   85be6:	4605      	mov	r5, r0
   85be8:	2800      	cmp	r0, #0
   85bea:	d03b      	beq.n	85c64 <_realloc_r+0xe0>
   85bec:	f854 3c04 	ldr.w	r3, [r4, #-4]
   85bf0:	f1a0 0208 	sub.w	r2, r0, #8
   85bf4:	f023 0301 	bic.w	r3, r3, #1
   85bf8:	444b      	add	r3, r9
   85bfa:	429a      	cmp	r2, r3
   85bfc:	f000 812b 	beq.w	85e56 <_realloc_r+0x2d2>
   85c00:	1f3a      	subs	r2, r7, #4
   85c02:	2a24      	cmp	r2, #36	; 0x24
   85c04:	f200 8118 	bhi.w	85e38 <_realloc_r+0x2b4>
   85c08:	2a13      	cmp	r2, #19
   85c0a:	f200 80eb 	bhi.w	85de4 <_realloc_r+0x260>
   85c0e:	4603      	mov	r3, r0
   85c10:	4622      	mov	r2, r4
   85c12:	6811      	ldr	r1, [r2, #0]
   85c14:	6019      	str	r1, [r3, #0]
   85c16:	6851      	ldr	r1, [r2, #4]
   85c18:	6059      	str	r1, [r3, #4]
   85c1a:	6892      	ldr	r2, [r2, #8]
   85c1c:	609a      	str	r2, [r3, #8]
   85c1e:	4621      	mov	r1, r4
   85c20:	4640      	mov	r0, r8
   85c22:	f7ff fe4f 	bl	858c4 <_free_r>
   85c26:	e01d      	b.n	85c64 <_realloc_r+0xe0>
   85c28:	f026 0607 	bic.w	r6, r6, #7
   85c2c:	2e00      	cmp	r6, #0
   85c2e:	4632      	mov	r2, r6
   85c30:	dabf      	bge.n	85bb2 <_realloc_r+0x2e>
   85c32:	2500      	movs	r5, #0
   85c34:	230c      	movs	r3, #12
   85c36:	4628      	mov	r0, r5
   85c38:	f8c8 3000 	str.w	r3, [r8]
   85c3c:	b003      	add	sp, #12
   85c3e:	e8bd 8ff0 	ldmia.w	sp!, {r4, r5, r6, r7, r8, r9, sl, fp, pc}
   85c42:	4625      	mov	r5, r4
   85c44:	1bbb      	subs	r3, r7, r6
   85c46:	2b0f      	cmp	r3, #15
   85c48:	f8d9 2004 	ldr.w	r2, [r9, #4]
   85c4c:	d81d      	bhi.n	85c8a <_realloc_r+0x106>
   85c4e:	f002 0201 	and.w	r2, r2, #1
   85c52:	433a      	orrs	r2, r7
   85c54:	eb09 0107 	add.w	r1, r9, r7
   85c58:	f8c9 2004 	str.w	r2, [r9, #4]
   85c5c:	684b      	ldr	r3, [r1, #4]
   85c5e:	f043 0301 	orr.w	r3, r3, #1
   85c62:	604b      	str	r3, [r1, #4]
   85c64:	4640      	mov	r0, r8
   85c66:	f7ff f9b9 	bl	84fdc <__malloc_unlock>
   85c6a:	4628      	mov	r0, r5
   85c6c:	b003      	add	sp, #12
   85c6e:	e8bd 8ff0 	ldmia.w	sp!, {r4, r5, r6, r7, r8, r9, sl, fp, pc}
   85c72:	f023 0303 	bic.w	r3, r3, #3
   85c76:	18f9      	adds	r1, r7, r3
   85c78:	4291      	cmp	r1, r2
   85c7a:	db1d      	blt.n	85cb8 <_realloc_r+0x134>
   85c7c:	68c3      	ldr	r3, [r0, #12]
   85c7e:	6882      	ldr	r2, [r0, #8]
   85c80:	4625      	mov	r5, r4
   85c82:	60d3      	str	r3, [r2, #12]
   85c84:	460f      	mov	r7, r1
   85c86:	609a      	str	r2, [r3, #8]
   85c88:	e7dc      	b.n	85c44 <_realloc_r+0xc0>
   85c8a:	f002 0201 	and.w	r2, r2, #1
   85c8e:	eb09 0106 	add.w	r1, r9, r6
   85c92:	f043 0301 	orr.w	r3, r3, #1
   85c96:	4332      	orrs	r2, r6
   85c98:	f8c9 2004 	str.w	r2, [r9, #4]
   85c9c:	444f      	add	r7, r9
   85c9e:	604b      	str	r3, [r1, #4]
   85ca0:	687b      	ldr	r3, [r7, #4]
   85ca2:	3108      	adds	r1, #8
   85ca4:	f043 0301 	orr.w	r3, r3, #1
   85ca8:	607b      	str	r3, [r7, #4]
   85caa:	4640      	mov	r0, r8
   85cac:	f7ff fe0a 	bl	858c4 <_free_r>
   85cb0:	e7d8      	b.n	85c64 <_realloc_r+0xe0>
   85cb2:	4611      	mov	r1, r2
   85cb4:	f7fe be2e 	b.w	84914 <_malloc_r>
   85cb8:	f01e 0f01 	tst.w	lr, #1
   85cbc:	d18f      	bne.n	85bde <_realloc_r+0x5a>
   85cbe:	f854 1c08 	ldr.w	r1, [r4, #-8]
   85cc2:	eba9 0a01 	sub.w	sl, r9, r1
   85cc6:	f8da 1004 	ldr.w	r1, [sl, #4]
   85cca:	f021 0103 	bic.w	r1, r1, #3
   85cce:	440b      	add	r3, r1
   85cd0:	443b      	add	r3, r7
   85cd2:	4293      	cmp	r3, r2
   85cd4:	db26      	blt.n	85d24 <_realloc_r+0x1a0>
   85cd6:	4655      	mov	r5, sl
   85cd8:	68c1      	ldr	r1, [r0, #12]
   85cda:	6880      	ldr	r0, [r0, #8]
   85cdc:	1f3a      	subs	r2, r7, #4
   85cde:	60c1      	str	r1, [r0, #12]
   85ce0:	6088      	str	r0, [r1, #8]
   85ce2:	f855 0f08 	ldr.w	r0, [r5, #8]!
   85ce6:	f8da 100c 	ldr.w	r1, [sl, #12]
   85cea:	2a24      	cmp	r2, #36	; 0x24
   85cec:	60c1      	str	r1, [r0, #12]
   85cee:	6088      	str	r0, [r1, #8]
   85cf0:	d826      	bhi.n	85d40 <_realloc_r+0x1bc>
   85cf2:	2a13      	cmp	r2, #19
   85cf4:	f240 8081 	bls.w	85dfa <_realloc_r+0x276>
   85cf8:	6821      	ldr	r1, [r4, #0]
   85cfa:	2a1b      	cmp	r2, #27
   85cfc:	f8ca 1008 	str.w	r1, [sl, #8]
   85d00:	6861      	ldr	r1, [r4, #4]
   85d02:	f8ca 100c 	str.w	r1, [sl, #12]
   85d06:	f200 80ad 	bhi.w	85e64 <_realloc_r+0x2e0>
   85d0a:	f104 0008 	add.w	r0, r4, #8
   85d0e:	f10a 0210 	add.w	r2, sl, #16
   85d12:	e074      	b.n	85dfe <_realloc_r+0x27a>
   85d14:	f854 3c08 	ldr.w	r3, [r4, #-8]
   85d18:	eba9 0a03 	sub.w	sl, r9, r3
   85d1c:	f8da 1004 	ldr.w	r1, [sl, #4]
   85d20:	f021 0103 	bic.w	r1, r1, #3
   85d24:	187b      	adds	r3, r7, r1
   85d26:	4293      	cmp	r3, r2
   85d28:	f6ff af59 	blt.w	85bde <_realloc_r+0x5a>
   85d2c:	4655      	mov	r5, sl
   85d2e:	f8da 100c 	ldr.w	r1, [sl, #12]
   85d32:	f855 0f08 	ldr.w	r0, [r5, #8]!
   85d36:	1f3a      	subs	r2, r7, #4
   85d38:	2a24      	cmp	r2, #36	; 0x24
   85d3a:	60c1      	str	r1, [r0, #12]
   85d3c:	6088      	str	r0, [r1, #8]
   85d3e:	d9d8      	bls.n	85cf2 <_realloc_r+0x16e>
   85d40:	4621      	mov	r1, r4
   85d42:	4628      	mov	r0, r5
   85d44:	461f      	mov	r7, r3
   85d46:	46d1      	mov	r9, sl
   85d48:	f7ff feb8 	bl	85abc <memmove>
   85d4c:	e77a      	b.n	85c44 <_realloc_r+0xc0>
   85d4e:	6841      	ldr	r1, [r0, #4]
   85d50:	f106 0010 	add.w	r0, r6, #16
   85d54:	f021 0b03 	bic.w	fp, r1, #3
   85d58:	44bb      	add	fp, r7
   85d5a:	4583      	cmp	fp, r0
   85d5c:	da58      	bge.n	85e10 <_realloc_r+0x28c>
   85d5e:	f01e 0f01 	tst.w	lr, #1
   85d62:	f47f af3c 	bne.w	85bde <_realloc_r+0x5a>
   85d66:	f854 1c08 	ldr.w	r1, [r4, #-8]
   85d6a:	eba9 0a01 	sub.w	sl, r9, r1
   85d6e:	f8da 1004 	ldr.w	r1, [sl, #4]
   85d72:	f021 0103 	bic.w	r1, r1, #3
   85d76:	448b      	add	fp, r1
   85d78:	4558      	cmp	r0, fp
   85d7a:	dcd3      	bgt.n	85d24 <_realloc_r+0x1a0>
   85d7c:	4655      	mov	r5, sl
   85d7e:	f8da 100c 	ldr.w	r1, [sl, #12]
   85d82:	f855 0f08 	ldr.w	r0, [r5, #8]!
   85d86:	1f3a      	subs	r2, r7, #4
   85d88:	2a24      	cmp	r2, #36	; 0x24
   85d8a:	60c1      	str	r1, [r0, #12]
   85d8c:	6088      	str	r0, [r1, #8]
   85d8e:	f200 808d 	bhi.w	85eac <_realloc_r+0x328>
   85d92:	2a13      	cmp	r2, #19
   85d94:	f240 8087 	bls.w	85ea6 <_realloc_r+0x322>
   85d98:	6821      	ldr	r1, [r4, #0]
   85d9a:	2a1b      	cmp	r2, #27
   85d9c:	f8ca 1008 	str.w	r1, [sl, #8]
   85da0:	6861      	ldr	r1, [r4, #4]
   85da2:	f8ca 100c 	str.w	r1, [sl, #12]
   85da6:	f200 8088 	bhi.w	85eba <_realloc_r+0x336>
   85daa:	f104 0108 	add.w	r1, r4, #8
   85dae:	f10a 0210 	add.w	r2, sl, #16
   85db2:	6808      	ldr	r0, [r1, #0]
   85db4:	6010      	str	r0, [r2, #0]
   85db6:	6848      	ldr	r0, [r1, #4]
   85db8:	6050      	str	r0, [r2, #4]
   85dba:	6889      	ldr	r1, [r1, #8]
   85dbc:	6091      	str	r1, [r2, #8]
   85dbe:	ebab 0206 	sub.w	r2, fp, r6
   85dc2:	eb0a 0106 	add.w	r1, sl, r6
   85dc6:	f042 0201 	orr.w	r2, r2, #1
   85dca:	6099      	str	r1, [r3, #8]
   85dcc:	604a      	str	r2, [r1, #4]
   85dce:	f8da 3004 	ldr.w	r3, [sl, #4]
   85dd2:	4640      	mov	r0, r8
   85dd4:	f003 0301 	and.w	r3, r3, #1
   85dd8:	431e      	orrs	r6, r3
   85dda:	f8ca 6004 	str.w	r6, [sl, #4]
   85dde:	f7ff f8fd 	bl	84fdc <__malloc_unlock>
   85de2:	e742      	b.n	85c6a <_realloc_r+0xe6>
   85de4:	6823      	ldr	r3, [r4, #0]
   85de6:	2a1b      	cmp	r2, #27
   85de8:	6003      	str	r3, [r0, #0]
   85dea:	6863      	ldr	r3, [r4, #4]
   85dec:	6043      	str	r3, [r0, #4]
   85dee:	d827      	bhi.n	85e40 <_realloc_r+0x2bc>
   85df0:	f100 0308 	add.w	r3, r0, #8
   85df4:	f104 0208 	add.w	r2, r4, #8
   85df8:	e70b      	b.n	85c12 <_realloc_r+0x8e>
   85dfa:	4620      	mov	r0, r4
   85dfc:	462a      	mov	r2, r5
   85dfe:	6801      	ldr	r1, [r0, #0]
   85e00:	461f      	mov	r7, r3
   85e02:	6011      	str	r1, [r2, #0]
   85e04:	6841      	ldr	r1, [r0, #4]
   85e06:	46d1      	mov	r9, sl
   85e08:	6051      	str	r1, [r2, #4]
   85e0a:	6883      	ldr	r3, [r0, #8]
   85e0c:	6093      	str	r3, [r2, #8]
   85e0e:	e719      	b.n	85c44 <_realloc_r+0xc0>
   85e10:	ebab 0b06 	sub.w	fp, fp, r6
   85e14:	eb09 0106 	add.w	r1, r9, r6
   85e18:	f04b 0201 	orr.w	r2, fp, #1
   85e1c:	6099      	str	r1, [r3, #8]
   85e1e:	604a      	str	r2, [r1, #4]
   85e20:	f854 3c04 	ldr.w	r3, [r4, #-4]
   85e24:	4640      	mov	r0, r8
   85e26:	f003 0301 	and.w	r3, r3, #1
   85e2a:	431e      	orrs	r6, r3
   85e2c:	f844 6c04 	str.w	r6, [r4, #-4]
   85e30:	f7ff f8d4 	bl	84fdc <__malloc_unlock>
   85e34:	4625      	mov	r5, r4
   85e36:	e718      	b.n	85c6a <_realloc_r+0xe6>
   85e38:	4621      	mov	r1, r4
   85e3a:	f7ff fe3f 	bl	85abc <memmove>
   85e3e:	e6ee      	b.n	85c1e <_realloc_r+0x9a>
   85e40:	68a3      	ldr	r3, [r4, #8]
   85e42:	2a24      	cmp	r2, #36	; 0x24
   85e44:	6083      	str	r3, [r0, #8]
   85e46:	68e3      	ldr	r3, [r4, #12]
   85e48:	60c3      	str	r3, [r0, #12]
   85e4a:	d018      	beq.n	85e7e <_realloc_r+0x2fa>
   85e4c:	f100 0310 	add.w	r3, r0, #16
   85e50:	f104 0210 	add.w	r2, r4, #16
   85e54:	e6dd      	b.n	85c12 <_realloc_r+0x8e>
   85e56:	f850 3c04 	ldr.w	r3, [r0, #-4]
   85e5a:	4625      	mov	r5, r4
   85e5c:	f023 0303 	bic.w	r3, r3, #3
   85e60:	441f      	add	r7, r3
   85e62:	e6ef      	b.n	85c44 <_realloc_r+0xc0>
   85e64:	68a1      	ldr	r1, [r4, #8]
   85e66:	2a24      	cmp	r2, #36	; 0x24
   85e68:	f8ca 1010 	str.w	r1, [sl, #16]
   85e6c:	68e1      	ldr	r1, [r4, #12]
   85e6e:	f8ca 1014 	str.w	r1, [sl, #20]
   85e72:	d00d      	beq.n	85e90 <_realloc_r+0x30c>
   85e74:	f104 0010 	add.w	r0, r4, #16
   85e78:	f10a 0218 	add.w	r2, sl, #24
   85e7c:	e7bf      	b.n	85dfe <_realloc_r+0x27a>
   85e7e:	6922      	ldr	r2, [r4, #16]
   85e80:	f100 0318 	add.w	r3, r0, #24
   85e84:	6102      	str	r2, [r0, #16]
   85e86:	6961      	ldr	r1, [r4, #20]
   85e88:	f104 0218 	add.w	r2, r4, #24
   85e8c:	6141      	str	r1, [r0, #20]
   85e8e:	e6c0      	b.n	85c12 <_realloc_r+0x8e>
   85e90:	6922      	ldr	r2, [r4, #16]
   85e92:	f104 0018 	add.w	r0, r4, #24
   85e96:	f8ca 2018 	str.w	r2, [sl, #24]
   85e9a:	6961      	ldr	r1, [r4, #20]
   85e9c:	f10a 0220 	add.w	r2, sl, #32
   85ea0:	f8ca 101c 	str.w	r1, [sl, #28]
   85ea4:	e7ab      	b.n	85dfe <_realloc_r+0x27a>
   85ea6:	4621      	mov	r1, r4
   85ea8:	462a      	mov	r2, r5
   85eaa:	e782      	b.n	85db2 <_realloc_r+0x22e>
   85eac:	4621      	mov	r1, r4
   85eae:	4628      	mov	r0, r5
   85eb0:	9301      	str	r3, [sp, #4]
   85eb2:	f7ff fe03 	bl	85abc <memmove>
   85eb6:	9b01      	ldr	r3, [sp, #4]
   85eb8:	e781      	b.n	85dbe <_realloc_r+0x23a>
   85eba:	68a1      	ldr	r1, [r4, #8]
   85ebc:	2a24      	cmp	r2, #36	; 0x24
   85ebe:	f8ca 1010 	str.w	r1, [sl, #16]
   85ec2:	68e1      	ldr	r1, [r4, #12]
   85ec4:	f8ca 1014 	str.w	r1, [sl, #20]
   85ec8:	d006      	beq.n	85ed8 <_realloc_r+0x354>
   85eca:	f104 0110 	add.w	r1, r4, #16
   85ece:	f10a 0218 	add.w	r2, sl, #24
   85ed2:	e76e      	b.n	85db2 <_realloc_r+0x22e>
   85ed4:	200705cc 	.word	0x200705cc
   85ed8:	6922      	ldr	r2, [r4, #16]
   85eda:	f104 0118 	add.w	r1, r4, #24
   85ede:	f8ca 2018 	str.w	r2, [sl, #24]
   85ee2:	6960      	ldr	r0, [r4, #20]
   85ee4:	f10a 0220 	add.w	r2, sl, #32
   85ee8:	f8ca 001c 	str.w	r0, [sl, #28]
   85eec:	e761      	b.n	85db2 <_realloc_r+0x22e>
   85eee:	bf00      	nop

00085ef0 <__ascii_wctomb>:
   85ef0:	b119      	cbz	r1, 85efa <__ascii_wctomb+0xa>
   85ef2:	2aff      	cmp	r2, #255	; 0xff
   85ef4:	d803      	bhi.n	85efe <__ascii_wctomb+0xe>
   85ef6:	700a      	strb	r2, [r1, #0]
   85ef8:	2101      	movs	r1, #1
   85efa:	4608      	mov	r0, r1
   85efc:	4770      	bx	lr
   85efe:	238a      	movs	r3, #138	; 0x8a
   85f00:	f04f 31ff 	mov.w	r1, #4294967295
   85f04:	6003      	str	r3, [r0, #0]
   85f06:	e7f8      	b.n	85efa <__ascii_wctomb+0xa>

00085f08 <__aeabi_drsub>:
   85f08:	f081 4100 	eor.w	r1, r1, #2147483648	; 0x80000000
   85f0c:	e002      	b.n	85f14 <__adddf3>
   85f0e:	bf00      	nop

00085f10 <__aeabi_dsub>:
   85f10:	f083 4300 	eor.w	r3, r3, #2147483648	; 0x80000000

00085f14 <__adddf3>:
   85f14:	b530      	push	{r4, r5, lr}
   85f16:	ea4f 0441 	mov.w	r4, r1, lsl #1
   85f1a:	ea4f 0543 	mov.w	r5, r3, lsl #1
   85f1e:	ea94 0f05 	teq	r4, r5
   85f22:	bf08      	it	eq
   85f24:	ea90 0f02 	teqeq	r0, r2
   85f28:	bf1f      	itttt	ne
   85f2a:	ea54 0c00 	orrsne.w	ip, r4, r0
   85f2e:	ea55 0c02 	orrsne.w	ip, r5, r2
   85f32:	ea7f 5c64 	mvnsne.w	ip, r4, asr #21
   85f36:	ea7f 5c65 	mvnsne.w	ip, r5, asr #21
   85f3a:	f000 80e2 	beq.w	86102 <__adddf3+0x1ee>
   85f3e:	ea4f 5454 	mov.w	r4, r4, lsr #21
   85f42:	ebd4 5555 	rsbs	r5, r4, r5, lsr #21
   85f46:	bfb8      	it	lt
   85f48:	426d      	neglt	r5, r5
   85f4a:	dd0c      	ble.n	85f66 <__adddf3+0x52>
   85f4c:	442c      	add	r4, r5
   85f4e:	ea80 0202 	eor.w	r2, r0, r2
   85f52:	ea81 0303 	eor.w	r3, r1, r3
   85f56:	ea82 0000 	eor.w	r0, r2, r0
   85f5a:	ea83 0101 	eor.w	r1, r3, r1
   85f5e:	ea80 0202 	eor.w	r2, r0, r2
   85f62:	ea81 0303 	eor.w	r3, r1, r3
   85f66:	2d36      	cmp	r5, #54	; 0x36
   85f68:	bf88      	it	hi
   85f6a:	bd30      	pophi	{r4, r5, pc}
   85f6c:	f011 4f00 	tst.w	r1, #2147483648	; 0x80000000
   85f70:	ea4f 3101 	mov.w	r1, r1, lsl #12
   85f74:	f44f 1c80 	mov.w	ip, #1048576	; 0x100000
   85f78:	ea4c 3111 	orr.w	r1, ip, r1, lsr #12
   85f7c:	d002      	beq.n	85f84 <__adddf3+0x70>
   85f7e:	4240      	negs	r0, r0
   85f80:	eb61 0141 	sbc.w	r1, r1, r1, lsl #1
   85f84:	f013 4f00 	tst.w	r3, #2147483648	; 0x80000000
   85f88:	ea4f 3303 	mov.w	r3, r3, lsl #12
   85f8c:	ea4c 3313 	orr.w	r3, ip, r3, lsr #12
   85f90:	d002      	beq.n	85f98 <__adddf3+0x84>
   85f92:	4252      	negs	r2, r2
   85f94:	eb63 0343 	sbc.w	r3, r3, r3, lsl #1
   85f98:	ea94 0f05 	teq	r4, r5
   85f9c:	f000 80a7 	beq.w	860ee <__adddf3+0x1da>
   85fa0:	f1a4 0401 	sub.w	r4, r4, #1
   85fa4:	f1d5 0e20 	rsbs	lr, r5, #32
   85fa8:	db0d      	blt.n	85fc6 <__adddf3+0xb2>
   85faa:	fa02 fc0e 	lsl.w	ip, r2, lr
   85fae:	fa22 f205 	lsr.w	r2, r2, r5
   85fb2:	1880      	adds	r0, r0, r2
   85fb4:	f141 0100 	adc.w	r1, r1, #0
   85fb8:	fa03 f20e 	lsl.w	r2, r3, lr
   85fbc:	1880      	adds	r0, r0, r2
   85fbe:	fa43 f305 	asr.w	r3, r3, r5
   85fc2:	4159      	adcs	r1, r3
   85fc4:	e00e      	b.n	85fe4 <__adddf3+0xd0>
   85fc6:	f1a5 0520 	sub.w	r5, r5, #32
   85fca:	f10e 0e20 	add.w	lr, lr, #32
   85fce:	2a01      	cmp	r2, #1
   85fd0:	fa03 fc0e 	lsl.w	ip, r3, lr
   85fd4:	bf28      	it	cs
   85fd6:	f04c 0c02 	orrcs.w	ip, ip, #2
   85fda:	fa43 f305 	asr.w	r3, r3, r5
   85fde:	18c0      	adds	r0, r0, r3
   85fe0:	eb51 71e3 	adcs.w	r1, r1, r3, asr #31
   85fe4:	f001 4500 	and.w	r5, r1, #2147483648	; 0x80000000
   85fe8:	d507      	bpl.n	85ffa <__adddf3+0xe6>
   85fea:	f04f 0e00 	mov.w	lr, #0
   85fee:	f1dc 0c00 	rsbs	ip, ip, #0
   85ff2:	eb7e 0000 	sbcs.w	r0, lr, r0
   85ff6:	eb6e 0101 	sbc.w	r1, lr, r1
   85ffa:	f5b1 1f80 	cmp.w	r1, #1048576	; 0x100000
   85ffe:	d31b      	bcc.n	86038 <__adddf3+0x124>
   86000:	f5b1 1f00 	cmp.w	r1, #2097152	; 0x200000
   86004:	d30c      	bcc.n	86020 <__adddf3+0x10c>
   86006:	0849      	lsrs	r1, r1, #1
   86008:	ea5f 0030 	movs.w	r0, r0, rrx
   8600c:	ea4f 0c3c 	mov.w	ip, ip, rrx
   86010:	f104 0401 	add.w	r4, r4, #1
   86014:	ea4f 5244 	mov.w	r2, r4, lsl #21
   86018:	f512 0f80 	cmn.w	r2, #4194304	; 0x400000
   8601c:	f080 809a 	bcs.w	86154 <__adddf3+0x240>
   86020:	f1bc 4f00 	cmp.w	ip, #2147483648	; 0x80000000
   86024:	bf08      	it	eq
   86026:	ea5f 0c50 	movseq.w	ip, r0, lsr #1
   8602a:	f150 0000 	adcs.w	r0, r0, #0
   8602e:	eb41 5104 	adc.w	r1, r1, r4, lsl #20
   86032:	ea41 0105 	orr.w	r1, r1, r5
   86036:	bd30      	pop	{r4, r5, pc}
   86038:	ea5f 0c4c 	movs.w	ip, ip, lsl #1
   8603c:	4140      	adcs	r0, r0
   8603e:	eb41 0101 	adc.w	r1, r1, r1
   86042:	f411 1f80 	tst.w	r1, #1048576	; 0x100000
   86046:	f1a4 0401 	sub.w	r4, r4, #1
   8604a:	d1e9      	bne.n	86020 <__adddf3+0x10c>
   8604c:	f091 0f00 	teq	r1, #0
   86050:	bf04      	itt	eq
   86052:	4601      	moveq	r1, r0
   86054:	2000      	moveq	r0, #0
   86056:	fab1 f381 	clz	r3, r1
   8605a:	bf08      	it	eq
   8605c:	3320      	addeq	r3, #32
   8605e:	f1a3 030b 	sub.w	r3, r3, #11
   86062:	f1b3 0220 	subs.w	r2, r3, #32
   86066:	da0c      	bge.n	86082 <__adddf3+0x16e>
   86068:	320c      	adds	r2, #12
   8606a:	dd08      	ble.n	8607e <__adddf3+0x16a>
   8606c:	f102 0c14 	add.w	ip, r2, #20
   86070:	f1c2 020c 	rsb	r2, r2, #12
   86074:	fa01 f00c 	lsl.w	r0, r1, ip
   86078:	fa21 f102 	lsr.w	r1, r1, r2
   8607c:	e00c      	b.n	86098 <__adddf3+0x184>
   8607e:	f102 0214 	add.w	r2, r2, #20
   86082:	bfd8      	it	le
   86084:	f1c2 0c20 	rsble	ip, r2, #32
   86088:	fa01 f102 	lsl.w	r1, r1, r2
   8608c:	fa20 fc0c 	lsr.w	ip, r0, ip
   86090:	bfdc      	itt	le
   86092:	ea41 010c 	orrle.w	r1, r1, ip
   86096:	4090      	lslle	r0, r2
   86098:	1ae4      	subs	r4, r4, r3
   8609a:	bfa2      	ittt	ge
   8609c:	eb01 5104 	addge.w	r1, r1, r4, lsl #20
   860a0:	4329      	orrge	r1, r5
   860a2:	bd30      	popge	{r4, r5, pc}
   860a4:	ea6f 0404 	mvn.w	r4, r4
   860a8:	3c1f      	subs	r4, #31
   860aa:	da1c      	bge.n	860e6 <__adddf3+0x1d2>
   860ac:	340c      	adds	r4, #12
   860ae:	dc0e      	bgt.n	860ce <__adddf3+0x1ba>
   860b0:	f104 0414 	add.w	r4, r4, #20
   860b4:	f1c4 0220 	rsb	r2, r4, #32
   860b8:	fa20 f004 	lsr.w	r0, r0, r4
   860bc:	fa01 f302 	lsl.w	r3, r1, r2
   860c0:	ea40 0003 	orr.w	r0, r0, r3
   860c4:	fa21 f304 	lsr.w	r3, r1, r4
   860c8:	ea45 0103 	orr.w	r1, r5, r3
   860cc:	bd30      	pop	{r4, r5, pc}
   860ce:	f1c4 040c 	rsb	r4, r4, #12
   860d2:	f1c4 0220 	rsb	r2, r4, #32
   860d6:	fa20 f002 	lsr.w	r0, r0, r2
   860da:	fa01 f304 	lsl.w	r3, r1, r4
   860de:	ea40 0003 	orr.w	r0, r0, r3
   860e2:	4629      	mov	r1, r5
   860e4:	bd30      	pop	{r4, r5, pc}
   860e6:	fa21 f004 	lsr.w	r0, r1, r4
   860ea:	4629      	mov	r1, r5
   860ec:	bd30      	pop	{r4, r5, pc}
   860ee:	f094 0f00 	teq	r4, #0
   860f2:	f483 1380 	eor.w	r3, r3, #1048576	; 0x100000
   860f6:	bf06      	itte	eq
   860f8:	f481 1180 	eoreq.w	r1, r1, #1048576	; 0x100000
   860fc:	3401      	addeq	r4, #1
   860fe:	3d01      	subne	r5, #1
   86100:	e74e      	b.n	85fa0 <__adddf3+0x8c>
   86102:	ea7f 5c64 	mvns.w	ip, r4, asr #21
   86106:	bf18      	it	ne
   86108:	ea7f 5c65 	mvnsne.w	ip, r5, asr #21
   8610c:	d029      	beq.n	86162 <__adddf3+0x24e>
   8610e:	ea94 0f05 	teq	r4, r5
   86112:	bf08      	it	eq
   86114:	ea90 0f02 	teqeq	r0, r2
   86118:	d005      	beq.n	86126 <__adddf3+0x212>
   8611a:	ea54 0c00 	orrs.w	ip, r4, r0
   8611e:	bf04      	itt	eq
   86120:	4619      	moveq	r1, r3
   86122:	4610      	moveq	r0, r2
   86124:	bd30      	pop	{r4, r5, pc}
   86126:	ea91 0f03 	teq	r1, r3
   8612a:	bf1e      	ittt	ne
   8612c:	2100      	movne	r1, #0
   8612e:	2000      	movne	r0, #0
   86130:	bd30      	popne	{r4, r5, pc}
   86132:	ea5f 5c54 	movs.w	ip, r4, lsr #21
   86136:	d105      	bne.n	86144 <__adddf3+0x230>
   86138:	0040      	lsls	r0, r0, #1
   8613a:	4149      	adcs	r1, r1
   8613c:	bf28      	it	cs
   8613e:	f041 4100 	orrcs.w	r1, r1, #2147483648	; 0x80000000
   86142:	bd30      	pop	{r4, r5, pc}
   86144:	f514 0480 	adds.w	r4, r4, #4194304	; 0x400000
   86148:	bf3c      	itt	cc
   8614a:	f501 1180 	addcc.w	r1, r1, #1048576	; 0x100000
   8614e:	bd30      	popcc	{r4, r5, pc}
   86150:	f001 4500 	and.w	r5, r1, #2147483648	; 0x80000000
   86154:	f045 41fe 	orr.w	r1, r5, #2130706432	; 0x7f000000
   86158:	f441 0170 	orr.w	r1, r1, #15728640	; 0xf00000
   8615c:	f04f 0000 	mov.w	r0, #0
   86160:	bd30      	pop	{r4, r5, pc}
   86162:	ea7f 5c64 	mvns.w	ip, r4, asr #21
   86166:	bf1a      	itte	ne
   86168:	4619      	movne	r1, r3
   8616a:	4610      	movne	r0, r2
   8616c:	ea7f 5c65 	mvnseq.w	ip, r5, asr #21
   86170:	bf1c      	itt	ne
   86172:	460b      	movne	r3, r1
   86174:	4602      	movne	r2, r0
   86176:	ea50 3401 	orrs.w	r4, r0, r1, lsl #12
   8617a:	bf06      	itte	eq
   8617c:	ea52 3503 	orrseq.w	r5, r2, r3, lsl #12
   86180:	ea91 0f03 	teqeq	r1, r3
   86184:	f441 2100 	orrne.w	r1, r1, #524288	; 0x80000
   86188:	bd30      	pop	{r4, r5, pc}
   8618a:	bf00      	nop

0008618c <__aeabi_ui2d>:
   8618c:	f090 0f00 	teq	r0, #0
   86190:	bf04      	itt	eq
   86192:	2100      	moveq	r1, #0
   86194:	4770      	bxeq	lr
   86196:	b530      	push	{r4, r5, lr}
   86198:	f44f 6480 	mov.w	r4, #1024	; 0x400
   8619c:	f104 0432 	add.w	r4, r4, #50	; 0x32
   861a0:	f04f 0500 	mov.w	r5, #0
   861a4:	f04f 0100 	mov.w	r1, #0
   861a8:	e750      	b.n	8604c <__adddf3+0x138>
   861aa:	bf00      	nop

000861ac <__aeabi_i2d>:
   861ac:	f090 0f00 	teq	r0, #0
   861b0:	bf04      	itt	eq
   861b2:	2100      	moveq	r1, #0
   861b4:	4770      	bxeq	lr
   861b6:	b530      	push	{r4, r5, lr}
   861b8:	f44f 6480 	mov.w	r4, #1024	; 0x400
   861bc:	f104 0432 	add.w	r4, r4, #50	; 0x32
   861c0:	f010 4500 	ands.w	r5, r0, #2147483648	; 0x80000000
   861c4:	bf48      	it	mi
   861c6:	4240      	negmi	r0, r0
   861c8:	f04f 0100 	mov.w	r1, #0
   861cc:	e73e      	b.n	8604c <__adddf3+0x138>
   861ce:	bf00      	nop

000861d0 <__aeabi_f2d>:
   861d0:	0042      	lsls	r2, r0, #1
   861d2:	ea4f 01e2 	mov.w	r1, r2, asr #3
   861d6:	ea4f 0131 	mov.w	r1, r1, rrx
   861da:	ea4f 7002 	mov.w	r0, r2, lsl #28
   861de:	bf1f      	itttt	ne
   861e0:	f012 437f 	andsne.w	r3, r2, #4278190080	; 0xff000000
   861e4:	f093 4f7f 	teqne	r3, #4278190080	; 0xff000000
   861e8:	f081 5160 	eorne.w	r1, r1, #939524096	; 0x38000000
   861ec:	4770      	bxne	lr
   861ee:	f092 0f00 	teq	r2, #0
   861f2:	bf14      	ite	ne
   861f4:	f093 4f7f 	teqne	r3, #4278190080	; 0xff000000
   861f8:	4770      	bxeq	lr
   861fa:	b530      	push	{r4, r5, lr}
   861fc:	f44f 7460 	mov.w	r4, #896	; 0x380
   86200:	f001 4500 	and.w	r5, r1, #2147483648	; 0x80000000
   86204:	f021 4100 	bic.w	r1, r1, #2147483648	; 0x80000000
   86208:	e720      	b.n	8604c <__adddf3+0x138>
   8620a:	bf00      	nop

0008620c <__aeabi_ul2d>:
   8620c:	ea50 0201 	orrs.w	r2, r0, r1
   86210:	bf08      	it	eq
   86212:	4770      	bxeq	lr
   86214:	b530      	push	{r4, r5, lr}
   86216:	f04f 0500 	mov.w	r5, #0
   8621a:	e00a      	b.n	86232 <__aeabi_l2d+0x16>

0008621c <__aeabi_l2d>:
   8621c:	ea50 0201 	orrs.w	r2, r0, r1
   86220:	bf08      	it	eq
   86222:	4770      	bxeq	lr
   86224:	b530      	push	{r4, r5, lr}
   86226:	f011 4500 	ands.w	r5, r1, #2147483648	; 0x80000000
   8622a:	d502      	bpl.n	86232 <__aeabi_l2d+0x16>
   8622c:	4240      	negs	r0, r0
   8622e:	eb61 0141 	sbc.w	r1, r1, r1, lsl #1
   86232:	f44f 6480 	mov.w	r4, #1024	; 0x400
   86236:	f104 0432 	add.w	r4, r4, #50	; 0x32
   8623a:	ea5f 5c91 	movs.w	ip, r1, lsr #22
   8623e:	f43f aedc 	beq.w	85ffa <__adddf3+0xe6>
   86242:	f04f 0203 	mov.w	r2, #3
   86246:	ea5f 0cdc 	movs.w	ip, ip, lsr #3
   8624a:	bf18      	it	ne
   8624c:	3203      	addne	r2, #3
   8624e:	ea5f 0cdc 	movs.w	ip, ip, lsr #3
   86252:	bf18      	it	ne
   86254:	3203      	addne	r2, #3
   86256:	eb02 02dc 	add.w	r2, r2, ip, lsr #3
   8625a:	f1c2 0320 	rsb	r3, r2, #32
   8625e:	fa00 fc03 	lsl.w	ip, r0, r3
   86262:	fa20 f002 	lsr.w	r0, r0, r2
   86266:	fa01 fe03 	lsl.w	lr, r1, r3
   8626a:	ea40 000e 	orr.w	r0, r0, lr
   8626e:	fa21 f102 	lsr.w	r1, r1, r2
   86272:	4414      	add	r4, r2
   86274:	e6c1      	b.n	85ffa <__adddf3+0xe6>
   86276:	bf00      	nop

00086278 <__aeabi_dmul>:
   86278:	b570      	push	{r4, r5, r6, lr}
   8627a:	f04f 0cff 	mov.w	ip, #255	; 0xff
   8627e:	f44c 6ce0 	orr.w	ip, ip, #1792	; 0x700
   86282:	ea1c 5411 	ands.w	r4, ip, r1, lsr #20
   86286:	bf1d      	ittte	ne
   86288:	ea1c 5513 	andsne.w	r5, ip, r3, lsr #20
   8628c:	ea94 0f0c 	teqne	r4, ip
   86290:	ea95 0f0c 	teqne	r5, ip
   86294:	f000 f8de 	bleq	86454 <__aeabi_dmul+0x1dc>
   86298:	442c      	add	r4, r5
   8629a:	ea81 0603 	eor.w	r6, r1, r3
   8629e:	ea21 514c 	bic.w	r1, r1, ip, lsl #21
   862a2:	ea23 534c 	bic.w	r3, r3, ip, lsl #21
   862a6:	ea50 3501 	orrs.w	r5, r0, r1, lsl #12
   862aa:	bf18      	it	ne
   862ac:	ea52 3503 	orrsne.w	r5, r2, r3, lsl #12
   862b0:	f441 1180 	orr.w	r1, r1, #1048576	; 0x100000
   862b4:	f443 1380 	orr.w	r3, r3, #1048576	; 0x100000
   862b8:	d038      	beq.n	8632c <__aeabi_dmul+0xb4>
   862ba:	fba0 ce02 	umull	ip, lr, r0, r2
   862be:	f04f 0500 	mov.w	r5, #0
   862c2:	fbe1 e502 	umlal	lr, r5, r1, r2
   862c6:	f006 4200 	and.w	r2, r6, #2147483648	; 0x80000000
   862ca:	fbe0 e503 	umlal	lr, r5, r0, r3
   862ce:	f04f 0600 	mov.w	r6, #0
   862d2:	fbe1 5603 	umlal	r5, r6, r1, r3
   862d6:	f09c 0f00 	teq	ip, #0
   862da:	bf18      	it	ne
   862dc:	f04e 0e01 	orrne.w	lr, lr, #1
   862e0:	f1a4 04ff 	sub.w	r4, r4, #255	; 0xff
   862e4:	f5b6 7f00 	cmp.w	r6, #512	; 0x200
   862e8:	f564 7440 	sbc.w	r4, r4, #768	; 0x300
   862ec:	d204      	bcs.n	862f8 <__aeabi_dmul+0x80>
   862ee:	ea5f 0e4e 	movs.w	lr, lr, lsl #1
   862f2:	416d      	adcs	r5, r5
   862f4:	eb46 0606 	adc.w	r6, r6, r6
   862f8:	ea42 21c6 	orr.w	r1, r2, r6, lsl #11
   862fc:	ea41 5155 	orr.w	r1, r1, r5, lsr #21
   86300:	ea4f 20c5 	mov.w	r0, r5, lsl #11
   86304:	ea40 505e 	orr.w	r0, r0, lr, lsr #21
   86308:	ea4f 2ece 	mov.w	lr, lr, lsl #11
   8630c:	f1b4 0cfd 	subs.w	ip, r4, #253	; 0xfd
   86310:	bf88      	it	hi
   86312:	f5bc 6fe0 	cmphi.w	ip, #1792	; 0x700
   86316:	d81e      	bhi.n	86356 <__aeabi_dmul+0xde>
   86318:	f1be 4f00 	cmp.w	lr, #2147483648	; 0x80000000
   8631c:	bf08      	it	eq
   8631e:	ea5f 0e50 	movseq.w	lr, r0, lsr #1
   86322:	f150 0000 	adcs.w	r0, r0, #0
   86326:	eb41 5104 	adc.w	r1, r1, r4, lsl #20
   8632a:	bd70      	pop	{r4, r5, r6, pc}
   8632c:	f006 4600 	and.w	r6, r6, #2147483648	; 0x80000000
   86330:	ea46 0101 	orr.w	r1, r6, r1
   86334:	ea40 0002 	orr.w	r0, r0, r2
   86338:	ea81 0103 	eor.w	r1, r1, r3
   8633c:	ebb4 045c 	subs.w	r4, r4, ip, lsr #1
   86340:	bfc2      	ittt	gt
   86342:	ebd4 050c 	rsbsgt	r5, r4, ip
   86346:	ea41 5104 	orrgt.w	r1, r1, r4, lsl #20
   8634a:	bd70      	popgt	{r4, r5, r6, pc}
   8634c:	f441 1180 	orr.w	r1, r1, #1048576	; 0x100000
   86350:	f04f 0e00 	mov.w	lr, #0
   86354:	3c01      	subs	r4, #1
   86356:	f300 80ab 	bgt.w	864b0 <__aeabi_dmul+0x238>
   8635a:	f114 0f36 	cmn.w	r4, #54	; 0x36
   8635e:	bfde      	ittt	le
   86360:	2000      	movle	r0, #0
   86362:	f001 4100 	andle.w	r1, r1, #2147483648	; 0x80000000
   86366:	bd70      	pople	{r4, r5, r6, pc}
   86368:	f1c4 0400 	rsb	r4, r4, #0
   8636c:	3c20      	subs	r4, #32
   8636e:	da35      	bge.n	863dc <__aeabi_dmul+0x164>
   86370:	340c      	adds	r4, #12
   86372:	dc1b      	bgt.n	863ac <__aeabi_dmul+0x134>
   86374:	f104 0414 	add.w	r4, r4, #20
   86378:	f1c4 0520 	rsb	r5, r4, #32
   8637c:	fa00 f305 	lsl.w	r3, r0, r5
   86380:	fa20 f004 	lsr.w	r0, r0, r4
   86384:	fa01 f205 	lsl.w	r2, r1, r5
   86388:	ea40 0002 	orr.w	r0, r0, r2
   8638c:	f001 4200 	and.w	r2, r1, #2147483648	; 0x80000000
   86390:	f021 4100 	bic.w	r1, r1, #2147483648	; 0x80000000
   86394:	eb10 70d3 	adds.w	r0, r0, r3, lsr #31
   86398:	fa21 f604 	lsr.w	r6, r1, r4
   8639c:	eb42 0106 	adc.w	r1, r2, r6
   863a0:	ea5e 0e43 	orrs.w	lr, lr, r3, lsl #1
   863a4:	bf08      	it	eq
   863a6:	ea20 70d3 	biceq.w	r0, r0, r3, lsr #31
   863aa:	bd70      	pop	{r4, r5, r6, pc}
   863ac:	f1c4 040c 	rsb	r4, r4, #12
   863b0:	f1c4 0520 	rsb	r5, r4, #32
   863b4:	fa00 f304 	lsl.w	r3, r0, r4
   863b8:	fa20 f005 	lsr.w	r0, r0, r5
   863bc:	fa01 f204 	lsl.w	r2, r1, r4
   863c0:	ea40 0002 	orr.w	r0, r0, r2
   863c4:	f001 4100 	and.w	r1, r1, #2147483648	; 0x80000000
   863c8:	eb10 70d3 	adds.w	r0, r0, r3, lsr #31
   863cc:	f141 0100 	adc.w	r1, r1, #0
   863d0:	ea5e 0e43 	orrs.w	lr, lr, r3, lsl #1
   863d4:	bf08      	it	eq
   863d6:	ea20 70d3 	biceq.w	r0, r0, r3, lsr #31
   863da:	bd70      	pop	{r4, r5, r6, pc}
   863dc:	f1c4 0520 	rsb	r5, r4, #32
   863e0:	fa00 f205 	lsl.w	r2, r0, r5
   863e4:	ea4e 0e02 	orr.w	lr, lr, r2
   863e8:	fa20 f304 	lsr.w	r3, r0, r4
   863ec:	fa01 f205 	lsl.w	r2, r1, r5
   863f0:	ea43 0302 	orr.w	r3, r3, r2
   863f4:	fa21 f004 	lsr.w	r0, r1, r4
   863f8:	f001 4100 	and.w	r1, r1, #2147483648	; 0x80000000
   863fc:	fa21 f204 	lsr.w	r2, r1, r4
   86400:	ea20 0002 	bic.w	r0, r0, r2
   86404:	eb00 70d3 	add.w	r0, r0, r3, lsr #31
   86408:	ea5e 0e43 	orrs.w	lr, lr, r3, lsl #1
   8640c:	bf08      	it	eq
   8640e:	ea20 70d3 	biceq.w	r0, r0, r3, lsr #31
   86412:	bd70      	pop	{r4, r5, r6, pc}
   86414:	f094 0f00 	teq	r4, #0
   86418:	d10f      	bne.n	8643a <__aeabi_dmul+0x1c2>
   8641a:	f001 4600 	and.w	r6, r1, #2147483648	; 0x80000000
   8641e:	0040      	lsls	r0, r0, #1
   86420:	eb41 0101 	adc.w	r1, r1, r1
   86424:	f411 1f80 	tst.w	r1, #1048576	; 0x100000
   86428:	bf08      	it	eq
   8642a:	3c01      	subeq	r4, #1
   8642c:	d0f7      	beq.n	8641e <__aeabi_dmul+0x1a6>
   8642e:	ea41 0106 	orr.w	r1, r1, r6
   86432:	f095 0f00 	teq	r5, #0
   86436:	bf18      	it	ne
   86438:	4770      	bxne	lr
   8643a:	f003 4600 	and.w	r6, r3, #2147483648	; 0x80000000
   8643e:	0052      	lsls	r2, r2, #1
   86440:	eb43 0303 	adc.w	r3, r3, r3
   86444:	f413 1f80 	tst.w	r3, #1048576	; 0x100000
   86448:	bf08      	it	eq
   8644a:	3d01      	subeq	r5, #1
   8644c:	d0f7      	beq.n	8643e <__aeabi_dmul+0x1c6>
   8644e:	ea43 0306 	orr.w	r3, r3, r6
   86452:	4770      	bx	lr
   86454:	ea94 0f0c 	teq	r4, ip
   86458:	ea0c 5513 	and.w	r5, ip, r3, lsr #20
   8645c:	bf18      	it	ne
   8645e:	ea95 0f0c 	teqne	r5, ip
   86462:	d00c      	beq.n	8647e <__aeabi_dmul+0x206>
   86464:	ea50 0641 	orrs.w	r6, r0, r1, lsl #1
   86468:	bf18      	it	ne
   8646a:	ea52 0643 	orrsne.w	r6, r2, r3, lsl #1
   8646e:	d1d1      	bne.n	86414 <__aeabi_dmul+0x19c>
   86470:	ea81 0103 	eor.w	r1, r1, r3
   86474:	f001 4100 	and.w	r1, r1, #2147483648	; 0x80000000
   86478:	f04f 0000 	mov.w	r0, #0
   8647c:	bd70      	pop	{r4, r5, r6, pc}
   8647e:	ea50 0641 	orrs.w	r6, r0, r1, lsl #1
   86482:	bf06      	itte	eq
   86484:	4610      	moveq	r0, r2
   86486:	4619      	moveq	r1, r3
   86488:	ea52 0643 	orrsne.w	r6, r2, r3, lsl #1
   8648c:	d019      	beq.n	864c2 <__aeabi_dmul+0x24a>
   8648e:	ea94 0f0c 	teq	r4, ip
   86492:	d102      	bne.n	8649a <__aeabi_dmul+0x222>
   86494:	ea50 3601 	orrs.w	r6, r0, r1, lsl #12
   86498:	d113      	bne.n	864c2 <__aeabi_dmul+0x24a>
   8649a:	ea95 0f0c 	teq	r5, ip
   8649e:	d105      	bne.n	864ac <__aeabi_dmul+0x234>
   864a0:	ea52 3603 	orrs.w	r6, r2, r3, lsl #12
   864a4:	bf1c      	itt	ne
   864a6:	4610      	movne	r0, r2
   864a8:	4619      	movne	r1, r3
   864aa:	d10a      	bne.n	864c2 <__aeabi_dmul+0x24a>
   864ac:	ea81 0103 	eor.w	r1, r1, r3
   864b0:	f001 4100 	and.w	r1, r1, #2147483648	; 0x80000000
   864b4:	f041 41fe 	orr.w	r1, r1, #2130706432	; 0x7f000000
   864b8:	f441 0170 	orr.w	r1, r1, #15728640	; 0xf00000
   864bc:	f04f 0000 	mov.w	r0, #0
   864c0:	bd70      	pop	{r4, r5, r6, pc}
   864c2:	f041 41fe 	orr.w	r1, r1, #2130706432	; 0x7f000000
   864c6:	f441 0178 	orr.w	r1, r1, #16252928	; 0xf80000
   864ca:	bd70      	pop	{r4, r5, r6, pc}

000864cc <__aeabi_ddiv>:
   864cc:	b570      	push	{r4, r5, r6, lr}
   864ce:	f04f 0cff 	mov.w	ip, #255	; 0xff
   864d2:	f44c 6ce0 	orr.w	ip, ip, #1792	; 0x700
   864d6:	ea1c 5411 	ands.w	r4, ip, r1, lsr #20
   864da:	bf1d      	ittte	ne
   864dc:	ea1c 5513 	andsne.w	r5, ip, r3, lsr #20
   864e0:	ea94 0f0c 	teqne	r4, ip
   864e4:	ea95 0f0c 	teqne	r5, ip
   864e8:	f000 f8a7 	bleq	8663a <__aeabi_ddiv+0x16e>
   864ec:	eba4 0405 	sub.w	r4, r4, r5
   864f0:	ea81 0e03 	eor.w	lr, r1, r3
   864f4:	ea52 3503 	orrs.w	r5, r2, r3, lsl #12
   864f8:	ea4f 3101 	mov.w	r1, r1, lsl #12
   864fc:	f000 8088 	beq.w	86610 <__aeabi_ddiv+0x144>
   86500:	ea4f 3303 	mov.w	r3, r3, lsl #12
   86504:	f04f 5580 	mov.w	r5, #268435456	; 0x10000000
   86508:	ea45 1313 	orr.w	r3, r5, r3, lsr #4
   8650c:	ea43 6312 	orr.w	r3, r3, r2, lsr #24
   86510:	ea4f 2202 	mov.w	r2, r2, lsl #8
   86514:	ea45 1511 	orr.w	r5, r5, r1, lsr #4
   86518:	ea45 6510 	orr.w	r5, r5, r0, lsr #24
   8651c:	ea4f 2600 	mov.w	r6, r0, lsl #8
   86520:	f00e 4100 	and.w	r1, lr, #2147483648	; 0x80000000
   86524:	429d      	cmp	r5, r3
   86526:	bf08      	it	eq
   86528:	4296      	cmpeq	r6, r2
   8652a:	f144 04fd 	adc.w	r4, r4, #253	; 0xfd
   8652e:	f504 7440 	add.w	r4, r4, #768	; 0x300
   86532:	d202      	bcs.n	8653a <__aeabi_ddiv+0x6e>
   86534:	085b      	lsrs	r3, r3, #1
   86536:	ea4f 0232 	mov.w	r2, r2, rrx
   8653a:	1ab6      	subs	r6, r6, r2
   8653c:	eb65 0503 	sbc.w	r5, r5, r3
   86540:	085b      	lsrs	r3, r3, #1
   86542:	ea4f 0232 	mov.w	r2, r2, rrx
   86546:	f44f 1080 	mov.w	r0, #1048576	; 0x100000
   8654a:	f44f 2c00 	mov.w	ip, #524288	; 0x80000
   8654e:	ebb6 0e02 	subs.w	lr, r6, r2
   86552:	eb75 0e03 	sbcs.w	lr, r5, r3
   86556:	bf22      	ittt	cs
   86558:	1ab6      	subcs	r6, r6, r2
   8655a:	4675      	movcs	r5, lr
   8655c:	ea40 000c 	orrcs.w	r0, r0, ip
   86560:	085b      	lsrs	r3, r3, #1
   86562:	ea4f 0232 	mov.w	r2, r2, rrx
   86566:	ebb6 0e02 	subs.w	lr, r6, r2
   8656a:	eb75 0e03 	sbcs.w	lr, r5, r3
   8656e:	bf22      	ittt	cs
   86570:	1ab6      	subcs	r6, r6, r2
   86572:	4675      	movcs	r5, lr
   86574:	ea40 005c 	orrcs.w	r0, r0, ip, lsr #1
   86578:	085b      	lsrs	r3, r3, #1
   8657a:	ea4f 0232 	mov.w	r2, r2, rrx
   8657e:	ebb6 0e02 	subs.w	lr, r6, r2
   86582:	eb75 0e03 	sbcs.w	lr, r5, r3
   86586:	bf22      	ittt	cs
   86588:	1ab6      	subcs	r6, r6, r2
   8658a:	4675      	movcs	r5, lr
   8658c:	ea40 009c 	orrcs.w	r0, r0, ip, lsr #2
   86590:	085b      	lsrs	r3, r3, #1
   86592:	ea4f 0232 	mov.w	r2, r2, rrx
   86596:	ebb6 0e02 	subs.w	lr, r6, r2
   8659a:	eb75 0e03 	sbcs.w	lr, r5, r3
   8659e:	bf22      	ittt	cs
   865a0:	1ab6      	subcs	r6, r6, r2
   865a2:	4675      	movcs	r5, lr
   865a4:	ea40 00dc 	orrcs.w	r0, r0, ip, lsr #3
   865a8:	ea55 0e06 	orrs.w	lr, r5, r6
   865ac:	d018      	beq.n	865e0 <__aeabi_ddiv+0x114>
   865ae:	ea4f 1505 	mov.w	r5, r5, lsl #4
   865b2:	ea45 7516 	orr.w	r5, r5, r6, lsr #28
   865b6:	ea4f 1606 	mov.w	r6, r6, lsl #4
   865ba:	ea4f 03c3 	mov.w	r3, r3, lsl #3
   865be:	ea43 7352 	orr.w	r3, r3, r2, lsr #29
   865c2:	ea4f 02c2 	mov.w	r2, r2, lsl #3
   865c6:	ea5f 1c1c 	movs.w	ip, ip, lsr #4
   865ca:	d1c0      	bne.n	8654e <__aeabi_ddiv+0x82>
   865cc:	f411 1f80 	tst.w	r1, #1048576	; 0x100000
   865d0:	d10b      	bne.n	865ea <__aeabi_ddiv+0x11e>
   865d2:	ea41 0100 	orr.w	r1, r1, r0
   865d6:	f04f 0000 	mov.w	r0, #0
   865da:	f04f 4c00 	mov.w	ip, #2147483648	; 0x80000000
   865de:	e7b6      	b.n	8654e <__aeabi_ddiv+0x82>
   865e0:	f411 1f80 	tst.w	r1, #1048576	; 0x100000
   865e4:	bf04      	itt	eq
   865e6:	4301      	orreq	r1, r0
   865e8:	2000      	moveq	r0, #0
   865ea:	f1b4 0cfd 	subs.w	ip, r4, #253	; 0xfd
   865ee:	bf88      	it	hi
   865f0:	f5bc 6fe0 	cmphi.w	ip, #1792	; 0x700
   865f4:	f63f aeaf 	bhi.w	86356 <__aeabi_dmul+0xde>
   865f8:	ebb5 0c03 	subs.w	ip, r5, r3
   865fc:	bf04      	itt	eq
   865fe:	ebb6 0c02 	subseq.w	ip, r6, r2
   86602:	ea5f 0c50 	movseq.w	ip, r0, lsr #1
   86606:	f150 0000 	adcs.w	r0, r0, #0
   8660a:	eb41 5104 	adc.w	r1, r1, r4, lsl #20
   8660e:	bd70      	pop	{r4, r5, r6, pc}
   86610:	f00e 4e00 	and.w	lr, lr, #2147483648	; 0x80000000
   86614:	ea4e 3111 	orr.w	r1, lr, r1, lsr #12
   86618:	eb14 045c 	adds.w	r4, r4, ip, lsr #1
   8661c:	bfc2      	ittt	gt
   8661e:	ebd4 050c 	rsbsgt	r5, r4, ip
   86622:	ea41 5104 	orrgt.w	r1, r1, r4, lsl #20
   86626:	bd70      	popgt	{r4, r5, r6, pc}
   86628:	f441 1180 	orr.w	r1, r1, #1048576	; 0x100000
   8662c:	f04f 0e00 	mov.w	lr, #0
   86630:	3c01      	subs	r4, #1
   86632:	e690      	b.n	86356 <__aeabi_dmul+0xde>
   86634:	ea45 0e06 	orr.w	lr, r5, r6
   86638:	e68d      	b.n	86356 <__aeabi_dmul+0xde>
   8663a:	ea0c 5513 	and.w	r5, ip, r3, lsr #20
   8663e:	ea94 0f0c 	teq	r4, ip
   86642:	bf08      	it	eq
   86644:	ea95 0f0c 	teqeq	r5, ip
   86648:	f43f af3b 	beq.w	864c2 <__aeabi_dmul+0x24a>
   8664c:	ea94 0f0c 	teq	r4, ip
   86650:	d10a      	bne.n	86668 <__aeabi_ddiv+0x19c>
   86652:	ea50 3401 	orrs.w	r4, r0, r1, lsl #12
   86656:	f47f af34 	bne.w	864c2 <__aeabi_dmul+0x24a>
   8665a:	ea95 0f0c 	teq	r5, ip
   8665e:	f47f af25 	bne.w	864ac <__aeabi_dmul+0x234>
   86662:	4610      	mov	r0, r2
   86664:	4619      	mov	r1, r3
   86666:	e72c      	b.n	864c2 <__aeabi_dmul+0x24a>
   86668:	ea95 0f0c 	teq	r5, ip
   8666c:	d106      	bne.n	8667c <__aeabi_ddiv+0x1b0>
   8666e:	ea52 3503 	orrs.w	r5, r2, r3, lsl #12
   86672:	f43f aefd 	beq.w	86470 <__aeabi_dmul+0x1f8>
   86676:	4610      	mov	r0, r2
   86678:	4619      	mov	r1, r3
   8667a:	e722      	b.n	864c2 <__aeabi_dmul+0x24a>
   8667c:	ea50 0641 	orrs.w	r6, r0, r1, lsl #1
   86680:	bf18      	it	ne
   86682:	ea52 0643 	orrsne.w	r6, r2, r3, lsl #1
   86686:	f47f aec5 	bne.w	86414 <__aeabi_dmul+0x19c>
   8668a:	ea50 0441 	orrs.w	r4, r0, r1, lsl #1
   8668e:	f47f af0d 	bne.w	864ac <__aeabi_dmul+0x234>
   86692:	ea52 0543 	orrs.w	r5, r2, r3, lsl #1
   86696:	f47f aeeb 	bne.w	86470 <__aeabi_dmul+0x1f8>
   8669a:	e712      	b.n	864c2 <__aeabi_dmul+0x24a>

0008669c <__gedf2>:
   8669c:	f04f 3cff 	mov.w	ip, #4294967295
   866a0:	e006      	b.n	866b0 <__cmpdf2+0x4>
   866a2:	bf00      	nop

000866a4 <__ledf2>:
   866a4:	f04f 0c01 	mov.w	ip, #1
   866a8:	e002      	b.n	866b0 <__cmpdf2+0x4>
   866aa:	bf00      	nop

000866ac <__cmpdf2>:
   866ac:	f04f 0c01 	mov.w	ip, #1
   866b0:	f84d cd04 	str.w	ip, [sp, #-4]!
   866b4:	ea4f 0c41 	mov.w	ip, r1, lsl #1
   866b8:	ea7f 5c6c 	mvns.w	ip, ip, asr #21
   866bc:	ea4f 0c43 	mov.w	ip, r3, lsl #1
   866c0:	bf18      	it	ne
   866c2:	ea7f 5c6c 	mvnsne.w	ip, ip, asr #21
   866c6:	d01b      	beq.n	86700 <__cmpdf2+0x54>
   866c8:	b001      	add	sp, #4
   866ca:	ea50 0c41 	orrs.w	ip, r0, r1, lsl #1
   866ce:	bf0c      	ite	eq
   866d0:	ea52 0c43 	orrseq.w	ip, r2, r3, lsl #1
   866d4:	ea91 0f03 	teqne	r1, r3
   866d8:	bf02      	ittt	eq
   866da:	ea90 0f02 	teqeq	r0, r2
   866de:	2000      	moveq	r0, #0
   866e0:	4770      	bxeq	lr
   866e2:	f110 0f00 	cmn.w	r0, #0
   866e6:	ea91 0f03 	teq	r1, r3
   866ea:	bf58      	it	pl
   866ec:	4299      	cmppl	r1, r3
   866ee:	bf08      	it	eq
   866f0:	4290      	cmpeq	r0, r2
   866f2:	bf2c      	ite	cs
   866f4:	17d8      	asrcs	r0, r3, #31
   866f6:	ea6f 70e3 	mvncc.w	r0, r3, asr #31
   866fa:	f040 0001 	orr.w	r0, r0, #1
   866fe:	4770      	bx	lr
   86700:	ea4f 0c41 	mov.w	ip, r1, lsl #1
   86704:	ea7f 5c6c 	mvns.w	ip, ip, asr #21
   86708:	d102      	bne.n	86710 <__cmpdf2+0x64>
   8670a:	ea50 3c01 	orrs.w	ip, r0, r1, lsl #12
   8670e:	d107      	bne.n	86720 <__cmpdf2+0x74>
   86710:	ea4f 0c43 	mov.w	ip, r3, lsl #1
   86714:	ea7f 5c6c 	mvns.w	ip, ip, asr #21
   86718:	d1d6      	bne.n	866c8 <__cmpdf2+0x1c>
   8671a:	ea52 3c03 	orrs.w	ip, r2, r3, lsl #12
   8671e:	d0d3      	beq.n	866c8 <__cmpdf2+0x1c>
   86720:	f85d 0b04 	ldr.w	r0, [sp], #4
   86724:	4770      	bx	lr
   86726:	bf00      	nop

00086728 <__aeabi_cdrcmple>:
   86728:	4684      	mov	ip, r0
   8672a:	4610      	mov	r0, r2
   8672c:	4662      	mov	r2, ip
   8672e:	468c      	mov	ip, r1
   86730:	4619      	mov	r1, r3
   86732:	4663      	mov	r3, ip
   86734:	e000      	b.n	86738 <__aeabi_cdcmpeq>
   86736:	bf00      	nop

00086738 <__aeabi_cdcmpeq>:
   86738:	b501      	push	{r0, lr}
   8673a:	f7ff ffb7 	bl	866ac <__cmpdf2>
   8673e:	2800      	cmp	r0, #0
   86740:	bf48      	it	mi
   86742:	f110 0f00 	cmnmi.w	r0, #0
   86746:	bd01      	pop	{r0, pc}

00086748 <__aeabi_dcmpeq>:
   86748:	f84d ed08 	str.w	lr, [sp, #-8]!
   8674c:	f7ff fff4 	bl	86738 <__aeabi_cdcmpeq>
   86750:	bf0c      	ite	eq
   86752:	2001      	moveq	r0, #1
   86754:	2000      	movne	r0, #0
   86756:	f85d fb08 	ldr.w	pc, [sp], #8
   8675a:	bf00      	nop

0008675c <__aeabi_dcmplt>:
   8675c:	f84d ed08 	str.w	lr, [sp, #-8]!
   86760:	f7ff ffea 	bl	86738 <__aeabi_cdcmpeq>
   86764:	bf34      	ite	cc
   86766:	2001      	movcc	r0, #1
   86768:	2000      	movcs	r0, #0
   8676a:	f85d fb08 	ldr.w	pc, [sp], #8
   8676e:	bf00      	nop

00086770 <__aeabi_dcmple>:
   86770:	f84d ed08 	str.w	lr, [sp, #-8]!
   86774:	f7ff ffe0 	bl	86738 <__aeabi_cdcmpeq>
   86778:	bf94      	ite	ls
   8677a:	2001      	movls	r0, #1
   8677c:	2000      	movhi	r0, #0
   8677e:	f85d fb08 	ldr.w	pc, [sp], #8
   86782:	bf00      	nop

00086784 <__aeabi_dcmpge>:
   86784:	f84d ed08 	str.w	lr, [sp, #-8]!
   86788:	f7ff ffce 	bl	86728 <__aeabi_cdrcmple>
   8678c:	bf94      	ite	ls
   8678e:	2001      	movls	r0, #1
   86790:	2000      	movhi	r0, #0
   86792:	f85d fb08 	ldr.w	pc, [sp], #8
   86796:	bf00      	nop

00086798 <__aeabi_dcmpgt>:
   86798:	f84d ed08 	str.w	lr, [sp, #-8]!
   8679c:	f7ff ffc4 	bl	86728 <__aeabi_cdrcmple>
   867a0:	bf34      	ite	cc
   867a2:	2001      	movcc	r0, #1
   867a4:	2000      	movcs	r0, #0
   867a6:	f85d fb08 	ldr.w	pc, [sp], #8
   867aa:	bf00      	nop

000867ac <__aeabi_dcmpun>:
   867ac:	ea4f 0c41 	mov.w	ip, r1, lsl #1
   867b0:	ea7f 5c6c 	mvns.w	ip, ip, asr #21
   867b4:	d102      	bne.n	867bc <__aeabi_dcmpun+0x10>
   867b6:	ea50 3c01 	orrs.w	ip, r0, r1, lsl #12
   867ba:	d10a      	bne.n	867d2 <__aeabi_dcmpun+0x26>
   867bc:	ea4f 0c43 	mov.w	ip, r3, lsl #1
   867c0:	ea7f 5c6c 	mvns.w	ip, ip, asr #21
   867c4:	d102      	bne.n	867cc <__aeabi_dcmpun+0x20>
   867c6:	ea52 3c03 	orrs.w	ip, r2, r3, lsl #12
   867ca:	d102      	bne.n	867d2 <__aeabi_dcmpun+0x26>
   867cc:	f04f 0000 	mov.w	r0, #0
   867d0:	4770      	bx	lr
   867d2:	f04f 0001 	mov.w	r0, #1
   867d6:	4770      	bx	lr

000867d8 <__aeabi_d2iz>:
   867d8:	ea4f 0241 	mov.w	r2, r1, lsl #1
   867dc:	f512 1200 	adds.w	r2, r2, #2097152	; 0x200000
   867e0:	d215      	bcs.n	8680e <__aeabi_d2iz+0x36>
   867e2:	d511      	bpl.n	86808 <__aeabi_d2iz+0x30>
   867e4:	f46f 7378 	mvn.w	r3, #992	; 0x3e0
   867e8:	ebb3 5262 	subs.w	r2, r3, r2, asr #21
   867ec:	d912      	bls.n	86814 <__aeabi_d2iz+0x3c>
   867ee:	ea4f 23c1 	mov.w	r3, r1, lsl #11
   867f2:	f043 4300 	orr.w	r3, r3, #2147483648	; 0x80000000
   867f6:	ea43 5350 	orr.w	r3, r3, r0, lsr #21
   867fa:	f011 4f00 	tst.w	r1, #2147483648	; 0x80000000
   867fe:	fa23 f002 	lsr.w	r0, r3, r2
   86802:	bf18      	it	ne
   86804:	4240      	negne	r0, r0
   86806:	4770      	bx	lr
   86808:	f04f 0000 	mov.w	r0, #0
   8680c:	4770      	bx	lr
   8680e:	ea50 3001 	orrs.w	r0, r0, r1, lsl #12
   86812:	d105      	bne.n	86820 <__aeabi_d2iz+0x48>
   86814:	f011 4000 	ands.w	r0, r1, #2147483648	; 0x80000000
   86818:	bf08      	it	eq
   8681a:	f06f 4000 	mvneq.w	r0, #2147483648	; 0x80000000
   8681e:	4770      	bx	lr
   86820:	f04f 0000 	mov.w	r0, #0
   86824:	4770      	bx	lr
   86826:	bf00      	nop

00086828 <__aeabi_uldivmod>:
   86828:	b953      	cbnz	r3, 86840 <__aeabi_uldivmod+0x18>
   8682a:	b94a      	cbnz	r2, 86840 <__aeabi_uldivmod+0x18>
   8682c:	2900      	cmp	r1, #0
   8682e:	bf08      	it	eq
   86830:	2800      	cmpeq	r0, #0
   86832:	bf1c      	itt	ne
   86834:	f04f 31ff 	movne.w	r1, #4294967295
   86838:	f04f 30ff 	movne.w	r0, #4294967295
   8683c:	f000 b97a 	b.w	86b34 <__aeabi_idiv0>
   86840:	f1ad 0c08 	sub.w	ip, sp, #8
   86844:	e96d ce04 	strd	ip, lr, [sp, #-16]!
   86848:	f000 f806 	bl	86858 <__udivmoddi4>
   8684c:	f8dd e004 	ldr.w	lr, [sp, #4]
   86850:	e9dd 2302 	ldrd	r2, r3, [sp, #8]
   86854:	b004      	add	sp, #16
   86856:	4770      	bx	lr

00086858 <__udivmoddi4>:
   86858:	e92d 47f0 	stmdb	sp!, {r4, r5, r6, r7, r8, r9, sl, lr}
   8685c:	468c      	mov	ip, r1
   8685e:	460e      	mov	r6, r1
   86860:	4604      	mov	r4, r0
   86862:	9d08      	ldr	r5, [sp, #32]
   86864:	2b00      	cmp	r3, #0
   86866:	d150      	bne.n	8690a <__udivmoddi4+0xb2>
   86868:	428a      	cmp	r2, r1
   8686a:	4617      	mov	r7, r2
   8686c:	d96c      	bls.n	86948 <__udivmoddi4+0xf0>
   8686e:	fab2 fe82 	clz	lr, r2
   86872:	f1be 0f00 	cmp.w	lr, #0
   86876:	d00b      	beq.n	86890 <__udivmoddi4+0x38>
   86878:	f1ce 0c20 	rsb	ip, lr, #32
   8687c:	fa01 f60e 	lsl.w	r6, r1, lr
   86880:	fa20 fc0c 	lsr.w	ip, r0, ip
   86884:	fa02 f70e 	lsl.w	r7, r2, lr
   86888:	ea4c 0c06 	orr.w	ip, ip, r6
   8688c:	fa00 f40e 	lsl.w	r4, r0, lr
   86890:	0c3a      	lsrs	r2, r7, #16
   86892:	fbbc f9f2 	udiv	r9, ip, r2
   86896:	b2bb      	uxth	r3, r7
   86898:	fb02 cc19 	mls	ip, r2, r9, ip
   8689c:	fb09 fa03 	mul.w	sl, r9, r3
   868a0:	ea4f 4814 	mov.w	r8, r4, lsr #16
   868a4:	ea48 460c 	orr.w	r6, r8, ip, lsl #16
   868a8:	45b2      	cmp	sl, r6
   868aa:	d90a      	bls.n	868c2 <__udivmoddi4+0x6a>
   868ac:	19f6      	adds	r6, r6, r7
   868ae:	f109 31ff 	add.w	r1, r9, #4294967295
   868b2:	f080 8125 	bcs.w	86b00 <__udivmoddi4+0x2a8>
   868b6:	45b2      	cmp	sl, r6
   868b8:	f240 8122 	bls.w	86b00 <__udivmoddi4+0x2a8>
   868bc:	f1a9 0902 	sub.w	r9, r9, #2
   868c0:	443e      	add	r6, r7
   868c2:	eba6 060a 	sub.w	r6, r6, sl
   868c6:	fbb6 f0f2 	udiv	r0, r6, r2
   868ca:	fb02 6610 	mls	r6, r2, r0, r6
   868ce:	fb00 f303 	mul.w	r3, r0, r3
   868d2:	b2a4      	uxth	r4, r4
   868d4:	ea44 4406 	orr.w	r4, r4, r6, lsl #16
   868d8:	42a3      	cmp	r3, r4
   868da:	d909      	bls.n	868f0 <__udivmoddi4+0x98>
   868dc:	19e4      	adds	r4, r4, r7
   868de:	f100 32ff 	add.w	r2, r0, #4294967295
   868e2:	f080 810b 	bcs.w	86afc <__udivmoddi4+0x2a4>
   868e6:	42a3      	cmp	r3, r4
   868e8:	f240 8108 	bls.w	86afc <__udivmoddi4+0x2a4>
   868ec:	3802      	subs	r0, #2
   868ee:	443c      	add	r4, r7
   868f0:	2100      	movs	r1, #0
   868f2:	1ae4      	subs	r4, r4, r3
   868f4:	ea40 4009 	orr.w	r0, r0, r9, lsl #16
   868f8:	2d00      	cmp	r5, #0
   868fa:	d062      	beq.n	869c2 <__udivmoddi4+0x16a>
   868fc:	2300      	movs	r3, #0
   868fe:	fa24 f40e 	lsr.w	r4, r4, lr
   86902:	602c      	str	r4, [r5, #0]
   86904:	606b      	str	r3, [r5, #4]
   86906:	e8bd 87f0 	ldmia.w	sp!, {r4, r5, r6, r7, r8, r9, sl, pc}
   8690a:	428b      	cmp	r3, r1
   8690c:	d907      	bls.n	8691e <__udivmoddi4+0xc6>
   8690e:	2d00      	cmp	r5, #0
   86910:	d055      	beq.n	869be <__udivmoddi4+0x166>
   86912:	2100      	movs	r1, #0
   86914:	e885 0041 	stmia.w	r5, {r0, r6}
   86918:	4608      	mov	r0, r1
   8691a:	e8bd 87f0 	ldmia.w	sp!, {r4, r5, r6, r7, r8, r9, sl, pc}
   8691e:	fab3 f183 	clz	r1, r3
   86922:	2900      	cmp	r1, #0
   86924:	f040 808f 	bne.w	86a46 <__udivmoddi4+0x1ee>
   86928:	42b3      	cmp	r3, r6
   8692a:	d302      	bcc.n	86932 <__udivmoddi4+0xda>
   8692c:	4282      	cmp	r2, r0
   8692e:	f200 80fc 	bhi.w	86b2a <__udivmoddi4+0x2d2>
   86932:	1a84      	subs	r4, r0, r2
   86934:	eb66 0603 	sbc.w	r6, r6, r3
   86938:	2001      	movs	r0, #1
   8693a:	46b4      	mov	ip, r6
   8693c:	2d00      	cmp	r5, #0
   8693e:	d040      	beq.n	869c2 <__udivmoddi4+0x16a>
   86940:	e885 1010 	stmia.w	r5, {r4, ip}
   86944:	e8bd 87f0 	ldmia.w	sp!, {r4, r5, r6, r7, r8, r9, sl, pc}
   86948:	b912      	cbnz	r2, 86950 <__udivmoddi4+0xf8>
   8694a:	2701      	movs	r7, #1
   8694c:	fbb7 f7f2 	udiv	r7, r7, r2
   86950:	fab7 fe87 	clz	lr, r7
   86954:	f1be 0f00 	cmp.w	lr, #0
   86958:	d135      	bne.n	869c6 <__udivmoddi4+0x16e>
   8695a:	2101      	movs	r1, #1
   8695c:	1bf6      	subs	r6, r6, r7
   8695e:	ea4f 4c17 	mov.w	ip, r7, lsr #16
   86962:	fa1f f887 	uxth.w	r8, r7
   86966:	fbb6 f2fc 	udiv	r2, r6, ip
   8696a:	fb0c 6612 	mls	r6, ip, r2, r6
   8696e:	fb08 f002 	mul.w	r0, r8, r2
   86972:	0c23      	lsrs	r3, r4, #16
   86974:	ea43 4606 	orr.w	r6, r3, r6, lsl #16
   86978:	42b0      	cmp	r0, r6
   8697a:	d907      	bls.n	8698c <__udivmoddi4+0x134>
   8697c:	19f6      	adds	r6, r6, r7
   8697e:	f102 33ff 	add.w	r3, r2, #4294967295
   86982:	d202      	bcs.n	8698a <__udivmoddi4+0x132>
   86984:	42b0      	cmp	r0, r6
   86986:	f200 80d2 	bhi.w	86b2e <__udivmoddi4+0x2d6>
   8698a:	461a      	mov	r2, r3
   8698c:	1a36      	subs	r6, r6, r0
   8698e:	fbb6 f0fc 	udiv	r0, r6, ip
   86992:	fb0c 6610 	mls	r6, ip, r0, r6
   86996:	fb08 f800 	mul.w	r8, r8, r0
   8699a:	b2a3      	uxth	r3, r4
   8699c:	ea43 4406 	orr.w	r4, r3, r6, lsl #16
   869a0:	45a0      	cmp	r8, r4
   869a2:	d907      	bls.n	869b4 <__udivmoddi4+0x15c>
   869a4:	19e4      	adds	r4, r4, r7
   869a6:	f100 33ff 	add.w	r3, r0, #4294967295
   869aa:	d202      	bcs.n	869b2 <__udivmoddi4+0x15a>
   869ac:	45a0      	cmp	r8, r4
   869ae:	f200 80b9 	bhi.w	86b24 <__udivmoddi4+0x2cc>
   869b2:	4618      	mov	r0, r3
   869b4:	eba4 0408 	sub.w	r4, r4, r8
   869b8:	ea40 4002 	orr.w	r0, r0, r2, lsl #16
   869bc:	e79c      	b.n	868f8 <__udivmoddi4+0xa0>
   869be:	4629      	mov	r1, r5
   869c0:	4628      	mov	r0, r5
   869c2:	e8bd 87f0 	ldmia.w	sp!, {r4, r5, r6, r7, r8, r9, sl, pc}
   869c6:	fa07 f70e 	lsl.w	r7, r7, lr
   869ca:	f1ce 0320 	rsb	r3, lr, #32
   869ce:	fa26 f203 	lsr.w	r2, r6, r3
   869d2:	ea4f 4c17 	mov.w	ip, r7, lsr #16
   869d6:	fbb2 f1fc 	udiv	r1, r2, ip
   869da:	fa1f f887 	uxth.w	r8, r7
   869de:	fb0c 2211 	mls	r2, ip, r1, r2
   869e2:	fa06 f60e 	lsl.w	r6, r6, lr
   869e6:	fa20 f303 	lsr.w	r3, r0, r3
   869ea:	fb01 f908 	mul.w	r9, r1, r8
   869ee:	4333      	orrs	r3, r6
   869f0:	0c1e      	lsrs	r6, r3, #16
   869f2:	ea46 4602 	orr.w	r6, r6, r2, lsl #16
   869f6:	45b1      	cmp	r9, r6
   869f8:	fa00 f40e 	lsl.w	r4, r0, lr
   869fc:	d909      	bls.n	86a12 <__udivmoddi4+0x1ba>
   869fe:	19f6      	adds	r6, r6, r7
   86a00:	f101 32ff 	add.w	r2, r1, #4294967295
   86a04:	f080 808c 	bcs.w	86b20 <__udivmoddi4+0x2c8>
   86a08:	45b1      	cmp	r9, r6
   86a0a:	f240 8089 	bls.w	86b20 <__udivmoddi4+0x2c8>
   86a0e:	3902      	subs	r1, #2
   86a10:	443e      	add	r6, r7
   86a12:	eba6 0609 	sub.w	r6, r6, r9
   86a16:	fbb6 f0fc 	udiv	r0, r6, ip
   86a1a:	fb0c 6210 	mls	r2, ip, r0, r6
   86a1e:	fb00 f908 	mul.w	r9, r0, r8
   86a22:	b29e      	uxth	r6, r3
   86a24:	ea46 4602 	orr.w	r6, r6, r2, lsl #16
   86a28:	45b1      	cmp	r9, r6
   86a2a:	d907      	bls.n	86a3c <__udivmoddi4+0x1e4>
   86a2c:	19f6      	adds	r6, r6, r7
   86a2e:	f100 33ff 	add.w	r3, r0, #4294967295
   86a32:	d271      	bcs.n	86b18 <__udivmoddi4+0x2c0>
   86a34:	45b1      	cmp	r9, r6
   86a36:	d96f      	bls.n	86b18 <__udivmoddi4+0x2c0>
   86a38:	3802      	subs	r0, #2
   86a3a:	443e      	add	r6, r7
   86a3c:	eba6 0609 	sub.w	r6, r6, r9
   86a40:	ea40 4101 	orr.w	r1, r0, r1, lsl #16
   86a44:	e78f      	b.n	86966 <__udivmoddi4+0x10e>
   86a46:	f1c1 0720 	rsb	r7, r1, #32
   86a4a:	fa22 f807 	lsr.w	r8, r2, r7
   86a4e:	408b      	lsls	r3, r1
   86a50:	ea48 0303 	orr.w	r3, r8, r3
   86a54:	fa26 f407 	lsr.w	r4, r6, r7
   86a58:	ea4f 4e13 	mov.w	lr, r3, lsr #16
   86a5c:	fbb4 f9fe 	udiv	r9, r4, lr
   86a60:	fa1f fc83 	uxth.w	ip, r3
   86a64:	fb0e 4419 	mls	r4, lr, r9, r4
   86a68:	408e      	lsls	r6, r1
   86a6a:	fa20 f807 	lsr.w	r8, r0, r7
   86a6e:	fb09 fa0c 	mul.w	sl, r9, ip
   86a72:	ea48 0806 	orr.w	r8, r8, r6
   86a76:	ea4f 4618 	mov.w	r6, r8, lsr #16
   86a7a:	ea46 4404 	orr.w	r4, r6, r4, lsl #16
   86a7e:	45a2      	cmp	sl, r4
   86a80:	fa02 f201 	lsl.w	r2, r2, r1
   86a84:	fa00 f601 	lsl.w	r6, r0, r1
   86a88:	d908      	bls.n	86a9c <__udivmoddi4+0x244>
   86a8a:	18e4      	adds	r4, r4, r3
   86a8c:	f109 30ff 	add.w	r0, r9, #4294967295
   86a90:	d244      	bcs.n	86b1c <__udivmoddi4+0x2c4>
   86a92:	45a2      	cmp	sl, r4
   86a94:	d942      	bls.n	86b1c <__udivmoddi4+0x2c4>
   86a96:	f1a9 0902 	sub.w	r9, r9, #2
   86a9a:	441c      	add	r4, r3
   86a9c:	eba4 040a 	sub.w	r4, r4, sl
   86aa0:	fbb4 f0fe 	udiv	r0, r4, lr
   86aa4:	fb0e 4410 	mls	r4, lr, r0, r4
   86aa8:	fb00 fc0c 	mul.w	ip, r0, ip
   86aac:	fa1f f888 	uxth.w	r8, r8
   86ab0:	ea48 4404 	orr.w	r4, r8, r4, lsl #16
   86ab4:	45a4      	cmp	ip, r4
   86ab6:	d907      	bls.n	86ac8 <__udivmoddi4+0x270>
   86ab8:	18e4      	adds	r4, r4, r3
   86aba:	f100 3eff 	add.w	lr, r0, #4294967295
   86abe:	d229      	bcs.n	86b14 <__udivmoddi4+0x2bc>
   86ac0:	45a4      	cmp	ip, r4
   86ac2:	d927      	bls.n	86b14 <__udivmoddi4+0x2bc>
   86ac4:	3802      	subs	r0, #2
   86ac6:	441c      	add	r4, r3
   86ac8:	ea40 4009 	orr.w	r0, r0, r9, lsl #16
   86acc:	fba0 8902 	umull	r8, r9, r0, r2
   86ad0:	eba4 0c0c 	sub.w	ip, r4, ip
   86ad4:	45cc      	cmp	ip, r9
   86ad6:	46c2      	mov	sl, r8
   86ad8:	46ce      	mov	lr, r9
   86ada:	d315      	bcc.n	86b08 <__udivmoddi4+0x2b0>
   86adc:	d012      	beq.n	86b04 <__udivmoddi4+0x2ac>
   86ade:	b155      	cbz	r5, 86af6 <__udivmoddi4+0x29e>
   86ae0:	ebb6 030a 	subs.w	r3, r6, sl
   86ae4:	eb6c 060e 	sbc.w	r6, ip, lr
   86ae8:	fa06 f707 	lsl.w	r7, r6, r7
   86aec:	40cb      	lsrs	r3, r1
   86aee:	431f      	orrs	r7, r3
   86af0:	40ce      	lsrs	r6, r1
   86af2:	602f      	str	r7, [r5, #0]
   86af4:	606e      	str	r6, [r5, #4]
   86af6:	2100      	movs	r1, #0
   86af8:	e8bd 87f0 	ldmia.w	sp!, {r4, r5, r6, r7, r8, r9, sl, pc}
   86afc:	4610      	mov	r0, r2
   86afe:	e6f7      	b.n	868f0 <__udivmoddi4+0x98>
   86b00:	4689      	mov	r9, r1
   86b02:	e6de      	b.n	868c2 <__udivmoddi4+0x6a>
   86b04:	4546      	cmp	r6, r8
   86b06:	d2ea      	bcs.n	86ade <__udivmoddi4+0x286>
   86b08:	ebb8 0a02 	subs.w	sl, r8, r2
   86b0c:	eb69 0e03 	sbc.w	lr, r9, r3
   86b10:	3801      	subs	r0, #1
   86b12:	e7e4      	b.n	86ade <__udivmoddi4+0x286>
   86b14:	4670      	mov	r0, lr
   86b16:	e7d7      	b.n	86ac8 <__udivmoddi4+0x270>
   86b18:	4618      	mov	r0, r3
   86b1a:	e78f      	b.n	86a3c <__udivmoddi4+0x1e4>
   86b1c:	4681      	mov	r9, r0
   86b1e:	e7bd      	b.n	86a9c <__udivmoddi4+0x244>
   86b20:	4611      	mov	r1, r2
   86b22:	e776      	b.n	86a12 <__udivmoddi4+0x1ba>
   86b24:	3802      	subs	r0, #2
   86b26:	443c      	add	r4, r7
   86b28:	e744      	b.n	869b4 <__udivmoddi4+0x15c>
   86b2a:	4608      	mov	r0, r1
   86b2c:	e706      	b.n	8693c <__udivmoddi4+0xe4>
   86b2e:	3a02      	subs	r2, #2
   86b30:	443e      	add	r6, r7
   86b32:	e72b      	b.n	8698c <__udivmoddi4+0x134>

00086b34 <__aeabi_idiv0>:
   86b34:	4770      	bx	lr
   86b36:	bf00      	nop
   86b38:	746f6f62 	.word	0x746f6f62
   86b3c:	20676e69 	.word	0x20676e69
   86b40:	534f6f6e 	.word	0x534f6f6e
   86b44:	00202020 	.word	0x00202020
   86b48:	0000002e 	.word	0x0000002e
   86b4c:	74746553 	.word	0x74746553
   86b50:	73676e69 	.word	0x73676e69
   86b54:	00002020 	.word	0x00002020
   86b58:	6f626f52 	.word	0x6f626f52
   86b5c:	44492074 	.word	0x44492074
   86b60:	3125203a 	.word	0x3125203a
   86b64:	00000064 	.word	0x00000064
   86b68:	65657053 	.word	0x65657053
   86b6c:	25203a64 	.word	0x25203a64
   86b70:	00006432 	.word	0x00006432
   86b74:	49464957 	.word	0x49464957
   86b78:	3125203a 	.word	0x3125203a
   86b7c:	00000064 	.word	0x00000064
   86b80:	696c6143 	.word	0x696c6143
   86b84:	74617262 	.word	0x74617262
   86b88:	00000065 	.word	0x00000065
   86b8c:	20746553 	.word	0x20746553
   86b90:	6c656966 	.word	0x6c656966
   86b94:	69732064 	.word	0x69732064
   86b98:	7220657a 	.word	0x7220657a
   86b9c:	00006665 	.word	0x00006665
   86ba0:	00000000 	.word	0x00000000
   86ba4:	614d2020 	.word	0x614d2020
   86ba8:	20686374 	.word	0x20686374
   86bac:	00000020 	.word	0x00000020
   86bb0:	72617453 	.word	0x72617453
   86bb4:	616d2074 	.word	0x616d2074
   86bb8:	00686374 	.word	0x00686374
   86bbc:	736e6553 	.word	0x736e6553
   86bc0:	7620726f 	.word	0x7620726f
   86bc4:	65756c61 	.word	0x65756c61
   86bc8:	00000073 	.word	0x00000073
   86bcc:	76697244 	.word	0x76697244
   86bd0:	6e612065 	.word	0x6e612065
   86bd4:	20656c67 	.word	0x20656c67
   86bd8:	00646970 	.word	0x00646970
   86bdc:	65542020 	.word	0x65542020
   86be0:	00737473 	.word	0x00737473
   86be4:	6e727554 	.word	0x6e727554
   86be8:	206f7420 	.word	0x206f7420
   86bec:	72617473 	.word	0x72617473
   86bf0:	00000074 	.word	0x00000074
   86bf4:	65766f4d 	.word	0x65766f4d
   86bf8:	206f7420 	.word	0x206f7420
   86bfc:	6464696d 	.word	0x6464696d
   86c00:	0000656c 	.word	0x0000656c
   86c04:	65766f4d 	.word	0x65766f4d
   86c08:	206f7420 	.word	0x206f7420
   86c0c:	6c6c6162 	.word	0x6c6c6162
   86c10:	00000000 	.word	0x00000000
   86c14:	00495052 	.word	0x00495052
   86c18:	706f7453 	.word	0x706f7453
   86c1c:	206e6f20 	.word	0x206e6f20
   86c20:	656e696c 	.word	0x656e696c
   86c24:	00000000 	.word	0x00000000
   86c28:	6f636e45 	.word	0x6f636e45
   86c2c:	20726564 	.word	0x20726564
   86c30:	74736574 	.word	0x74736574
   86c34:	00000000 	.word	0x00000000
   86c38:	0000003e 	.word	0x0000003e
   86c3c:	00000020 	.word	0x00000020
   86c40:	0000003c 	.word	0x0000003c

00086c44 <_global_impure_ptr>:
   86c44:	200701a0 00464e49 00666e69 004e414e     ... INF.inf.NAN.
   86c54:	006e616e 33323130 37363534 42413938     nan.0123456789AB
   86c64:	46454443 00000000 33323130 37363534     CDEF....01234567
   86c74:	62613938 66656463 00000000 6c756e28     89abcdef....(nul
   86c84:	0000296c 00000030                       l)..0...

00086c8c <blanks.7223>:
   86c8c:	20202020 20202020 20202020 20202020                     

00086c9c <zeroes.7224>:
   86c9c:	30303030 30303030 30303030 30303030     0000000000000000
   86cac:	69666e49 7974696e 00000000 004e614e     Infinity....NaN.
   86cbc:	00000000                                ....

00086cc0 <__mprec_bigtens>:
   86cc0:	37e08000 4341c379 b5056e17 4693b8b5     ...7y.AC.n.....F
   86cd0:	e93ff9f5 4d384f03 f9301d32 5a827748     ..?..O8M2.0.Hw.Z
   86ce0:	7f73bf3c 75154fdd                       <.s..O.u

00086ce8 <__mprec_tens>:
   86ce8:	00000000 3ff00000 00000000 40240000     .......?......$@
   86cf8:	00000000 40590000 00000000 408f4000     ......Y@.....@.@
   86d08:	00000000 40c38800 00000000 40f86a00     .......@.....j.@
   86d18:	00000000 412e8480 00000000 416312d0     .......A......cA
   86d28:	00000000 4197d784 00000000 41cdcd65     .......A....e..A
   86d38:	20000000 4202a05f e8000000 42374876     ... _..B....vH7B
   86d48:	a2000000 426d1a94 e5400000 42a2309c     ......mB..@..0.B
   86d58:	1e900000 42d6bcc4 26340000 430c6bf5     .......B..4&.k.C
   86d68:	37e08000 4341c379 85d8a000 43763457     ...7y.AC....W4vC
   86d78:	674ec800 43abc16d 60913d00 43e158e4     ..Ngm..C.=.`.X.C
   86d88:	78b58c40 4415af1d d6e2ef50 444b1ae4     @..x...DP.....KD
   86d98:	064dd592 4480f0cf c7e14af6 44b52d02     ..M....D.J...-.D
   86da8:	79d99db4 44ea7843                       ...yCx.D

00086db0 <p05.6055>:
   86db0:	00000005 00000019 0000007d 00000043     ........}...C...
   86dc0:	49534f50 00000058 0000002e              POSIX.......

00086dcc <_ctype_>:
   86dcc:	20202000 20202020 28282020 20282828     .         ((((( 
   86ddc:	20202020 20202020 20202020 20202020                     
   86dec:	10108820 10101010 10101010 10101010      ...............
   86dfc:	04040410 04040404 10040404 10101010     ................
   86e0c:	41411010 41414141 01010101 01010101     ..AAAAAA........
   86e1c:	01010101 01010101 01010101 10101010     ................
   86e2c:	42421010 42424242 02020202 02020202     ..BBBBBB........
   86e3c:	02020202 02020202 02020202 10101010     ................
   86e4c:	00000020 00000000 00000000 00000000      ...............
	...

00086ed0 <_init>:
   86ed0:	b5f8      	push	{r3, r4, r5, r6, r7, lr}
   86ed2:	bf00      	nop
   86ed4:	bcf8      	pop	{r3, r4, r5, r6, r7}
   86ed6:	bc08      	pop	{r3}
   86ed8:	469e      	mov	lr, r3
   86eda:	4770      	bx	lr

00086edc <__init_array_start>:
   86edc:	0008392d 	.word	0x0008392d

00086ee0 <__frame_dummy_init_array_entry>:
   86ee0:	00080119                                ....

00086ee4 <_fini>:
   86ee4:	b5f8      	push	{r3, r4, r5, r6, r7, lr}
   86ee6:	bf00      	nop
   86ee8:	bcf8      	pop	{r3, r4, r5, r6, r7}
   86eea:	bc08      	pop	{r3}
   86eec:	469e      	mov	lr, r3
   86eee:	4770      	bx	lr

00086ef0 <__fini_array_start>:
   86ef0:	000800f5 	.word	0x000800f5

Disassembly of section .relocate:

20070000 <SystemInit>:
{
20070000:	b480      	push	{r7}
20070002:	af00      	add	r7, sp, #0
	EFC0->EEFC_FMR = EEFC_FMR_FWS(4);
20070004:	4b2a      	ldr	r3, [pc, #168]	; (200700b0 <SystemInit+0xb0>)
20070006:	f44f 6280 	mov.w	r2, #1024	; 0x400
2007000a:	601a      	str	r2, [r3, #0]
	EFC1->EEFC_FMR = EEFC_FMR_FWS(4);
2007000c:	4b29      	ldr	r3, [pc, #164]	; (200700b4 <SystemInit+0xb4>)
2007000e:	f44f 6280 	mov.w	r2, #1024	; 0x400
20070012:	601a      	str	r2, [r3, #0]
	if (!(PMC->CKGR_MOR & CKGR_MOR_MOSCSEL)) {
20070014:	4b28      	ldr	r3, [pc, #160]	; (200700b8 <SystemInit+0xb8>)
20070016:	6a1b      	ldr	r3, [r3, #32]
20070018:	f003 7380 	and.w	r3, r3, #16777216	; 0x1000000
2007001c:	2b00      	cmp	r3, #0
2007001e:	d109      	bne.n	20070034 <SystemInit+0x34>
		PMC->CKGR_MOR = SYS_CKGR_MOR_KEY_VALUE | SYS_BOARD_OSCOUNT | 
20070020:	4b25      	ldr	r3, [pc, #148]	; (200700b8 <SystemInit+0xb8>)
20070022:	4a26      	ldr	r2, [pc, #152]	; (200700bc <SystemInit+0xbc>)
20070024:	621a      	str	r2, [r3, #32]
		while (!(PMC->PMC_SR & PMC_SR_MOSCXTS)) {
20070026:	bf00      	nop
20070028:	4b23      	ldr	r3, [pc, #140]	; (200700b8 <SystemInit+0xb8>)
2007002a:	6e9b      	ldr	r3, [r3, #104]	; 0x68
2007002c:	f003 0301 	and.w	r3, r3, #1
20070030:	2b00      	cmp	r3, #0
20070032:	d0f9      	beq.n	20070028 <SystemInit+0x28>
	PMC->CKGR_MOR = SYS_CKGR_MOR_KEY_VALUE | SYS_BOARD_OSCOUNT | 
20070034:	4b20      	ldr	r3, [pc, #128]	; (200700b8 <SystemInit+0xb8>)
20070036:	4a22      	ldr	r2, [pc, #136]	; (200700c0 <SystemInit+0xc0>)
20070038:	621a      	str	r2, [r3, #32]
	while (!(PMC->PMC_SR & PMC_SR_MOSCSELS)) {
2007003a:	bf00      	nop
2007003c:	4b1e      	ldr	r3, [pc, #120]	; (200700b8 <SystemInit+0xb8>)
2007003e:	6e9b      	ldr	r3, [r3, #104]	; 0x68
20070040:	f403 3380 	and.w	r3, r3, #65536	; 0x10000
20070044:	2b00      	cmp	r3, #0
20070046:	d0f9      	beq.n	2007003c <SystemInit+0x3c>
 	PMC->PMC_MCKR = (PMC->PMC_MCKR & ~(uint32_t)PMC_MCKR_CSS_Msk) | 
20070048:	4a1b      	ldr	r2, [pc, #108]	; (200700b8 <SystemInit+0xb8>)
2007004a:	4b1b      	ldr	r3, [pc, #108]	; (200700b8 <SystemInit+0xb8>)
2007004c:	6b1b      	ldr	r3, [r3, #48]	; 0x30
2007004e:	f023 0303 	bic.w	r3, r3, #3
20070052:	f043 0301 	orr.w	r3, r3, #1
20070056:	6313      	str	r3, [r2, #48]	; 0x30
	while (!(PMC->PMC_SR & PMC_SR_MCKRDY)) {
20070058:	bf00      	nop
2007005a:	4b17      	ldr	r3, [pc, #92]	; (200700b8 <SystemInit+0xb8>)
2007005c:	6e9b      	ldr	r3, [r3, #104]	; 0x68
2007005e:	f003 0308 	and.w	r3, r3, #8
20070062:	2b00      	cmp	r3, #0
20070064:	d0f9      	beq.n	2007005a <SystemInit+0x5a>
	PMC->CKGR_PLLAR = SYS_BOARD_PLLAR;
20070066:	4b14      	ldr	r3, [pc, #80]	; (200700b8 <SystemInit+0xb8>)
20070068:	4a16      	ldr	r2, [pc, #88]	; (200700c4 <SystemInit+0xc4>)
2007006a:	629a      	str	r2, [r3, #40]	; 0x28
	while (!(PMC->PMC_SR & PMC_SR_LOCKA)) {
2007006c:	bf00      	nop
2007006e:	4b12      	ldr	r3, [pc, #72]	; (200700b8 <SystemInit+0xb8>)
20070070:	6e9b      	ldr	r3, [r3, #104]	; 0x68
20070072:	f003 0302 	and.w	r3, r3, #2
20070076:	2b00      	cmp	r3, #0
20070078:	d0f9      	beq.n	2007006e <SystemInit+0x6e>
	PMC->PMC_MCKR = (SYS_BOARD_MCKR & ~PMC_MCKR_CSS_Msk) | PMC_MCKR_CSS_MAIN_CLK;
2007007a:	4b0f      	ldr	r3, [pc, #60]	; (200700b8 <SystemInit+0xb8>)
2007007c:	2211      	movs	r2, #17
2007007e:	631a      	str	r2, [r3, #48]	; 0x30
	while (!(PMC->PMC_SR & PMC_SR_MCKRDY)) {
20070080:	bf00      	nop
20070082:	4b0d      	ldr	r3, [pc, #52]	; (200700b8 <SystemInit+0xb8>)
20070084:	6e9b      	ldr	r3, [r3, #104]	; 0x68
20070086:	f003 0308 	and.w	r3, r3, #8
2007008a:	2b00      	cmp	r3, #0
2007008c:	d0f9      	beq.n	20070082 <SystemInit+0x82>
	PMC->PMC_MCKR = SYS_BOARD_MCKR;
2007008e:	4b0a      	ldr	r3, [pc, #40]	; (200700b8 <SystemInit+0xb8>)
20070090:	2212      	movs	r2, #18
20070092:	631a      	str	r2, [r3, #48]	; 0x30
	while (!(PMC->PMC_SR & PMC_SR_MCKRDY)) {
20070094:	bf00      	nop
20070096:	4b08      	ldr	r3, [pc, #32]	; (200700b8 <SystemInit+0xb8>)
20070098:	6e9b      	ldr	r3, [r3, #104]	; 0x68
2007009a:	f003 0308 	and.w	r3, r3, #8
2007009e:	2b00      	cmp	r3, #0
200700a0:	d0f9      	beq.n	20070096 <SystemInit+0x96>
	SystemCoreClock = CHIP_FREQ_CPU_MAX;
200700a2:	4b09      	ldr	r3, [pc, #36]	; (200700c8 <SystemInit+0xc8>)
200700a4:	4a09      	ldr	r2, [pc, #36]	; (200700cc <SystemInit+0xcc>)
200700a6:	601a      	str	r2, [r3, #0]
}
200700a8:	bf00      	nop
200700aa:	46bd      	mov	sp, r7
200700ac:	bc80      	pop	{r7}
200700ae:	4770      	bx	lr
200700b0:	400e0a00 	.word	0x400e0a00
200700b4:	400e0c00 	.word	0x400e0c00
200700b8:	400e0600 	.word	0x400e0600
200700bc:	00370809 	.word	0x00370809
200700c0:	01370809 	.word	0x01370809
200700c4:	200d3f01 	.word	0x200d3f01
200700c8:	2007018c 	.word	0x2007018c
200700cc:	0501bd00 	.word	0x0501bd00

200700d0 <system_init_flash>:
 * Initialize flash.
 */
__no_inline
RAMFUNC
void system_init_flash(uint32_t ul_clk)
{
200700d0:	b480      	push	{r7}
200700d2:	b083      	sub	sp, #12
200700d4:	af00      	add	r7, sp, #0
200700d6:	6078      	str	r0, [r7, #4]
	/* Set FWS for embedded Flash access according to operating frequency */
	if (ul_clk < CHIP_FREQ_FWS_0) {
200700d8:	687b      	ldr	r3, [r7, #4]
200700da:	4a25      	ldr	r2, [pc, #148]	; (20070170 <system_init_flash+0xa0>)
200700dc:	4293      	cmp	r3, r2
200700de:	d806      	bhi.n	200700ee <system_init_flash+0x1e>
		EFC0->EEFC_FMR = EEFC_FMR_FWS(0);
200700e0:	4b24      	ldr	r3, [pc, #144]	; (20070174 <system_init_flash+0xa4>)
200700e2:	2200      	movs	r2, #0
200700e4:	601a      	str	r2, [r3, #0]
		EFC1->EEFC_FMR = EEFC_FMR_FWS(0);
200700e6:	4b24      	ldr	r3, [pc, #144]	; (20070178 <system_init_flash+0xa8>)
200700e8:	2200      	movs	r2, #0
200700ea:	601a      	str	r2, [r3, #0]
		EFC1->EEFC_FMR = EEFC_FMR_FWS(4);	
	} else {
		EFC0->EEFC_FMR = EEFC_FMR_FWS(5);
		EFC1->EEFC_FMR = EEFC_FMR_FWS(5);
	}
}
200700ec:	e03b      	b.n	20070166 <system_init_flash+0x96>
	} else if (ul_clk < CHIP_FREQ_FWS_1) {
200700ee:	687b      	ldr	r3, [r7, #4]
200700f0:	4a22      	ldr	r2, [pc, #136]	; (2007017c <system_init_flash+0xac>)
200700f2:	4293      	cmp	r3, r2
200700f4:	d808      	bhi.n	20070108 <system_init_flash+0x38>
		EFC0->EEFC_FMR = EEFC_FMR_FWS(1);
200700f6:	4b1f      	ldr	r3, [pc, #124]	; (20070174 <system_init_flash+0xa4>)
200700f8:	f44f 7280 	mov.w	r2, #256	; 0x100
200700fc:	601a      	str	r2, [r3, #0]
		EFC1->EEFC_FMR = EEFC_FMR_FWS(1);
200700fe:	4b1e      	ldr	r3, [pc, #120]	; (20070178 <system_init_flash+0xa8>)
20070100:	f44f 7280 	mov.w	r2, #256	; 0x100
20070104:	601a      	str	r2, [r3, #0]
}
20070106:	e02e      	b.n	20070166 <system_init_flash+0x96>
	} else if (ul_clk < CHIP_FREQ_FWS_2) {
20070108:	687b      	ldr	r3, [r7, #4]
2007010a:	4a1d      	ldr	r2, [pc, #116]	; (20070180 <system_init_flash+0xb0>)
2007010c:	4293      	cmp	r3, r2
2007010e:	d808      	bhi.n	20070122 <system_init_flash+0x52>
		EFC0->EEFC_FMR = EEFC_FMR_FWS(2);
20070110:	4b18      	ldr	r3, [pc, #96]	; (20070174 <system_init_flash+0xa4>)
20070112:	f44f 7200 	mov.w	r2, #512	; 0x200
20070116:	601a      	str	r2, [r3, #0]
		EFC1->EEFC_FMR = EEFC_FMR_FWS(2);
20070118:	4b17      	ldr	r3, [pc, #92]	; (20070178 <system_init_flash+0xa8>)
2007011a:	f44f 7200 	mov.w	r2, #512	; 0x200
2007011e:	601a      	str	r2, [r3, #0]
}
20070120:	e021      	b.n	20070166 <system_init_flash+0x96>
	} else if (ul_clk < CHIP_FREQ_FWS_3) {
20070122:	687b      	ldr	r3, [r7, #4]
20070124:	4a17      	ldr	r2, [pc, #92]	; (20070184 <system_init_flash+0xb4>)
20070126:	4293      	cmp	r3, r2
20070128:	d808      	bhi.n	2007013c <system_init_flash+0x6c>
		EFC0->EEFC_FMR = EEFC_FMR_FWS(3);
2007012a:	4b12      	ldr	r3, [pc, #72]	; (20070174 <system_init_flash+0xa4>)
2007012c:	f44f 7240 	mov.w	r2, #768	; 0x300
20070130:	601a      	str	r2, [r3, #0]
		EFC1->EEFC_FMR = EEFC_FMR_FWS(3);
20070132:	4b11      	ldr	r3, [pc, #68]	; (20070178 <system_init_flash+0xa8>)
20070134:	f44f 7240 	mov.w	r2, #768	; 0x300
20070138:	601a      	str	r2, [r3, #0]
}
2007013a:	e014      	b.n	20070166 <system_init_flash+0x96>
	} else if (ul_clk < CHIP_FREQ_FWS_4) {
2007013c:	687b      	ldr	r3, [r7, #4]
2007013e:	4a12      	ldr	r2, [pc, #72]	; (20070188 <system_init_flash+0xb8>)
20070140:	4293      	cmp	r3, r2
20070142:	d808      	bhi.n	20070156 <system_init_flash+0x86>
		EFC0->EEFC_FMR = EEFC_FMR_FWS(4);
20070144:	4b0b      	ldr	r3, [pc, #44]	; (20070174 <system_init_flash+0xa4>)
20070146:	f44f 6280 	mov.w	r2, #1024	; 0x400
2007014a:	601a      	str	r2, [r3, #0]
		EFC1->EEFC_FMR = EEFC_FMR_FWS(4);	
2007014c:	4b0a      	ldr	r3, [pc, #40]	; (20070178 <system_init_flash+0xa8>)
2007014e:	f44f 6280 	mov.w	r2, #1024	; 0x400
20070152:	601a      	str	r2, [r3, #0]
}
20070154:	e007      	b.n	20070166 <system_init_flash+0x96>
		EFC0->EEFC_FMR = EEFC_FMR_FWS(5);
20070156:	4b07      	ldr	r3, [pc, #28]	; (20070174 <system_init_flash+0xa4>)
20070158:	f44f 62a0 	mov.w	r2, #1280	; 0x500
2007015c:	601a      	str	r2, [r3, #0]
		EFC1->EEFC_FMR = EEFC_FMR_FWS(5);
2007015e:	4b06      	ldr	r3, [pc, #24]	; (20070178 <system_init_flash+0xa8>)
20070160:	f44f 62a0 	mov.w	r2, #1280	; 0x500
20070164:	601a      	str	r2, [r3, #0]
}
20070166:	bf00      	nop
20070168:	370c      	adds	r7, #12
2007016a:	46bd      	mov	sp, r7
2007016c:	bc80      	pop	{r7}
2007016e:	4770      	bx	lr
20070170:	0121eabf 	.word	0x0121eabf
20070174:	400e0a00 	.word	0x400e0a00
20070178:	400e0c00 	.word	0x400e0c00
2007017c:	02faf07f 	.word	0x02faf07f
20070180:	03d08fff 	.word	0x03d08fff
20070184:	04c4b3ff 	.word	0x04c4b3ff
20070188:	055d4a7f 	.word	0x055d4a7f

2007018c <SystemCoreClock>:
2007018c:	003d0900                                ..=.

20070190 <rbt_id>:
20070190:	01010101                                         .

20070191 <update_dots>:
20070191:	01010101                                         .

20070192 <act_cursor_line_on_lcd>:
20070192:	01010101                                         .

20070193 <prev_cursor_line_on_lcd>:
20070193:	01010101                                         .

20070194 <act_cursor_line>:
20070194:	08010101                                         .

20070195 <prev_cursor_line>:
20070195:	01080101                                         .

20070196 <min_cursor_line>:
20070196:	01010801                                         .

20070197 <max_cursor_line>:
20070197:	00010108                                         .

20070198 <menu_main_column>:
20070198:	00000101                                         .

20070199 <print_menu>:
20070199:	a0000001                                         ...

2007019c <_impure_ptr>:
2007019c:	200701a0                                ... 

200701a0 <impure_data>:
200701a0:	00000000 2007048c 200704f4 2007055c     ....... ... \.. 
	...
20070248:	00000001 00000000 abcd330e e66d1234     .........3..4.m.
20070258:	0005deec 0000000b 00000000 00000000     ................
	...

200705c8 <__atexit_recursive_mutex>:
200705c8:	20070bfc                                ... 

200705cc <__malloc_av_>:
	...
200705d4:	200705cc 200705cc 200705d4 200705d4     ... ... ... ... 
200705e4:	200705dc 200705dc 200705e4 200705e4     ... ... ... ... 
200705f4:	200705ec 200705ec 200705f4 200705f4     ... ... ... ... 
20070604:	200705fc 200705fc 20070604 20070604     ... ... ... ... 
20070614:	2007060c 2007060c 20070614 20070614     ... ... ... ... 
20070624:	2007061c 2007061c 20070624 20070624     ... ... $.. $.. 
20070634:	2007062c 2007062c 20070634 20070634     ,.. ,.. 4.. 4.. 
20070644:	2007063c 2007063c 20070644 20070644     <.. <.. D.. D.. 
20070654:	2007064c 2007064c 20070654 20070654     L.. L.. T.. T.. 
20070664:	2007065c 2007065c 20070664 20070664     \.. \.. d.. d.. 
20070674:	2007066c 2007066c 20070674 20070674     l.. l.. t.. t.. 
20070684:	2007067c 2007067c 20070684 20070684     |.. |.. ... ... 
20070694:	2007068c 2007068c 20070694 20070694     ... ... ... ... 
200706a4:	2007069c 2007069c 200706a4 200706a4     ... ... ... ... 
200706b4:	200706ac 200706ac 200706b4 200706b4     ... ... ... ... 
200706c4:	200706bc 200706bc 200706c4 200706c4     ... ... ... ... 
200706d4:	200706cc 200706cc 200706d4 200706d4     ... ... ... ... 
200706e4:	200706dc 200706dc 200706e4 200706e4     ... ... ... ... 
200706f4:	200706ec 200706ec 200706f4 200706f4     ... ... ... ... 
20070704:	200706fc 200706fc 20070704 20070704     ... ... ... ... 
20070714:	2007070c 2007070c 20070714 20070714     ... ... ... ... 
20070724:	2007071c 2007071c 20070724 20070724     ... ... $.. $.. 
20070734:	2007072c 2007072c 20070734 20070734     ,.. ,.. 4.. 4.. 
20070744:	2007073c 2007073c 20070744 20070744     <.. <.. D.. D.. 
20070754:	2007074c 2007074c 20070754 20070754     L.. L.. T.. T.. 
20070764:	2007075c 2007075c 20070764 20070764     \.. \.. d.. d.. 
20070774:	2007076c 2007076c 20070774 20070774     l.. l.. t.. t.. 
20070784:	2007077c 2007077c 20070784 20070784     |.. |.. ... ... 
20070794:	2007078c 2007078c 20070794 20070794     ... ... ... ... 
200707a4:	2007079c 2007079c 200707a4 200707a4     ... ... ... ... 
200707b4:	200707ac 200707ac 200707b4 200707b4     ... ... ... ... 
200707c4:	200707bc 200707bc 200707c4 200707c4     ... ... ... ... 
200707d4:	200707cc 200707cc 200707d4 200707d4     ... ... ... ... 
200707e4:	200707dc 200707dc 200707e4 200707e4     ... ... ... ... 
200707f4:	200707ec 200707ec 200707f4 200707f4     ... ... ... ... 
20070804:	200707fc 200707fc 20070804 20070804     ... ... ... ... 
20070814:	2007080c 2007080c 20070814 20070814     ... ... ... ... 
20070824:	2007081c 2007081c 20070824 20070824     ... ... $.. $.. 
20070834:	2007082c 2007082c 20070834 20070834     ,.. ,.. 4.. 4.. 
20070844:	2007083c 2007083c 20070844 20070844     <.. <.. D.. D.. 
20070854:	2007084c 2007084c 20070854 20070854     L.. L.. T.. T.. 
20070864:	2007085c 2007085c 20070864 20070864     \.. \.. d.. d.. 
20070874:	2007086c 2007086c 20070874 20070874     l.. l.. t.. t.. 
20070884:	2007087c 2007087c 20070884 20070884     |.. |.. ... ... 
20070894:	2007088c 2007088c 20070894 20070894     ... ... ... ... 
200708a4:	2007089c 2007089c 200708a4 200708a4     ... ... ... ... 
200708b4:	200708ac 200708ac 200708b4 200708b4     ... ... ... ... 
200708c4:	200708bc 200708bc 200708c4 200708c4     ... ... ... ... 
200708d4:	200708cc 200708cc 200708d4 200708d4     ... ... ... ... 
200708e4:	200708dc 200708dc 200708e4 200708e4     ... ... ... ... 
200708f4:	200708ec 200708ec 200708f4 200708f4     ... ... ... ... 
20070904:	200708fc 200708fc 20070904 20070904     ... ... ... ... 
20070914:	2007090c 2007090c 20070914 20070914     ... ... ... ... 
20070924:	2007091c 2007091c 20070924 20070924     ... ... $.. $.. 
20070934:	2007092c 2007092c 20070934 20070934     ,.. ,.. 4.. 4.. 
20070944:	2007093c 2007093c 20070944 20070944     <.. <.. D.. D.. 
20070954:	2007094c 2007094c 20070954 20070954     L.. L.. T.. T.. 
20070964:	2007095c 2007095c 20070964 20070964     \.. \.. d.. d.. 
20070974:	2007096c 2007096c 20070974 20070974     l.. l.. t.. t.. 
20070984:	2007097c 2007097c 20070984 20070984     |.. |.. ... ... 
20070994:	2007098c 2007098c 20070994 20070994     ... ... ... ... 
200709a4:	2007099c 2007099c 200709a4 200709a4     ... ... ... ... 
200709b4:	200709ac 200709ac 200709b4 200709b4     ... ... ... ... 
200709c4:	200709bc 200709bc 200709c4 200709c4     ... ... ... ... 

200709d4 <__malloc_sbrk_base>:
200709d4:	ffffffff                                ....

200709d8 <__malloc_trim_threshold>:
200709d8:	00020000                                ....

200709dc <__global_locale>:
200709dc:	00000043 00000000 00000000 00000000     C...............
	...
200709fc:	00000043 00000000 00000000 00000000     C...............
	...
20070a1c:	00000043 00000000 00000000 00000000     C...............
	...
20070a3c:	00000043 00000000 00000000 00000000     C...............
	...
20070a5c:	00000043 00000000 00000000 00000000     C...............
	...
20070a7c:	00000043 00000000 00000000 00000000     C...............
	...
20070a9c:	00000043 00000000 00000000 00000000     C...............
	...
20070abc:	00085ef1 00085a91 00000000 00086dcc     .^...Z.......m..
20070acc:	00086dc8 00086c68 00086c68 00086c68     .m..hl..hl..hl..
20070adc:	00086c68 00086c68 00086c68 00086c68     hl..hl..hl..hl..
20070aec:	00086c68 00086c68 ffffffff ffffffff     hl..hl..........
20070afc:	ffffffff 0000ffff 53410001 00494943     ..........ASCII.
	...
20070b24:	53410000 00494943 00000000 00000000     ..ASCII.........
	...
