
Motor Controller.elf:     file format elf32-littlearm

Sections:
Idx Name          Size      VMA       LMA       File off  Algn
  0 .text         00009ce4  00080000  00080000  00010000  2**3
                  CONTENTS, ALLOC, LOAD, READONLY, CODE
  1 .ARM.exidx    00000008  00089ce4  00089ce4  00019ce4  2**2
                  CONTENTS, ALLOC, LOAD, READONLY, DATA
  2 .relocate     00000b50  20070000  00089cec  00020000  2**3
                  CONTENTS, ALLOC, LOAD, CODE
  3 .bss          000004a8  20070b50  0008a83c  00020b50  2**2
                  ALLOC
  4 .stack        00002000  20070ff8  0008ace4  00020b50  2**0
                  ALLOC
  5 .ARM.attributes 00000029  00000000  00000000  00020b50  2**0
                  CONTENTS, READONLY
  6 .comment      00000059  00000000  00000000  00020b79  2**0
                  CONTENTS, READONLY
  7 .debug_info   0001e584  00000000  00000000  00020bd2  2**0
                  CONTENTS, READONLY, DEBUGGING
  8 .debug_abbrev 00003e5c  00000000  00000000  0003f156  2**0
                  CONTENTS, READONLY, DEBUGGING
  9 .debug_loc    000094e0  00000000  00000000  00042fb2  2**0
                  CONTENTS, READONLY, DEBUGGING
 10 .debug_aranges 00001040  00000000  00000000  0004c492  2**0
                  CONTENTS, READONLY, DEBUGGING
 11 .debug_ranges 00000f78  00000000  00000000  0004d4d2  2**0
                  CONTENTS, READONLY, DEBUGGING
 12 .debug_macro  00008c5e  00000000  00000000  0004e44a  2**0
                  CONTENTS, READONLY, DEBUGGING
 13 .debug_line   000141c9  00000000  00000000  000570a8  2**0
                  CONTENTS, READONLY, DEBUGGING
 14 .debug_str    00063a3c  00000000  00000000  0006b271  2**0
                  CONTENTS, READONLY, DEBUGGING
 15 .debug_frame  000051d0  00000000  00000000  000cecb0  2**2
                  CONTENTS, READONLY, DEBUGGING

Disassembly of section .text:

00080000 <exception_table>:
   80000:	f8 2f 07 20 2d 43 08 00 25 43 08 00 25 43 08 00     ./. -C..%C..%C..
   80010:	25 43 08 00 25 43 08 00 25 43 08 00 00 00 00 00     %C..%C..%C......
	...
   8002c:	25 43 08 00 25 43 08 00 00 00 00 00 25 43 08 00     %C..%C......%C..
   8003c:	65 32 08 00 25 43 08 00 25 43 08 00 25 43 08 00     e2..%C..%C..%C..
   8004c:	25 43 08 00 25 43 08 00 25 43 08 00 25 43 08 00     %C..%C..%C..%C..
   8005c:	25 43 08 00 25 43 08 00 25 43 08 00 00 00 00 00     %C..%C..%C......
   8006c:	25 43 08 00 25 43 08 00 25 43 08 00 25 43 08 00     %C..%C..%C..%C..
	...
   80084:	25 43 08 00 25 43 08 00 25 43 08 00 25 43 08 00     %C..%C..%C..%C..
   80094:	25 43 08 00 55 14 08 00 25 43 08 00 25 43 08 00     %C..U...%C..%C..
   800a4:	00 00 00 00 25 43 08 00 25 43 08 00 55 2f 08 00     ....%C..%C..U/..
   800b4:	25 43 08 00 25 43 08 00 25 43 08 00 25 43 08 00     %C..%C..%C..%C..
   800c4:	25 43 08 00 25 43 08 00 25 43 08 00 25 43 08 00     %C..%C..%C..%C..
   800d4:	25 43 08 00 25 43 08 00 61 0f 08 00 25 43 08 00     %C..%C..a...%C..
   800e4:	25 43 08 00 25 43 08 00 25 43 08 00 25 43 08 00     %C..%C..%C..%C..

000800f4 <__do_global_dtors_aux>:
   800f4:	b510      	push	{r4, lr}
   800f6:	4c05      	ldr	r4, [pc, #20]	; (8010c <__do_global_dtors_aux+0x18>)
   800f8:	7823      	ldrb	r3, [r4, #0]
   800fa:	b933      	cbnz	r3, 8010a <__do_global_dtors_aux+0x16>
   800fc:	4b04      	ldr	r3, [pc, #16]	; (80110 <__do_global_dtors_aux+0x1c>)
   800fe:	b113      	cbz	r3, 80106 <__do_global_dtors_aux+0x12>
   80100:	4804      	ldr	r0, [pc, #16]	; (80114 <__do_global_dtors_aux+0x20>)
   80102:	f3af 8000 	nop.w
   80106:	2301      	movs	r3, #1
   80108:	7023      	strb	r3, [r4, #0]
   8010a:	bd10      	pop	{r4, pc}
   8010c:	20070b50 	.word	0x20070b50
   80110:	00000000 	.word	0x00000000
   80114:	00089cec 	.word	0x00089cec

00080118 <frame_dummy>:
   80118:	4b0c      	ldr	r3, [pc, #48]	; (8014c <frame_dummy+0x34>)
   8011a:	b143      	cbz	r3, 8012e <frame_dummy+0x16>
   8011c:	480c      	ldr	r0, [pc, #48]	; (80150 <frame_dummy+0x38>)
   8011e:	b510      	push	{r4, lr}
   80120:	490c      	ldr	r1, [pc, #48]	; (80154 <frame_dummy+0x3c>)
   80122:	f3af 8000 	nop.w
   80126:	480c      	ldr	r0, [pc, #48]	; (80158 <frame_dummy+0x40>)
   80128:	6803      	ldr	r3, [r0, #0]
   8012a:	b923      	cbnz	r3, 80136 <frame_dummy+0x1e>
   8012c:	bd10      	pop	{r4, pc}
   8012e:	480a      	ldr	r0, [pc, #40]	; (80158 <frame_dummy+0x40>)
   80130:	6803      	ldr	r3, [r0, #0]
   80132:	b933      	cbnz	r3, 80142 <frame_dummy+0x2a>
   80134:	4770      	bx	lr
   80136:	4b09      	ldr	r3, [pc, #36]	; (8015c <frame_dummy+0x44>)
   80138:	2b00      	cmp	r3, #0
   8013a:	d0f7      	beq.n	8012c <frame_dummy+0x14>
   8013c:	e8bd 4010 	ldmia.w	sp!, {r4, lr}
   80140:	4718      	bx	r3
   80142:	4b06      	ldr	r3, [pc, #24]	; (8015c <frame_dummy+0x44>)
   80144:	2b00      	cmp	r3, #0
   80146:	d0f5      	beq.n	80134 <frame_dummy+0x1c>
   80148:	4718      	bx	r3
   8014a:	bf00      	nop
   8014c:	00000000 	.word	0x00000000
   80150:	00089cec 	.word	0x00089cec
   80154:	20070b54 	.word	0x20070b54
   80158:	00089cec 	.word	0x00089cec
   8015c:	00000000 	.word	0x00000000

00080160 <usart_spi_enable>:
/*! \brief Enable the USART for the specified USART in SPI mode.
 *
 * \param p_usart Base address of the USART instance.
 */
void usart_spi_enable(Usart *p_usart)
{
   80160:	b580      	push	{r7, lr}
   80162:	b082      	sub	sp, #8
   80164:	af00      	add	r7, sp, #0
   80166:	6078      	str	r0, [r7, #4]
	usart_enable_tx(p_usart);
   80168:	6878      	ldr	r0, [r7, #4]
   8016a:	4b04      	ldr	r3, [pc, #16]	; (8017c <usart_spi_enable+0x1c>)
   8016c:	4798      	blx	r3
	usart_enable_rx(p_usart);
   8016e:	6878      	ldr	r0, [r7, #4]
   80170:	4b03      	ldr	r3, [pc, #12]	; (80180 <usart_spi_enable+0x20>)
   80172:	4798      	blx	r3
}
   80174:	bf00      	nop
   80176:	3708      	adds	r7, #8
   80178:	46bd      	mov	sp, r7
   8017a:	bd80      	pop	{r7, pc}
   8017c:	000809b5 	.word	0x000809b5
   80180:	000809fd 	.word	0x000809fd

00080184 <usart_spi_disable>:
 *
 * \param p_usart Base address of the USART instance.
 *
 */
void usart_spi_disable(Usart *p_usart)
{
   80184:	b580      	push	{r7, lr}
   80186:	b082      	sub	sp, #8
   80188:	af00      	add	r7, sp, #0
   8018a:	6078      	str	r0, [r7, #4]
	usart_disable_tx(p_usart);
   8018c:	6878      	ldr	r0, [r7, #4]
   8018e:	4b04      	ldr	r3, [pc, #16]	; (801a0 <usart_spi_disable+0x1c>)
   80190:	4798      	blx	r3
	usart_disable_rx(p_usart);
   80192:	6878      	ldr	r0, [r7, #4]
   80194:	4b03      	ldr	r3, [pc, #12]	; (801a4 <usart_spi_disable+0x20>)
   80196:	4798      	blx	r3
}
   80198:	bf00      	nop
   8019a:	3708      	adds	r7, #8
   8019c:	46bd      	mov	sp, r7
   8019e:	bd80      	pop	{r7, pc}
   801a0:	000809cd 	.word	0x000809cd
   801a4:	00080a15 	.word	0x00080a15

000801a8 <pdc_tx_init>:
 */
void pdc_tx_init(
		Pdc *p_pdc,
		pdc_packet_t *p_packet,
		pdc_packet_t *p_next_packet)
{
   801a8:	b480      	push	{r7}
   801aa:	b085      	sub	sp, #20
   801ac:	af00      	add	r7, sp, #0
   801ae:	60f8      	str	r0, [r7, #12]
   801b0:	60b9      	str	r1, [r7, #8]
   801b2:	607a      	str	r2, [r7, #4]
	/* Validate inputs. */
	Assert(p_pdc);
	
	if (p_packet) {
   801b4:	68bb      	ldr	r3, [r7, #8]
   801b6:	2b00      	cmp	r3, #0
   801b8:	d007      	beq.n	801ca <pdc_tx_init+0x22>
		p_pdc->PERIPH_TPR = p_packet->ul_addr;
   801ba:	68bb      	ldr	r3, [r7, #8]
   801bc:	681a      	ldr	r2, [r3, #0]
   801be:	68fb      	ldr	r3, [r7, #12]
   801c0:	609a      	str	r2, [r3, #8]
		p_pdc->PERIPH_TCR = p_packet->ul_size;
   801c2:	68bb      	ldr	r3, [r7, #8]
   801c4:	685a      	ldr	r2, [r3, #4]
   801c6:	68fb      	ldr	r3, [r7, #12]
   801c8:	60da      	str	r2, [r3, #12]
	}
	if (p_next_packet) {
   801ca:	687b      	ldr	r3, [r7, #4]
   801cc:	2b00      	cmp	r3, #0
   801ce:	d007      	beq.n	801e0 <pdc_tx_init+0x38>
		p_pdc->PERIPH_TNPR = p_next_packet->ul_addr;
   801d0:	687b      	ldr	r3, [r7, #4]
   801d2:	681a      	ldr	r2, [r3, #0]
   801d4:	68fb      	ldr	r3, [r7, #12]
   801d6:	619a      	str	r2, [r3, #24]
		p_pdc->PERIPH_TNCR = p_next_packet->ul_size;
   801d8:	687b      	ldr	r3, [r7, #4]
   801da:	685a      	ldr	r2, [r3, #4]
   801dc:	68fb      	ldr	r3, [r7, #12]
   801de:	61da      	str	r2, [r3, #28]
	}
}
   801e0:	bf00      	nop
   801e2:	3714      	adds	r7, #20
   801e4:	46bd      	mov	sp, r7
   801e6:	bc80      	pop	{r7}
   801e8:	4770      	bx	lr

000801ea <pdc_rx_init>:
 */
void pdc_rx_init(
		Pdc *p_pdc,
		pdc_packet_t *p_packet,
		pdc_packet_t *p_next_packet)
{
   801ea:	b480      	push	{r7}
   801ec:	b085      	sub	sp, #20
   801ee:	af00      	add	r7, sp, #0
   801f0:	60f8      	str	r0, [r7, #12]
   801f2:	60b9      	str	r1, [r7, #8]
   801f4:	607a      	str	r2, [r7, #4]
	/* Validate inputs. */
	Assert(p_pdc);
	
	if (p_packet) {
   801f6:	68bb      	ldr	r3, [r7, #8]
   801f8:	2b00      	cmp	r3, #0
   801fa:	d007      	beq.n	8020c <pdc_rx_init+0x22>
		p_pdc->PERIPH_RPR = p_packet->ul_addr;
   801fc:	68bb      	ldr	r3, [r7, #8]
   801fe:	681a      	ldr	r2, [r3, #0]
   80200:	68fb      	ldr	r3, [r7, #12]
   80202:	601a      	str	r2, [r3, #0]
		p_pdc->PERIPH_RCR = p_packet->ul_size;
   80204:	68bb      	ldr	r3, [r7, #8]
   80206:	685a      	ldr	r2, [r3, #4]
   80208:	68fb      	ldr	r3, [r7, #12]
   8020a:	605a      	str	r2, [r3, #4]
	}
	if (p_next_packet) {
   8020c:	687b      	ldr	r3, [r7, #4]
   8020e:	2b00      	cmp	r3, #0
   80210:	d007      	beq.n	80222 <pdc_rx_init+0x38>
		p_pdc->PERIPH_RNPR = p_next_packet->ul_addr;
   80212:	687b      	ldr	r3, [r7, #4]
   80214:	681a      	ldr	r2, [r3, #0]
   80216:	68fb      	ldr	r3, [r7, #12]
   80218:	611a      	str	r2, [r3, #16]
		p_pdc->PERIPH_RNCR = p_next_packet->ul_size;
   8021a:	687b      	ldr	r3, [r7, #4]
   8021c:	685a      	ldr	r2, [r3, #4]
   8021e:	68fb      	ldr	r3, [r7, #12]
   80220:	615a      	str	r2, [r3, #20]
	}
}
   80222:	bf00      	nop
   80224:	3714      	adds	r7, #20
   80226:	46bd      	mov	sp, r7
   80228:	bc80      	pop	{r7}
   8022a:	4770      	bx	lr

0008022c <pdc_enable_transfer>:
 *                        (bit PERIPH_PTCR_RXTEN and bit PERIPH_PTCR_TXTEN)
 */
void pdc_enable_transfer(
		Pdc *p_pdc,
		uint32_t ul_controls)
{
   8022c:	b480      	push	{r7}
   8022e:	b083      	sub	sp, #12
   80230:	af00      	add	r7, sp, #0
   80232:	6078      	str	r0, [r7, #4]
   80234:	6039      	str	r1, [r7, #0]
	/* Validate inputs. */
	Assert(p_pdc);
	
	p_pdc->PERIPH_PTCR =
			ul_controls & (PERIPH_PTCR_RXTEN | PERIPH_PTCR_TXTEN);
   80236:	683a      	ldr	r2, [r7, #0]
   80238:	f240 1301 	movw	r3, #257	; 0x101
   8023c:	4013      	ands	r3, r2
	p_pdc->PERIPH_PTCR =
   8023e:	687a      	ldr	r2, [r7, #4]
   80240:	6213      	str	r3, [r2, #32]
}
   80242:	bf00      	nop
   80244:	370c      	adds	r7, #12
   80246:	46bd      	mov	sp, r7
   80248:	bc80      	pop	{r7}
   8024a:	4770      	bx	lr

0008024c <pdc_disable_transfer>:
 *                        (bit PERIPH_PTCR_TXTDIS, bit PERIPH_PTCR_TXTDIS)
 */
void pdc_disable_transfer(
		Pdc *p_pdc,
		uint32_t ul_controls)
{
   8024c:	b480      	push	{r7}
   8024e:	b083      	sub	sp, #12
   80250:	af00      	add	r7, sp, #0
   80252:	6078      	str	r0, [r7, #4]
   80254:	6039      	str	r1, [r7, #0]
	/* Validate inputs. */
	Assert(p_pdc);
	
	p_pdc->PERIPH_PTCR =
			ul_controls & (PERIPH_PTCR_RXTDIS | PERIPH_PTCR_TXTDIS);
   80256:	683a      	ldr	r2, [r7, #0]
   80258:	f240 2302 	movw	r3, #514	; 0x202
   8025c:	4013      	ands	r3, r2
	p_pdc->PERIPH_PTCR =
   8025e:	687a      	ldr	r2, [r7, #4]
   80260:	6213      	str	r3, [r2, #32]
}
   80262:	bf00      	nop
   80264:	370c      	adds	r7, #12
   80266:	46bd      	mov	sp, r7
   80268:	bc80      	pop	{r7}
   8026a:	4770      	bx	lr

0008026c <pwm_clocks_generate>:
 *
 * \retval Return the value to be set in the PWM Clock Register (PWM Mode Register for
 * SAM3N/SAM4N/SAM4C/SAM4CP/SAM4CM) or PWM_INVALID_ARGUMENT if the configuration cannot be met.
 */
static uint32_t pwm_clocks_generate(uint32_t ul_frequency, uint32_t ul_mck)
{
   8026c:	b4b0      	push	{r4, r5, r7}
   8026e:	b091      	sub	sp, #68	; 0x44
   80270:	af00      	add	r7, sp, #0
   80272:	6078      	str	r0, [r7, #4]
   80274:	6039      	str	r1, [r7, #0]
	uint32_t ul_divisors[PWM_CLOCK_PRE_MAX] =
   80276:	4b1b      	ldr	r3, [pc, #108]	; (802e4 <pwm_clocks_generate+0x78>)
   80278:	f107 040c 	add.w	r4, r7, #12
   8027c:	461d      	mov	r5, r3
   8027e:	cd0f      	ldmia	r5!, {r0, r1, r2, r3}
   80280:	c40f      	stmia	r4!, {r0, r1, r2, r3}
   80282:	cd0f      	ldmia	r5!, {r0, r1, r2, r3}
   80284:	c40f      	stmia	r4!, {r0, r1, r2, r3}
   80286:	e895 0007 	ldmia.w	r5, {r0, r1, r2}
   8028a:	e884 0007 	stmia.w	r4, {r0, r1, r2}
			{1, 2, 4, 8, 16, 32, 64, 128, 256, 512, 1024 };
	uint32_t ul_pre = 0;
   8028e:	2300      	movs	r3, #0
   80290:	63fb      	str	r3, [r7, #60]	; 0x3c
	uint32_t ul_div;

	/* Find prescaler and divisor values */
	do {
		ul_div = (ul_mck / ul_divisors[ul_pre]) / ul_frequency;
   80292:	6bfb      	ldr	r3, [r7, #60]	; 0x3c
   80294:	009b      	lsls	r3, r3, #2
   80296:	f107 0240 	add.w	r2, r7, #64	; 0x40
   8029a:	4413      	add	r3, r2
   8029c:	f853 3c34 	ldr.w	r3, [r3, #-52]
   802a0:	683a      	ldr	r2, [r7, #0]
   802a2:	fbb2 f2f3 	udiv	r2, r2, r3
   802a6:	687b      	ldr	r3, [r7, #4]
   802a8:	fbb2 f3f3 	udiv	r3, r2, r3
   802ac:	63bb      	str	r3, [r7, #56]	; 0x38
		if (ul_div <= PWM_CLOCK_DIV_MAX) {
   802ae:	6bbb      	ldr	r3, [r7, #56]	; 0x38
   802b0:	f5b3 7f80 	cmp.w	r3, #256	; 0x100
   802b4:	d906      	bls.n	802c4 <pwm_clocks_generate+0x58>
			break;
		}
		ul_pre++;
   802b6:	6bfb      	ldr	r3, [r7, #60]	; 0x3c
   802b8:	3301      	adds	r3, #1
   802ba:	63fb      	str	r3, [r7, #60]	; 0x3c
	} while (ul_pre < PWM_CLOCK_PRE_MAX);
   802bc:	6bfb      	ldr	r3, [r7, #60]	; 0x3c
   802be:	2b0a      	cmp	r3, #10
   802c0:	d9e7      	bls.n	80292 <pwm_clocks_generate+0x26>
   802c2:	e000      	b.n	802c6 <pwm_clocks_generate+0x5a>
			break;
   802c4:	bf00      	nop

	/* Return result */
	if (ul_pre < PWM_CLOCK_PRE_MAX) {
   802c6:	6bfb      	ldr	r3, [r7, #60]	; 0x3c
   802c8:	2b0a      	cmp	r3, #10
   802ca:	d804      	bhi.n	802d6 <pwm_clocks_generate+0x6a>
		return ul_div | (ul_pre << 8);
   802cc:	6bfb      	ldr	r3, [r7, #60]	; 0x3c
   802ce:	021a      	lsls	r2, r3, #8
   802d0:	6bbb      	ldr	r3, [r7, #56]	; 0x38
   802d2:	4313      	orrs	r3, r2
   802d4:	e001      	b.n	802da <pwm_clocks_generate+0x6e>
	} else {
		return PWM_INVALID_ARGUMENT;
   802d6:	f64f 73ff 	movw	r3, #65535	; 0xffff
	}
}
   802da:	4618      	mov	r0, r3
   802dc:	3744      	adds	r7, #68	; 0x44
   802de:	46bd      	mov	sp, r7
   802e0:	bcb0      	pop	{r4, r5, r7}
   802e2:	4770      	bx	lr
   802e4:	000898e4 	.word	0x000898e4

000802e8 <pwm_init>:
 * \param clock_config PWM clock configuration.
 *
 * \retval 0 if initialization succeeds, otherwise fails.
 */
uint32_t pwm_init(Pwm *p_pwm, pwm_clock_t *clock_config)
{
   802e8:	b580      	push	{r7, lr}
   802ea:	b084      	sub	sp, #16
   802ec:	af00      	add	r7, sp, #0
   802ee:	6078      	str	r0, [r7, #4]
   802f0:	6039      	str	r1, [r7, #0]
	uint32_t clock = 0;
   802f2:	2300      	movs	r3, #0
   802f4:	60fb      	str	r3, [r7, #12]
	uint32_t result;

	/* Clock A */
	if (clock_config->ul_clka != 0) {
   802f6:	683b      	ldr	r3, [r7, #0]
   802f8:	681b      	ldr	r3, [r3, #0]
   802fa:	2b00      	cmp	r3, #0
   802fc:	d011      	beq.n	80322 <pwm_init+0x3a>
		result = pwm_clocks_generate(clock_config->ul_clka, clock_config->ul_mck);
   802fe:	683b      	ldr	r3, [r7, #0]
   80300:	681a      	ldr	r2, [r3, #0]
   80302:	683b      	ldr	r3, [r7, #0]
   80304:	689b      	ldr	r3, [r3, #8]
   80306:	4619      	mov	r1, r3
   80308:	4610      	mov	r0, r2
   8030a:	4b16      	ldr	r3, [pc, #88]	; (80364 <pwm_init+0x7c>)
   8030c:	4798      	blx	r3
   8030e:	60b8      	str	r0, [r7, #8]
		if (result == PWM_INVALID_ARGUMENT) {
   80310:	68bb      	ldr	r3, [r7, #8]
   80312:	f64f 72ff 	movw	r2, #65535	; 0xffff
   80316:	4293      	cmp	r3, r2
   80318:	d101      	bne.n	8031e <pwm_init+0x36>
			return result;
   8031a:	68bb      	ldr	r3, [r7, #8]
   8031c:	e01e      	b.n	8035c <pwm_init+0x74>
		}

		clock = result;
   8031e:	68bb      	ldr	r3, [r7, #8]
   80320:	60fb      	str	r3, [r7, #12]
	}

	/* Clock B */
	if (clock_config->ul_clkb != 0) {
   80322:	683b      	ldr	r3, [r7, #0]
   80324:	685b      	ldr	r3, [r3, #4]
   80326:	2b00      	cmp	r3, #0
   80328:	d014      	beq.n	80354 <pwm_init+0x6c>
		result = pwm_clocks_generate(clock_config->ul_clkb, clock_config->ul_mck);
   8032a:	683b      	ldr	r3, [r7, #0]
   8032c:	685a      	ldr	r2, [r3, #4]
   8032e:	683b      	ldr	r3, [r7, #0]
   80330:	689b      	ldr	r3, [r3, #8]
   80332:	4619      	mov	r1, r3
   80334:	4610      	mov	r0, r2
   80336:	4b0b      	ldr	r3, [pc, #44]	; (80364 <pwm_init+0x7c>)
   80338:	4798      	blx	r3
   8033a:	60b8      	str	r0, [r7, #8]

		if (result == PWM_INVALID_ARGUMENT) {
   8033c:	68bb      	ldr	r3, [r7, #8]
   8033e:	f64f 72ff 	movw	r2, #65535	; 0xffff
   80342:	4293      	cmp	r3, r2
   80344:	d101      	bne.n	8034a <pwm_init+0x62>
			return result;
   80346:	68bb      	ldr	r3, [r7, #8]
   80348:	e008      	b.n	8035c <pwm_init+0x74>
		}

		clock |= (result << 16);
   8034a:	68bb      	ldr	r3, [r7, #8]
   8034c:	041b      	lsls	r3, r3, #16
   8034e:	68fa      	ldr	r2, [r7, #12]
   80350:	4313      	orrs	r3, r2
   80352:	60fb      	str	r3, [r7, #12]
	}
#if (SAM3N || SAM4N || SAM4C || SAM4CP || SAM4CM)
	p_pwm->PWM_MR = clock;
#else
	p_pwm->PWM_CLK = clock;
   80354:	687b      	ldr	r3, [r7, #4]
   80356:	68fa      	ldr	r2, [r7, #12]
   80358:	601a      	str	r2, [r3, #0]
#endif
	return 0;
   8035a:	2300      	movs	r3, #0
}
   8035c:	4618      	mov	r0, r3
   8035e:	3710      	adds	r7, #16
   80360:	46bd      	mov	sp, r7
   80362:	bd80      	pop	{r7, pc}
   80364:	0008026d 	.word	0x0008026d

00080368 <pwm_channel_init>:
 * \param p_channel Configurations of the specified PWM channel.
 *
 * \retval 0 if initialization succeeds, otherwise fails.
 */
uint32_t pwm_channel_init(Pwm *p_pwm, pwm_channel_t *p_channel)
{
   80368:	b480      	push	{r7}
   8036a:	b087      	sub	sp, #28
   8036c:	af00      	add	r7, sp, #0
   8036e:	6078      	str	r0, [r7, #4]
   80370:	6039      	str	r1, [r7, #0]
	uint32_t tmp_reg = 0;
   80372:	2300      	movs	r3, #0
   80374:	617b      	str	r3, [r7, #20]
	uint32_t ch_num = p_channel->channel;
   80376:	683b      	ldr	r3, [r7, #0]
   80378:	681b      	ldr	r3, [r3, #0]
   8037a:	613b      	str	r3, [r7, #16]

	/* Channel Mode/Clock Register */
	tmp_reg = (p_channel->ul_prescaler & 0xF) |
   8037c:	683b      	ldr	r3, [r7, #0]
   8037e:	685b      	ldr	r3, [r3, #4]
   80380:	f003 030f 	and.w	r3, r3, #15
			(p_channel->polarity << 9) |
   80384:	683a      	ldr	r2, [r7, #0]
   80386:	7a92      	ldrb	r2, [r2, #10]
   80388:	0252      	lsls	r2, r2, #9
	tmp_reg = (p_channel->ul_prescaler & 0xF) |
   8038a:	4313      	orrs	r3, r2
#if (SAM3U || SAM3S || SAM3XA || SAM4S || SAM4E || SAMV70 || SAMV71 || SAME70 || SAMS70)
			(p_channel->counter_event) |
   8038c:	683a      	ldr	r2, [r7, #0]
   8038e:	8a92      	ldrh	r2, [r2, #20]
			(p_channel->polarity << 9) |
   80390:	4313      	orrs	r3, r2
			(p_channel->b_deadtime_generator << 16) |
   80392:	683a      	ldr	r2, [r7, #0]
   80394:	7d92      	ldrb	r2, [r2, #22]
   80396:	0412      	lsls	r2, r2, #16
			(p_channel->counter_event) |
   80398:	4313      	orrs	r3, r2
			(p_channel->b_pwmh_output_inverted << 17) |
   8039a:	683a      	ldr	r2, [r7, #0]
   8039c:	7dd2      	ldrb	r2, [r2, #23]
   8039e:	0452      	lsls	r2, r2, #17
			(p_channel->b_deadtime_generator << 16) |
   803a0:	4313      	orrs	r3, r2
			(p_channel->b_pwml_output_inverted << 18) |
   803a2:	683a      	ldr	r2, [r7, #0]
   803a4:	7e12      	ldrb	r2, [r2, #24]
   803a6:	0492      	lsls	r2, r2, #18
			(p_channel->b_pwmh_output_inverted << 17) |
   803a8:	4313      	orrs	r3, r2
#endif
			(p_channel->alignment);
   803aa:	683a      	ldr	r2, [r7, #0]
   803ac:	8912      	ldrh	r2, [r2, #8]
	tmp_reg = (p_channel->ul_prescaler & 0xF) |
   803ae:	4313      	orrs	r3, r2
   803b0:	617b      	str	r3, [r7, #20]
	p_pwm->PWM_CH_NUM[ch_num].PWM_CMR = tmp_reg;
   803b2:	687a      	ldr	r2, [r7, #4]
   803b4:	693b      	ldr	r3, [r7, #16]
   803b6:	3310      	adds	r3, #16
   803b8:	015b      	lsls	r3, r3, #5
   803ba:	4413      	add	r3, r2
   803bc:	697a      	ldr	r2, [r7, #20]
   803be:	601a      	str	r2, [r3, #0]

	/* Channel Duty Cycle Register */
	p_pwm->PWM_CH_NUM[ch_num].PWM_CDTY = p_channel->ul_duty;
   803c0:	683b      	ldr	r3, [r7, #0]
   803c2:	68da      	ldr	r2, [r3, #12]
   803c4:	6879      	ldr	r1, [r7, #4]
   803c6:	693b      	ldr	r3, [r7, #16]
   803c8:	3310      	adds	r3, #16
   803ca:	015b      	lsls	r3, r3, #5
   803cc:	440b      	add	r3, r1
   803ce:	3304      	adds	r3, #4
   803d0:	601a      	str	r2, [r3, #0]

	/* Channel Period Register */
	p_pwm->PWM_CH_NUM[ch_num].PWM_CPRD = p_channel->ul_period;
   803d2:	683b      	ldr	r3, [r7, #0]
   803d4:	691a      	ldr	r2, [r3, #16]
   803d6:	6879      	ldr	r1, [r7, #4]
   803d8:	693b      	ldr	r3, [r7, #16]
   803da:	015b      	lsls	r3, r3, #5
   803dc:	440b      	add	r3, r1
   803de:	f503 7303 	add.w	r3, r3, #524	; 0x20c
   803e2:	601a      	str	r2, [r3, #0]
	
#if (SAM3U || SAM3S || SAM3XA || SAM4S || SAM4E || SAMV70 || SAMV71 || SAME70 || SAMS70)
	/* Channel Dead Time Register */
	if (p_channel->b_deadtime_generator) {
   803e4:	683b      	ldr	r3, [r7, #0]
   803e6:	7d9b      	ldrb	r3, [r3, #22]
   803e8:	2b00      	cmp	r3, #0
   803ea:	d00d      	beq.n	80408 <pwm_channel_init+0xa0>
		p_pwm->PWM_CH_NUM[ch_num].PWM_DT =
				PWM_DT_DTL(p_channel->
   803ec:	683b      	ldr	r3, [r7, #0]
   803ee:	8b9b      	ldrh	r3, [r3, #28]
   803f0:	041b      	lsls	r3, r3, #16
   803f2:	461a      	mov	r2, r3
				us_deadtime_pwml) | PWM_DT_DTH(p_channel->
   803f4:	683b      	ldr	r3, [r7, #0]
   803f6:	8b5b      	ldrh	r3, [r3, #26]
   803f8:	431a      	orrs	r2, r3
		p_pwm->PWM_CH_NUM[ch_num].PWM_DT =
   803fa:	6879      	ldr	r1, [r7, #4]
   803fc:	693b      	ldr	r3, [r7, #16]
   803fe:	015b      	lsls	r3, r3, #5
   80400:	440b      	add	r3, r1
   80402:	f503 7306 	add.w	r3, r3, #536	; 0x218
   80406:	601a      	str	r2, [r3, #0]
				us_deadtime_pwmh);
	}

	/* Output Selection Register */
	tmp_reg  = p_pwm->PWM_OS & (~((PWM_OS_OSH0 | PWM_OS_OSL0) << ch_num));
   80408:	687b      	ldr	r3, [r7, #4]
   8040a:	6c9a      	ldr	r2, [r3, #72]	; 0x48
   8040c:	f04f 1101 	mov.w	r1, #65537	; 0x10001
   80410:	693b      	ldr	r3, [r7, #16]
   80412:	fa01 f303 	lsl.w	r3, r1, r3
   80416:	43db      	mvns	r3, r3
   80418:	4013      	ands	r3, r2
   8041a:	617b      	str	r3, [r7, #20]
	tmp_reg |= ((p_channel->output_selection.b_override_pwmh) << ch_num) |
   8041c:	683b      	ldr	r3, [r7, #0]
   8041e:	7f9b      	ldrb	r3, [r3, #30]
   80420:	461a      	mov	r2, r3
   80422:	693b      	ldr	r3, [r7, #16]
   80424:	409a      	lsls	r2, r3
			(((p_channel->output_selection.b_override_pwml) << ch_num)
   80426:	683b      	ldr	r3, [r7, #0]
   80428:	7fdb      	ldrb	r3, [r3, #31]
   8042a:	4619      	mov	r1, r3
   8042c:	693b      	ldr	r3, [r7, #16]
   8042e:	fa01 f303 	lsl.w	r3, r1, r3
					<< 16);
   80432:	041b      	lsls	r3, r3, #16
	tmp_reg |= ((p_channel->output_selection.b_override_pwmh) << ch_num) |
   80434:	4313      	orrs	r3, r2
   80436:	461a      	mov	r2, r3
   80438:	697b      	ldr	r3, [r7, #20]
   8043a:	4313      	orrs	r3, r2
   8043c:	617b      	str	r3, [r7, #20]
	p_pwm->PWM_OS = tmp_reg;
   8043e:	687b      	ldr	r3, [r7, #4]
   80440:	697a      	ldr	r2, [r7, #20]
   80442:	649a      	str	r2, [r3, #72]	; 0x48

	/* Output Override Value Register */
	tmp_reg  = p_pwm->PWM_OOV & (~((PWM_OOV_OOVH0 | PWM_OOV_OOVL0) << ch_num));
   80444:	687b      	ldr	r3, [r7, #4]
   80446:	6c5a      	ldr	r2, [r3, #68]	; 0x44
   80448:	f04f 1101 	mov.w	r1, #65537	; 0x10001
   8044c:	693b      	ldr	r3, [r7, #16]
   8044e:	fa01 f303 	lsl.w	r3, r1, r3
   80452:	43db      	mvns	r3, r3
   80454:	4013      	ands	r3, r2
   80456:	617b      	str	r3, [r7, #20]
	tmp_reg |= ((p_channel->output_selection.override_level_pwmh) << ch_num) |
   80458:	683b      	ldr	r3, [r7, #0]
   8045a:	f893 3020 	ldrb.w	r3, [r3, #32]
   8045e:	461a      	mov	r2, r3
   80460:	693b      	ldr	r3, [r7, #16]
   80462:	409a      	lsls	r2, r3
			(((p_channel->output_selection.override_level_pwml) << ch_num)
   80464:	683b      	ldr	r3, [r7, #0]
   80466:	f893 3021 	ldrb.w	r3, [r3, #33]	; 0x21
   8046a:	4619      	mov	r1, r3
   8046c:	693b      	ldr	r3, [r7, #16]
   8046e:	fa01 f303 	lsl.w	r3, r1, r3
					<< 16);
   80472:	041b      	lsls	r3, r3, #16
	tmp_reg |= ((p_channel->output_selection.override_level_pwmh) << ch_num) |
   80474:	4313      	orrs	r3, r2
   80476:	461a      	mov	r2, r3
   80478:	697b      	ldr	r3, [r7, #20]
   8047a:	4313      	orrs	r3, r2
   8047c:	617b      	str	r3, [r7, #20]
	p_pwm->PWM_OOV = tmp_reg;
   8047e:	687b      	ldr	r3, [r7, #4]
   80480:	697a      	ldr	r2, [r7, #20]
   80482:	645a      	str	r2, [r3, #68]	; 0x44

	/* Sync Channels Mode Register */
	uint32_t channel = (1 << ch_num);
   80484:	2201      	movs	r2, #1
   80486:	693b      	ldr	r3, [r7, #16]
   80488:	fa02 f303 	lsl.w	r3, r2, r3
   8048c:	60fb      	str	r3, [r7, #12]
	if (p_channel->b_sync_ch) {
   8048e:	683b      	ldr	r3, [r7, #0]
   80490:	f893 3022 	ldrb.w	r3, [r3, #34]	; 0x22
   80494:	2b00      	cmp	r3, #0
   80496:	d006      	beq.n	804a6 <pwm_channel_init+0x13e>
		p_pwm->PWM_SCM |= channel;
   80498:	687b      	ldr	r3, [r7, #4]
   8049a:	6a1a      	ldr	r2, [r3, #32]
   8049c:	68fb      	ldr	r3, [r7, #12]
   8049e:	431a      	orrs	r2, r3
   804a0:	687b      	ldr	r3, [r7, #4]
   804a2:	621a      	str	r2, [r3, #32]
   804a4:	e006      	b.n	804b4 <pwm_channel_init+0x14c>
	} else {
		p_pwm->PWM_SCM &= ~((uint32_t) channel);
   804a6:	687b      	ldr	r3, [r7, #4]
   804a8:	6a1a      	ldr	r2, [r3, #32]
   804aa:	68fb      	ldr	r3, [r7, #12]
   804ac:	43db      	mvns	r3, r3
   804ae:	401a      	ands	r2, r3
   804b0:	687b      	ldr	r3, [r7, #4]
   804b2:	621a      	str	r2, [r3, #32]
		} else {
			p_pwm->PWM_FPV1 &= (~((0x01 << ch_num) << 16));
		}
	}
#else
	if (p_channel->ul_fault_output_pwmh == PWM_HIGH) {
   804b4:	683b      	ldr	r3, [r7, #0]
   804b6:	f893 3024 	ldrb.w	r3, [r3, #36]	; 0x24
   804ba:	2b01      	cmp	r3, #1
   804bc:	d109      	bne.n	804d2 <pwm_channel_init+0x16a>
		p_pwm->PWM_FPV |= (0x01 << ch_num);
   804be:	687b      	ldr	r3, [r7, #4]
   804c0:	6e9b      	ldr	r3, [r3, #104]	; 0x68
   804c2:	2101      	movs	r1, #1
   804c4:	693a      	ldr	r2, [r7, #16]
   804c6:	fa01 f202 	lsl.w	r2, r1, r2
   804ca:	431a      	orrs	r2, r3
   804cc:	687b      	ldr	r3, [r7, #4]
   804ce:	669a      	str	r2, [r3, #104]	; 0x68
   804d0:	e009      	b.n	804e6 <pwm_channel_init+0x17e>
	} else {
		p_pwm->PWM_FPV &= (~(0x01 << ch_num));
   804d2:	687b      	ldr	r3, [r7, #4]
   804d4:	6e9b      	ldr	r3, [r3, #104]	; 0x68
   804d6:	2101      	movs	r1, #1
   804d8:	693a      	ldr	r2, [r7, #16]
   804da:	fa01 f202 	lsl.w	r2, r1, r2
   804de:	43d2      	mvns	r2, r2
   804e0:	401a      	ands	r2, r3
   804e2:	687b      	ldr	r3, [r7, #4]
   804e4:	669a      	str	r2, [r3, #104]	; 0x68
	}
	if (p_channel->ul_fault_output_pwml == PWM_HIGH) {
   804e6:	683b      	ldr	r3, [r7, #0]
   804e8:	f893 3025 	ldrb.w	r3, [r3, #37]	; 0x25
   804ec:	2b01      	cmp	r3, #1
   804ee:	d10a      	bne.n	80506 <pwm_channel_init+0x19e>
		p_pwm->PWM_FPV |= ((0x01 << ch_num) << 16);
   804f0:	687b      	ldr	r3, [r7, #4]
   804f2:	6e9b      	ldr	r3, [r3, #104]	; 0x68
   804f4:	2101      	movs	r1, #1
   804f6:	693a      	ldr	r2, [r7, #16]
   804f8:	fa01 f202 	lsl.w	r2, r1, r2
   804fc:	0412      	lsls	r2, r2, #16
   804fe:	431a      	orrs	r2, r3
   80500:	687b      	ldr	r3, [r7, #4]
   80502:	669a      	str	r2, [r3, #104]	; 0x68
   80504:	e00a      	b.n	8051c <pwm_channel_init+0x1b4>
	} else {
		p_pwm->PWM_FPV &= (~((0x01 << ch_num) << 16));
   80506:	687b      	ldr	r3, [r7, #4]
   80508:	6e9b      	ldr	r3, [r3, #104]	; 0x68
   8050a:	2101      	movs	r1, #1
   8050c:	693a      	ldr	r2, [r7, #16]
   8050e:	fa01 f202 	lsl.w	r2, r1, r2
   80512:	0412      	lsls	r2, r2, #16
   80514:	43d2      	mvns	r2, r2
   80516:	401a      	ands	r2, r3
   80518:	687b      	ldr	r3, [r7, #4]
   8051a:	669a      	str	r2, [r3, #104]	; 0x68
	}
#endif
	/* Fault Protection Enable Register */
	uint32_t fault_enable_reg = 0;
   8051c:	2300      	movs	r3, #0
   8051e:	60bb      	str	r3, [r7, #8]
#if (SAM3XA)
	if (ch_num < 4) {
   80520:	693b      	ldr	r3, [r7, #16]
   80522:	2b03      	cmp	r3, #3
   80524:	d81d      	bhi.n	80562 <pwm_channel_init+0x1fa>
		ch_num *= 8;
   80526:	693b      	ldr	r3, [r7, #16]
   80528:	00db      	lsls	r3, r3, #3
   8052a:	613b      	str	r3, [r7, #16]
		fault_enable_reg = p_pwm->PWM_FPE1;
   8052c:	687b      	ldr	r3, [r7, #4]
   8052e:	6edb      	ldr	r3, [r3, #108]	; 0x6c
   80530:	60bb      	str	r3, [r7, #8]
		fault_enable_reg &= ~(0xFF << ch_num);
   80532:	22ff      	movs	r2, #255	; 0xff
   80534:	693b      	ldr	r3, [r7, #16]
   80536:	fa02 f303 	lsl.w	r3, r2, r3
   8053a:	43db      	mvns	r3, r3
   8053c:	461a      	mov	r2, r3
   8053e:	68bb      	ldr	r3, [r7, #8]
   80540:	4013      	ands	r3, r2
   80542:	60bb      	str	r3, [r7, #8]
		fault_enable_reg |= ((p_channel->fault_id) << ch_num);
   80544:	683b      	ldr	r3, [r7, #0]
   80546:	f893 3023 	ldrb.w	r3, [r3, #35]	; 0x23
   8054a:	461a      	mov	r2, r3
   8054c:	693b      	ldr	r3, [r7, #16]
   8054e:	fa02 f303 	lsl.w	r3, r2, r3
   80552:	461a      	mov	r2, r3
   80554:	68bb      	ldr	r3, [r7, #8]
   80556:	4313      	orrs	r3, r2
   80558:	60bb      	str	r3, [r7, #8]
		p_pwm->PWM_FPE1 = fault_enable_reg;
   8055a:	687b      	ldr	r3, [r7, #4]
   8055c:	68ba      	ldr	r2, [r7, #8]
   8055e:	66da      	str	r2, [r3, #108]	; 0x6c
   80560:	e01f      	b.n	805a2 <pwm_channel_init+0x23a>
	} else {
		ch_num -= 4;
   80562:	693b      	ldr	r3, [r7, #16]
   80564:	3b04      	subs	r3, #4
   80566:	613b      	str	r3, [r7, #16]
		ch_num *= 8;
   80568:	693b      	ldr	r3, [r7, #16]
   8056a:	00db      	lsls	r3, r3, #3
   8056c:	613b      	str	r3, [r7, #16]
		fault_enable_reg = p_pwm->PWM_FPE2;
   8056e:	687b      	ldr	r3, [r7, #4]
   80570:	6f1b      	ldr	r3, [r3, #112]	; 0x70
   80572:	60bb      	str	r3, [r7, #8]
		fault_enable_reg &= ~(0xFF << ch_num);
   80574:	22ff      	movs	r2, #255	; 0xff
   80576:	693b      	ldr	r3, [r7, #16]
   80578:	fa02 f303 	lsl.w	r3, r2, r3
   8057c:	43db      	mvns	r3, r3
   8057e:	461a      	mov	r2, r3
   80580:	68bb      	ldr	r3, [r7, #8]
   80582:	4013      	ands	r3, r2
   80584:	60bb      	str	r3, [r7, #8]
		fault_enable_reg |= ((p_channel->fault_id) << ch_num);
   80586:	683b      	ldr	r3, [r7, #0]
   80588:	f893 3023 	ldrb.w	r3, [r3, #35]	; 0x23
   8058c:	461a      	mov	r2, r3
   8058e:	693b      	ldr	r3, [r7, #16]
   80590:	fa02 f303 	lsl.w	r3, r2, r3
   80594:	461a      	mov	r2, r3
   80596:	68bb      	ldr	r3, [r7, #8]
   80598:	4313      	orrs	r3, r2
   8059a:	60bb      	str	r3, [r7, #8]
		p_pwm->PWM_FPE2 = fault_enable_reg;
   8059c:	687b      	ldr	r3, [r7, #4]
   8059e:	68ba      	ldr	r2, [r7, #8]
   805a0:	671a      	str	r2, [r3, #112]	; 0x70
	}
	p_pwm->PWM_CH_NUM[ch_num].PWM_CMR &= (~PWM_CMR_PPM);
	p_pwm->PWM_CH_NUM[ch_num].PWM_CMR |= (p_channel->ul_ppm_mode & PWM_CMR_PPM);
#endif

	return 0;
   805a2:	2300      	movs	r3, #0
}
   805a4:	4618      	mov	r0, r3
   805a6:	371c      	adds	r7, #28
   805a8:	46bd      	mov	sp, r7
   805aa:	bc80      	pop	{r7}
   805ac:	4770      	bx	lr

000805ae <pwm_channel_update_duty>:
 *
 * \retval 0 if changing succeeds, otherwise fails.
 */
uint32_t pwm_channel_update_duty(Pwm *p_pwm, pwm_channel_t *p_channel,
		uint32_t ul_duty)
{
   805ae:	b480      	push	{r7}
   805b0:	b087      	sub	sp, #28
   805b2:	af00      	add	r7, sp, #0
   805b4:	60f8      	str	r0, [r7, #12]
   805b6:	60b9      	str	r1, [r7, #8]
   805b8:	607a      	str	r2, [r7, #4]
	uint32_t ch_num = p_channel->channel;
   805ba:	68bb      	ldr	r3, [r7, #8]
   805bc:	681b      	ldr	r3, [r3, #0]
   805be:	617b      	str	r3, [r7, #20]

		/** Check parameter */
	if (p_channel->ul_period < ul_duty) {
   805c0:	68bb      	ldr	r3, [r7, #8]
   805c2:	691a      	ldr	r2, [r3, #16]
   805c4:	687b      	ldr	r3, [r7, #4]
   805c6:	429a      	cmp	r2, r3
   805c8:	d202      	bcs.n	805d0 <pwm_channel_update_duty+0x22>
		return PWM_INVALID_ARGUMENT;
   805ca:	f64f 73ff 	movw	r3, #65535	; 0xffff
   805ce:	e00b      	b.n	805e8 <pwm_channel_update_duty+0x3a>
	} else {
		/* Save new duty cycle value */
		p_channel->ul_duty = ul_duty;
   805d0:	68bb      	ldr	r3, [r7, #8]
   805d2:	687a      	ldr	r2, [r7, #4]
   805d4:	60da      	str	r2, [r3, #12]
		mode &= ~PWM_CMR_CPD;
		p_pwm->PWM_CH_NUM[ch_num].PWM_CMR = mode;

		p_pwm->PWM_CH_NUM[ch_num].PWM_CUPD = ul_duty;
#else
		p_pwm->PWM_CH_NUM[ch_num].PWM_CDTYUPD = ul_duty;
   805d6:	68fa      	ldr	r2, [r7, #12]
   805d8:	697b      	ldr	r3, [r7, #20]
   805da:	015b      	lsls	r3, r3, #5
   805dc:	4413      	add	r3, r2
   805de:	f503 7302 	add.w	r3, r3, #520	; 0x208
   805e2:	687a      	ldr	r2, [r7, #4]
   805e4:	601a      	str	r2, [r3, #0]
#endif
	}

	return 0;
   805e6:	2300      	movs	r3, #0
}
   805e8:	4618      	mov	r0, r3
   805ea:	371c      	adds	r7, #28
   805ec:	46bd      	mov	sp, r7
   805ee:	bc80      	pop	{r7}
   805f0:	4770      	bx	lr

000805f2 <pwm_channel_enable>:
 *
 * \param p_pwm Pointer to a PWM instance.
 * \param ul_channel PWM channel number to enable.
 */
void pwm_channel_enable(Pwm *p_pwm, uint32_t ul_channel)
{
   805f2:	b480      	push	{r7}
   805f4:	b083      	sub	sp, #12
   805f6:	af00      	add	r7, sp, #0
   805f8:	6078      	str	r0, [r7, #4]
   805fa:	6039      	str	r1, [r7, #0]
	p_pwm->PWM_ENA = (1 << ul_channel);
   805fc:	2201      	movs	r2, #1
   805fe:	683b      	ldr	r3, [r7, #0]
   80600:	fa02 f303 	lsl.w	r3, r2, r3
   80604:	461a      	mov	r2, r3
   80606:	687b      	ldr	r3, [r7, #4]
   80608:	605a      	str	r2, [r3, #4]
}
   8060a:	bf00      	nop
   8060c:	370c      	adds	r7, #12
   8060e:	46bd      	mov	sp, r7
   80610:	bc80      	pop	{r7}
   80612:	4770      	bx	lr

00080614 <pwm_channel_disable>:
 *
 * \param p_pwm Pointer to a PWM instance.
 * \param ul_channel PWM channel number to disable.
 */
void pwm_channel_disable(Pwm *p_pwm, uint32_t ul_channel)
{
   80614:	b480      	push	{r7}
   80616:	b083      	sub	sp, #12
   80618:	af00      	add	r7, sp, #0
   8061a:	6078      	str	r0, [r7, #4]
   8061c:	6039      	str	r1, [r7, #0]
	p_pwm->PWM_DIS = (1 << ul_channel);
   8061e:	2201      	movs	r2, #1
   80620:	683b      	ldr	r3, [r7, #0]
   80622:	fa02 f303 	lsl.w	r3, r2, r3
   80626:	461a      	mov	r2, r3
   80628:	687b      	ldr	r3, [r7, #4]
   8062a:	609a      	str	r2, [r3, #8]
}
   8062c:	bf00      	nop
   8062e:	370c      	adds	r7, #12
   80630:	46bd      	mov	sp, r7
   80632:	bc80      	pop	{r7}
   80634:	4770      	bx	lr

00080636 <spi_set_peripheral_chip_select_value>:
 *                 The decode mode can be enabled/disabled by follow functions:
 *                 \ref spi_enable_peripheral_select_decode,
 *                 \ref spi_disable_peripheral_select_decode.
 */
void spi_set_peripheral_chip_select_value(Spi *p_spi, uint32_t ul_value)
{
   80636:	b480      	push	{r7}
   80638:	b083      	sub	sp, #12
   8063a:	af00      	add	r7, sp, #0
   8063c:	6078      	str	r0, [r7, #4]
   8063e:	6039      	str	r1, [r7, #0]
	p_spi->SPI_MR &= (~SPI_MR_PCS_Msk);
   80640:	687b      	ldr	r3, [r7, #4]
   80642:	685b      	ldr	r3, [r3, #4]
   80644:	f423 2270 	bic.w	r2, r3, #983040	; 0xf0000
   80648:	687b      	ldr	r3, [r7, #4]
   8064a:	605a      	str	r2, [r3, #4]
	p_spi->SPI_MR |= SPI_MR_PCS(ul_value);
   8064c:	687b      	ldr	r3, [r7, #4]
   8064e:	685a      	ldr	r2, [r3, #4]
   80650:	683b      	ldr	r3, [r7, #0]
   80652:	041b      	lsls	r3, r3, #16
   80654:	f403 2370 	and.w	r3, r3, #983040	; 0xf0000
   80658:	431a      	orrs	r2, r3
   8065a:	687b      	ldr	r3, [r7, #4]
   8065c:	605a      	str	r2, [r3, #4]
}
   8065e:	bf00      	nop
   80660:	370c      	adds	r7, #12
   80662:	46bd      	mov	sp, r7
   80664:	bc80      	pop	{r7}
   80666:	4770      	bx	lr

00080668 <spi_set_clock_polarity>:
 * \param ul_pcs_ch Peripheral Chip Select channel (0~3).
 * \param ul_polarity Default clock state is logical one(high)/zero(low).
 */
void spi_set_clock_polarity(Spi *p_spi, uint32_t ul_pcs_ch,
		uint32_t ul_polarity)
{
   80668:	b480      	push	{r7}
   8066a:	b085      	sub	sp, #20
   8066c:	af00      	add	r7, sp, #0
   8066e:	60f8      	str	r0, [r7, #12]
   80670:	60b9      	str	r1, [r7, #8]
   80672:	607a      	str	r2, [r7, #4]
	if (ul_polarity) {
   80674:	687b      	ldr	r3, [r7, #4]
   80676:	2b00      	cmp	r3, #0
   80678:	d00c      	beq.n	80694 <spi_set_clock_polarity+0x2c>
		p_spi->SPI_CSR[ul_pcs_ch] |= SPI_CSR_CPOL;
   8067a:	68fb      	ldr	r3, [r7, #12]
   8067c:	68ba      	ldr	r2, [r7, #8]
   8067e:	320c      	adds	r2, #12
   80680:	f853 3022 	ldr.w	r3, [r3, r2, lsl #2]
   80684:	f043 0101 	orr.w	r1, r3, #1
   80688:	68fb      	ldr	r3, [r7, #12]
   8068a:	68ba      	ldr	r2, [r7, #8]
   8068c:	320c      	adds	r2, #12
   8068e:	f843 1022 	str.w	r1, [r3, r2, lsl #2]
	} else {
		p_spi->SPI_CSR[ul_pcs_ch] &= (~SPI_CSR_CPOL);
	}
}
   80692:	e00b      	b.n	806ac <spi_set_clock_polarity+0x44>
		p_spi->SPI_CSR[ul_pcs_ch] &= (~SPI_CSR_CPOL);
   80694:	68fb      	ldr	r3, [r7, #12]
   80696:	68ba      	ldr	r2, [r7, #8]
   80698:	320c      	adds	r2, #12
   8069a:	f853 3022 	ldr.w	r3, [r3, r2, lsl #2]
   8069e:	f023 0101 	bic.w	r1, r3, #1
   806a2:	68fb      	ldr	r3, [r7, #12]
   806a4:	68ba      	ldr	r2, [r7, #8]
   806a6:	320c      	adds	r2, #12
   806a8:	f843 1022 	str.w	r1, [r3, r2, lsl #2]
}
   806ac:	bf00      	nop
   806ae:	3714      	adds	r7, #20
   806b0:	46bd      	mov	sp, r7
   806b2:	bc80      	pop	{r7}
   806b4:	4770      	bx	lr

000806b6 <spi_set_clock_phase>:
 * \param p_spi Pointer to an SPI instance.
 *  \param ul_pcs_ch Peripheral Chip Select channel (0~3).
 *  \param ul_phase Data capture on the rising/falling edge of clock.
 */
void spi_set_clock_phase(Spi *p_spi, uint32_t ul_pcs_ch, uint32_t ul_phase)
{
   806b6:	b480      	push	{r7}
   806b8:	b085      	sub	sp, #20
   806ba:	af00      	add	r7, sp, #0
   806bc:	60f8      	str	r0, [r7, #12]
   806be:	60b9      	str	r1, [r7, #8]
   806c0:	607a      	str	r2, [r7, #4]
	if (ul_phase) {
   806c2:	687b      	ldr	r3, [r7, #4]
   806c4:	2b00      	cmp	r3, #0
   806c6:	d00c      	beq.n	806e2 <spi_set_clock_phase+0x2c>
		p_spi->SPI_CSR[ul_pcs_ch] |= SPI_CSR_NCPHA;
   806c8:	68fb      	ldr	r3, [r7, #12]
   806ca:	68ba      	ldr	r2, [r7, #8]
   806cc:	320c      	adds	r2, #12
   806ce:	f853 3022 	ldr.w	r3, [r3, r2, lsl #2]
   806d2:	f043 0102 	orr.w	r1, r3, #2
   806d6:	68fb      	ldr	r3, [r7, #12]
   806d8:	68ba      	ldr	r2, [r7, #8]
   806da:	320c      	adds	r2, #12
   806dc:	f843 1022 	str.w	r1, [r3, r2, lsl #2]
	} else {
		p_spi->SPI_CSR[ul_pcs_ch] &= (~SPI_CSR_NCPHA);
	}
}
   806e0:	e00b      	b.n	806fa <spi_set_clock_phase+0x44>
		p_spi->SPI_CSR[ul_pcs_ch] &= (~SPI_CSR_NCPHA);
   806e2:	68fb      	ldr	r3, [r7, #12]
   806e4:	68ba      	ldr	r2, [r7, #8]
   806e6:	320c      	adds	r2, #12
   806e8:	f853 3022 	ldr.w	r3, [r3, r2, lsl #2]
   806ec:	f023 0102 	bic.w	r1, r3, #2
   806f0:	68fb      	ldr	r3, [r7, #12]
   806f2:	68ba      	ldr	r2, [r7, #8]
   806f4:	320c      	adds	r2, #12
   806f6:	f843 1022 	str.w	r1, [r3, r2, lsl #2]
}
   806fa:	bf00      	nop
   806fc:	3714      	adds	r7, #20
   806fe:	46bd      	mov	sp, r7
   80700:	bc80      	pop	{r7}
   80702:	4770      	bx	lr

00080704 <spi_set_bits_per_transfer>:
 * \param ul_bits Number of bits (8~16), use the pattern defined
 *        in the device header file.
 */
void spi_set_bits_per_transfer(Spi *p_spi, uint32_t ul_pcs_ch,
		uint32_t ul_bits)
{
   80704:	b480      	push	{r7}
   80706:	b085      	sub	sp, #20
   80708:	af00      	add	r7, sp, #0
   8070a:	60f8      	str	r0, [r7, #12]
   8070c:	60b9      	str	r1, [r7, #8]
   8070e:	607a      	str	r2, [r7, #4]
	p_spi->SPI_CSR[ul_pcs_ch] &= (~SPI_CSR_BITS_Msk);
   80710:	68fb      	ldr	r3, [r7, #12]
   80712:	68ba      	ldr	r2, [r7, #8]
   80714:	320c      	adds	r2, #12
   80716:	f853 3022 	ldr.w	r3, [r3, r2, lsl #2]
   8071a:	f023 01f0 	bic.w	r1, r3, #240	; 0xf0
   8071e:	68fb      	ldr	r3, [r7, #12]
   80720:	68ba      	ldr	r2, [r7, #8]
   80722:	320c      	adds	r2, #12
   80724:	f843 1022 	str.w	r1, [r3, r2, lsl #2]
	p_spi->SPI_CSR[ul_pcs_ch] |= ul_bits;
   80728:	68fb      	ldr	r3, [r7, #12]
   8072a:	68ba      	ldr	r2, [r7, #8]
   8072c:	320c      	adds	r2, #12
   8072e:	f853 2022 	ldr.w	r2, [r3, r2, lsl #2]
   80732:	687b      	ldr	r3, [r7, #4]
   80734:	ea42 0103 	orr.w	r1, r2, r3
   80738:	68fb      	ldr	r3, [r7, #12]
   8073a:	68ba      	ldr	r2, [r7, #8]
   8073c:	320c      	adds	r2, #12
   8073e:	f843 1022 	str.w	r1, [r3, r2, lsl #2]
}
   80742:	bf00      	nop
   80744:	3714      	adds	r7, #20
   80746:	46bd      	mov	sp, r7
   80748:	bc80      	pop	{r7}
   8074a:	4770      	bx	lr

0008074c <tc_init>:
 */
void tc_init(
		Tc *p_tc,
		uint32_t ul_channel,
		uint32_t ul_mode)
{
   8074c:	b480      	push	{r7}
   8074e:	b087      	sub	sp, #28
   80750:	af00      	add	r7, sp, #0
   80752:	60f8      	str	r0, [r7, #12]
   80754:	60b9      	str	r1, [r7, #8]
   80756:	607a      	str	r2, [r7, #4]

	/* Validate inputs. */
	Assert(p_tc);
	Assert(ul_channel <
			(sizeof(p_tc->TC_CHANNEL) / sizeof(p_tc->TC_CHANNEL[0])));
	tc_channel = p_tc->TC_CHANNEL + ul_channel;
   80758:	68fa      	ldr	r2, [r7, #12]
   8075a:	68bb      	ldr	r3, [r7, #8]
   8075c:	019b      	lsls	r3, r3, #6
   8075e:	4413      	add	r3, r2
   80760:	617b      	str	r3, [r7, #20]

	/*  Disable TC clock. */
	tc_channel->TC_CCR = TC_CCR_CLKDIS;
   80762:	697b      	ldr	r3, [r7, #20]
   80764:	2202      	movs	r2, #2
   80766:	601a      	str	r2, [r3, #0]

	/*  Disable interrupts. */
	tc_channel->TC_IDR = 0xFFFFFFFF;
   80768:	697b      	ldr	r3, [r7, #20]
   8076a:	f04f 32ff 	mov.w	r2, #4294967295
   8076e:	629a      	str	r2, [r3, #40]	; 0x28

	/*  Clear status register. */
	tc_channel->TC_SR;
   80770:	697b      	ldr	r3, [r7, #20]
   80772:	6a1b      	ldr	r3, [r3, #32]

	/*  Set mode. */
	tc_channel->TC_CMR = ul_mode;
   80774:	697b      	ldr	r3, [r7, #20]
   80776:	687a      	ldr	r2, [r7, #4]
   80778:	605a      	str	r2, [r3, #4]
}
   8077a:	bf00      	nop
   8077c:	371c      	adds	r7, #28
   8077e:	46bd      	mov	sp, r7
   80780:	bc80      	pop	{r7}
   80782:	4770      	bx	lr

00080784 <tc_start>:
 * \param[in] ul_channel Channel to configure
 */
void tc_start(
		Tc *p_tc,
		uint32_t ul_channel)
{
   80784:	b480      	push	{r7}
   80786:	b083      	sub	sp, #12
   80788:	af00      	add	r7, sp, #0
   8078a:	6078      	str	r0, [r7, #4]
   8078c:	6039      	str	r1, [r7, #0]
	/* Validate inputs. */
	Assert(p_tc);
	Assert(ul_channel <
			(sizeof(p_tc->TC_CHANNEL) / sizeof(p_tc->TC_CHANNEL[0])));

	p_tc->TC_CHANNEL[ul_channel].TC_CCR = TC_CCR_CLKEN | TC_CCR_SWTRG;
   8078e:	687a      	ldr	r2, [r7, #4]
   80790:	683b      	ldr	r3, [r7, #0]
   80792:	019b      	lsls	r3, r3, #6
   80794:	4413      	add	r3, r2
   80796:	2205      	movs	r2, #5
   80798:	601a      	str	r2, [r3, #0]
}
   8079a:	bf00      	nop
   8079c:	370c      	adds	r7, #12
   8079e:	46bd      	mov	sp, r7
   807a0:	bc80      	pop	{r7}
   807a2:	4770      	bx	lr

000807a4 <tc_write_rc>:
 */
void tc_write_rc(
		Tc *p_tc,
		uint32_t ul_channel,
		uint32_t ul_value)
{
   807a4:	b480      	push	{r7}
   807a6:	b085      	sub	sp, #20
   807a8:	af00      	add	r7, sp, #0
   807aa:	60f8      	str	r0, [r7, #12]
   807ac:	60b9      	str	r1, [r7, #8]
   807ae:	607a      	str	r2, [r7, #4]
	/* Validate inputs. */
	Assert(p_tc);
	Assert(ul_channel <
			(sizeof(p_tc->TC_CHANNEL) / sizeof(p_tc->TC_CHANNEL[0])));

	p_tc->TC_CHANNEL[ul_channel].TC_RC = ul_value;
   807b0:	68fa      	ldr	r2, [r7, #12]
   807b2:	68bb      	ldr	r3, [r7, #8]
   807b4:	019b      	lsls	r3, r3, #6
   807b6:	4413      	add	r3, r2
   807b8:	331c      	adds	r3, #28
   807ba:	687a      	ldr	r2, [r7, #4]
   807bc:	601a      	str	r2, [r3, #0]
}
   807be:	bf00      	nop
   807c0:	3714      	adds	r7, #20
   807c2:	46bd      	mov	sp, r7
   807c4:	bc80      	pop	{r7}
   807c6:	4770      	bx	lr

000807c8 <tc_enable_interrupt>:
 */
void tc_enable_interrupt(
		Tc *p_tc,
		uint32_t ul_channel,
		uint32_t ul_sources)
{
   807c8:	b480      	push	{r7}
   807ca:	b087      	sub	sp, #28
   807cc:	af00      	add	r7, sp, #0
   807ce:	60f8      	str	r0, [r7, #12]
   807d0:	60b9      	str	r1, [r7, #8]
   807d2:	607a      	str	r2, [r7, #4]

	/* Validate inputs. */
	Assert(p_tc);
	Assert(ul_channel <
			(sizeof(p_tc->TC_CHANNEL) / sizeof(p_tc->TC_CHANNEL[0])));
	tc_channel = p_tc->TC_CHANNEL + ul_channel;
   807d4:	68fa      	ldr	r2, [r7, #12]
   807d6:	68bb      	ldr	r3, [r7, #8]
   807d8:	019b      	lsls	r3, r3, #6
   807da:	4413      	add	r3, r2
   807dc:	617b      	str	r3, [r7, #20]
	tc_channel->TC_IER = ul_sources;
   807de:	697b      	ldr	r3, [r7, #20]
   807e0:	687a      	ldr	r2, [r7, #4]
   807e2:	625a      	str	r2, [r3, #36]	; 0x24
}
   807e4:	bf00      	nop
   807e6:	371c      	adds	r7, #28
   807e8:	46bd      	mov	sp, r7
   807ea:	bc80      	pop	{r7}
   807ec:	4770      	bx	lr

000807ee <tc_get_status>:
 * \return The current TC status.
 */
uint32_t tc_get_status(
		Tc *p_tc,
		uint32_t ul_channel)
{
   807ee:	b480      	push	{r7}
   807f0:	b085      	sub	sp, #20
   807f2:	af00      	add	r7, sp, #0
   807f4:	6078      	str	r0, [r7, #4]
   807f6:	6039      	str	r1, [r7, #0]
	/* Validate inputs. */
	Assert(p_tc);
	Assert(ul_channel <
			(sizeof(p_tc->TC_CHANNEL) / sizeof(p_tc->TC_CHANNEL[0])));
			
	tc_channel = p_tc->TC_CHANNEL + ul_channel;
   807f8:	687a      	ldr	r2, [r7, #4]
   807fa:	683b      	ldr	r3, [r7, #0]
   807fc:	019b      	lsls	r3, r3, #6
   807fe:	4413      	add	r3, r2
   80800:	60fb      	str	r3, [r7, #12]
	return tc_channel->TC_SR;
   80802:	68fb      	ldr	r3, [r7, #12]
   80804:	6a1b      	ldr	r3, [r3, #32]
}
   80806:	4618      	mov	r0, r3
   80808:	3714      	adds	r7, #20
   8080a:	46bd      	mov	sp, r7
   8080c:	bc80      	pop	{r7}
   8080e:	4770      	bx	lr

00080810 <usart_set_spi_master_baudrate>:
 * \retval 1 Baud rate set point is out of range for the given input clock
 * frequency.
 */
static uint32_t usart_set_spi_master_baudrate(Usart *p_usart,
		uint32_t baudrate, uint32_t ul_mck)
{
   80810:	b480      	push	{r7}
   80812:	b087      	sub	sp, #28
   80814:	af00      	add	r7, sp, #0
   80816:	60f8      	str	r0, [r7, #12]
   80818:	60b9      	str	r1, [r7, #8]
   8081a:	607a      	str	r2, [r7, #4]
	uint32_t cd;

	/* Calculate the clock divider according to the formula in SPI mode. */
	cd = (ul_mck + baudrate / 2) / baudrate;
   8081c:	68bb      	ldr	r3, [r7, #8]
   8081e:	085a      	lsrs	r2, r3, #1
   80820:	687b      	ldr	r3, [r7, #4]
   80822:	441a      	add	r2, r3
   80824:	68bb      	ldr	r3, [r7, #8]
   80826:	fbb2 f3f3 	udiv	r3, r2, r3
   8082a:	617b      	str	r3, [r7, #20]

	if (cd < MIN_CD_VALUE_SPI || cd > MAX_CD_VALUE) {
   8082c:	697b      	ldr	r3, [r7, #20]
   8082e:	2b03      	cmp	r3, #3
   80830:	d903      	bls.n	8083a <usart_set_spi_master_baudrate+0x2a>
   80832:	697b      	ldr	r3, [r7, #20]
   80834:	f5b3 3f80 	cmp.w	r3, #65536	; 0x10000
   80838:	d301      	bcc.n	8083e <usart_set_spi_master_baudrate+0x2e>
		return 1;
   8083a:	2301      	movs	r3, #1
   8083c:	e003      	b.n	80846 <usart_set_spi_master_baudrate+0x36>
	}

	p_usart->US_BRGR = cd << US_BRGR_CD_Pos;
   8083e:	68fb      	ldr	r3, [r7, #12]
   80840:	697a      	ldr	r2, [r7, #20]
   80842:	621a      	str	r2, [r3, #32]

	return 0;
   80844:	2300      	movs	r3, #0
}
   80846:	4618      	mov	r0, r3
   80848:	371c      	adds	r7, #28
   8084a:	46bd      	mov	sp, r7
   8084c:	bc80      	pop	{r7}
   8084e:	4770      	bx	lr

00080850 <usart_reset>:
 * \brief Reset the USART and disable TX and RX.
 *
 * \param p_usart Pointer to a USART instance.
 */
void usart_reset(Usart *p_usart)
{
   80850:	b580      	push	{r7, lr}
   80852:	b082      	sub	sp, #8
   80854:	af00      	add	r7, sp, #0
   80856:	6078      	str	r0, [r7, #4]
	/* Disable the Write Protect. */
	usart_disable_writeprotect(p_usart);
   80858:	6878      	ldr	r0, [r7, #4]
   8085a:	4b0d      	ldr	r3, [pc, #52]	; (80890 <usart_reset+0x40>)
   8085c:	4798      	blx	r3

	/* Reset registers that could cause unpredictable behavior after reset. */
	p_usart->US_MR = 0;
   8085e:	687b      	ldr	r3, [r7, #4]
   80860:	2200      	movs	r2, #0
   80862:	605a      	str	r2, [r3, #4]
	p_usart->US_RTOR = 0;
   80864:	687b      	ldr	r3, [r7, #4]
   80866:	2200      	movs	r2, #0
   80868:	625a      	str	r2, [r3, #36]	; 0x24
	p_usart->US_TTGR = 0;
   8086a:	687b      	ldr	r3, [r7, #4]
   8086c:	2200      	movs	r2, #0
   8086e:	629a      	str	r2, [r3, #40]	; 0x28

	/* Disable TX and RX. */
	usart_reset_tx(p_usart);
   80870:	6878      	ldr	r0, [r7, #4]
   80872:	4b08      	ldr	r3, [pc, #32]	; (80894 <usart_reset+0x44>)
   80874:	4798      	blx	r3
	usart_reset_rx(p_usart);
   80876:	6878      	ldr	r0, [r7, #4]
   80878:	4b07      	ldr	r3, [pc, #28]	; (80898 <usart_reset+0x48>)
   8087a:	4798      	blx	r3
	/* Reset status bits. */
	usart_reset_status(p_usart);
   8087c:	6878      	ldr	r0, [r7, #4]
   8087e:	4b07      	ldr	r3, [pc, #28]	; (8089c <usart_reset+0x4c>)
   80880:	4798      	blx	r3
	/* Turn off RTS and DTR if exist. */
	usart_drive_RTS_pin_high(p_usart);
   80882:	6878      	ldr	r0, [r7, #4]
   80884:	4b06      	ldr	r3, [pc, #24]	; (808a0 <usart_reset+0x50>)
   80886:	4798      	blx	r3
#if (SAM3S || SAM4S || SAM3U || SAM4L || SAM4E)
	usart_drive_DTR_pin_high(p_usart);
#endif
}
   80888:	bf00      	nop
   8088a:	3708      	adds	r7, #8
   8088c:	46bd      	mov	sp, r7
   8088e:	bd80      	pop	{r7, pc}
   80890:	00080aad 	.word	0x00080aad
   80894:	000809e5 	.word	0x000809e5
   80898:	00080a2d 	.word	0x00080a2d
   8089c:	00080a45 	.word	0x00080a45
   808a0:	00080a5f 	.word	0x00080a5f

000808a4 <usart_init_spi_master>:
 * \retval 0 on success.
 * \retval 1 on failure.
 */
uint32_t usart_init_spi_master(Usart *p_usart,
		const usart_spi_opt_t *p_usart_opt, uint32_t ul_mck)
{
   808a4:	b580      	push	{r7, lr}
   808a6:	b084      	sub	sp, #16
   808a8:	af00      	add	r7, sp, #0
   808aa:	60f8      	str	r0, [r7, #12]
   808ac:	60b9      	str	r1, [r7, #8]
   808ae:	607a      	str	r2, [r7, #4]
	static uint32_t ul_reg_val;

	/* Reset the USART and shut down TX and RX. */
	usart_reset(p_usart);
   808b0:	68f8      	ldr	r0, [r7, #12]
   808b2:	4b3d      	ldr	r3, [pc, #244]	; (809a8 <usart_init_spi_master+0x104>)
   808b4:	4798      	blx	r3

	ul_reg_val = 0;
   808b6:	4b3d      	ldr	r3, [pc, #244]	; (809ac <usart_init_spi_master+0x108>)
   808b8:	2200      	movs	r2, #0
   808ba:	601a      	str	r2, [r3, #0]
	/* Check whether the input values are legal. */
	if (!p_usart_opt || (p_usart_opt->spi_mode > SPI_MODE_3) ||
   808bc:	68bb      	ldr	r3, [r7, #8]
   808be:	2b00      	cmp	r3, #0
   808c0:	d00d      	beq.n	808de <usart_init_spi_master+0x3a>
   808c2:	68bb      	ldr	r3, [r7, #8]
   808c4:	689b      	ldr	r3, [r3, #8]
   808c6:	2b03      	cmp	r3, #3
   808c8:	d809      	bhi.n	808de <usart_init_spi_master+0x3a>
			usart_set_spi_master_baudrate(p_usart, p_usart_opt->baudrate,
   808ca:	68bb      	ldr	r3, [r7, #8]
   808cc:	681b      	ldr	r3, [r3, #0]
   808ce:	687a      	ldr	r2, [r7, #4]
   808d0:	4619      	mov	r1, r3
   808d2:	68f8      	ldr	r0, [r7, #12]
   808d4:	4b36      	ldr	r3, [pc, #216]	; (809b0 <usart_init_spi_master+0x10c>)
   808d6:	4798      	blx	r3
   808d8:	4603      	mov	r3, r0
	if (!p_usart_opt || (p_usart_opt->spi_mode > SPI_MODE_3) ||
   808da:	2b00      	cmp	r3, #0
   808dc:	d001      	beq.n	808e2 <usart_init_spi_master+0x3e>
			ul_mck)) {
		return 1;
   808de:	2301      	movs	r3, #1
   808e0:	e05d      	b.n	8099e <usart_init_spi_master+0xfa>
	}

	/* Configure the character length bit in MR register. */
	ul_reg_val |= p_usart_opt->char_length;
   808e2:	68bb      	ldr	r3, [r7, #8]
   808e4:	685a      	ldr	r2, [r3, #4]
   808e6:	4b31      	ldr	r3, [pc, #196]	; (809ac <usart_init_spi_master+0x108>)
   808e8:	681b      	ldr	r3, [r3, #0]
   808ea:	4313      	orrs	r3, r2
   808ec:	4a2f      	ldr	r2, [pc, #188]	; (809ac <usart_init_spi_master+0x108>)
   808ee:	6013      	str	r3, [r2, #0]

	/* Set SPI master mode and channel mode. */
	ul_reg_val |= US_MR_USART_MODE_SPI_MASTER | US_MR_CLKO |
			p_usart_opt->channel_mode;
   808f0:	68bb      	ldr	r3, [r7, #8]
   808f2:	68da      	ldr	r2, [r3, #12]
	ul_reg_val |= US_MR_USART_MODE_SPI_MASTER | US_MR_CLKO |
   808f4:	4b2d      	ldr	r3, [pc, #180]	; (809ac <usart_init_spi_master+0x108>)
   808f6:	681b      	ldr	r3, [r3, #0]
   808f8:	4313      	orrs	r3, r2
   808fa:	f443 2380 	orr.w	r3, r3, #262144	; 0x40000
   808fe:	f043 030e 	orr.w	r3, r3, #14
   80902:	4a2a      	ldr	r2, [pc, #168]	; (809ac <usart_init_spi_master+0x108>)
   80904:	6013      	str	r3, [r2, #0]

	switch (p_usart_opt->spi_mode) {
   80906:	68bb      	ldr	r3, [r7, #8]
   80908:	689b      	ldr	r3, [r3, #8]
   8090a:	2b03      	cmp	r3, #3
   8090c:	d83e      	bhi.n	8098c <usart_init_spi_master+0xe8>
   8090e:	a201      	add	r2, pc, #4	; (adr r2, 80914 <usart_init_spi_master+0x70>)
   80910:	f852 f023 	ldr.w	pc, [r2, r3, lsl #2]
   80914:	00080925 	.word	0x00080925
   80918:	0008093f 	.word	0x0008093f
   8091c:	00080959 	.word	0x00080959
   80920:	00080973 	.word	0x00080973
	case SPI_MODE_0:
		ul_reg_val |= US_MR_CPHA;
   80924:	4b21      	ldr	r3, [pc, #132]	; (809ac <usart_init_spi_master+0x108>)
   80926:	681b      	ldr	r3, [r3, #0]
   80928:	f443 7380 	orr.w	r3, r3, #256	; 0x100
   8092c:	4a1f      	ldr	r2, [pc, #124]	; (809ac <usart_init_spi_master+0x108>)
   8092e:	6013      	str	r3, [r2, #0]
		ul_reg_val &= ~US_MR_CPOL;
   80930:	4b1e      	ldr	r3, [pc, #120]	; (809ac <usart_init_spi_master+0x108>)
   80932:	681b      	ldr	r3, [r3, #0]
   80934:	f423 3380 	bic.w	r3, r3, #65536	; 0x10000
   80938:	4a1c      	ldr	r2, [pc, #112]	; (809ac <usart_init_spi_master+0x108>)
   8093a:	6013      	str	r3, [r2, #0]
		break;
   8093c:	e027      	b.n	8098e <usart_init_spi_master+0xea>

	case SPI_MODE_1:
		ul_reg_val &= ~US_MR_CPHA;
   8093e:	4b1b      	ldr	r3, [pc, #108]	; (809ac <usart_init_spi_master+0x108>)
   80940:	681b      	ldr	r3, [r3, #0]
   80942:	f423 7380 	bic.w	r3, r3, #256	; 0x100
   80946:	4a19      	ldr	r2, [pc, #100]	; (809ac <usart_init_spi_master+0x108>)
   80948:	6013      	str	r3, [r2, #0]
		ul_reg_val &= ~US_MR_CPOL;
   8094a:	4b18      	ldr	r3, [pc, #96]	; (809ac <usart_init_spi_master+0x108>)
   8094c:	681b      	ldr	r3, [r3, #0]
   8094e:	f423 3380 	bic.w	r3, r3, #65536	; 0x10000
   80952:	4a16      	ldr	r2, [pc, #88]	; (809ac <usart_init_spi_master+0x108>)
   80954:	6013      	str	r3, [r2, #0]
		break;
   80956:	e01a      	b.n	8098e <usart_init_spi_master+0xea>

	case SPI_MODE_2:
		ul_reg_val |= US_MR_CPHA;
   80958:	4b14      	ldr	r3, [pc, #80]	; (809ac <usart_init_spi_master+0x108>)
   8095a:	681b      	ldr	r3, [r3, #0]
   8095c:	f443 7380 	orr.w	r3, r3, #256	; 0x100
   80960:	4a12      	ldr	r2, [pc, #72]	; (809ac <usart_init_spi_master+0x108>)
   80962:	6013      	str	r3, [r2, #0]
		ul_reg_val |= US_MR_CPOL;
   80964:	4b11      	ldr	r3, [pc, #68]	; (809ac <usart_init_spi_master+0x108>)
   80966:	681b      	ldr	r3, [r3, #0]
   80968:	f443 3380 	orr.w	r3, r3, #65536	; 0x10000
   8096c:	4a0f      	ldr	r2, [pc, #60]	; (809ac <usart_init_spi_master+0x108>)
   8096e:	6013      	str	r3, [r2, #0]
		break;
   80970:	e00d      	b.n	8098e <usart_init_spi_master+0xea>

	case SPI_MODE_3:
		ul_reg_val &= ~US_MR_CPHA;
   80972:	4b0e      	ldr	r3, [pc, #56]	; (809ac <usart_init_spi_master+0x108>)
   80974:	681b      	ldr	r3, [r3, #0]
   80976:	f423 7380 	bic.w	r3, r3, #256	; 0x100
   8097a:	4a0c      	ldr	r2, [pc, #48]	; (809ac <usart_init_spi_master+0x108>)
   8097c:	6013      	str	r3, [r2, #0]
		ul_reg_val |= US_MR_CPOL;
   8097e:	4b0b      	ldr	r3, [pc, #44]	; (809ac <usart_init_spi_master+0x108>)
   80980:	681b      	ldr	r3, [r3, #0]
   80982:	f443 3380 	orr.w	r3, r3, #65536	; 0x10000
   80986:	4a09      	ldr	r2, [pc, #36]	; (809ac <usart_init_spi_master+0x108>)
   80988:	6013      	str	r3, [r2, #0]
		break;
   8098a:	e000      	b.n	8098e <usart_init_spi_master+0xea>

	default:
		break;
   8098c:	bf00      	nop
	}

	p_usart->US_MR |= ul_reg_val;
   8098e:	68fb      	ldr	r3, [r7, #12]
   80990:	685a      	ldr	r2, [r3, #4]
   80992:	4b06      	ldr	r3, [pc, #24]	; (809ac <usart_init_spi_master+0x108>)
   80994:	681b      	ldr	r3, [r3, #0]
   80996:	431a      	orrs	r2, r3
   80998:	68fb      	ldr	r3, [r7, #12]
   8099a:	605a      	str	r2, [r3, #4]

	return 0;
   8099c:	2300      	movs	r3, #0
}
   8099e:	4618      	mov	r0, r3
   809a0:	3710      	adds	r7, #16
   809a2:	46bd      	mov	sp, r7
   809a4:	bd80      	pop	{r7, pc}
   809a6:	bf00      	nop
   809a8:	00080851 	.word	0x00080851
   809ac:	20070b6c 	.word	0x20070b6c
   809b0:	00080811 	.word	0x00080811

000809b4 <usart_enable_tx>:
 * \brief Enable USART transmitter.
 *
 * \param p_usart Pointer to a USART instance.
 */
void usart_enable_tx(Usart *p_usart)
{
   809b4:	b480      	push	{r7}
   809b6:	b083      	sub	sp, #12
   809b8:	af00      	add	r7, sp, #0
   809ba:	6078      	str	r0, [r7, #4]
	p_usart->US_CR = US_CR_TXEN;
   809bc:	687b      	ldr	r3, [r7, #4]
   809be:	2240      	movs	r2, #64	; 0x40
   809c0:	601a      	str	r2, [r3, #0]
}
   809c2:	bf00      	nop
   809c4:	370c      	adds	r7, #12
   809c6:	46bd      	mov	sp, r7
   809c8:	bc80      	pop	{r7}
   809ca:	4770      	bx	lr

000809cc <usart_disable_tx>:
 * \brief Disable USART transmitter.
 *
 * \param p_usart Pointer to a USART instance.
 */
void usart_disable_tx(Usart *p_usart)
{
   809cc:	b480      	push	{r7}
   809ce:	b083      	sub	sp, #12
   809d0:	af00      	add	r7, sp, #0
   809d2:	6078      	str	r0, [r7, #4]
	p_usart->US_CR = US_CR_TXDIS;
   809d4:	687b      	ldr	r3, [r7, #4]
   809d6:	2280      	movs	r2, #128	; 0x80
   809d8:	601a      	str	r2, [r3, #0]
}
   809da:	bf00      	nop
   809dc:	370c      	adds	r7, #12
   809de:	46bd      	mov	sp, r7
   809e0:	bc80      	pop	{r7}
   809e2:	4770      	bx	lr

000809e4 <usart_reset_tx>:
 * \brief Immediately stop and disable USART transmitter.
 *
 * \param p_usart Pointer to a USART instance.
 */
void usart_reset_tx(Usart *p_usart)
{
   809e4:	b480      	push	{r7}
   809e6:	b083      	sub	sp, #12
   809e8:	af00      	add	r7, sp, #0
   809ea:	6078      	str	r0, [r7, #4]
	/* Reset transmitter */
	p_usart->US_CR = US_CR_RSTTX | US_CR_TXDIS;
   809ec:	687b      	ldr	r3, [r7, #4]
   809ee:	2288      	movs	r2, #136	; 0x88
   809f0:	601a      	str	r2, [r3, #0]
}
   809f2:	bf00      	nop
   809f4:	370c      	adds	r7, #12
   809f6:	46bd      	mov	sp, r7
   809f8:	bc80      	pop	{r7}
   809fa:	4770      	bx	lr

000809fc <usart_enable_rx>:
 * \brief Enable USART receiver.
 *
 * \param p_usart Pointer to a USART instance.
 */
void usart_enable_rx(Usart *p_usart)
{
   809fc:	b480      	push	{r7}
   809fe:	b083      	sub	sp, #12
   80a00:	af00      	add	r7, sp, #0
   80a02:	6078      	str	r0, [r7, #4]
	p_usart->US_CR = US_CR_RXEN;
   80a04:	687b      	ldr	r3, [r7, #4]
   80a06:	2210      	movs	r2, #16
   80a08:	601a      	str	r2, [r3, #0]
}
   80a0a:	bf00      	nop
   80a0c:	370c      	adds	r7, #12
   80a0e:	46bd      	mov	sp, r7
   80a10:	bc80      	pop	{r7}
   80a12:	4770      	bx	lr

00080a14 <usart_disable_rx>:
 * \brief Disable USART receiver.
 *
 * \param p_usart Pointer to a USART instance.
 */
void usart_disable_rx(Usart *p_usart)
{
   80a14:	b480      	push	{r7}
   80a16:	b083      	sub	sp, #12
   80a18:	af00      	add	r7, sp, #0
   80a1a:	6078      	str	r0, [r7, #4]
	p_usart->US_CR = US_CR_RXDIS;
   80a1c:	687b      	ldr	r3, [r7, #4]
   80a1e:	2220      	movs	r2, #32
   80a20:	601a      	str	r2, [r3, #0]
}
   80a22:	bf00      	nop
   80a24:	370c      	adds	r7, #12
   80a26:	46bd      	mov	sp, r7
   80a28:	bc80      	pop	{r7}
   80a2a:	4770      	bx	lr

00080a2c <usart_reset_rx>:
 * \brief Immediately stop and disable USART receiver.
 *
 * \param p_usart Pointer to a USART instance.
 */
void usart_reset_rx(Usart *p_usart)
{
   80a2c:	b480      	push	{r7}
   80a2e:	b083      	sub	sp, #12
   80a30:	af00      	add	r7, sp, #0
   80a32:	6078      	str	r0, [r7, #4]
	/* Reset Receiver */
	p_usart->US_CR = US_CR_RSTRX | US_CR_RXDIS;
   80a34:	687b      	ldr	r3, [r7, #4]
   80a36:	2224      	movs	r2, #36	; 0x24
   80a38:	601a      	str	r2, [r3, #0]
}
   80a3a:	bf00      	nop
   80a3c:	370c      	adds	r7, #12
   80a3e:	46bd      	mov	sp, r7
   80a40:	bc80      	pop	{r7}
   80a42:	4770      	bx	lr

00080a44 <usart_reset_status>:
 * \brief Reset status bits (PARE, OVER, MANERR, UNRE and PXBRK in US_CSR).
 *
 * \param p_usart Pointer to a USART instance.
 */
void usart_reset_status(Usart *p_usart)
{
   80a44:	b480      	push	{r7}
   80a46:	b083      	sub	sp, #12
   80a48:	af00      	add	r7, sp, #0
   80a4a:	6078      	str	r0, [r7, #4]
	p_usart->US_CR = US_CR_RSTSTA;
   80a4c:	687b      	ldr	r3, [r7, #4]
   80a4e:	f44f 7280 	mov.w	r2, #256	; 0x100
   80a52:	601a      	str	r2, [r3, #0]
}
   80a54:	bf00      	nop
   80a56:	370c      	adds	r7, #12
   80a58:	46bd      	mov	sp, r7
   80a5a:	bc80      	pop	{r7}
   80a5c:	4770      	bx	lr

00080a5e <usart_drive_RTS_pin_high>:
 * \brief Drive the pin RTS to 1.
 *
 * \param p_usart Pointer to a USART instance.
 */
void usart_drive_RTS_pin_high(Usart *p_usart)
{
   80a5e:	b480      	push	{r7}
   80a60:	b083      	sub	sp, #12
   80a62:	af00      	add	r7, sp, #0
   80a64:	6078      	str	r0, [r7, #4]
	p_usart->US_CR = US_CR_RTSDIS;
   80a66:	687b      	ldr	r3, [r7, #4]
   80a68:	f44f 2200 	mov.w	r2, #524288	; 0x80000
   80a6c:	601a      	str	r2, [r3, #0]
}
   80a6e:	bf00      	nop
   80a70:	370c      	adds	r7, #12
   80a72:	46bd      	mov	sp, r7
   80a74:	bc80      	pop	{r7}
   80a76:	4770      	bx	lr

00080a78 <usart_spi_force_chip_select>:
 * \brief Drive the slave select line NSS (RTS pin) to 0 in SPI master mode.
 *
 * \param p_usart Pointer to a USART instance.
 */
void usart_spi_force_chip_select(Usart *p_usart)
{
   80a78:	b480      	push	{r7}
   80a7a:	b083      	sub	sp, #12
   80a7c:	af00      	add	r7, sp, #0
   80a7e:	6078      	str	r0, [r7, #4]
	p_usart->US_CR = US_CR_FCS;
   80a80:	687b      	ldr	r3, [r7, #4]
   80a82:	f44f 2280 	mov.w	r2, #262144	; 0x40000
   80a86:	601a      	str	r2, [r3, #0]
}
   80a88:	bf00      	nop
   80a8a:	370c      	adds	r7, #12
   80a8c:	46bd      	mov	sp, r7
   80a8e:	bc80      	pop	{r7}
   80a90:	4770      	bx	lr

00080a92 <usart_spi_release_chip_select>:
 * \brief Drive the slave select line NSS (RTS pin) to 1 in SPI master mode.
 *
 * \param p_usart Pointer to a USART instance.
 */
void usart_spi_release_chip_select(Usart *p_usart)
{
   80a92:	b480      	push	{r7}
   80a94:	b083      	sub	sp, #12
   80a96:	af00      	add	r7, sp, #0
   80a98:	6078      	str	r0, [r7, #4]
	p_usart->US_CR = US_CR_RCS;
   80a9a:	687b      	ldr	r3, [r7, #4]
   80a9c:	f44f 2200 	mov.w	r2, #524288	; 0x80000
   80aa0:	601a      	str	r2, [r3, #0]
}
   80aa2:	bf00      	nop
   80aa4:	370c      	adds	r7, #12
   80aa6:	46bd      	mov	sp, r7
   80aa8:	bc80      	pop	{r7}
   80aaa:	4770      	bx	lr

00080aac <usart_disable_writeprotect>:
 * \brief Disable write protect of USART registers.
 *
 * \param p_usart Pointer to a USART instance.
 */
void usart_disable_writeprotect(Usart *p_usart)
{
   80aac:	b480      	push	{r7}
   80aae:	b083      	sub	sp, #12
   80ab0:	af00      	add	r7, sp, #0
   80ab2:	6078      	str	r0, [r7, #4]
	p_usart->US_WPMR = US_WPMR_WPKEY_PASSWD;
   80ab4:	687b      	ldr	r3, [r7, #4]
   80ab6:	4a04      	ldr	r2, [pc, #16]	; (80ac8 <usart_disable_writeprotect+0x1c>)
   80ab8:	f8c3 20e4 	str.w	r2, [r3, #228]	; 0xe4
}
   80abc:	bf00      	nop
   80abe:	370c      	adds	r7, #12
   80ac0:	46bd      	mov	sp, r7
   80ac2:	bc80      	pop	{r7}
   80ac4:	4770      	bx	lr
   80ac6:	bf00      	nop
   80ac8:	55534100 	.word	0x55534100

00080acc <NVIC_EnableIRQ>:
    The function enables a device-specific interrupt in the NVIC interrupt controller.

    \param [in]      IRQn  External interrupt number. Value cannot be negative.
 */
__STATIC_INLINE void NVIC_EnableIRQ(IRQn_Type IRQn)
{
   80acc:	b480      	push	{r7}
   80ace:	b083      	sub	sp, #12
   80ad0:	af00      	add	r7, sp, #0
   80ad2:	4603      	mov	r3, r0
   80ad4:	71fb      	strb	r3, [r7, #7]
  NVIC->ISER[((uint32_t)(IRQn) >> 5)] = (1 << ((uint32_t)(IRQn) & 0x1F)); /* enable interrupt */
   80ad6:	4908      	ldr	r1, [pc, #32]	; (80af8 <NVIC_EnableIRQ+0x2c>)
   80ad8:	f997 3007 	ldrsb.w	r3, [r7, #7]
   80adc:	095b      	lsrs	r3, r3, #5
   80ade:	79fa      	ldrb	r2, [r7, #7]
   80ae0:	f002 021f 	and.w	r2, r2, #31
   80ae4:	2001      	movs	r0, #1
   80ae6:	fa00 f202 	lsl.w	r2, r0, r2
   80aea:	f841 2023 	str.w	r2, [r1, r3, lsl #2]
}
   80aee:	bf00      	nop
   80af0:	370c      	adds	r7, #12
   80af2:	46bd      	mov	sp, r7
   80af4:	bc80      	pop	{r7}
   80af6:	4770      	bx	lr
   80af8:	e000e100 	.word	0xe000e100

00080afc <osc_get_rate>:

	return 0;
}

static inline uint32_t osc_get_rate(uint32_t ul_id)
{
   80afc:	b480      	push	{r7}
   80afe:	b083      	sub	sp, #12
   80b00:	af00      	add	r7, sp, #0
   80b02:	6078      	str	r0, [r7, #4]
	switch (ul_id) {
   80b04:	687b      	ldr	r3, [r7, #4]
   80b06:	2b07      	cmp	r3, #7
   80b08:	d825      	bhi.n	80b56 <osc_get_rate+0x5a>
   80b0a:	a201      	add	r2, pc, #4	; (adr r2, 80b10 <osc_get_rate+0x14>)
   80b0c:	f852 f023 	ldr.w	pc, [r2, r3, lsl #2]
   80b10:	00080b31 	.word	0x00080b31
   80b14:	00080b37 	.word	0x00080b37
   80b18:	00080b3d 	.word	0x00080b3d
   80b1c:	00080b43 	.word	0x00080b43
   80b20:	00080b47 	.word	0x00080b47
   80b24:	00080b4b 	.word	0x00080b4b
   80b28:	00080b4f 	.word	0x00080b4f
   80b2c:	00080b53 	.word	0x00080b53
	case OSC_SLCK_32K_RC:
		return OSC_SLCK_32K_RC_HZ;
   80b30:	f44f 43fa 	mov.w	r3, #32000	; 0x7d00
   80b34:	e010      	b.n	80b58 <osc_get_rate+0x5c>

	case OSC_SLCK_32K_XTAL:
		return BOARD_FREQ_SLCK_XTAL;
   80b36:	f44f 4300 	mov.w	r3, #32768	; 0x8000
   80b3a:	e00d      	b.n	80b58 <osc_get_rate+0x5c>

	case OSC_SLCK_32K_BYPASS:
		return BOARD_FREQ_SLCK_BYPASS;
   80b3c:	f44f 4300 	mov.w	r3, #32768	; 0x8000
   80b40:	e00a      	b.n	80b58 <osc_get_rate+0x5c>

	case OSC_MAINCK_4M_RC:
		return OSC_MAINCK_4M_RC_HZ;
   80b42:	4b08      	ldr	r3, [pc, #32]	; (80b64 <osc_get_rate+0x68>)
   80b44:	e008      	b.n	80b58 <osc_get_rate+0x5c>

	case OSC_MAINCK_8M_RC:
		return OSC_MAINCK_8M_RC_HZ;
   80b46:	4b08      	ldr	r3, [pc, #32]	; (80b68 <osc_get_rate+0x6c>)
   80b48:	e006      	b.n	80b58 <osc_get_rate+0x5c>

	case OSC_MAINCK_12M_RC:
		return OSC_MAINCK_12M_RC_HZ;
   80b4a:	4b08      	ldr	r3, [pc, #32]	; (80b6c <osc_get_rate+0x70>)
   80b4c:	e004      	b.n	80b58 <osc_get_rate+0x5c>

	case OSC_MAINCK_XTAL:
		return BOARD_FREQ_MAINCK_XTAL;
   80b4e:	4b07      	ldr	r3, [pc, #28]	; (80b6c <osc_get_rate+0x70>)
   80b50:	e002      	b.n	80b58 <osc_get_rate+0x5c>

	case OSC_MAINCK_BYPASS:
		return BOARD_FREQ_MAINCK_BYPASS;
   80b52:	4b06      	ldr	r3, [pc, #24]	; (80b6c <osc_get_rate+0x70>)
   80b54:	e000      	b.n	80b58 <osc_get_rate+0x5c>
	}

	return 0;
   80b56:	2300      	movs	r3, #0
}
   80b58:	4618      	mov	r0, r3
   80b5a:	370c      	adds	r7, #12
   80b5c:	46bd      	mov	sp, r7
   80b5e:	bc80      	pop	{r7}
   80b60:	4770      	bx	lr
   80b62:	bf00      	nop
   80b64:	003d0900 	.word	0x003d0900
   80b68:	007a1200 	.word	0x007a1200
   80b6c:	00b71b00 	.word	0x00b71b00

00080b70 <sysclk_get_main_hz>:
 */
#if (defined CONFIG_SYSCLK_DEFAULT_RETURNS_SLOW_OSC)
extern uint32_t sysclk_initialized;
#endif
static inline uint32_t sysclk_get_main_hz(void)
{
   80b70:	b580      	push	{r7, lr}
   80b72:	af00      	add	r7, sp, #0
	} else if (CONFIG_SYSCLK_SOURCE == SYSCLK_SRC_MAINCK_BYPASS) {
		return OSC_MAINCK_BYPASS_HZ;
	}
#ifdef CONFIG_PLL0_SOURCE
	else if (CONFIG_SYSCLK_SOURCE == SYSCLK_SRC_PLLACK) {
		return pll_get_default_rate(0);
   80b74:	2006      	movs	r0, #6
   80b76:	4b04      	ldr	r3, [pc, #16]	; (80b88 <sysclk_get_main_hz+0x18>)
   80b78:	4798      	blx	r3
   80b7a:	4602      	mov	r2, r0
   80b7c:	4613      	mov	r3, r2
   80b7e:	00db      	lsls	r3, r3, #3
   80b80:	1a9b      	subs	r3, r3, r2
   80b82:	005b      	lsls	r3, r3, #1
#endif
	else {
		/* unhandled_case(CONFIG_SYSCLK_SOURCE); */
		return 0;
	}
}
   80b84:	4618      	mov	r0, r3
   80b86:	bd80      	pop	{r7, pc}
   80b88:	00080afd 	.word	0x00080afd

00080b8c <sysclk_get_peripheral_hz>:
 * \brief Retrieves the current rate in Hz of the peripheral clocks.
 *
 * \return Frequency of the peripheral clocks, in Hz.
 */
static inline uint32_t sysclk_get_peripheral_hz(void)
{
   80b8c:	b580      	push	{r7, lr}
   80b8e:	af00      	add	r7, sp, #0
	/* CONFIG_SYSCLK_PRES is the register value for setting the expected */
	/* prescaler, not an immediate value. */
	return sysclk_get_main_hz() /
   80b90:	4b02      	ldr	r3, [pc, #8]	; (80b9c <sysclk_get_peripheral_hz+0x10>)
   80b92:	4798      	blx	r3
   80b94:	4603      	mov	r3, r0
   80b96:	085b      	lsrs	r3, r3, #1
		((CONFIG_SYSCLK_PRES == SYSCLK_PRES_3) ? 3 :
			(1 << (CONFIG_SYSCLK_PRES >> PMC_MCKR_PRES_Pos)));
}
   80b98:	4618      	mov	r0, r3
   80b9a:	bd80      	pop	{r7, pc}
   80b9c:	00080b71 	.word	0x00080b71

00080ba0 <spi_reset>:
 * \brief Reset SPI and set it to Slave mode.
 *
 * \param p_spi Pointer to an SPI instance.
 */
static inline void spi_reset(Spi *p_spi)
{
   80ba0:	b480      	push	{r7}
   80ba2:	b083      	sub	sp, #12
   80ba4:	af00      	add	r7, sp, #0
   80ba6:	6078      	str	r0, [r7, #4]
	p_spi->SPI_CR = SPI_CR_SWRST;
   80ba8:	687b      	ldr	r3, [r7, #4]
   80baa:	2280      	movs	r2, #128	; 0x80
   80bac:	601a      	str	r2, [r3, #0]
}
   80bae:	bf00      	nop
   80bb0:	370c      	adds	r7, #12
   80bb2:	46bd      	mov	sp, r7
   80bb4:	bc80      	pop	{r7}
   80bb6:	4770      	bx	lr

00080bb8 <spi_enable>:
 * \brief Enable SPI.
 *
 * \param p_spi Pointer to an SPI instance.
 */
static inline void spi_enable(Spi *p_spi)
{
   80bb8:	b480      	push	{r7}
   80bba:	b083      	sub	sp, #12
   80bbc:	af00      	add	r7, sp, #0
   80bbe:	6078      	str	r0, [r7, #4]
	p_spi->SPI_CR = SPI_CR_SPIEN;
   80bc0:	687b      	ldr	r3, [r7, #4]
   80bc2:	2201      	movs	r2, #1
   80bc4:	601a      	str	r2, [r3, #0]
}
   80bc6:	bf00      	nop
   80bc8:	370c      	adds	r7, #12
   80bca:	46bd      	mov	sp, r7
   80bcc:	bc80      	pop	{r7}
   80bce:	4770      	bx	lr

00080bd0 <spi_disable>:
 * should check TX_EMPTY before disabling SPI.
 *
 * \param p_spi Pointer to an SPI instance.
 */
static inline void spi_disable(Spi *p_spi)
{
   80bd0:	b480      	push	{r7}
   80bd2:	b083      	sub	sp, #12
   80bd4:	af00      	add	r7, sp, #0
   80bd6:	6078      	str	r0, [r7, #4]
	p_spi->SPI_CR = SPI_CR_SPIDIS;
   80bd8:	687b      	ldr	r3, [r7, #4]
   80bda:	2202      	movs	r2, #2
   80bdc:	601a      	str	r2, [r3, #0]
}
   80bde:	bf00      	nop
   80be0:	370c      	adds	r7, #12
   80be2:	46bd      	mov	sp, r7
   80be4:	bc80      	pop	{r7}
   80be6:	4770      	bx	lr

00080be8 <spi_set_slave_mode>:
 * \brief Set SPI to Slave mode.
 *
 * \param p_spi Pointer to an SPI instance.
 */
static inline void spi_set_slave_mode(Spi *p_spi)
{
   80be8:	b480      	push	{r7}
   80bea:	b083      	sub	sp, #12
   80bec:	af00      	add	r7, sp, #0
   80bee:	6078      	str	r0, [r7, #4]
	p_spi->SPI_MR &= (~SPI_MR_MSTR);
   80bf0:	687b      	ldr	r3, [r7, #4]
   80bf2:	685b      	ldr	r3, [r3, #4]
   80bf4:	f023 0201 	bic.w	r2, r3, #1
   80bf8:	687b      	ldr	r3, [r7, #4]
   80bfa:	605a      	str	r2, [r3, #4]
}
   80bfc:	bf00      	nop
   80bfe:	370c      	adds	r7, #12
   80c00:	46bd      	mov	sp, r7
   80c02:	bc80      	pop	{r7}
   80c04:	4770      	bx	lr

00080c06 <spi_disable_mode_fault_detect>:
 * \brief Disable Mode Fault Detection.
 *
 * \param p_spi Pointer to an SPI instance.
 */
static inline void spi_disable_mode_fault_detect(Spi *p_spi)
{
   80c06:	b480      	push	{r7}
   80c08:	b083      	sub	sp, #12
   80c0a:	af00      	add	r7, sp, #0
   80c0c:	6078      	str	r0, [r7, #4]
	p_spi->SPI_MR |= SPI_MR_MODFDIS;
   80c0e:	687b      	ldr	r3, [r7, #4]
   80c10:	685b      	ldr	r3, [r3, #4]
   80c12:	f043 0210 	orr.w	r2, r3, #16
   80c16:	687b      	ldr	r3, [r7, #4]
   80c18:	605a      	str	r2, [r3, #4]
}
   80c1a:	bf00      	nop
   80c1c:	370c      	adds	r7, #12
   80c1e:	46bd      	mov	sp, r7
   80c20:	bc80      	pop	{r7}
   80c22:	4770      	bx	lr

00080c24 <spi_init>:
uint8_t rpi_buf[sizeof(rtm)];

static Bool b_trigger = false;

void spi_init(void)
{
   80c24:	b580      	push	{r7, lr}
   80c26:	af00      	add	r7, sp, #0
    configure_dmac();
   80c28:	4b03      	ldr	r3, [pc, #12]	; (80c38 <spi_init+0x14>)
   80c2a:	4798      	blx	r3
    spi_master_initialize();
   80c2c:	4b03      	ldr	r3, [pc, #12]	; (80c3c <spi_init+0x18>)
   80c2e:	4798      	blx	r3
    spi_slave_initialize();
   80c30:	4b03      	ldr	r3, [pc, #12]	; (80c40 <spi_init+0x1c>)
   80c32:	4798      	blx	r3
}
   80c34:	bf00      	nop
   80c36:	bd80      	pop	{r7, pc}
   80c38:	00080e99 	.word	0x00080e99
   80c3c:	00080c45 	.word	0x00080c45
   80c40:	00080cb5 	.word	0x00080cb5

00080c44 <spi_master_initialize>:

void spi_master_initialize(void)
{
   80c44:	b590      	push	{r4, r7, lr}
   80c46:	b085      	sub	sp, #20
   80c48:	af00      	add	r7, sp, #0
    dmac_channel_disable(DMAC, 1);
   80c4a:	2101      	movs	r1, #1
   80c4c:	4810      	ldr	r0, [pc, #64]	; (80c90 <spi_master_initialize+0x4c>)
   80c4e:	4b11      	ldr	r3, [pc, #68]	; (80c94 <spi_master_initialize+0x50>)
   80c50:	4798      	blx	r3
    dmac_channel_disable(DMAC, 0);
   80c52:	2100      	movs	r1, #0
   80c54:	480e      	ldr	r0, [pc, #56]	; (80c90 <spi_master_initialize+0x4c>)
   80c56:	4b0f      	ldr	r3, [pc, #60]	; (80c94 <spi_master_initialize+0x50>)
   80c58:	4798      	blx	r3
    pmc_enable_periph_clk(ID_USART1);
   80c5a:	2012      	movs	r0, #18
   80c5c:	4b0e      	ldr	r3, [pc, #56]	; (80c98 <spi_master_initialize+0x54>)
   80c5e:	4798      	blx	r3
    usart_spi_disable(USART1);
   80c60:	480e      	ldr	r0, [pc, #56]	; (80c9c <spi_master_initialize+0x58>)
   80c62:	4b0f      	ldr	r3, [pc, #60]	; (80ca0 <spi_master_initialize+0x5c>)
   80c64:	4798      	blx	r3

    usart_spi_opt_t spi_settings =
   80c66:	4b0f      	ldr	r3, [pc, #60]	; (80ca4 <spi_master_initialize+0x60>)
   80c68:	463c      	mov	r4, r7
   80c6a:	cb0f      	ldmia	r3, {r0, r1, r2, r3}
   80c6c:	e884 000f 	stmia.w	r4, {r0, r1, r2, r3}
        .baudrate = 1000000,
        .char_length = US_MR_CHRL_8_BIT,
        .spi_mode = SPI_MODE_0,
        .channel_mode = US_MR_CHMODE_NORMAL
    };
    usart_init_spi_master(USART1, &spi_settings, sysclk_get_peripheral_hz());
   80c70:	4b0d      	ldr	r3, [pc, #52]	; (80ca8 <spi_master_initialize+0x64>)
   80c72:	4798      	blx	r3
   80c74:	4602      	mov	r2, r0
   80c76:	463b      	mov	r3, r7
   80c78:	4619      	mov	r1, r3
   80c7a:	4808      	ldr	r0, [pc, #32]	; (80c9c <spi_master_initialize+0x58>)
   80c7c:	4b0b      	ldr	r3, [pc, #44]	; (80cac <spi_master_initialize+0x68>)
   80c7e:	4798      	blx	r3
    usart_spi_enable(USART1);
   80c80:	4806      	ldr	r0, [pc, #24]	; (80c9c <spi_master_initialize+0x58>)
   80c82:	4b0b      	ldr	r3, [pc, #44]	; (80cb0 <spi_master_initialize+0x6c>)
   80c84:	4798      	blx	r3
}
   80c86:	bf00      	nop
   80c88:	3714      	adds	r7, #20
   80c8a:	46bd      	mov	sp, r7
   80c8c:	bd90      	pop	{r4, r7, pc}
   80c8e:	bf00      	nop
   80c90:	400c4000 	.word	0x400c4000
   80c94:	00083883 	.word	0x00083883
   80c98:	00083c41 	.word	0x00083c41
   80c9c:	4009c000 	.word	0x4009c000
   80ca0:	00080185 	.word	0x00080185
   80ca4:	00089910 	.word	0x00089910
   80ca8:	00080b8d 	.word	0x00080b8d
   80cac:	000808a5 	.word	0x000808a5
   80cb0:	00080161 	.word	0x00080161

00080cb4 <spi_slave_initialize>:

void spi_slave_initialize(void)
{
   80cb4:	b580      	push	{r7, lr}
   80cb6:	af00      	add	r7, sp, #0
    dmac_channel_disable(DMAC, 4);
   80cb8:	2104      	movs	r1, #4
   80cba:	4819      	ldr	r0, [pc, #100]	; (80d20 <spi_slave_initialize+0x6c>)
   80cbc:	4b19      	ldr	r3, [pc, #100]	; (80d24 <spi_slave_initialize+0x70>)
   80cbe:	4798      	blx	r3
    dmac_channel_disable(DMAC, 2);
   80cc0:	2102      	movs	r1, #2
   80cc2:	4817      	ldr	r0, [pc, #92]	; (80d20 <spi_slave_initialize+0x6c>)
   80cc4:	4b17      	ldr	r3, [pc, #92]	; (80d24 <spi_slave_initialize+0x70>)
   80cc6:	4798      	blx	r3
    pmc_enable_periph_clk(ID_SPI0);
   80cc8:	2018      	movs	r0, #24
   80cca:	4b17      	ldr	r3, [pc, #92]	; (80d28 <spi_slave_initialize+0x74>)
   80ccc:	4798      	blx	r3
    spi_disable(SPI0);
   80cce:	4817      	ldr	r0, [pc, #92]	; (80d2c <spi_slave_initialize+0x78>)
   80cd0:	4b17      	ldr	r3, [pc, #92]	; (80d30 <spi_slave_initialize+0x7c>)
   80cd2:	4798      	blx	r3
    spi_reset(SPI0);
   80cd4:	4815      	ldr	r0, [pc, #84]	; (80d2c <spi_slave_initialize+0x78>)
   80cd6:	4b17      	ldr	r3, [pc, #92]	; (80d34 <spi_slave_initialize+0x80>)
   80cd8:	4798      	blx	r3
    spi_set_slave_mode(SPI0);
   80cda:	4814      	ldr	r0, [pc, #80]	; (80d2c <spi_slave_initialize+0x78>)
   80cdc:	4b16      	ldr	r3, [pc, #88]	; (80d38 <spi_slave_initialize+0x84>)
   80cde:	4798      	blx	r3
    spi_disable_mode_fault_detect(SPI0);
   80ce0:	4812      	ldr	r0, [pc, #72]	; (80d2c <spi_slave_initialize+0x78>)
   80ce2:	4b16      	ldr	r3, [pc, #88]	; (80d3c <spi_slave_initialize+0x88>)
   80ce4:	4798      	blx	r3
    spi_set_peripheral_chip_select_value(SPI0, spi_get_pcs(0));
   80ce6:	210e      	movs	r1, #14
   80ce8:	4810      	ldr	r0, [pc, #64]	; (80d2c <spi_slave_initialize+0x78>)
   80cea:	4b15      	ldr	r3, [pc, #84]	; (80d40 <spi_slave_initialize+0x8c>)
   80cec:	4798      	blx	r3
    spi_set_clock_polarity(SPI0, 0, 0);
   80cee:	2200      	movs	r2, #0
   80cf0:	2100      	movs	r1, #0
   80cf2:	480e      	ldr	r0, [pc, #56]	; (80d2c <spi_slave_initialize+0x78>)
   80cf4:	4b13      	ldr	r3, [pc, #76]	; (80d44 <spi_slave_initialize+0x90>)
   80cf6:	4798      	blx	r3
    spi_set_clock_phase(SPI0, 0, 1);
   80cf8:	2201      	movs	r2, #1
   80cfa:	2100      	movs	r1, #0
   80cfc:	480b      	ldr	r0, [pc, #44]	; (80d2c <spi_slave_initialize+0x78>)
   80cfe:	4b12      	ldr	r3, [pc, #72]	; (80d48 <spi_slave_initialize+0x94>)
   80d00:	4798      	blx	r3
    spi_set_bits_per_transfer(SPI0, 0, SPI_CSR_BITS_8_BIT);
   80d02:	2200      	movs	r2, #0
   80d04:	2100      	movs	r1, #0
   80d06:	4809      	ldr	r0, [pc, #36]	; (80d2c <spi_slave_initialize+0x78>)
   80d08:	4b10      	ldr	r3, [pc, #64]	; (80d4c <spi_slave_initialize+0x98>)
   80d0a:	4798      	blx	r3
    spi_enable(SPI0);
   80d0c:	4807      	ldr	r0, [pc, #28]	; (80d2c <spi_slave_initialize+0x78>)
   80d0e:	4b10      	ldr	r3, [pc, #64]	; (80d50 <spi_slave_initialize+0x9c>)
   80d10:	4798      	blx	r3

    /* Start waiting command. */
    memcpy(&rpi_buf, &mtr, sizeof(mtr));
    spi_slave_transfer(&rpi_buf, sizeof(rpi_buf));
   80d12:	2100      	movs	r1, #0
   80d14:	480f      	ldr	r0, [pc, #60]	; (80d54 <spi_slave_initialize+0xa0>)
   80d16:	4b10      	ldr	r3, [pc, #64]	; (80d58 <spi_slave_initialize+0xa4>)
   80d18:	4798      	blx	r3
}
   80d1a:	bf00      	nop
   80d1c:	bd80      	pop	{r7, pc}
   80d1e:	bf00      	nop
   80d20:	400c4000 	.word	0x400c4000
   80d24:	00083883 	.word	0x00083883
   80d28:	00083c41 	.word	0x00083c41
   80d2c:	40008000 	.word	0x40008000
   80d30:	00080bd1 	.word	0x00080bd1
   80d34:	00080ba1 	.word	0x00080ba1
   80d38:	00080be9 	.word	0x00080be9
   80d3c:	00080c07 	.word	0x00080c07
   80d40:	00080637 	.word	0x00080637
   80d44:	00080669 	.word	0x00080669
   80d48:	000806b7 	.word	0x000806b7
   80d4c:	00080705 	.word	0x00080705
   80d50:	00080bb9 	.word	0x00080bb9
   80d54:	20070e10 	.word	0x20070e10
   80d58:	00080e01 	.word	0x00080e01

00080d5c <spi_master_transfer>:

void spi_master_transfer(void *p_buf, uint32_t ul_size)
{
   80d5c:	b580      	push	{r7, lr}
   80d5e:	b088      	sub	sp, #32
   80d60:	af00      	add	r7, sp, #0
   80d62:	6078      	str	r0, [r7, #4]
   80d64:	6039      	str	r1, [r7, #0]
    dma_transfer_descriptor_t dmac_trans;

    usart_spi_force_chip_select(USART1);
   80d66:	481c      	ldr	r0, [pc, #112]	; (80dd8 <spi_master_transfer+0x7c>)
   80d68:	4b1c      	ldr	r3, [pc, #112]	; (80ddc <spi_master_transfer+0x80>)
   80d6a:	4798      	blx	r3

    dmac_channel_disable(DMAC, 1);
   80d6c:	2101      	movs	r1, #1
   80d6e:	481c      	ldr	r0, [pc, #112]	; (80de0 <spi_master_transfer+0x84>)
   80d70:	4b1c      	ldr	r3, [pc, #112]	; (80de4 <spi_master_transfer+0x88>)
   80d72:	4798      	blx	r3
    dmac_trans.ul_source_addr = (uint32_t) p_buf;
   80d74:	687b      	ldr	r3, [r7, #4]
   80d76:	60fb      	str	r3, [r7, #12]
    dmac_trans.ul_destination_addr = (uint32_t) & USART1->US_THR;
   80d78:	4b1b      	ldr	r3, [pc, #108]	; (80de8 <spi_master_transfer+0x8c>)
   80d7a:	613b      	str	r3, [r7, #16]
    dmac_trans.ul_ctrlA = ul_size | DMAC_CTRLA_SRC_WIDTH_BYTE | DMAC_CTRLA_DST_WIDTH_BYTE;
   80d7c:	683b      	ldr	r3, [r7, #0]
   80d7e:	617b      	str	r3, [r7, #20]
    dmac_trans.ul_ctrlB = DMAC_CTRLB_SRC_DSCR | DMAC_CTRLB_DST_DSCR | DMAC_CTRLB_FC_MEM2PER_DMA_FC | DMAC_CTRLB_SRC_INCR_INCREMENTING | DMAC_CTRLB_DST_INCR_FIXED;
   80d80:	4b1a      	ldr	r3, [pc, #104]	; (80dec <spi_master_transfer+0x90>)
   80d82:	61bb      	str	r3, [r7, #24]
    dmac_trans.ul_descriptor_addr = 0;
   80d84:	2300      	movs	r3, #0
   80d86:	61fb      	str	r3, [r7, #28]
    dmac_channel_single_buf_transfer_init(DMAC, 1, &dmac_trans);
   80d88:	f107 030c 	add.w	r3, r7, #12
   80d8c:	461a      	mov	r2, r3
   80d8e:	2101      	movs	r1, #1
   80d90:	4813      	ldr	r0, [pc, #76]	; (80de0 <spi_master_transfer+0x84>)
   80d92:	4b17      	ldr	r3, [pc, #92]	; (80df0 <spi_master_transfer+0x94>)
   80d94:	4798      	blx	r3
    dmac_channel_enable(DMAC, 1);
   80d96:	2101      	movs	r1, #1
   80d98:	4811      	ldr	r0, [pc, #68]	; (80de0 <spi_master_transfer+0x84>)
   80d9a:	4b16      	ldr	r3, [pc, #88]	; (80df4 <spi_master_transfer+0x98>)
   80d9c:	4798      	blx	r3

    dmac_channel_disable(DMAC, 0);
   80d9e:	2100      	movs	r1, #0
   80da0:	480f      	ldr	r0, [pc, #60]	; (80de0 <spi_master_transfer+0x84>)
   80da2:	4b10      	ldr	r3, [pc, #64]	; (80de4 <spi_master_transfer+0x88>)
   80da4:	4798      	blx	r3
    dmac_trans.ul_source_addr = (uint32_t) & USART1->US_RHR;
   80da6:	4b14      	ldr	r3, [pc, #80]	; (80df8 <spi_master_transfer+0x9c>)
   80da8:	60fb      	str	r3, [r7, #12]
    dmac_trans.ul_destination_addr = (uint32_t) p_buf;
   80daa:	687b      	ldr	r3, [r7, #4]
   80dac:	613b      	str	r3, [r7, #16]
    dmac_trans.ul_ctrlA = ul_size | DMAC_CTRLA_SRC_WIDTH_BYTE | DMAC_CTRLA_DST_WIDTH_BYTE;
   80dae:	683b      	ldr	r3, [r7, #0]
   80db0:	617b      	str	r3, [r7, #20]
    dmac_trans.ul_ctrlB = DMAC_CTRLB_SRC_DSCR | DMAC_CTRLB_DST_DSCR | DMAC_CTRLB_FC_PER2MEM_DMA_FC | DMAC_CTRLB_SRC_INCR_FIXED | DMAC_CTRLB_DST_INCR_INCREMENTING;
   80db2:	4b12      	ldr	r3, [pc, #72]	; (80dfc <spi_master_transfer+0xa0>)
   80db4:	61bb      	str	r3, [r7, #24]
    dmac_trans.ul_descriptor_addr = 0;
   80db6:	2300      	movs	r3, #0
   80db8:	61fb      	str	r3, [r7, #28]
    dmac_channel_single_buf_transfer_init(DMAC, 0, (dma_transfer_descriptor_t *) & dmac_trans);
   80dba:	f107 030c 	add.w	r3, r7, #12
   80dbe:	461a      	mov	r2, r3
   80dc0:	2100      	movs	r1, #0
   80dc2:	4807      	ldr	r0, [pc, #28]	; (80de0 <spi_master_transfer+0x84>)
   80dc4:	4b0a      	ldr	r3, [pc, #40]	; (80df0 <spi_master_transfer+0x94>)
   80dc6:	4798      	blx	r3
    dmac_channel_enable(DMAC, 0);
   80dc8:	2100      	movs	r1, #0
   80dca:	4805      	ldr	r0, [pc, #20]	; (80de0 <spi_master_transfer+0x84>)
   80dcc:	4b09      	ldr	r3, [pc, #36]	; (80df4 <spi_master_transfer+0x98>)
   80dce:	4798      	blx	r3
}
   80dd0:	bf00      	nop
   80dd2:	3720      	adds	r7, #32
   80dd4:	46bd      	mov	sp, r7
   80dd6:	bd80      	pop	{r7, pc}
   80dd8:	4009c000 	.word	0x4009c000
   80ddc:	00080a79 	.word	0x00080a79
   80de0:	400c4000 	.word	0x400c4000
   80de4:	00083883 	.word	0x00083883
   80de8:	4009c01c 	.word	0x4009c01c
   80dec:	20310000 	.word	0x20310000
   80df0:	0008399d 	.word	0x0008399d
   80df4:	00083865 	.word	0x00083865
   80df8:	4009c018 	.word	0x4009c018
   80dfc:	02510000 	.word	0x02510000

00080e00 <spi_slave_transfer>:

void spi_slave_transfer(void *p_buf, uint32_t ul_size)
{
   80e00:	b580      	push	{r7, lr}
   80e02:	b088      	sub	sp, #32
   80e04:	af00      	add	r7, sp, #0
   80e06:	6078      	str	r0, [r7, #4]
   80e08:	6039      	str	r1, [r7, #0]
    dma_transfer_descriptor_t dmac_trans;

    dmac_channel_disable(DMAC, 4);
   80e0a:	2104      	movs	r1, #4
   80e0c:	481a      	ldr	r0, [pc, #104]	; (80e78 <spi_slave_transfer+0x78>)
   80e0e:	4b1b      	ldr	r3, [pc, #108]	; (80e7c <spi_slave_transfer+0x7c>)
   80e10:	4798      	blx	r3
    dmac_trans.ul_source_addr = (uint32_t) p_buf;
   80e12:	687b      	ldr	r3, [r7, #4]
   80e14:	60fb      	str	r3, [r7, #12]
    dmac_trans.ul_destination_addr = (uint32_t) & SPI0->SPI_TDR;
   80e16:	4b1a      	ldr	r3, [pc, #104]	; (80e80 <spi_slave_transfer+0x80>)
   80e18:	613b      	str	r3, [r7, #16]
    dmac_trans.ul_ctrlA = ul_size | DMAC_CTRLA_SRC_WIDTH_BYTE | DMAC_CTRLA_DST_WIDTH_BYTE;
   80e1a:	683b      	ldr	r3, [r7, #0]
   80e1c:	617b      	str	r3, [r7, #20]
    dmac_trans.ul_ctrlB = DMAC_CTRLB_SRC_DSCR | DMAC_CTRLB_DST_DSCR | DMAC_CTRLB_FC_MEM2PER_DMA_FC | DMAC_CTRLB_SRC_INCR_INCREMENTING | DMAC_CTRLB_DST_INCR_FIXED;
   80e1e:	4b19      	ldr	r3, [pc, #100]	; (80e84 <spi_slave_transfer+0x84>)
   80e20:	61bb      	str	r3, [r7, #24]
    dmac_trans.ul_descriptor_addr = 0;
   80e22:	2300      	movs	r3, #0
   80e24:	61fb      	str	r3, [r7, #28]
    dmac_channel_single_buf_transfer_init(DMAC, 4, &dmac_trans);
   80e26:	f107 030c 	add.w	r3, r7, #12
   80e2a:	461a      	mov	r2, r3
   80e2c:	2104      	movs	r1, #4
   80e2e:	4812      	ldr	r0, [pc, #72]	; (80e78 <spi_slave_transfer+0x78>)
   80e30:	4b15      	ldr	r3, [pc, #84]	; (80e88 <spi_slave_transfer+0x88>)
   80e32:	4798      	blx	r3
    dmac_channel_enable(DMAC, 4);
   80e34:	2104      	movs	r1, #4
   80e36:	4810      	ldr	r0, [pc, #64]	; (80e78 <spi_slave_transfer+0x78>)
   80e38:	4b14      	ldr	r3, [pc, #80]	; (80e8c <spi_slave_transfer+0x8c>)
   80e3a:	4798      	blx	r3

    dmac_channel_disable(DMAC, 2);
   80e3c:	2102      	movs	r1, #2
   80e3e:	480e      	ldr	r0, [pc, #56]	; (80e78 <spi_slave_transfer+0x78>)
   80e40:	4b0e      	ldr	r3, [pc, #56]	; (80e7c <spi_slave_transfer+0x7c>)
   80e42:	4798      	blx	r3
    dmac_trans.ul_source_addr = (uint32_t) & SPI0->SPI_RDR;
   80e44:	4b12      	ldr	r3, [pc, #72]	; (80e90 <spi_slave_transfer+0x90>)
   80e46:	60fb      	str	r3, [r7, #12]
    dmac_trans.ul_destination_addr = (uint32_t) p_buf;
   80e48:	687b      	ldr	r3, [r7, #4]
   80e4a:	613b      	str	r3, [r7, #16]
    dmac_trans.ul_ctrlA = ul_size | DMAC_CTRLA_SRC_WIDTH_BYTE | DMAC_CTRLA_DST_WIDTH_BYTE;
   80e4c:	683b      	ldr	r3, [r7, #0]
   80e4e:	617b      	str	r3, [r7, #20]
    dmac_trans.ul_ctrlB = DMAC_CTRLB_SRC_DSCR | DMAC_CTRLB_DST_DSCR | DMAC_CTRLB_FC_PER2MEM_DMA_FC | DMAC_CTRLB_SRC_INCR_FIXED | DMAC_CTRLB_DST_INCR_INCREMENTING;
   80e50:	4b10      	ldr	r3, [pc, #64]	; (80e94 <spi_slave_transfer+0x94>)
   80e52:	61bb      	str	r3, [r7, #24]
    dmac_trans.ul_descriptor_addr = 0;
   80e54:	2300      	movs	r3, #0
   80e56:	61fb      	str	r3, [r7, #28]
    dmac_channel_single_buf_transfer_init(DMAC, 2, (dma_transfer_descriptor_t *) & dmac_trans);
   80e58:	f107 030c 	add.w	r3, r7, #12
   80e5c:	461a      	mov	r2, r3
   80e5e:	2102      	movs	r1, #2
   80e60:	4805      	ldr	r0, [pc, #20]	; (80e78 <spi_slave_transfer+0x78>)
   80e62:	4b09      	ldr	r3, [pc, #36]	; (80e88 <spi_slave_transfer+0x88>)
   80e64:	4798      	blx	r3
    dmac_channel_enable(DMAC, 2);
   80e66:	2102      	movs	r1, #2
   80e68:	4803      	ldr	r0, [pc, #12]	; (80e78 <spi_slave_transfer+0x78>)
   80e6a:	4b08      	ldr	r3, [pc, #32]	; (80e8c <spi_slave_transfer+0x8c>)
   80e6c:	4798      	blx	r3
}
   80e6e:	bf00      	nop
   80e70:	3720      	adds	r7, #32
   80e72:	46bd      	mov	sp, r7
   80e74:	bd80      	pop	{r7, pc}
   80e76:	bf00      	nop
   80e78:	400c4000 	.word	0x400c4000
   80e7c:	00083883 	.word	0x00083883
   80e80:	4000800c 	.word	0x4000800c
   80e84:	20310000 	.word	0x20310000
   80e88:	0008399d 	.word	0x0008399d
   80e8c:	00083865 	.word	0x00083865
   80e90:	40008008 	.word	0x40008008
   80e94:	02510000 	.word	0x02510000

00080e98 <configure_dmac>:

void configure_dmac(void)
{
   80e98:	b580      	push	{r7, lr}
   80e9a:	b082      	sub	sp, #8
   80e9c:	af00      	add	r7, sp, #0
    uint32_t ul_cfg;

    /* Initialize and enable DMA controller. */
    pmc_enable_periph_clk(ID_DMAC);
   80e9e:	2027      	movs	r0, #39	; 0x27
   80ea0:	4b27      	ldr	r3, [pc, #156]	; (80f40 <configure_dmac+0xa8>)
   80ea2:	4798      	blx	r3
    dmac_init(DMAC);
   80ea4:	4827      	ldr	r0, [pc, #156]	; (80f44 <configure_dmac+0xac>)
   80ea6:	4b28      	ldr	r3, [pc, #160]	; (80f48 <configure_dmac+0xb0>)
   80ea8:	4798      	blx	r3
    dmac_set_priority_mode(DMAC, DMAC_PRIORITY_ROUND_ROBIN);
   80eaa:	2110      	movs	r1, #16
   80eac:	4825      	ldr	r0, [pc, #148]	; (80f44 <configure_dmac+0xac>)
   80eae:	4b27      	ldr	r3, [pc, #156]	; (80f4c <configure_dmac+0xb4>)
   80eb0:	4798      	blx	r3
    dmac_enable(DMAC);
   80eb2:	4824      	ldr	r0, [pc, #144]	; (80f44 <configure_dmac+0xac>)
   80eb4:	4b26      	ldr	r3, [pc, #152]	; (80f50 <configure_dmac+0xb8>)
   80eb6:	4798      	blx	r3

    /* Configure DMA RX channel. */
    ul_cfg = 0;
   80eb8:	2300      	movs	r3, #0
   80eba:	607b      	str	r3, [r7, #4]
    ul_cfg |= DMAC_CFG_SRC_PER(14) | DMAC_CFG_SRC_H2SEL | DMAC_CFG_SOD | DMAC_CFG_FIFOCFG_ALAP_CFG;
   80ebc:	687b      	ldr	r3, [r7, #4]
   80ebe:	f443 3381 	orr.w	r3, r3, #66048	; 0x10200
   80ec2:	f043 030e 	orr.w	r3, r3, #14
   80ec6:	607b      	str	r3, [r7, #4]
    dmac_channel_set_configuration(DMAC, 0, ul_cfg);
   80ec8:	687a      	ldr	r2, [r7, #4]
   80eca:	2100      	movs	r1, #0
   80ecc:	481d      	ldr	r0, [pc, #116]	; (80f44 <configure_dmac+0xac>)
   80ece:	4b21      	ldr	r3, [pc, #132]	; (80f54 <configure_dmac+0xbc>)
   80ed0:	4798      	blx	r3

    /* Configure DMA TX channel. */
    ul_cfg = 0;
   80ed2:	2300      	movs	r3, #0
   80ed4:	607b      	str	r3, [r7, #4]
    ul_cfg |= DMAC_CFG_DST_PER(13) | DMAC_CFG_DST_H2SEL | DMAC_CFG_SOD | DMAC_CFG_FIFOCFG_ALAP_CFG;
   80ed6:	687b      	ldr	r3, [r7, #4]
   80ed8:	f443 3390 	orr.w	r3, r3, #73728	; 0x12000
   80edc:	f043 03d0 	orr.w	r3, r3, #208	; 0xd0
   80ee0:	607b      	str	r3, [r7, #4]
    dmac_channel_set_configuration(DMAC, 1, ul_cfg);
   80ee2:	687a      	ldr	r2, [r7, #4]
   80ee4:	2101      	movs	r1, #1
   80ee6:	4817      	ldr	r0, [pc, #92]	; (80f44 <configure_dmac+0xac>)
   80ee8:	4b1a      	ldr	r3, [pc, #104]	; (80f54 <configure_dmac+0xbc>)
   80eea:	4798      	blx	r3

    /* Configure DMA RX channel. */
    ul_cfg = 0;
   80eec:	2300      	movs	r3, #0
   80eee:	607b      	str	r3, [r7, #4]
    ul_cfg |= DMAC_CFG_SRC_PER(2) | DMAC_CFG_SRC_H2SEL | DMAC_CFG_SOD | DMAC_CFG_FIFOCFG_ALAP_CFG;
   80ef0:	687b      	ldr	r3, [r7, #4]
   80ef2:	f443 3381 	orr.w	r3, r3, #66048	; 0x10200
   80ef6:	f043 0302 	orr.w	r3, r3, #2
   80efa:	607b      	str	r3, [r7, #4]
    dmac_channel_set_configuration(DMAC, 2, ul_cfg);
   80efc:	687a      	ldr	r2, [r7, #4]
   80efe:	2102      	movs	r1, #2
   80f00:	4810      	ldr	r0, [pc, #64]	; (80f44 <configure_dmac+0xac>)
   80f02:	4b14      	ldr	r3, [pc, #80]	; (80f54 <configure_dmac+0xbc>)
   80f04:	4798      	blx	r3

    /* Configure DMA TX channel. */
    ul_cfg = 0;
   80f06:	2300      	movs	r3, #0
   80f08:	607b      	str	r3, [r7, #4]
    ul_cfg |= DMAC_CFG_DST_PER(1) | DMAC_CFG_DST_H2SEL | DMAC_CFG_SOD | DMAC_CFG_FIFOCFG_ALAP_CFG;
   80f0a:	687b      	ldr	r3, [r7, #4]
   80f0c:	f443 3390 	orr.w	r3, r3, #73728	; 0x12000
   80f10:	f043 0310 	orr.w	r3, r3, #16
   80f14:	607b      	str	r3, [r7, #4]
    dmac_channel_set_configuration(DMAC, 4, ul_cfg);
   80f16:	687a      	ldr	r2, [r7, #4]
   80f18:	2104      	movs	r1, #4
   80f1a:	480a      	ldr	r0, [pc, #40]	; (80f44 <configure_dmac+0xac>)
   80f1c:	4b0d      	ldr	r3, [pc, #52]	; (80f54 <configure_dmac+0xbc>)
   80f1e:	4798      	blx	r3

    /* Enable receive channel interrupt for DMAC. */
    NVIC_EnableIRQ(DMAC_IRQn);
   80f20:	2027      	movs	r0, #39	; 0x27
   80f22:	4b0d      	ldr	r3, [pc, #52]	; (80f58 <configure_dmac+0xc0>)
   80f24:	4798      	blx	r3
    dmac_enable_interrupt(DMAC, (1 << 0));
   80f26:	2101      	movs	r1, #1
   80f28:	4806      	ldr	r0, [pc, #24]	; (80f44 <configure_dmac+0xac>)
   80f2a:	4b0c      	ldr	r3, [pc, #48]	; (80f5c <configure_dmac+0xc4>)
   80f2c:	4798      	blx	r3
    dmac_enable_interrupt(DMAC, (1 << 2));
   80f2e:	2104      	movs	r1, #4
   80f30:	4804      	ldr	r0, [pc, #16]	; (80f44 <configure_dmac+0xac>)
   80f32:	4b0a      	ldr	r3, [pc, #40]	; (80f5c <configure_dmac+0xc4>)
   80f34:	4798      	blx	r3
}
   80f36:	bf00      	nop
   80f38:	3708      	adds	r7, #8
   80f3a:	46bd      	mov	sp, r7
   80f3c:	bd80      	pop	{r7, pc}
   80f3e:	bf00      	nop
   80f40:	00083c41 	.word	0x00083c41
   80f44:	400c4000 	.word	0x400c4000
   80f48:	000837bd 	.word	0x000837bd
   80f4c:	000837d9 	.word	0x000837d9
   80f50:	000837ff 	.word	0x000837ff
   80f54:	00083973 	.word	0x00083973
   80f58:	00080acd 	.word	0x00080acd
   80f5c:	00083835 	.word	0x00083835

00080f60 <DMAC_Handler>:

void DMAC_Handler(void)
{
   80f60:	b580      	push	{r7, lr}
   80f62:	af00      	add	r7, sp, #0
    static uint32_t ul_status;

    ul_status = dmac_get_status(DMAC);
   80f64:	480f      	ldr	r0, [pc, #60]	; (80fa4 <DMAC_Handler+0x44>)
   80f66:	4b10      	ldr	r3, [pc, #64]	; (80fa8 <DMAC_Handler+0x48>)
   80f68:	4798      	blx	r3
   80f6a:	4602      	mov	r2, r0
   80f6c:	4b0f      	ldr	r3, [pc, #60]	; (80fac <DMAC_Handler+0x4c>)
   80f6e:	601a      	str	r2, [r3, #0]
    
    if (ul_status & (1 << 0))
   80f70:	4b0e      	ldr	r3, [pc, #56]	; (80fac <DMAC_Handler+0x4c>)
   80f72:	681b      	ldr	r3, [r3, #0]
   80f74:	f003 0301 	and.w	r3, r3, #1
   80f78:	2b00      	cmp	r3, #0
   80f7a:	d008      	beq.n	80f8e <DMAC_Handler+0x2e>
    {
        usart_spi_release_chip_select(USART1);
   80f7c:	480c      	ldr	r0, [pc, #48]	; (80fb0 <DMAC_Handler+0x50>)
   80f7e:	4b0d      	ldr	r3, [pc, #52]	; (80fb4 <DMAC_Handler+0x54>)
   80f80:	4798      	blx	r3
        memcpy(&stm, &sens_buf, sizeof(stm));
   80f82:	4b0d      	ldr	r3, [pc, #52]	; (80fb8 <DMAC_Handler+0x58>)
   80f84:	4a0d      	ldr	r2, [pc, #52]	; (80fbc <DMAC_Handler+0x5c>)
   80f86:	8811      	ldrh	r1, [r2, #0]
   80f88:	7892      	ldrb	r2, [r2, #2]
   80f8a:	8019      	strh	r1, [r3, #0]
   80f8c:	709a      	strb	r2, [r3, #2]
    }
    
    if (ul_status & (1 << 2))
   80f8e:	4b07      	ldr	r3, [pc, #28]	; (80fac <DMAC_Handler+0x4c>)
   80f90:	681b      	ldr	r3, [r3, #0]
   80f92:	f003 0304 	and.w	r3, r3, #4
   80f96:	2b00      	cmp	r3, #0
   80f98:	d002      	beq.n	80fa0 <DMAC_Handler+0x40>
    {
        memcpy(&rtm, &rpi_buf, sizeof(rtm));
        b_trigger = true;
   80f9a:	4b09      	ldr	r3, [pc, #36]	; (80fc0 <DMAC_Handler+0x60>)
   80f9c:	2201      	movs	r2, #1
   80f9e:	701a      	strb	r2, [r3, #0]
    }
}
   80fa0:	bf00      	nop
   80fa2:	bd80      	pop	{r7, pc}
   80fa4:	400c4000 	.word	0x400c4000
   80fa8:	0008384f 	.word	0x0008384f
   80fac:	20070b74 	.word	0x20070b74
   80fb0:	4009c000 	.word	0x4009c000
   80fb4:	00080a93 	.word	0x00080a93
   80fb8:	20070e14 	.word	0x20070e14
   80fbc:	20070e0c 	.word	0x20070e0c
   80fc0:	20070b70 	.word	0x20070b70

00080fc4 <NVIC_EnableIRQ>:
{
   80fc4:	b480      	push	{r7}
   80fc6:	b083      	sub	sp, #12
   80fc8:	af00      	add	r7, sp, #0
   80fca:	4603      	mov	r3, r0
   80fcc:	71fb      	strb	r3, [r7, #7]
  NVIC->ISER[((uint32_t)(IRQn) >> 5)] = (1 << ((uint32_t)(IRQn) & 0x1F)); /* enable interrupt */
   80fce:	4908      	ldr	r1, [pc, #32]	; (80ff0 <NVIC_EnableIRQ+0x2c>)
   80fd0:	f997 3007 	ldrsb.w	r3, [r7, #7]
   80fd4:	095b      	lsrs	r3, r3, #5
   80fd6:	79fa      	ldrb	r2, [r7, #7]
   80fd8:	f002 021f 	and.w	r2, r2, #31
   80fdc:	2001      	movs	r0, #1
   80fde:	fa00 f202 	lsl.w	r2, r0, r2
   80fe2:	f841 2023 	str.w	r2, [r1, r3, lsl #2]
}
   80fe6:	bf00      	nop
   80fe8:	370c      	adds	r7, #12
   80fea:	46bd      	mov	sp, r7
   80fec:	bc80      	pop	{r7}
   80fee:	4770      	bx	lr
   80ff0:	e000e100 	.word	0xe000e100

00080ff4 <NVIC_ClearPendingIRQ>:
    The function clears the pending bit of an external interrupt.

    \param [in]      IRQn  External interrupt number. Value cannot be negative.
 */
__STATIC_INLINE void NVIC_ClearPendingIRQ(IRQn_Type IRQn)
{
   80ff4:	b480      	push	{r7}
   80ff6:	b083      	sub	sp, #12
   80ff8:	af00      	add	r7, sp, #0
   80ffa:	4603      	mov	r3, r0
   80ffc:	71fb      	strb	r3, [r7, #7]
  NVIC->ICPR[((uint32_t)(IRQn) >> 5)] = (1 << ((uint32_t)(IRQn) & 0x1F)); /* Clear pending interrupt */
   80ffe:	4909      	ldr	r1, [pc, #36]	; (81024 <NVIC_ClearPendingIRQ+0x30>)
   81000:	f997 3007 	ldrsb.w	r3, [r7, #7]
   81004:	095b      	lsrs	r3, r3, #5
   81006:	79fa      	ldrb	r2, [r7, #7]
   81008:	f002 021f 	and.w	r2, r2, #31
   8100c:	2001      	movs	r0, #1
   8100e:	fa00 f202 	lsl.w	r2, r0, r2
   81012:	3360      	adds	r3, #96	; 0x60
   81014:	f841 2023 	str.w	r2, [r1, r3, lsl #2]
}
   81018:	bf00      	nop
   8101a:	370c      	adds	r7, #12
   8101c:	46bd      	mov	sp, r7
   8101e:	bc80      	pop	{r7}
   81020:	4770      	bx	lr
   81022:	bf00      	nop
   81024:	e000e100 	.word	0xe000e100

00081028 <twi_enable_master_mode>:
 * \brief Enable TWI master mode.
 *
 * \param p_twi Pointer to a TWI instance.
 */
void twi_enable_master_mode(Twi *p_twi)
{
   81028:	b480      	push	{r7}
   8102a:	b083      	sub	sp, #12
   8102c:	af00      	add	r7, sp, #0
   8102e:	6078      	str	r0, [r7, #4]
	/* Set Master Disable bit and Slave Disable bit */
	p_twi->TWI_CR = TWI_CR_MSDIS;
   81030:	687b      	ldr	r3, [r7, #4]
   81032:	2208      	movs	r2, #8
   81034:	601a      	str	r2, [r3, #0]
	p_twi->TWI_CR = TWI_CR_SVDIS;
   81036:	687b      	ldr	r3, [r7, #4]
   81038:	2220      	movs	r2, #32
   8103a:	601a      	str	r2, [r3, #0]

	/* Set Master Enable bit */
	p_twi->TWI_CR = TWI_CR_MSEN;
   8103c:	687b      	ldr	r3, [r7, #4]
   8103e:	2204      	movs	r2, #4
   81040:	601a      	str	r2, [r3, #0]
}
   81042:	bf00      	nop
   81044:	370c      	adds	r7, #12
   81046:	46bd      	mov	sp, r7
   81048:	bc80      	pop	{r7}
   8104a:	4770      	bx	lr

0008104c <twi_master_init>:
 * \param p_opt Options for initializing the TWI module (see \ref twi_options_t).
 *
 * \return TWI_SUCCESS if initialization is complete, error code otherwise.
 */
uint32_t twi_master_init(Twi *p_twi, const twi_options_t *p_opt)
{
   8104c:	b580      	push	{r7, lr}
   8104e:	b084      	sub	sp, #16
   81050:	af00      	add	r7, sp, #0
   81052:	6078      	str	r0, [r7, #4]
   81054:	6039      	str	r1, [r7, #0]
	uint32_t status = TWI_SUCCESS;
   81056:	2300      	movs	r3, #0
   81058:	60fb      	str	r3, [r7, #12]

	/* Disable TWI interrupts */
	p_twi->TWI_IDR = ~0UL;
   8105a:	687b      	ldr	r3, [r7, #4]
   8105c:	f04f 32ff 	mov.w	r2, #4294967295
   81060:	629a      	str	r2, [r3, #40]	; 0x28

	/* Dummy read in status register */
	p_twi->TWI_SR;
   81062:	687b      	ldr	r3, [r7, #4]
   81064:	6a1b      	ldr	r3, [r3, #32]

	twi_disable_interrupt(p_twi, MASK_ALL_INTERRUPTS);
   81066:	f04f 31ff 	mov.w	r1, #4294967295
   8106a:	6878      	ldr	r0, [r7, #4]
   8106c:	4b14      	ldr	r3, [pc, #80]	; (810c0 <twi_master_init+0x74>)
   8106e:	4798      	blx	r3

	/* Reset TWI peripheral */
	twi_reset(p_twi);
   81070:	6878      	ldr	r0, [r7, #4]
   81072:	4b14      	ldr	r3, [pc, #80]	; (810c4 <twi_master_init+0x78>)
   81074:	4798      	blx	r3

	twi_enable_master_mode(p_twi);
   81076:	6878      	ldr	r0, [r7, #4]
   81078:	4b13      	ldr	r3, [pc, #76]	; (810c8 <twi_master_init+0x7c>)
   8107a:	4798      	blx	r3

	/* Select the speed */
	if (twi_set_speed(p_twi, p_opt->speed, p_opt->master_clk) == FAIL) {
   8107c:	683b      	ldr	r3, [r7, #0]
   8107e:	6859      	ldr	r1, [r3, #4]
   81080:	683b      	ldr	r3, [r7, #0]
   81082:	681b      	ldr	r3, [r3, #0]
   81084:	461a      	mov	r2, r3
   81086:	6878      	ldr	r0, [r7, #4]
   81088:	4b10      	ldr	r3, [pc, #64]	; (810cc <twi_master_init+0x80>)
   8108a:	4798      	blx	r3
   8108c:	4603      	mov	r3, r0
   8108e:	2b01      	cmp	r3, #1
   81090:	d101      	bne.n	81096 <twi_master_init+0x4a>
		/* The desired speed setting is rejected */
		status = TWI_INVALID_ARGUMENT;
   81092:	2301      	movs	r3, #1
   81094:	60fb      	str	r3, [r7, #12]
	}

	if (p_opt->smbus == 1) {
   81096:	683b      	ldr	r3, [r7, #0]
   81098:	7a5b      	ldrb	r3, [r3, #9]
   8109a:	2b01      	cmp	r3, #1
   8109c:	d102      	bne.n	810a4 <twi_master_init+0x58>
		p_twi->TWI_CR = TWI_CR_QUICK;
   8109e:	687b      	ldr	r3, [r7, #4]
   810a0:	2240      	movs	r2, #64	; 0x40
   810a2:	601a      	str	r2, [r3, #0]
	}
    
    /* Error interrupts are always enabled. */
    twi_enable_interrupt(p_twi, IER_ERROR_INTERRUPTS);
   810a4:	f44f 7150 	mov.w	r1, #832	; 0x340
   810a8:	6878      	ldr	r0, [r7, #4]
   810aa:	4b09      	ldr	r3, [pc, #36]	; (810d0 <twi_master_init+0x84>)
   810ac:	4798      	blx	r3

    twiBusy = false;
   810ae:	4b09      	ldr	r3, [pc, #36]	; (810d4 <twi_master_init+0x88>)
   810b0:	2200      	movs	r2, #0
   810b2:	701a      	strb	r2, [r3, #0]
    
	return status;
   810b4:	68fb      	ldr	r3, [r7, #12]
}
   810b6:	4618      	mov	r0, r3
   810b8:	3710      	adds	r7, #16
   810ba:	46bd      	mov	sp, r7
   810bc:	bd80      	pop	{r7, pc}
   810be:	bf00      	nop
   810c0:	0008161f 	.word	0x0008161f
   810c4:	00081681 	.word	0x00081681
   810c8:	00081029 	.word	0x00081029
   810cc:	000810d9 	.word	0x000810d9
   810d0:	00081605 	.word	0x00081605
   810d4:	20070d98 	.word	0x20070d98

000810d8 <twi_set_speed>:
 *
 * \retval PASS New speed setting is accepted.
 * \retval FAIL New speed setting is rejected.
 */
uint32_t twi_set_speed(Twi *p_twi, uint32_t ul_speed, uint32_t ul_mck)
{
   810d8:	b480      	push	{r7}
   810da:	b089      	sub	sp, #36	; 0x24
   810dc:	af00      	add	r7, sp, #0
   810de:	60f8      	str	r0, [r7, #12]
   810e0:	60b9      	str	r1, [r7, #8]
   810e2:	607a      	str	r2, [r7, #4]
	uint32_t ckdiv = 0;
   810e4:	2300      	movs	r3, #0
   810e6:	61fb      	str	r3, [r7, #28]
	uint32_t c_lh_div;
	uint32_t cldiv, chdiv;

	if (ul_speed > I2C_FAST_MODE_SPEED) {
   810e8:	68bb      	ldr	r3, [r7, #8]
   810ea:	4a34      	ldr	r2, [pc, #208]	; (811bc <twi_set_speed+0xe4>)
   810ec:	4293      	cmp	r3, r2
   810ee:	d901      	bls.n	810f4 <twi_set_speed+0x1c>
		return FAIL;
   810f0:	2301      	movs	r3, #1
   810f2:	e05d      	b.n	811b0 <twi_set_speed+0xd8>
	}

	/* Low level time not less than 1.3us of I2C Fast Mode. */
	if (ul_speed > LOW_LEVEL_TIME_LIMIT) {
   810f4:	68bb      	ldr	r3, [r7, #8]
   810f6:	4a32      	ldr	r2, [pc, #200]	; (811c0 <twi_set_speed+0xe8>)
   810f8:	4293      	cmp	r3, r2
   810fa:	d937      	bls.n	8116c <twi_set_speed+0x94>
		/* Low level of time fixed for 1.3us. */
		cldiv = ul_mck / (LOW_LEVEL_TIME_LIMIT * TWI_CLK_DIVIDER) - TWI_CLK_CALC_ARGU;
   810fc:	687b      	ldr	r3, [r7, #4]
   810fe:	4a31      	ldr	r2, [pc, #196]	; (811c4 <twi_set_speed+0xec>)
   81100:	fba2 2303 	umull	r2, r3, r2, r3
   81104:	0b9b      	lsrs	r3, r3, #14
   81106:	3b04      	subs	r3, #4
   81108:	617b      	str	r3, [r7, #20]
		chdiv = ul_mck / ((ul_speed + (ul_speed - LOW_LEVEL_TIME_LIMIT)) * TWI_CLK_DIVIDER) - TWI_CLK_CALC_ARGU;
   8110a:	68ba      	ldr	r2, [r7, #8]
   8110c:	4b2e      	ldr	r3, [pc, #184]	; (811c8 <twi_set_speed+0xf0>)
   8110e:	4413      	add	r3, r2
   81110:	009b      	lsls	r3, r3, #2
   81112:	687a      	ldr	r2, [r7, #4]
   81114:	fbb2 f3f3 	udiv	r3, r2, r3
   81118:	3b04      	subs	r3, #4
   8111a:	613b      	str	r3, [r7, #16]
		
		/* cldiv must fit in 8 bits, ckdiv must fit in 3 bits */
		while ((cldiv > TWI_CLK_DIV_MAX) && (ckdiv < TWI_CLK_DIV_MIN)) {
   8111c:	e005      	b.n	8112a <twi_set_speed+0x52>
			/* Increase clock divider */
			ckdiv++;
   8111e:	69fb      	ldr	r3, [r7, #28]
   81120:	3301      	adds	r3, #1
   81122:	61fb      	str	r3, [r7, #28]
			/* Divide cldiv value */
			cldiv /= TWI_CLK_DIVIDER;
   81124:	697b      	ldr	r3, [r7, #20]
   81126:	085b      	lsrs	r3, r3, #1
   81128:	617b      	str	r3, [r7, #20]
		while ((cldiv > TWI_CLK_DIV_MAX) && (ckdiv < TWI_CLK_DIV_MIN)) {
   8112a:	697b      	ldr	r3, [r7, #20]
   8112c:	2bff      	cmp	r3, #255	; 0xff
   8112e:	d909      	bls.n	81144 <twi_set_speed+0x6c>
   81130:	69fb      	ldr	r3, [r7, #28]
   81132:	2b06      	cmp	r3, #6
   81134:	d9f3      	bls.n	8111e <twi_set_speed+0x46>
		}
		/* chdiv must fit in 8 bits, ckdiv must fit in 3 bits */
		while ((chdiv > TWI_CLK_DIV_MAX) && (ckdiv < TWI_CLK_DIV_MIN)) {
   81136:	e005      	b.n	81144 <twi_set_speed+0x6c>
			/* Increase clock divider */
			ckdiv++;
   81138:	69fb      	ldr	r3, [r7, #28]
   8113a:	3301      	adds	r3, #1
   8113c:	61fb      	str	r3, [r7, #28]
			/* Divide cldiv value */
			chdiv /= TWI_CLK_DIVIDER;
   8113e:	693b      	ldr	r3, [r7, #16]
   81140:	085b      	lsrs	r3, r3, #1
   81142:	613b      	str	r3, [r7, #16]
		while ((chdiv > TWI_CLK_DIV_MAX) && (ckdiv < TWI_CLK_DIV_MIN)) {
   81144:	693b      	ldr	r3, [r7, #16]
   81146:	2bff      	cmp	r3, #255	; 0xff
   81148:	d902      	bls.n	81150 <twi_set_speed+0x78>
   8114a:	69fb      	ldr	r3, [r7, #28]
   8114c:	2b06      	cmp	r3, #6
   8114e:	d9f3      	bls.n	81138 <twi_set_speed+0x60>
		}

		/* set clock waveform generator register */
		p_twi->TWI_CWGR =
				TWI_CWGR_CLDIV(cldiv) | TWI_CWGR_CHDIV(chdiv) |
   81150:	697b      	ldr	r3, [r7, #20]
   81152:	b2da      	uxtb	r2, r3
   81154:	693b      	ldr	r3, [r7, #16]
   81156:	021b      	lsls	r3, r3, #8
   81158:	b29b      	uxth	r3, r3
   8115a:	431a      	orrs	r2, r3
				TWI_CWGR_CKDIV(ckdiv);		
   8115c:	69fb      	ldr	r3, [r7, #28]
   8115e:	041b      	lsls	r3, r3, #16
   81160:	f403 23e0 	and.w	r3, r3, #458752	; 0x70000
				TWI_CWGR_CLDIV(cldiv) | TWI_CWGR_CHDIV(chdiv) |
   81164:	431a      	orrs	r2, r3
		p_twi->TWI_CWGR =
   81166:	68fb      	ldr	r3, [r7, #12]
   81168:	611a      	str	r2, [r3, #16]
   8116a:	e020      	b.n	811ae <twi_set_speed+0xd6>
	} else {
		c_lh_div = ul_mck / (ul_speed * TWI_CLK_DIVIDER) - TWI_CLK_CALC_ARGU;
   8116c:	68bb      	ldr	r3, [r7, #8]
   8116e:	005b      	lsls	r3, r3, #1
   81170:	687a      	ldr	r2, [r7, #4]
   81172:	fbb2 f3f3 	udiv	r3, r2, r3
   81176:	3b04      	subs	r3, #4
   81178:	61bb      	str	r3, [r7, #24]

		/* cldiv must fit in 8 bits, ckdiv must fit in 3 bits */
		while ((c_lh_div > TWI_CLK_DIV_MAX) && (ckdiv < TWI_CLK_DIV_MIN)) {
   8117a:	e005      	b.n	81188 <twi_set_speed+0xb0>
			/* Increase clock divider */
			ckdiv++;
   8117c:	69fb      	ldr	r3, [r7, #28]
   8117e:	3301      	adds	r3, #1
   81180:	61fb      	str	r3, [r7, #28]
			/* Divide cldiv value */
			c_lh_div /= TWI_CLK_DIVIDER;
   81182:	69bb      	ldr	r3, [r7, #24]
   81184:	085b      	lsrs	r3, r3, #1
   81186:	61bb      	str	r3, [r7, #24]
		while ((c_lh_div > TWI_CLK_DIV_MAX) && (ckdiv < TWI_CLK_DIV_MIN)) {
   81188:	69bb      	ldr	r3, [r7, #24]
   8118a:	2bff      	cmp	r3, #255	; 0xff
   8118c:	d902      	bls.n	81194 <twi_set_speed+0xbc>
   8118e:	69fb      	ldr	r3, [r7, #28]
   81190:	2b06      	cmp	r3, #6
   81192:	d9f3      	bls.n	8117c <twi_set_speed+0xa4>
		}

		/* set clock waveform generator register */
		p_twi->TWI_CWGR =
				TWI_CWGR_CLDIV(c_lh_div) | TWI_CWGR_CHDIV(c_lh_div) |
   81194:	69bb      	ldr	r3, [r7, #24]
   81196:	b2da      	uxtb	r2, r3
   81198:	69bb      	ldr	r3, [r7, #24]
   8119a:	021b      	lsls	r3, r3, #8
   8119c:	b29b      	uxth	r3, r3
   8119e:	431a      	orrs	r2, r3
				TWI_CWGR_CKDIV(ckdiv);
   811a0:	69fb      	ldr	r3, [r7, #28]
   811a2:	041b      	lsls	r3, r3, #16
   811a4:	f403 23e0 	and.w	r3, r3, #458752	; 0x70000
				TWI_CWGR_CLDIV(c_lh_div) | TWI_CWGR_CHDIV(c_lh_div) |
   811a8:	431a      	orrs	r2, r3
		p_twi->TWI_CWGR =
   811aa:	68fb      	ldr	r3, [r7, #12]
   811ac:	611a      	str	r2, [r3, #16]
	}

	return PASS;
   811ae:	2300      	movs	r3, #0
}
   811b0:	4618      	mov	r0, r3
   811b2:	3724      	adds	r7, #36	; 0x24
   811b4:	46bd      	mov	sp, r7
   811b6:	bc80      	pop	{r7}
   811b8:	4770      	bx	lr
   811ba:	bf00      	nop
   811bc:	00061a80 	.word	0x00061a80
   811c0:	0005dc00 	.word	0x0005dc00
   811c4:	057619f1 	.word	0x057619f1
   811c8:	3ffd1200 	.word	0x3ffd1200

000811cc <twi_mk_addr>:
 * which byte is the MSB to start with.
 *
 * Please see the device datasheet for details on this.
 */
uint32_t twi_mk_addr(const uint8_t *addr, int len)
{
   811cc:	b480      	push	{r7}
   811ce:	b085      	sub	sp, #20
   811d0:	af00      	add	r7, sp, #0
   811d2:	6078      	str	r0, [r7, #4]
   811d4:	6039      	str	r1, [r7, #0]
	uint32_t val;

	if (len == 0)
   811d6:	683b      	ldr	r3, [r7, #0]
   811d8:	2b00      	cmp	r3, #0
   811da:	d101      	bne.n	811e0 <twi_mk_addr+0x14>
		return 0;
   811dc:	2300      	movs	r3, #0
   811de:	e01d      	b.n	8121c <twi_mk_addr+0x50>

	val = addr[0];
   811e0:	687b      	ldr	r3, [r7, #4]
   811e2:	781b      	ldrb	r3, [r3, #0]
   811e4:	60fb      	str	r3, [r7, #12]
	if (len > 1) {
   811e6:	683b      	ldr	r3, [r7, #0]
   811e8:	2b01      	cmp	r3, #1
   811ea:	dd09      	ble.n	81200 <twi_mk_addr+0x34>
		val <<= 8;
   811ec:	68fb      	ldr	r3, [r7, #12]
   811ee:	021b      	lsls	r3, r3, #8
   811f0:	60fb      	str	r3, [r7, #12]
		val |= addr[1];
   811f2:	687b      	ldr	r3, [r7, #4]
   811f4:	3301      	adds	r3, #1
   811f6:	781b      	ldrb	r3, [r3, #0]
   811f8:	461a      	mov	r2, r3
   811fa:	68fb      	ldr	r3, [r7, #12]
   811fc:	4313      	orrs	r3, r2
   811fe:	60fb      	str	r3, [r7, #12]
	}
	if (len > 2) {
   81200:	683b      	ldr	r3, [r7, #0]
   81202:	2b02      	cmp	r3, #2
   81204:	dd09      	ble.n	8121a <twi_mk_addr+0x4e>
		val <<= 8;
   81206:	68fb      	ldr	r3, [r7, #12]
   81208:	021b      	lsls	r3, r3, #8
   8120a:	60fb      	str	r3, [r7, #12]
		val |= addr[2];
   8120c:	687b      	ldr	r3, [r7, #4]
   8120e:	3302      	adds	r3, #2
   81210:	781b      	ldrb	r3, [r3, #0]
   81212:	461a      	mov	r2, r3
   81214:	68fb      	ldr	r3, [r7, #12]
   81216:	4313      	orrs	r3, r2
   81218:	60fb      	str	r3, [r7, #12]
	}
	return val;
   8121a:	68fb      	ldr	r3, [r7, #12]
}
   8121c:	4618      	mov	r0, r3
   8121e:	3714      	adds	r7, #20
   81220:	46bd      	mov	sp, r7
   81222:	bc80      	pop	{r7}
   81224:	4770      	bx	lr
	...

00081228 <twi_is_busy>:
	}
}
#endif
#if 1
uint8_t twi_is_busy(void)
{
   81228:	b480      	push	{r7}
   8122a:	af00      	add	r7, sp, #0
    return twiBusy;
   8122c:	4b02      	ldr	r3, [pc, #8]	; (81238 <twi_is_busy+0x10>)
   8122e:	781b      	ldrb	r3, [r3, #0]
}
   81230:	4618      	mov	r0, r3
   81232:	46bd      	mov	sp, r7
   81234:	bc80      	pop	{r7}
   81236:	4770      	bx	lr
   81238:	20070d98 	.word	0x20070d98

0008123c <twi_get_tx_packet>:

twi_packet_t *twi_get_tx_packet(void)
{
   8123c:	b480      	push	{r7}
   8123e:	af00      	add	r7, sp, #0
    return &txPacket;
   81240:	4b02      	ldr	r3, [pc, #8]	; (8124c <twi_get_tx_packet+0x10>)
}
   81242:	4618      	mov	r0, r3
   81244:	46bd      	mov	sp, r7
   81246:	bc80      	pop	{r7}
   81248:	4770      	bx	lr
   8124a:	bf00      	nop
   8124c:	20070b78 	.word	0x20070b78

00081250 <twi_get_rx_packet>:

twi_packet_t *twi_get_rx_packet(void)
{
   81250:	b480      	push	{r7}
   81252:	af00      	add	r7, sp, #0
    return &rxPacket;
   81254:	4b02      	ldr	r3, [pc, #8]	; (81260 <twi_get_rx_packet+0x10>)
}
   81256:	4618      	mov	r0, r3
   81258:	46bd      	mov	sp, r7
   8125a:	bc80      	pop	{r7}
   8125c:	4770      	bx	lr
   8125e:	bf00      	nop
   81260:	20070c88 	.word	0x20070c88

00081264 <twi_pdc_master_read>:
 * \param p_packet Packet information and data (see \ref twi_packet_t).
 *
 * \return TWI_SUCCESS if all bytes were read, error code otherwise.
 */
uint32_t twi_pdc_master_read(Twi *p_twi, twi_packet_t *p_packet)
{
   81264:	b580      	push	{r7, lr}
   81266:	b084      	sub	sp, #16
   81268:	af00      	add	r7, sp, #0
   8126a:	6078      	str	r0, [r7, #4]
   8126c:	6039      	str	r1, [r7, #0]
    pdc_packet_t rxPdcPacket;

    // Check argument
    if(p_packet->length == 0)
   8126e:	683b      	ldr	r3, [r7, #0]
   81270:	f8d3 3108 	ldr.w	r3, [r3, #264]	; 0x108
   81274:	2b00      	cmp	r3, #0
   81276:	d101      	bne.n	8127c <twi_pdc_master_read+0x18>
    {
        return TWI_INVALID_ARGUMENT;
   81278:	2301      	movs	r3, #1
   8127a:	e047      	b.n	8130c <twi_pdc_master_read+0xa8>
    }
    
    twiBusy = true;
   8127c:	4b25      	ldr	r3, [pc, #148]	; (81314 <twi_pdc_master_read+0xb0>)
   8127e:	2201      	movs	r2, #1
   81280:	701a      	strb	r2, [r3, #0]

    // Ensure Rx is already empty
    twi_read_byte(TWI0);
   81282:	4825      	ldr	r0, [pc, #148]	; (81318 <twi_pdc_master_read+0xb4>)
   81284:	4b25      	ldr	r3, [pc, #148]	; (8131c <twi_pdc_master_read+0xb8>)
   81286:	4798      	blx	r3

    // Set read mode, slave address and 3 internal address byte lengths
    p_twi->TWI_MMR = 0;
   81288:	687b      	ldr	r3, [r7, #4]
   8128a:	2200      	movs	r2, #0
   8128c:	605a      	str	r2, [r3, #4]
    p_twi->TWI_MMR = TWI_MMR_MREAD | TWI_MMR_DADR(p_packet->chip) | ((p_packet->addr_length << TWI_MMR_IADRSZ_Pos) & TWI_MMR_IADRSZ_Msk);
   8128e:	683b      	ldr	r3, [r7, #0]
   81290:	f893 310c 	ldrb.w	r3, [r3, #268]	; 0x10c
   81294:	041b      	lsls	r3, r3, #16
   81296:	f403 02fe 	and.w	r2, r3, #8323072	; 0x7f0000
   8129a:	683b      	ldr	r3, [r7, #0]
   8129c:	685b      	ldr	r3, [r3, #4]
   8129e:	021b      	lsls	r3, r3, #8
   812a0:	f403 7340 	and.w	r3, r3, #768	; 0x300
   812a4:	4313      	orrs	r3, r2
   812a6:	f443 5280 	orr.w	r2, r3, #4096	; 0x1000
   812aa:	687b      	ldr	r3, [r7, #4]
   812ac:	605a      	str	r2, [r3, #4]

    // Set internal address for remote chip
    p_twi->TWI_IADR = 0;
   812ae:	687b      	ldr	r3, [r7, #4]
   812b0:	2200      	movs	r2, #0
   812b2:	60da      	str	r2, [r3, #12]
    p_twi->TWI_IADR = twi_mk_addr(p_packet->addr, p_packet->addr_length);
   812b4:	683a      	ldr	r2, [r7, #0]
   812b6:	683b      	ldr	r3, [r7, #0]
   812b8:	685b      	ldr	r3, [r3, #4]
   812ba:	4619      	mov	r1, r3
   812bc:	4610      	mov	r0, r2
   812be:	4b18      	ldr	r3, [pc, #96]	; (81320 <twi_pdc_master_read+0xbc>)
   812c0:	4798      	blx	r3
   812c2:	4602      	mov	r2, r0
   812c4:	687b      	ldr	r3, [r7, #4]
   812c6:	60da      	str	r2, [r3, #12]
        twi_enable_interrupt(TWI0, IER_ERROR_INTERRUPTS);
    }
    else
    {
#endif
        rxPdcPacket.ul_addr = (uint32_t)p_packet->buffer;
   812c8:	683b      	ldr	r3, [r7, #0]
   812ca:	3308      	adds	r3, #8
   812cc:	60bb      	str	r3, [r7, #8]
        rxPdcPacket.ul_size = p_packet->length - 1;
   812ce:	683b      	ldr	r3, [r7, #0]
   812d0:	f8d3 3108 	ldr.w	r3, [r3, #264]	; 0x108
   812d4:	3b01      	subs	r3, #1
   812d6:	60fb      	str	r3, [r7, #12]
        pdc_rx_init(PDC_TWI0, &rxPdcPacket, NULL);
   812d8:	f107 0308 	add.w	r3, r7, #8
   812dc:	2200      	movs	r2, #0
   812de:	4619      	mov	r1, r3
   812e0:	4810      	ldr	r0, [pc, #64]	; (81324 <twi_pdc_master_read+0xc0>)
   812e2:	4b11      	ldr	r3, [pc, #68]	; (81328 <twi_pdc_master_read+0xc4>)
   812e4:	4798      	blx	r3

        pdc_enable_transfer(PDC_TWI0, PERIPH_PTCR_RXTEN);
   812e6:	2101      	movs	r1, #1
   812e8:	480e      	ldr	r0, [pc, #56]	; (81324 <twi_pdc_master_read+0xc0>)
   812ea:	4b10      	ldr	r3, [pc, #64]	; (8132c <twi_pdc_master_read+0xc8>)
   812ec:	4798      	blx	r3
        TWI0->TWI_CR = TWI_CR_START;
   812ee:	4b0a      	ldr	r3, [pc, #40]	; (81318 <twi_pdc_master_read+0xb4>)
   812f0:	2201      	movs	r2, #1
   812f2:	601a      	str	r2, [r3, #0]

        twi_enable_interrupt(p_twi, TWI_IER_ENDRX);
   812f4:	f44f 5180 	mov.w	r1, #4096	; 0x1000
   812f8:	6878      	ldr	r0, [r7, #4]
   812fa:	4b0d      	ldr	r3, [pc, #52]	; (81330 <twi_pdc_master_read+0xcc>)
   812fc:	4798      	blx	r3
        NVIC_ClearPendingIRQ(TWI0_IRQn);
   812fe:	2016      	movs	r0, #22
   81300:	4b0c      	ldr	r3, [pc, #48]	; (81334 <twi_pdc_master_read+0xd0>)
   81302:	4798      	blx	r3
        NVIC_EnableIRQ(TWI0_IRQn);
   81304:	2016      	movs	r0, #22
   81306:	4b0c      	ldr	r3, [pc, #48]	; (81338 <twi_pdc_master_read+0xd4>)
   81308:	4798      	blx	r3
//    }

    return TWI_SUCCESS;
   8130a:	2300      	movs	r3, #0
}
   8130c:	4618      	mov	r0, r3
   8130e:	3710      	adds	r7, #16
   81310:	46bd      	mov	sp, r7
   81312:	bd80      	pop	{r7, pc}
   81314:	20070d98 	.word	0x20070d98
   81318:	4008c000 	.word	0x4008c000
   8131c:	00081669 	.word	0x00081669
   81320:	000811cd 	.word	0x000811cd
   81324:	4008c100 	.word	0x4008c100
   81328:	000801eb 	.word	0x000801eb
   8132c:	0008022d 	.word	0x0008022d
   81330:	00081605 	.word	0x00081605
   81334:	00080ff5 	.word	0x00080ff5
   81338:	00080fc5 	.word	0x00080fc5

0008133c <twi_pdc_master_write>:
 * \param p_packet Packet information and data (see \ref twi_packet_t).
 *
 * \return TWI_SUCCESS if all bytes were written, error code otherwise.
 */
uint32_t twi_pdc_master_write(Twi *p_twi, twi_packet_t *p_packet)
{
   8133c:	b580      	push	{r7, lr}
   8133e:	b084      	sub	sp, #16
   81340:	af00      	add	r7, sp, #0
   81342:	6078      	str	r0, [r7, #4]
   81344:	6039      	str	r1, [r7, #0]
    pdc_packet_t txPdcPacket;

    // Check argument
    if(p_packet->length == 0)
   81346:	683b      	ldr	r3, [r7, #0]
   81348:	f8d3 3108 	ldr.w	r3, [r3, #264]	; 0x108
   8134c:	2b00      	cmp	r3, #0
   8134e:	d101      	bne.n	81354 <twi_pdc_master_write+0x18>
    {
        return TWI_INVALID_ARGUMENT;
   81350:	2301      	movs	r3, #1
   81352:	e040      	b.n	813d6 <twi_pdc_master_write+0x9a>
    }

    twiBusy = true;
   81354:	4b22      	ldr	r3, [pc, #136]	; (813e0 <twi_pdc_master_write+0xa4>)
   81356:	2201      	movs	r2, #1
   81358:	701a      	strb	r2, [r3, #0]

    txPdcPacket.ul_addr = (uint32_t)p_packet->buffer;
   8135a:	683b      	ldr	r3, [r7, #0]
   8135c:	3308      	adds	r3, #8
   8135e:	60bb      	str	r3, [r7, #8]
    txPdcPacket.ul_size = p_packet->length - 1;
   81360:	683b      	ldr	r3, [r7, #0]
   81362:	f8d3 3108 	ldr.w	r3, [r3, #264]	; 0x108
   81366:	3b01      	subs	r3, #1
   81368:	60fb      	str	r3, [r7, #12]
    pdc_tx_init(PDC_TWI0, &txPdcPacket, NULL);
   8136a:	f107 0308 	add.w	r3, r7, #8
   8136e:	2200      	movs	r2, #0
   81370:	4619      	mov	r1, r3
   81372:	481c      	ldr	r0, [pc, #112]	; (813e4 <twi_pdc_master_write+0xa8>)
   81374:	4b1c      	ldr	r3, [pc, #112]	; (813e8 <twi_pdc_master_write+0xac>)
   81376:	4798      	blx	r3

    // Set write mode, slave address and 3 internal address byte lengths
    p_twi->TWI_MMR = 0;
   81378:	687b      	ldr	r3, [r7, #4]
   8137a:	2200      	movs	r2, #0
   8137c:	605a      	str	r2, [r3, #4]
    p_twi->TWI_MMR = TWI_MMR_DADR(p_packet->chip) | ((p_packet->addr_length << TWI_MMR_IADRSZ_Pos) & TWI_MMR_IADRSZ_Msk);
   8137e:	683b      	ldr	r3, [r7, #0]
   81380:	f893 310c 	ldrb.w	r3, [r3, #268]	; 0x10c
   81384:	041b      	lsls	r3, r3, #16
   81386:	f403 02fe 	and.w	r2, r3, #8323072	; 0x7f0000
   8138a:	683b      	ldr	r3, [r7, #0]
   8138c:	685b      	ldr	r3, [r3, #4]
   8138e:	021b      	lsls	r3, r3, #8
   81390:	f403 7340 	and.w	r3, r3, #768	; 0x300
   81394:	431a      	orrs	r2, r3
   81396:	687b      	ldr	r3, [r7, #4]
   81398:	605a      	str	r2, [r3, #4]

    // Set internal address for remote chip
    p_twi->TWI_IADR = 0;
   8139a:	687b      	ldr	r3, [r7, #4]
   8139c:	2200      	movs	r2, #0
   8139e:	60da      	str	r2, [r3, #12]
    p_twi->TWI_IADR = twi_mk_addr(p_packet->addr, p_packet->addr_length);
   813a0:	683a      	ldr	r2, [r7, #0]
   813a2:	683b      	ldr	r3, [r7, #0]
   813a4:	685b      	ldr	r3, [r3, #4]
   813a6:	4619      	mov	r1, r3
   813a8:	4610      	mov	r0, r2
   813aa:	4b10      	ldr	r3, [pc, #64]	; (813ec <twi_pdc_master_write+0xb0>)
   813ac:	4798      	blx	r3
   813ae:	4602      	mov	r2, r0
   813b0:	687b      	ldr	r3, [r7, #4]
   813b2:	60da      	str	r2, [r3, #12]

    pdc_enable_transfer(PDC_TWI0, PERIPH_PTCR_TXTEN);
   813b4:	f44f 7180 	mov.w	r1, #256	; 0x100
   813b8:	480a      	ldr	r0, [pc, #40]	; (813e4 <twi_pdc_master_write+0xa8>)
   813ba:	4b0d      	ldr	r3, [pc, #52]	; (813f0 <twi_pdc_master_write+0xb4>)
   813bc:	4798      	blx	r3

    twi_enable_interrupt(p_twi, TWI_IER_ENDTX);
   813be:	f44f 5100 	mov.w	r1, #8192	; 0x2000
   813c2:	6878      	ldr	r0, [r7, #4]
   813c4:	4b0b      	ldr	r3, [pc, #44]	; (813f4 <twi_pdc_master_write+0xb8>)
   813c6:	4798      	blx	r3
    NVIC_ClearPendingIRQ(TWI0_IRQn);
   813c8:	2016      	movs	r0, #22
   813ca:	4b0b      	ldr	r3, [pc, #44]	; (813f8 <twi_pdc_master_write+0xbc>)
   813cc:	4798      	blx	r3
    NVIC_EnableIRQ(TWI0_IRQn);
   813ce:	2016      	movs	r0, #22
   813d0:	4b0a      	ldr	r3, [pc, #40]	; (813fc <twi_pdc_master_write+0xc0>)
   813d2:	4798      	blx	r3

    return TWI_SUCCESS;
   813d4:	2300      	movs	r3, #0
}
   813d6:	4618      	mov	r0, r3
   813d8:	3710      	adds	r7, #16
   813da:	46bd      	mov	sp, r7
   813dc:	bd80      	pop	{r7, pc}
   813de:	bf00      	nop
   813e0:	20070d98 	.word	0x20070d98
   813e4:	4008c100 	.word	0x4008c100
   813e8:	000801a9 	.word	0x000801a9
   813ec:	000811cd 	.word	0x000811cd
   813f0:	0008022d 	.word	0x0008022d
   813f4:	00081605 	.word	0x00081605
   813f8:	00080ff5 	.word	0x00080ff5
   813fc:	00080fc5 	.word	0x00080fc5

00081400 <twi_set_compass_rx_callback>:
 * \brief Callback function for TWI receive.
 *
 * \param callback Pointer to callback function.
 */
void twi_set_compass_rx_callback(void (*callback)(void))
{
   81400:	b480      	push	{r7}
   81402:	b083      	sub	sp, #12
   81404:	af00      	add	r7, sp, #0
   81406:	6078      	str	r0, [r7, #4]
    compassRxCallback = callback;
   81408:	4a03      	ldr	r2, [pc, #12]	; (81418 <twi_set_compass_rx_callback+0x18>)
   8140a:	687b      	ldr	r3, [r7, #4]
   8140c:	6013      	str	r3, [r2, #0]
}
   8140e:	bf00      	nop
   81410:	370c      	adds	r7, #12
   81412:	46bd      	mov	sp, r7
   81414:	bc80      	pop	{r7}
   81416:	4770      	bx	lr
   81418:	20070da4 	.word	0x20070da4

0008141c <twi_set_compass_tx_callback>:
 * \brief Callback function for TWI transmit.
 *
 * \param callback Pointer to callback function.
 */
void twi_set_compass_tx_callback(void (*callback)(void))
{
   8141c:	b480      	push	{r7}
   8141e:	b083      	sub	sp, #12
   81420:	af00      	add	r7, sp, #0
   81422:	6078      	str	r0, [r7, #4]
    compassTxCallback = callback;
   81424:	4a03      	ldr	r2, [pc, #12]	; (81434 <twi_set_compass_tx_callback+0x18>)
   81426:	687b      	ldr	r3, [r7, #4]
   81428:	6013      	str	r3, [r2, #0]
}
   8142a:	bf00      	nop
   8142c:	370c      	adds	r7, #12
   8142e:	46bd      	mov	sp, r7
   81430:	bc80      	pop	{r7}
   81432:	4770      	bx	lr
   81434:	20070da0 	.word	0x20070da0

00081438 <twi_set_lcd_tx_callback>:
 * \brief Callback function for TWI transmit.
 *
 * \param callback Pointer to callback function.
 */
void twi_set_lcd_tx_callback(void (*callback)(void))
{
   81438:	b480      	push	{r7}
   8143a:	b083      	sub	sp, #12
   8143c:	af00      	add	r7, sp, #0
   8143e:	6078      	str	r0, [r7, #4]
    lcdTxCallback = callback;
   81440:	4a03      	ldr	r2, [pc, #12]	; (81450 <twi_set_lcd_tx_callback+0x18>)
   81442:	687b      	ldr	r3, [r7, #4]
   81444:	6013      	str	r3, [r2, #0]
}
   81446:	bf00      	nop
   81448:	370c      	adds	r7, #12
   8144a:	46bd      	mov	sp, r7
   8144c:	bc80      	pop	{r7}
   8144e:	4770      	bx	lr
   81450:	20070d9c 	.word	0x20070d9c

00081454 <TWI0_Handler>:
/**
 * \brief TWI0 Interrupt handler.
 *
 */
void TWI0_Handler(void)
{
   81454:	b590      	push	{r4, r7, lr}
   81456:	b083      	sub	sp, #12
   81458:	af00      	add	r7, sp, #0
    uint32_t twi_status = twi_get_interrupt_status(TWI0) & twi_get_interrupt_mask(TWI0);
   8145a:	485d      	ldr	r0, [pc, #372]	; (815d0 <TWI0_Handler+0x17c>)
   8145c:	4b5d      	ldr	r3, [pc, #372]	; (815d4 <TWI0_Handler+0x180>)
   8145e:	4798      	blx	r3
   81460:	4604      	mov	r4, r0
   81462:	485b      	ldr	r0, [pc, #364]	; (815d0 <TWI0_Handler+0x17c>)
   81464:	4b5c      	ldr	r3, [pc, #368]	; (815d8 <TWI0_Handler+0x184>)
   81466:	4798      	blx	r3
   81468:	4603      	mov	r3, r0
   8146a:	4023      	ands	r3, r4
   8146c:	607b      	str	r3, [r7, #4]

    // End of PDC transfer -> switch PDC off and wait ready flag
    if(twi_status & TWI_SR_ENDTX)
   8146e:	687b      	ldr	r3, [r7, #4]
   81470:	f403 5300 	and.w	r3, r3, #8192	; 0x2000
   81474:	2b00      	cmp	r3, #0
   81476:	d014      	beq.n	814a2 <TWI0_Handler+0x4e>
    {
        pdc_disable_transfer(PDC_TWI0, PERIPH_PTCR_TXTDIS);
   81478:	f44f 7100 	mov.w	r1, #512	; 0x200
   8147c:	4857      	ldr	r0, [pc, #348]	; (815dc <TWI0_Handler+0x188>)
   8147e:	4b58      	ldr	r3, [pc, #352]	; (815e0 <TWI0_Handler+0x18c>)
   81480:	4798      	blx	r3
        twi_disable_interrupt(TWI0, TWI_IER_ENDTX);
   81482:	f44f 5100 	mov.w	r1, #8192	; 0x2000
   81486:	4852      	ldr	r0, [pc, #328]	; (815d0 <TWI0_Handler+0x17c>)
   81488:	4b56      	ldr	r3, [pc, #344]	; (815e4 <TWI0_Handler+0x190>)
   8148a:	4798      	blx	r3
        twi_enable_interrupt(TWI0, TWI_IER_TXRDY);
   8148c:	2104      	movs	r1, #4
   8148e:	4850      	ldr	r0, [pc, #320]	; (815d0 <TWI0_Handler+0x17c>)
   81490:	4b55      	ldr	r3, [pc, #340]	; (815e8 <TWI0_Handler+0x194>)
   81492:	4798      	blx	r3
        twi_status |= twi_get_interrupt_status(TWI0);
   81494:	484e      	ldr	r0, [pc, #312]	; (815d0 <TWI0_Handler+0x17c>)
   81496:	4b4f      	ldr	r3, [pc, #316]	; (815d4 <TWI0_Handler+0x180>)
   81498:	4798      	blx	r3
   8149a:	4602      	mov	r2, r0
   8149c:	687b      	ldr	r3, [r7, #4]
   8149e:	4313      	orrs	r3, r2
   814a0:	607b      	str	r3, [r7, #4]
    }
    
    // Received ready flag -> send last byte
    if(twi_status & TWI_SR_TXRDY)
   814a2:	687b      	ldr	r3, [r7, #4]
   814a4:	f003 0304 	and.w	r3, r3, #4
   814a8:	2b00      	cmp	r3, #0
   814aa:	d01a      	beq.n	814e2 <TWI0_Handler+0x8e>
    {
        twi_disable_interrupt(TWI0, TWI_IER_TXRDY);
   814ac:	2104      	movs	r1, #4
   814ae:	4848      	ldr	r0, [pc, #288]	; (815d0 <TWI0_Handler+0x17c>)
   814b0:	4b4c      	ldr	r3, [pc, #304]	; (815e4 <TWI0_Handler+0x190>)
   814b2:	4798      	blx	r3

		// Complete the transfer - stop and last byte 
		TWI0->TWI_CR = TWI_CR_STOP;
   814b4:	4b46      	ldr	r3, [pc, #280]	; (815d0 <TWI0_Handler+0x17c>)
   814b6:	2202      	movs	r2, #2
   814b8:	601a      	str	r2, [r3, #0]
		TWI0->TWI_THR = txPacket.buffer[txPacket.length-1];
   814ba:	4a45      	ldr	r2, [pc, #276]	; (815d0 <TWI0_Handler+0x17c>)
   814bc:	4b4b      	ldr	r3, [pc, #300]	; (815ec <TWI0_Handler+0x198>)
   814be:	f8d3 3108 	ldr.w	r3, [r3, #264]	; 0x108
   814c2:	3b01      	subs	r3, #1
   814c4:	4949      	ldr	r1, [pc, #292]	; (815ec <TWI0_Handler+0x198>)
   814c6:	440b      	add	r3, r1
   814c8:	7a1b      	ldrb	r3, [r3, #8]
   814ca:	6353      	str	r3, [r2, #52]	; 0x34

        twi_enable_interrupt(TWI0, TWI_IER_TXCOMP);
   814cc:	2101      	movs	r1, #1
   814ce:	4840      	ldr	r0, [pc, #256]	; (815d0 <TWI0_Handler+0x17c>)
   814d0:	4b45      	ldr	r3, [pc, #276]	; (815e8 <TWI0_Handler+0x194>)
   814d2:	4798      	blx	r3
        twi_status |= twi_get_interrupt_status(TWI0);
   814d4:	483e      	ldr	r0, [pc, #248]	; (815d0 <TWI0_Handler+0x17c>)
   814d6:	4b3f      	ldr	r3, [pc, #252]	; (815d4 <TWI0_Handler+0x180>)
   814d8:	4798      	blx	r3
   814da:	4602      	mov	r2, r0
   814dc:	687b      	ldr	r3, [r7, #4]
   814de:	4313      	orrs	r3, r2
   814e0:	607b      	str	r3, [r7, #4]
    }

    // End of transfer -> switch TWI off
    if(twi_status & TWI_SR_TXCOMP)
   814e2:	687b      	ldr	r3, [r7, #4]
   814e4:	f003 0301 	and.w	r3, r3, #1
   814e8:	2b00      	cmp	r3, #0
   814ea:	d014      	beq.n	81516 <TWI0_Handler+0xc2>
    {
        twi_disable_interrupt(TWI0, TWI_IER_TXCOMP);
   814ec:	2101      	movs	r1, #1
   814ee:	4838      	ldr	r0, [pc, #224]	; (815d0 <TWI0_Handler+0x17c>)
   814f0:	4b3c      	ldr	r3, [pc, #240]	; (815e4 <TWI0_Handler+0x190>)
   814f2:	4798      	blx	r3

        // If defined, call the connected function.
        if(compassTxCallback != NULL)
   814f4:	4b3e      	ldr	r3, [pc, #248]	; (815f0 <TWI0_Handler+0x19c>)
   814f6:	681b      	ldr	r3, [r3, #0]
   814f8:	2b00      	cmp	r3, #0
   814fa:	d002      	beq.n	81502 <TWI0_Handler+0xae>
        {
            compassTxCallback();
   814fc:	4b3c      	ldr	r3, [pc, #240]	; (815f0 <TWI0_Handler+0x19c>)
   814fe:	681b      	ldr	r3, [r3, #0]
   81500:	4798      	blx	r3
        }

        // If defined, call the connected function.
        if(lcdTxCallback != NULL)
   81502:	4b3c      	ldr	r3, [pc, #240]	; (815f4 <TWI0_Handler+0x1a0>)
   81504:	681b      	ldr	r3, [r3, #0]
   81506:	2b00      	cmp	r3, #0
   81508:	d002      	beq.n	81510 <TWI0_Handler+0xbc>
        {
          lcdTxCallback();
   8150a:	4b3a      	ldr	r3, [pc, #232]	; (815f4 <TWI0_Handler+0x1a0>)
   8150c:	681b      	ldr	r3, [r3, #0]
   8150e:	4798      	blx	r3
        }

        twiBusy = false;
   81510:	4b39      	ldr	r3, [pc, #228]	; (815f8 <TWI0_Handler+0x1a4>)
   81512:	2200      	movs	r2, #0
   81514:	701a      	strb	r2, [r3, #0]
    }

    // End of PDC transfer -> switch PDC off
    if(twi_status & TWI_SR_ENDRX)
   81516:	687b      	ldr	r3, [r7, #4]
   81518:	f403 5380 	and.w	r3, r3, #4096	; 0x1000
   8151c:	2b00      	cmp	r3, #0
   8151e:	d016      	beq.n	8154e <TWI0_Handler+0xfa>
    {
        pdc_disable_transfer(PDC_TWI0, PERIPH_PTCR_RXTDIS);
   81520:	2102      	movs	r1, #2
   81522:	482e      	ldr	r0, [pc, #184]	; (815dc <TWI0_Handler+0x188>)
   81524:	4b2e      	ldr	r3, [pc, #184]	; (815e0 <TWI0_Handler+0x18c>)
   81526:	4798      	blx	r3
        twi_disable_interrupt(TWI0, TWI_IER_ENDRX);
   81528:	f44f 5180 	mov.w	r1, #4096	; 0x1000
   8152c:	4828      	ldr	r0, [pc, #160]	; (815d0 <TWI0_Handler+0x17c>)
   8152e:	4b2d      	ldr	r3, [pc, #180]	; (815e4 <TWI0_Handler+0x190>)
   81530:	4798      	blx	r3

        twi_enable_interrupt(TWI0, TWI_IER_RXRDY);
   81532:	2102      	movs	r1, #2
   81534:	4826      	ldr	r0, [pc, #152]	; (815d0 <TWI0_Handler+0x17c>)
   81536:	4b2c      	ldr	r3, [pc, #176]	; (815e8 <TWI0_Handler+0x194>)
   81538:	4798      	blx	r3
        TWI0->TWI_CR = TWI_CR_STOP;
   8153a:	4b25      	ldr	r3, [pc, #148]	; (815d0 <TWI0_Handler+0x17c>)
   8153c:	2202      	movs	r2, #2
   8153e:	601a      	str	r2, [r3, #0]

        twi_status |= twi_get_interrupt_status(TWI0);
   81540:	4823      	ldr	r0, [pc, #140]	; (815d0 <TWI0_Handler+0x17c>)
   81542:	4b24      	ldr	r3, [pc, #144]	; (815d4 <TWI0_Handler+0x180>)
   81544:	4798      	blx	r3
   81546:	4602      	mov	r2, r0
   81548:	687b      	ldr	r3, [r7, #4]
   8154a:	4313      	orrs	r3, r2
   8154c:	607b      	str	r3, [r7, #4]
    }

    // End of transfer -> switch TWI off
    if(twi_status & TWI_SR_RXRDY)
   8154e:	687b      	ldr	r3, [r7, #4]
   81550:	f003 0302 	and.w	r3, r3, #2
   81554:	2b00      	cmp	r3, #0
   81556:	d018      	beq.n	8158a <TWI0_Handler+0x136>
    {
        twi_disable_interrupt(TWI0, TWI_IER_RXRDY);
   81558:	2102      	movs	r1, #2
   8155a:	481d      	ldr	r0, [pc, #116]	; (815d0 <TWI0_Handler+0x17c>)
   8155c:	4b21      	ldr	r3, [pc, #132]	; (815e4 <TWI0_Handler+0x190>)
   8155e:	4798      	blx	r3

        // Read last data
        rxPacket.buffer[rxPacket.length-1] = TWI0->TWI_RHR;
   81560:	4b26      	ldr	r3, [pc, #152]	; (815fc <TWI0_Handler+0x1a8>)
   81562:	f8d3 3108 	ldr.w	r3, [r3, #264]	; 0x108
   81566:	3b01      	subs	r3, #1
   81568:	4a19      	ldr	r2, [pc, #100]	; (815d0 <TWI0_Handler+0x17c>)
   8156a:	6b12      	ldr	r2, [r2, #48]	; 0x30
   8156c:	b2d1      	uxtb	r1, r2
   8156e:	4a23      	ldr	r2, [pc, #140]	; (815fc <TWI0_Handler+0x1a8>)
   81570:	4413      	add	r3, r2
   81572:	460a      	mov	r2, r1
   81574:	721a      	strb	r2, [r3, #8]

        // If defined, call the connected function.
        if(compassRxCallback != NULL)
   81576:	4b22      	ldr	r3, [pc, #136]	; (81600 <TWI0_Handler+0x1ac>)
   81578:	681b      	ldr	r3, [r3, #0]
   8157a:	2b00      	cmp	r3, #0
   8157c:	d002      	beq.n	81584 <TWI0_Handler+0x130>
        {
            compassRxCallback();
   8157e:	4b20      	ldr	r3, [pc, #128]	; (81600 <TWI0_Handler+0x1ac>)
   81580:	681b      	ldr	r3, [r3, #0]
   81582:	4798      	blx	r3
        }

        twiBusy = false;
   81584:	4b1c      	ldr	r3, [pc, #112]	; (815f8 <TWI0_Handler+0x1a4>)
   81586:	2200      	movs	r2, #0
   81588:	701a      	strb	r2, [r3, #0]
    }

	// An error occurred in either a transmission or reception.
    // Abort, stop the transmission and disable interrupts.
	if(twi_status & SR_ERROR_INTERRUPTS)
   8158a:	687b      	ldr	r3, [r7, #4]
   8158c:	f403 7350 	and.w	r3, r3, #832	; 0x340
   81590:	2b00      	cmp	r3, #0
   81592:	d019      	beq.n	815c8 <TWI0_Handler+0x174>
    {
		// Stop the PDC
		pdc_disable_transfer(PDC_TWI0, PERIPH_PTCR_TXTDIS | PERIPH_PTCR_RXTDIS);
   81594:	f240 2102 	movw	r1, #514	; 0x202
   81598:	4810      	ldr	r0, [pc, #64]	; (815dc <TWI0_Handler+0x188>)
   8159a:	4b11      	ldr	r3, [pc, #68]	; (815e0 <TWI0_Handler+0x18c>)
   8159c:	4798      	blx	r3

		if(!(twi_status & TWI_SR_NACK))
   8159e:	687b      	ldr	r3, [r7, #4]
   815a0:	f403 7380 	and.w	r3, r3, #256	; 0x100
   815a4:	2b00      	cmp	r3, #0
   815a6:	d102      	bne.n	815ae <TWI0_Handler+0x15a>
        {
			// Do not send stop if NACK received. Handled by hardware
			TWI0->TWI_CR = TWI_CR_STOP;
   815a8:	4b09      	ldr	r3, [pc, #36]	; (815d0 <TWI0_Handler+0x17c>)
   815aa:	2202      	movs	r2, #2
   815ac:	601a      	str	r2, [r3, #0]
		}
		twi_disable_interrupt(TWI0, TWI_IDR_ENDTX);
   815ae:	f44f 5100 	mov.w	r1, #8192	; 0x2000
   815b2:	4807      	ldr	r0, [pc, #28]	; (815d0 <TWI0_Handler+0x17c>)
   815b4:	4b0b      	ldr	r3, [pc, #44]	; (815e4 <TWI0_Handler+0x190>)
   815b6:	4798      	blx	r3
		twi_disable_interrupt(TWI0, TWI_IDR_ENDRX);
   815b8:	f44f 5180 	mov.w	r1, #4096	; 0x1000
   815bc:	4804      	ldr	r0, [pc, #16]	; (815d0 <TWI0_Handler+0x17c>)
   815be:	4b09      	ldr	r3, [pc, #36]	; (815e4 <TWI0_Handler+0x190>)
   815c0:	4798      	blx	r3

        twiBusy = false;
   815c2:	4b0d      	ldr	r3, [pc, #52]	; (815f8 <TWI0_Handler+0x1a4>)
   815c4:	2200      	movs	r2, #0
   815c6:	701a      	strb	r2, [r3, #0]
	}
}
   815c8:	bf00      	nop
   815ca:	370c      	adds	r7, #12
   815cc:	46bd      	mov	sp, r7
   815ce:	bd90      	pop	{r4, r7, pc}
   815d0:	4008c000 	.word	0x4008c000
   815d4:	0008163d 	.word	0x0008163d
   815d8:	00081653 	.word	0x00081653
   815dc:	4008c100 	.word	0x4008c100
   815e0:	0008024d 	.word	0x0008024d
   815e4:	0008161f 	.word	0x0008161f
   815e8:	00081605 	.word	0x00081605
   815ec:	20070b78 	.word	0x20070b78
   815f0:	20070da0 	.word	0x20070da0
   815f4:	20070d9c 	.word	0x20070d9c
   815f8:	20070d98 	.word	0x20070d98
   815fc:	20070c88 	.word	0x20070c88
   81600:	20070da4 	.word	0x20070da4

00081604 <twi_enable_interrupt>:
 *
 * \param p_twi Pointer to a TWI instance.
 * \param ul_sources Interrupts to be enabled.
 */
void twi_enable_interrupt(Twi *p_twi, uint32_t ul_sources)
{
   81604:	b480      	push	{r7}
   81606:	b083      	sub	sp, #12
   81608:	af00      	add	r7, sp, #0
   8160a:	6078      	str	r0, [r7, #4]
   8160c:	6039      	str	r1, [r7, #0]
	/* Enable the specified interrupts */
	p_twi->TWI_IER = ul_sources;
   8160e:	687b      	ldr	r3, [r7, #4]
   81610:	683a      	ldr	r2, [r7, #0]
   81612:	625a      	str	r2, [r3, #36]	; 0x24
}
   81614:	bf00      	nop
   81616:	370c      	adds	r7, #12
   81618:	46bd      	mov	sp, r7
   8161a:	bc80      	pop	{r7}
   8161c:	4770      	bx	lr

0008161e <twi_disable_interrupt>:
 *
 * \param p_twi Pointer to a TWI instance.
 * \param ul_sources Interrupts to be disabled.
 */
void twi_disable_interrupt(Twi *p_twi, uint32_t ul_sources)
{
   8161e:	b480      	push	{r7}
   81620:	b083      	sub	sp, #12
   81622:	af00      	add	r7, sp, #0
   81624:	6078      	str	r0, [r7, #4]
   81626:	6039      	str	r1, [r7, #0]
	/* Disable the specified interrupts */
	p_twi->TWI_IDR = ul_sources;
   81628:	687b      	ldr	r3, [r7, #4]
   8162a:	683a      	ldr	r2, [r7, #0]
   8162c:	629a      	str	r2, [r3, #40]	; 0x28
	/* Dummy read */
	p_twi->TWI_SR;
   8162e:	687b      	ldr	r3, [r7, #4]
   81630:	6a1b      	ldr	r3, [r3, #32]
}
   81632:	bf00      	nop
   81634:	370c      	adds	r7, #12
   81636:	46bd      	mov	sp, r7
   81638:	bc80      	pop	{r7}
   8163a:	4770      	bx	lr

0008163c <twi_get_interrupt_status>:
 * \param p_twi Pointer to a TWI instance.
 *
 * \retval TWI interrupt status.
 */
uint32_t twi_get_interrupt_status(Twi *p_twi)
{
   8163c:	b480      	push	{r7}
   8163e:	b083      	sub	sp, #12
   81640:	af00      	add	r7, sp, #0
   81642:	6078      	str	r0, [r7, #4]
	return p_twi->TWI_SR;
   81644:	687b      	ldr	r3, [r7, #4]
   81646:	6a1b      	ldr	r3, [r3, #32]
}
   81648:	4618      	mov	r0, r3
   8164a:	370c      	adds	r7, #12
   8164c:	46bd      	mov	sp, r7
   8164e:	bc80      	pop	{r7}
   81650:	4770      	bx	lr

00081652 <twi_get_interrupt_mask>:
 * \param p_twi Pointer to a TWI instance.
 *
 * \return The interrupt mask value.
 */
uint32_t twi_get_interrupt_mask(Twi *p_twi)
{
   81652:	b480      	push	{r7}
   81654:	b083      	sub	sp, #12
   81656:	af00      	add	r7, sp, #0
   81658:	6078      	str	r0, [r7, #4]
	return p_twi->TWI_IMR;
   8165a:	687b      	ldr	r3, [r7, #4]
   8165c:	6adb      	ldr	r3, [r3, #44]	; 0x2c
}
   8165e:	4618      	mov	r0, r3
   81660:	370c      	adds	r7, #12
   81662:	46bd      	mov	sp, r7
   81664:	bc80      	pop	{r7}
   81666:	4770      	bx	lr

00081668 <twi_read_byte>:
 * \param p_twi Pointer to a TWI instance.
 *
 * \return The byte read.
 */
uint8_t twi_read_byte(Twi *p_twi)
{
   81668:	b480      	push	{r7}
   8166a:	b083      	sub	sp, #12
   8166c:	af00      	add	r7, sp, #0
   8166e:	6078      	str	r0, [r7, #4]
	return p_twi->TWI_RHR;
   81670:	687b      	ldr	r3, [r7, #4]
   81672:	6b1b      	ldr	r3, [r3, #48]	; 0x30
   81674:	b2db      	uxtb	r3, r3
}
   81676:	4618      	mov	r0, r3
   81678:	370c      	adds	r7, #12
   8167a:	46bd      	mov	sp, r7
   8167c:	bc80      	pop	{r7}
   8167e:	4770      	bx	lr

00081680 <twi_reset>:
 * \brief Reset TWI.
 *
 * \param p_twi Pointer to a TWI instance.
 */
void twi_reset(Twi *p_twi)
{
   81680:	b480      	push	{r7}
   81682:	b083      	sub	sp, #12
   81684:	af00      	add	r7, sp, #0
   81686:	6078      	str	r0, [r7, #4]
	/* Set SWRST bit to reset TWI peripheral */
	p_twi->TWI_CR = TWI_CR_SWRST;
   81688:	687b      	ldr	r3, [r7, #4]
   8168a:	2280      	movs	r2, #128	; 0x80
   8168c:	601a      	str	r2, [r3, #0]
	p_twi->TWI_RHR;
   8168e:	687b      	ldr	r3, [r7, #4]
   81690:	6b1b      	ldr	r3, [r3, #48]	; 0x30
}
   81692:	bf00      	nop
   81694:	370c      	adds	r7, #12
   81696:	46bd      	mov	sp, r7
   81698:	bc80      	pop	{r7}
   8169a:	4770      	bx	lr

0008169c <compass_init>:

//local function
static void compass_callback(void);

void compass_init(void)
{
   8169c:	b580      	push	{r7, lr}
   8169e:	b082      	sub	sp, #8
   816a0:	af00      	add	r7, sp, #0
    twi_packet_t *rx_packet = twi_get_rx_packet();
   816a2:	4b0d      	ldr	r3, [pc, #52]	; (816d8 <compass_init+0x3c>)
   816a4:	4798      	blx	r3
   816a6:	6078      	str	r0, [r7, #4]

    rx_packet->chip = 0x60;
   816a8:	687b      	ldr	r3, [r7, #4]
   816aa:	2260      	movs	r2, #96	; 0x60
   816ac:	f883 210c 	strb.w	r2, [r3, #268]	; 0x10c
    rx_packet->addr[0] = 0x02;
   816b0:	687b      	ldr	r3, [r7, #4]
   816b2:	2202      	movs	r2, #2
   816b4:	701a      	strb	r2, [r3, #0]
    rx_packet->addr_length = 1;
   816b6:	687b      	ldr	r3, [r7, #4]
   816b8:	2201      	movs	r2, #1
   816ba:	605a      	str	r2, [r3, #4]
    rx_packet->length = sizeof(direction);
   816bc:	687b      	ldr	r3, [r7, #4]
   816be:	2202      	movs	r2, #2
   816c0:	f8c3 2108 	str.w	r2, [r3, #264]	; 0x108

    twi_set_compass_tx_callback(compass_callback);
   816c4:	4805      	ldr	r0, [pc, #20]	; (816dc <compass_init+0x40>)
   816c6:	4b06      	ldr	r3, [pc, #24]	; (816e0 <compass_init+0x44>)
   816c8:	4798      	blx	r3
    twi_set_compass_rx_callback(compass_callback);
   816ca:	4804      	ldr	r0, [pc, #16]	; (816dc <compass_init+0x40>)
   816cc:	4b05      	ldr	r3, [pc, #20]	; (816e4 <compass_init+0x48>)
   816ce:	4798      	blx	r3
}
   816d0:	bf00      	nop
   816d2:	3708      	adds	r7, #8
   816d4:	46bd      	mov	sp, r7
   816d6:	bd80      	pop	{r7, pc}
   816d8:	00081251 	.word	0x00081251
   816dc:	000817a5 	.word	0x000817a5
   816e0:	0008141d 	.word	0x0008141d
   816e4:	00081401 	.word	0x00081401

000816e8 <update_compass>:

void update_compass(void)
{
   816e8:	b580      	push	{r7, lr}
   816ea:	b082      	sub	sp, #8
   816ec:	af00      	add	r7, sp, #0
    twi_packet_t *rx_packet = twi_get_rx_packet();
   816ee:	4b1a      	ldr	r3, [pc, #104]	; (81758 <update_compass+0x70>)
   816f0:	4798      	blx	r3
   816f2:	6078      	str	r0, [r7, #4]

    if ((getTicks() - ul_ticks_compass) > 100)
   816f4:	4b19      	ldr	r3, [pc, #100]	; (8175c <update_compass+0x74>)
   816f6:	4798      	blx	r3
   816f8:	4602      	mov	r2, r0
   816fa:	4b19      	ldr	r3, [pc, #100]	; (81760 <update_compass+0x78>)
   816fc:	681b      	ldr	r3, [r3, #0]
   816fe:	1ad3      	subs	r3, r2, r3
   81700:	2b64      	cmp	r3, #100	; 0x64
   81702:	d926      	bls.n	81752 <update_compass+0x6a>
    {
        if(lcd_is_busy())
   81704:	4b17      	ldr	r3, [pc, #92]	; (81764 <update_compass+0x7c>)
   81706:	4798      	blx	r3
   81708:	4603      	mov	r3, r0
   8170a:	2b00      	cmp	r3, #0
   8170c:	d120      	bne.n	81750 <update_compass+0x68>
        {
            return;
        }

        ul_ticks_compass = getTicks();
   8170e:	4b13      	ldr	r3, [pc, #76]	; (8175c <update_compass+0x74>)
   81710:	4798      	blx	r3
   81712:	4602      	mov	r2, r0
   81714:	4b12      	ldr	r3, [pc, #72]	; (81760 <update_compass+0x78>)
   81716:	601a      	str	r2, [r3, #0]
        
        compassIsBusy = true;
   81718:	4b13      	ldr	r3, [pc, #76]	; (81768 <update_compass+0x80>)
   8171a:	2201      	movs	r2, #1
   8171c:	701a      	strb	r2, [r3, #0]
        if(twi_pdc_master_read(TWI0, rx_packet) == TWI_SUCCESS)
   8171e:	6879      	ldr	r1, [r7, #4]
   81720:	4812      	ldr	r0, [pc, #72]	; (8176c <update_compass+0x84>)
   81722:	4b13      	ldr	r3, [pc, #76]	; (81770 <update_compass+0x88>)
   81724:	4798      	blx	r3
   81726:	4603      	mov	r3, r0
   81728:	2b00      	cmp	r3, #0
   8172a:	d104      	bne.n	81736 <update_compass+0x4e>
        {
            while(compassIsBusy);
   8172c:	bf00      	nop
   8172e:	4b0e      	ldr	r3, [pc, #56]	; (81768 <update_compass+0x80>)
   81730:	781b      	ldrb	r3, [r3, #0]
   81732:	2b00      	cmp	r3, #0
   81734:	d1fb      	bne.n	8172e <update_compass+0x46>
        }
        direction = (rx_packet->buffer[0] << 8) | rx_packet->buffer[1];
   81736:	687b      	ldr	r3, [r7, #4]
   81738:	7a1b      	ldrb	r3, [r3, #8]
   8173a:	021b      	lsls	r3, r3, #8
   8173c:	b21a      	sxth	r2, r3
   8173e:	687b      	ldr	r3, [r7, #4]
   81740:	7a5b      	ldrb	r3, [r3, #9]
   81742:	b21b      	sxth	r3, r3
   81744:	4313      	orrs	r3, r2
   81746:	b21b      	sxth	r3, r3
   81748:	b29a      	uxth	r2, r3
   8174a:	4b0a      	ldr	r3, [pc, #40]	; (81774 <update_compass+0x8c>)
   8174c:	801a      	strh	r2, [r3, #0]
   8174e:	e000      	b.n	81752 <update_compass+0x6a>
            return;
   81750:	bf00      	nop
    }
}
   81752:	3708      	adds	r7, #8
   81754:	46bd      	mov	sp, r7
   81756:	bd80      	pop	{r7, pc}
   81758:	00081251 	.word	0x00081251
   8175c:	00083281 	.word	0x00083281
   81760:	20070fc0 	.word	0x20070fc0
   81764:	00081bed 	.word	0x00081bed
   81768:	20070da8 	.word	0x20070da8
   8176c:	4008c000 	.word	0x4008c000
   81770:	00081265 	.word	0x00081265
   81774:	20070e20 	.word	0x20070e20

00081778 <set_compass_is_busy>:

void set_compass_is_busy(void)
{
   81778:	b480      	push	{r7}
   8177a:	af00      	add	r7, sp, #0
    compassIsBusy = true;
   8177c:	4b03      	ldr	r3, [pc, #12]	; (8178c <set_compass_is_busy+0x14>)
   8177e:	2201      	movs	r2, #1
   81780:	701a      	strb	r2, [r3, #0]
}
   81782:	bf00      	nop
   81784:	46bd      	mov	sp, r7
   81786:	bc80      	pop	{r7}
   81788:	4770      	bx	lr
   8178a:	bf00      	nop
   8178c:	20070da8 	.word	0x20070da8

00081790 <compass_is_busy>:

uint8_t compass_is_busy(void)
{
   81790:	b480      	push	{r7}
   81792:	af00      	add	r7, sp, #0
    return compassIsBusy;
   81794:	4b02      	ldr	r3, [pc, #8]	; (817a0 <compass_is_busy+0x10>)
   81796:	781b      	ldrb	r3, [r3, #0]
}
   81798:	4618      	mov	r0, r3
   8179a:	46bd      	mov	sp, r7
   8179c:	bc80      	pop	{r7}
   8179e:	4770      	bx	lr
   817a0:	20070da8 	.word	0x20070da8

000817a4 <compass_callback>:
    return tmp_corr;
}*/

//local function
static void compass_callback(void)
{
   817a4:	b480      	push	{r7}
   817a6:	af00      	add	r7, sp, #0
    compassIsBusy = false;
   817a8:	4b03      	ldr	r3, [pc, #12]	; (817b8 <compass_callback+0x14>)
   817aa:	2200      	movs	r2, #0
   817ac:	701a      	strb	r2, [r3, #0]
}
   817ae:	bf00      	nop
   817b0:	46bd      	mov	sp, r7
   817b2:	bc80      	pop	{r7}
   817b4:	4770      	bx	lr
   817b6:	bf00      	nop
   817b8:	20070da8 	.word	0x20070da8

000817bc <osc_get_rate>:
{
   817bc:	b480      	push	{r7}
   817be:	b083      	sub	sp, #12
   817c0:	af00      	add	r7, sp, #0
   817c2:	6078      	str	r0, [r7, #4]
	switch (ul_id) {
   817c4:	687b      	ldr	r3, [r7, #4]
   817c6:	2b07      	cmp	r3, #7
   817c8:	d825      	bhi.n	81816 <osc_get_rate+0x5a>
   817ca:	a201      	add	r2, pc, #4	; (adr r2, 817d0 <osc_get_rate+0x14>)
   817cc:	f852 f023 	ldr.w	pc, [r2, r3, lsl #2]
   817d0:	000817f1 	.word	0x000817f1
   817d4:	000817f7 	.word	0x000817f7
   817d8:	000817fd 	.word	0x000817fd
   817dc:	00081803 	.word	0x00081803
   817e0:	00081807 	.word	0x00081807
   817e4:	0008180b 	.word	0x0008180b
   817e8:	0008180f 	.word	0x0008180f
   817ec:	00081813 	.word	0x00081813
		return OSC_SLCK_32K_RC_HZ;
   817f0:	f44f 43fa 	mov.w	r3, #32000	; 0x7d00
   817f4:	e010      	b.n	81818 <osc_get_rate+0x5c>
		return BOARD_FREQ_SLCK_XTAL;
   817f6:	f44f 4300 	mov.w	r3, #32768	; 0x8000
   817fa:	e00d      	b.n	81818 <osc_get_rate+0x5c>
		return BOARD_FREQ_SLCK_BYPASS;
   817fc:	f44f 4300 	mov.w	r3, #32768	; 0x8000
   81800:	e00a      	b.n	81818 <osc_get_rate+0x5c>
		return OSC_MAINCK_4M_RC_HZ;
   81802:	4b08      	ldr	r3, [pc, #32]	; (81824 <osc_get_rate+0x68>)
   81804:	e008      	b.n	81818 <osc_get_rate+0x5c>
		return OSC_MAINCK_8M_RC_HZ;
   81806:	4b08      	ldr	r3, [pc, #32]	; (81828 <osc_get_rate+0x6c>)
   81808:	e006      	b.n	81818 <osc_get_rate+0x5c>
		return OSC_MAINCK_12M_RC_HZ;
   8180a:	4b08      	ldr	r3, [pc, #32]	; (8182c <osc_get_rate+0x70>)
   8180c:	e004      	b.n	81818 <osc_get_rate+0x5c>
		return BOARD_FREQ_MAINCK_XTAL;
   8180e:	4b07      	ldr	r3, [pc, #28]	; (8182c <osc_get_rate+0x70>)
   81810:	e002      	b.n	81818 <osc_get_rate+0x5c>
		return BOARD_FREQ_MAINCK_BYPASS;
   81812:	4b06      	ldr	r3, [pc, #24]	; (8182c <osc_get_rate+0x70>)
   81814:	e000      	b.n	81818 <osc_get_rate+0x5c>
	return 0;
   81816:	2300      	movs	r3, #0
}
   81818:	4618      	mov	r0, r3
   8181a:	370c      	adds	r7, #12
   8181c:	46bd      	mov	sp, r7
   8181e:	bc80      	pop	{r7}
   81820:	4770      	bx	lr
   81822:	bf00      	nop
   81824:	003d0900 	.word	0x003d0900
   81828:	007a1200 	.word	0x007a1200
   8182c:	00b71b00 	.word	0x00b71b00

00081830 <sysclk_get_main_hz>:
{
   81830:	b580      	push	{r7, lr}
   81832:	af00      	add	r7, sp, #0
		return pll_get_default_rate(0);
   81834:	2006      	movs	r0, #6
   81836:	4b04      	ldr	r3, [pc, #16]	; (81848 <sysclk_get_main_hz+0x18>)
   81838:	4798      	blx	r3
   8183a:	4602      	mov	r2, r0
   8183c:	4613      	mov	r3, r2
   8183e:	00db      	lsls	r3, r3, #3
   81840:	1a9b      	subs	r3, r3, r2
   81842:	005b      	lsls	r3, r3, #1
}
   81844:	4618      	mov	r0, r3
   81846:	bd80      	pop	{r7, pc}
   81848:	000817bd 	.word	0x000817bd

0008184c <sysclk_get_peripheral_hz>:
{
   8184c:	b580      	push	{r7, lr}
   8184e:	af00      	add	r7, sp, #0
	return sysclk_get_main_hz() /
   81850:	4b02      	ldr	r3, [pc, #8]	; (8185c <sysclk_get_peripheral_hz+0x10>)
   81852:	4798      	blx	r3
   81854:	4603      	mov	r3, r0
   81856:	085b      	lsrs	r3, r3, #1
}
   81858:	4618      	mov	r0, r3
   8185a:	bd80      	pop	{r7, pc}
   8185c:	00081831 	.word	0x00081831

00081860 <sysclk_enable_peripheral_clock>:
 * \brief Enable a peripheral's clock.
 *
 * \param ul_id Id (number) of the peripheral clock.
 */
static inline void sysclk_enable_peripheral_clock(uint32_t ul_id)
{
   81860:	b580      	push	{r7, lr}
   81862:	b082      	sub	sp, #8
   81864:	af00      	add	r7, sp, #0
   81866:	6078      	str	r0, [r7, #4]
	pmc_enable_periph_clk(ul_id);
   81868:	6878      	ldr	r0, [r7, #4]
   8186a:	4b03      	ldr	r3, [pc, #12]	; (81878 <sysclk_enable_peripheral_clock+0x18>)
   8186c:	4798      	blx	r3
}
   8186e:	bf00      	nop
   81870:	3708      	adds	r7, #8
   81872:	46bd      	mov	sp, r7
   81874:	bd80      	pop	{r7, pc}
   81876:	bf00      	nop
   81878:	00083c41 	.word	0x00083c41

0008187c <twi_master_setup>:
typedef twi_options_t twi_master_options_t;
typedef twi_packet_t twi_package_t;

static inline uint32_t twi_master_setup(twi_master_t p_twi,
		twi_master_options_t *p_opt)
{
   8187c:	b580      	push	{r7, lr}
   8187e:	b082      	sub	sp, #8
   81880:	af00      	add	r7, sp, #0
   81882:	6078      	str	r0, [r7, #4]
   81884:	6039      	str	r1, [r7, #0]
	p_opt->master_clk = sysclk_get_peripheral_hz();
   81886:	4b10      	ldr	r3, [pc, #64]	; (818c8 <twi_master_setup+0x4c>)
   81888:	4798      	blx	r3
   8188a:	4602      	mov	r2, r0
   8188c:	683b      	ldr	r3, [r7, #0]
   8188e:	601a      	str	r2, [r3, #0]
	p_opt->smbus      = 0;
   81890:	683b      	ldr	r3, [r7, #0]
   81892:	2200      	movs	r2, #0
   81894:	725a      	strb	r2, [r3, #9]
	} else {
		// Do Nothing
	}
#else
#if (!(SAMG51 || SAMG53 || SAMG54))
	if (p_twi == TWI0) {
   81896:	687b      	ldr	r3, [r7, #4]
   81898:	4a0c      	ldr	r2, [pc, #48]	; (818cc <twi_master_setup+0x50>)
   8189a:	4293      	cmp	r3, r2
   8189c:	d103      	bne.n	818a6 <twi_master_setup+0x2a>
		sysclk_enable_peripheral_clock(ID_TWI0);
   8189e:	2016      	movs	r0, #22
   818a0:	4b0b      	ldr	r3, [pc, #44]	; (818d0 <twi_master_setup+0x54>)
   818a2:	4798      	blx	r3
   818a4:	e006      	b.n	818b4 <twi_master_setup+0x38>
	} else
#endif
	if (p_twi == TWI1) {
   818a6:	687b      	ldr	r3, [r7, #4]
   818a8:	4a0a      	ldr	r2, [pc, #40]	; (818d4 <twi_master_setup+0x58>)
   818aa:	4293      	cmp	r3, r2
   818ac:	d102      	bne.n	818b4 <twi_master_setup+0x38>
		sysclk_enable_peripheral_clock(ID_TWI1);
   818ae:	2017      	movs	r0, #23
   818b0:	4b07      	ldr	r3, [pc, #28]	; (818d0 <twi_master_setup+0x54>)
   818b2:	4798      	blx	r3
	} else {
		// Do Nothing
	}
#endif

	return (twi_master_init(p_twi, p_opt));
   818b4:	6839      	ldr	r1, [r7, #0]
   818b6:	6878      	ldr	r0, [r7, #4]
   818b8:	4b07      	ldr	r3, [pc, #28]	; (818d8 <twi_master_setup+0x5c>)
   818ba:	4798      	blx	r3
   818bc:	4603      	mov	r3, r0
}
   818be:	4618      	mov	r0, r3
   818c0:	3708      	adds	r7, #8
   818c2:	46bd      	mov	sp, r7
   818c4:	bd80      	pop	{r7, pc}
   818c6:	bf00      	nop
   818c8:	0008184d 	.word	0x0008184d
   818cc:	4008c000 	.word	0x4008c000
   818d0:	00081861 	.word	0x00081861
   818d4:	40090000 	.word	0x40090000
   818d8:	0008104d 	.word	0x0008104d

000818dc <lcd_init>:

/************************************************************
* Functions                                                 *
************************************************************/
void lcd_init(void)
{
   818dc:	b580      	push	{r7, lr}
   818de:	af00      	add	r7, sp, #0
    twi_set_lcd_tx_callback(lcd_callback);
   818e0:	4821      	ldr	r0, [pc, #132]	; (81968 <lcd_init+0x8c>)
   818e2:	4b22      	ldr	r3, [pc, #136]	; (8196c <lcd_init+0x90>)
   818e4:	4798      	blx	r3

    memset((void *)&twiConfig, 0, sizeof(twiConfig));
   818e6:	220c      	movs	r2, #12
   818e8:	2100      	movs	r1, #0
   818ea:	4821      	ldr	r0, [pc, #132]	; (81970 <lcd_init+0x94>)
   818ec:	4b21      	ldr	r3, [pc, #132]	; (81974 <lcd_init+0x98>)
   818ee:	4798      	blx	r3
    twiConfig.speed = 100000;
   818f0:	4b1f      	ldr	r3, [pc, #124]	; (81970 <lcd_init+0x94>)
   818f2:	4a21      	ldr	r2, [pc, #132]	; (81978 <lcd_init+0x9c>)
   818f4:	605a      	str	r2, [r3, #4]

    backlight = LCD_LIGHT_OFF;
   818f6:	4b21      	ldr	r3, [pc, #132]	; (8197c <lcd_init+0xa0>)
   818f8:	2200      	movs	r2, #0
   818fa:	701a      	strb	r2, [r3, #0]

    send_nibble(LCD_FUNTION_WRITE, 0x03);
   818fc:	2103      	movs	r1, #3
   818fe:	2000      	movs	r0, #0
   81900:	4b1f      	ldr	r3, [pc, #124]	; (81980 <lcd_init+0xa4>)
   81902:	4798      	blx	r3
    mdelay(LCD_INIT_WAIT_TIME);
   81904:	2006      	movs	r0, #6
   81906:	4b1f      	ldr	r3, [pc, #124]	; (81984 <lcd_init+0xa8>)
   81908:	4798      	blx	r3
    send_nibble(LCD_FUNTION_WRITE, 0x03);
   8190a:	2103      	movs	r1, #3
   8190c:	2000      	movs	r0, #0
   8190e:	4b1c      	ldr	r3, [pc, #112]	; (81980 <lcd_init+0xa4>)
   81910:	4798      	blx	r3
    mdelay(LCD_INIT_WAIT_TIME);
   81912:	2006      	movs	r0, #6
   81914:	4b1b      	ldr	r3, [pc, #108]	; (81984 <lcd_init+0xa8>)
   81916:	4798      	blx	r3
    send_nibble(LCD_FUNTION_WRITE, 0x03);
   81918:	2103      	movs	r1, #3
   8191a:	2000      	movs	r0, #0
   8191c:	4b18      	ldr	r3, [pc, #96]	; (81980 <lcd_init+0xa4>)
   8191e:	4798      	blx	r3
    mdelay(LCD_INIT_WAIT_TIME);
   81920:	2006      	movs	r0, #6
   81922:	4b18      	ldr	r3, [pc, #96]	; (81984 <lcd_init+0xa8>)
   81924:	4798      	blx	r3
    send_nibble(LCD_FUNTION_WRITE, 0x02);     // Interface: 4-Bit
   81926:	2102      	movs	r1, #2
   81928:	2000      	movs	r0, #0
   8192a:	4b15      	ldr	r3, [pc, #84]	; (81980 <lcd_init+0xa4>)
   8192c:	4798      	blx	r3
    send_byte(LCD_FUNTION_WRITE, 0x28);       // Interface: 4-Bit, 2-lines, 5x8-dots
   8192e:	2128      	movs	r1, #40	; 0x28
   81930:	2000      	movs	r0, #0
   81932:	4b15      	ldr	r3, [pc, #84]	; (81988 <lcd_init+0xac>)
   81934:	4798      	blx	r3
    send_byte(LCD_FUNTION_WRITE, 0x08);       // Display off, cursor off, cursor is underline
   81936:	2108      	movs	r1, #8
   81938:	2000      	movs	r0, #0
   8193a:	4b13      	ldr	r3, [pc, #76]	; (81988 <lcd_init+0xac>)
   8193c:	4798      	blx	r3
    send_byte(LCD_FUNTION_WRITE, 0x01);       // Clear display
   8193e:	2101      	movs	r1, #1
   81940:	2000      	movs	r0, #0
   81942:	4b11      	ldr	r3, [pc, #68]	; (81988 <lcd_init+0xac>)
   81944:	4798      	blx	r3
    mdelay(LCD_CLEAR_WAIT_TIME);
   81946:	2003      	movs	r0, #3
   81948:	4b0e      	ldr	r3, [pc, #56]	; (81984 <lcd_init+0xa8>)
   8194a:	4798      	blx	r3
    send_byte(LCD_FUNTION_WRITE, 0x06);       // Cursor moves right, no display shift
   8194c:	2106      	movs	r1, #6
   8194e:	2000      	movs	r0, #0
   81950:	4b0d      	ldr	r3, [pc, #52]	; (81988 <lcd_init+0xac>)
   81952:	4798      	blx	r3
    send_byte(LCD_FUNTION_WRITE, 0x0C);       // Display on, cursor off, cursor is underline
   81954:	210c      	movs	r1, #12
   81956:	2000      	movs	r0, #0
   81958:	4b0b      	ldr	r3, [pc, #44]	; (81988 <lcd_init+0xac>)
   8195a:	4798      	blx	r3

    backlight = LCD_LIGHT_ON;
   8195c:	4b07      	ldr	r3, [pc, #28]	; (8197c <lcd_init+0xa0>)
   8195e:	2208      	movs	r2, #8
   81960:	701a      	strb	r2, [r3, #0]
}
   81962:	bf00      	nop
   81964:	bd80      	pop	{r7, pc}
   81966:	bf00      	nop
   81968:	00081e51 	.word	0x00081e51
   8196c:	00081439 	.word	0x00081439
   81970:	20070db4 	.word	0x20070db4
   81974:	0008582d 	.word	0x0008582d
   81978:	000186a0 	.word	0x000186a0
   8197c:	20070da9 	.word	0x20070da9
   81980:	00081c01 	.word	0x00081c01
   81984:	00083295 	.word	0x00083295
   81988:	00081d11 	.word	0x00081d11

0008198c <lcd_set_backlight>:

void lcd_set_backlight(backlight_t state)
{
   8198c:	b480      	push	{r7}
   8198e:	b083      	sub	sp, #12
   81990:	af00      	add	r7, sp, #0
   81992:	4603      	mov	r3, r0
   81994:	71fb      	strb	r3, [r7, #7]
    backlight = state;
   81996:	4a04      	ldr	r2, [pc, #16]	; (819a8 <lcd_set_backlight+0x1c>)
   81998:	79fb      	ldrb	r3, [r7, #7]
   8199a:	7013      	strb	r3, [r2, #0]
//    send_byte(LCD_FUNTION_WRITE, 0x01);   // clear display
//    mdelay(LCD_CLEAR_WAIT_TIME);
}
   8199c:	bf00      	nop
   8199e:	370c      	adds	r7, #12
   819a0:	46bd      	mov	sp, r7
   819a2:	bc80      	pop	{r7}
   819a4:	4770      	bx	lr
   819a6:	bf00      	nop
   819a8:	20070da9 	.word	0x20070da9

000819ac <lcd_clear>:

void lcd_clear(void)
{
   819ac:	b580      	push	{r7, lr}
   819ae:	af00      	add	r7, sp, #0
    send_byte(LCD_FUNTION_WRITE, 0x01);   // clear display
   819b0:	2101      	movs	r1, #1
   819b2:	2000      	movs	r0, #0
   819b4:	4b03      	ldr	r3, [pc, #12]	; (819c4 <lcd_clear+0x18>)
   819b6:	4798      	blx	r3
    mdelay(LCD_CLEAR_WAIT_TIME);
   819b8:	2003      	movs	r0, #3
   819ba:	4b03      	ldr	r3, [pc, #12]	; (819c8 <lcd_clear+0x1c>)
   819bc:	4798      	blx	r3
}
   819be:	bf00      	nop
   819c0:	bd80      	pop	{r7, pc}
   819c2:	bf00      	nop
   819c4:	00081d11 	.word	0x00081d11
   819c8:	00083295 	.word	0x00083295

000819cc <lcd_print_s>:
    sprintf(str, "%10lu", data);
    lcd_print_s(line, col, str);
}

void lcd_print_s(uint8_t line, uint8_t col, const char* str)
{
   819cc:	b590      	push	{r4, r7, lr}
   819ce:	b087      	sub	sp, #28
   819d0:	af00      	add	r7, sp, #0
   819d2:	4603      	mov	r3, r0
   819d4:	603a      	str	r2, [r7, #0]
   819d6:	71fb      	strb	r3, [r7, #7]
   819d8:	460b      	mov	r3, r1
   819da:	71bb      	strb	r3, [r7, #6]
    twi_packet_t *tx_packet = twi_get_tx_packet();
   819dc:	4b75      	ldr	r3, [pc, #468]	; (81bb4 <lcd_print_s+0x1e8>)
   819de:	4798      	blx	r3
   819e0:	6138      	str	r0, [r7, #16]
    uint8_t addr;
    uint8_t cmd;
    uint8_t byte;
    uint8_t count;
    
    while(lcdIsBusy | twi_is_busy())
   819e2:	e019      	b.n	81a18 <lcd_print_s+0x4c>
    {
        if((getTicks() - lcdStartTicks) > LCD_TIMEOUT_DELAY)
   819e4:	4b74      	ldr	r3, [pc, #464]	; (81bb8 <lcd_print_s+0x1ec>)
   819e6:	4798      	blx	r3
   819e8:	4602      	mov	r2, r0
   819ea:	4b74      	ldr	r3, [pc, #464]	; (81bbc <lcd_print_s+0x1f0>)
   819ec:	681b      	ldr	r3, [r3, #0]
   819ee:	1ad3      	subs	r3, r2, r3
   819f0:	2b0a      	cmp	r3, #10
   819f2:	d911      	bls.n	81a18 <lcd_print_s+0x4c>
        {
            lcdIsBusy = false;
   819f4:	4b72      	ldr	r3, [pc, #456]	; (81bc0 <lcd_print_s+0x1f4>)
   819f6:	2200      	movs	r2, #0
   819f8:	701a      	strb	r2, [r3, #0]
            lcdTimeoutErrorCntr++;
   819fa:	4b72      	ldr	r3, [pc, #456]	; (81bc4 <lcd_print_s+0x1f8>)
   819fc:	681b      	ldr	r3, [r3, #0]
   819fe:	3301      	adds	r3, #1
   81a00:	4a70      	ldr	r2, [pc, #448]	; (81bc4 <lcd_print_s+0x1f8>)
   81a02:	6013      	str	r3, [r2, #0]
            pdc_disable_transfer(PDC_TWI0, PERIPH_PTCR_TXTDIS | PERIPH_PTCR_RXTDIS);
   81a04:	f240 2102 	movw	r1, #514	; 0x202
   81a08:	486f      	ldr	r0, [pc, #444]	; (81bc8 <lcd_print_s+0x1fc>)
   81a0a:	4b70      	ldr	r3, [pc, #448]	; (81bcc <lcd_print_s+0x200>)
   81a0c:	4798      	blx	r3
            twi_master_setup(TWI0, &twiConfig);
   81a0e:	4970      	ldr	r1, [pc, #448]	; (81bd0 <lcd_print_s+0x204>)
   81a10:	4870      	ldr	r0, [pc, #448]	; (81bd4 <lcd_print_s+0x208>)
   81a12:	4b71      	ldr	r3, [pc, #452]	; (81bd8 <lcd_print_s+0x20c>)
   81a14:	4798      	blx	r3
            break;
   81a16:	e009      	b.n	81a2c <lcd_print_s+0x60>
    while(lcdIsBusy | twi_is_busy())
   81a18:	4b70      	ldr	r3, [pc, #448]	; (81bdc <lcd_print_s+0x210>)
   81a1a:	4798      	blx	r3
   81a1c:	4603      	mov	r3, r0
   81a1e:	461a      	mov	r2, r3
   81a20:	4b67      	ldr	r3, [pc, #412]	; (81bc0 <lcd_print_s+0x1f4>)
   81a22:	781b      	ldrb	r3, [r3, #0]
   81a24:	4313      	orrs	r3, r2
   81a26:	b2db      	uxtb	r3, r3
   81a28:	2b00      	cmp	r3, #0
   81a2a:	d1db      	bne.n	819e4 <lcd_print_s+0x18>
        }
    }

    tx_packet->chip = 0x27;
   81a2c:	693b      	ldr	r3, [r7, #16]
   81a2e:	2227      	movs	r2, #39	; 0x27
   81a30:	f883 210c 	strb.w	r2, [r3, #268]	; 0x10c
    tx_packet->addr[0] = 0x00;
   81a34:	693b      	ldr	r3, [r7, #16]
   81a36:	2200      	movs	r2, #0
   81a38:	701a      	strb	r2, [r3, #0]
    tx_packet->addr_length = 0;
   81a3a:	693b      	ldr	r3, [r7, #16]
   81a3c:	2200      	movs	r2, #0
   81a3e:	605a      	str	r2, [r3, #4]
    
    // Calculate display address
    switch(line)
   81a40:	79fb      	ldrb	r3, [r7, #7]
   81a42:	2b03      	cmp	r3, #3
   81a44:	d006      	beq.n	81a54 <lcd_print_s+0x88>
   81a46:	2b04      	cmp	r3, #4
   81a48:	d007      	beq.n	81a5a <lcd_print_s+0x8e>
   81a4a:	2b02      	cmp	r3, #2
   81a4c:	d108      	bne.n	81a60 <lcd_print_s+0x94>
    {
        case 2:
        addr = 0x80 | 0x40;   // set address to start of line 2
   81a4e:	23c0      	movs	r3, #192	; 0xc0
   81a50:	75fb      	strb	r3, [r7, #23]
        break;
   81a52:	e008      	b.n	81a66 <lcd_print_s+0x9a>
        case 3:
        addr = 0x80 | 0x14;   // set address to start of line 3
   81a54:	2394      	movs	r3, #148	; 0x94
   81a56:	75fb      	strb	r3, [r7, #23]
        break;
   81a58:	e005      	b.n	81a66 <lcd_print_s+0x9a>
        case 4:
        addr = 0x80 | 0x54;   // set address to start of line 4
   81a5a:	23d4      	movs	r3, #212	; 0xd4
   81a5c:	75fb      	strb	r3, [r7, #23]
        break;
   81a5e:	e002      	b.n	81a66 <lcd_print_s+0x9a>
        case 1:
        default:
        addr = 0x80;          // set address to start of line 1
   81a60:	2380      	movs	r3, #128	; 0x80
   81a62:	75fb      	strb	r3, [r7, #23]
        break;
   81a64:	bf00      	nop
    }
    addr += col;  // set column in the selected line
   81a66:	7dfa      	ldrb	r2, [r7, #23]
   81a68:	79bb      	ldrb	r3, [r7, #6]
   81a6a:	4413      	add	r3, r2
   81a6c:	75fb      	strb	r3, [r7, #23]

    // Set cursor
    cmd = LCD_FUNTION_WRITE | backlight;
   81a6e:	4b5c      	ldr	r3, [pc, #368]	; (81be0 <lcd_print_s+0x214>)
   81a70:	781b      	ldrb	r3, [r3, #0]
   81a72:	73fb      	strb	r3, [r7, #15]
    tx_packet->buffer[0] = cmd | LCD_ENABLE_HIGH | (addr & 0xF0);
   81a74:	7dfb      	ldrb	r3, [r7, #23]
   81a76:	f023 030f 	bic.w	r3, r3, #15
   81a7a:	b2da      	uxtb	r2, r3
   81a7c:	7bfb      	ldrb	r3, [r7, #15]
   81a7e:	4313      	orrs	r3, r2
   81a80:	b2db      	uxtb	r3, r3
   81a82:	f043 0304 	orr.w	r3, r3, #4
   81a86:	b2da      	uxtb	r2, r3
   81a88:	693b      	ldr	r3, [r7, #16]
   81a8a:	721a      	strb	r2, [r3, #8]
    tx_packet->buffer[1] = cmd | LCD_ENABLE_LOW  | (addr & 0xF0);
   81a8c:	f997 3017 	ldrsb.w	r3, [r7, #23]
   81a90:	f023 030f 	bic.w	r3, r3, #15
   81a94:	b25a      	sxtb	r2, r3
   81a96:	f997 300f 	ldrsb.w	r3, [r7, #15]
   81a9a:	4313      	orrs	r3, r2
   81a9c:	b25b      	sxtb	r3, r3
   81a9e:	b2da      	uxtb	r2, r3
   81aa0:	693b      	ldr	r3, [r7, #16]
   81aa2:	725a      	strb	r2, [r3, #9]
    tx_packet->buffer[2] = cmd | LCD_ENABLE_HIGH | ((addr & 0x0F) << 4);
   81aa4:	7dfb      	ldrb	r3, [r7, #23]
   81aa6:	011b      	lsls	r3, r3, #4
   81aa8:	b2da      	uxtb	r2, r3
   81aaa:	7bfb      	ldrb	r3, [r7, #15]
   81aac:	4313      	orrs	r3, r2
   81aae:	b2db      	uxtb	r3, r3
   81ab0:	f043 0304 	orr.w	r3, r3, #4
   81ab4:	b2da      	uxtb	r2, r3
   81ab6:	693b      	ldr	r3, [r7, #16]
   81ab8:	729a      	strb	r2, [r3, #10]
    tx_packet->buffer[3] = cmd | LCD_ENABLE_LOW  | ((addr & 0x0F) << 4);
   81aba:	7dfb      	ldrb	r3, [r7, #23]
   81abc:	011b      	lsls	r3, r3, #4
   81abe:	b25a      	sxtb	r2, r3
   81ac0:	f997 300f 	ldrsb.w	r3, [r7, #15]
   81ac4:	4313      	orrs	r3, r2
   81ac6:	b25b      	sxtb	r3, r3
   81ac8:	b2da      	uxtb	r2, r3
   81aca:	693b      	ldr	r3, [r7, #16]
   81acc:	72da      	strb	r2, [r3, #11]
    
    // write string ...
    cmd = LCD_WRITE_DDR | backlight;
   81ace:	4b44      	ldr	r3, [pc, #272]	; (81be0 <lcd_print_s+0x214>)
   81ad0:	781b      	ldrb	r3, [r3, #0]
   81ad2:	f043 0301 	orr.w	r3, r3, #1
   81ad6:	73fb      	strb	r3, [r7, #15]
    for(count = 0; count < strlen(str); count++)
   81ad8:	2300      	movs	r3, #0
   81ada:	75bb      	strb	r3, [r7, #22]
   81adc:	e04b      	b.n	81b76 <lcd_print_s+0x1aa>
    {
        byte = str[count];
   81ade:	7dbb      	ldrb	r3, [r7, #22]
   81ae0:	683a      	ldr	r2, [r7, #0]
   81ae2:	4413      	add	r3, r2
   81ae4:	781b      	ldrb	r3, [r3, #0]
   81ae6:	73bb      	strb	r3, [r7, #14]
        tx_packet->buffer[4 + count * 4 + 0] = cmd | LCD_ENABLE_HIGH | (byte & 0xF0);
   81ae8:	7dbb      	ldrb	r3, [r7, #22]
   81aea:	3301      	adds	r3, #1
   81aec:	009b      	lsls	r3, r3, #2
   81aee:	7bba      	ldrb	r2, [r7, #14]
   81af0:	f022 020f 	bic.w	r2, r2, #15
   81af4:	b2d1      	uxtb	r1, r2
   81af6:	7bfa      	ldrb	r2, [r7, #15]
   81af8:	430a      	orrs	r2, r1
   81afa:	b2d2      	uxtb	r2, r2
   81afc:	f042 0204 	orr.w	r2, r2, #4
   81b00:	b2d1      	uxtb	r1, r2
   81b02:	693a      	ldr	r2, [r7, #16]
   81b04:	4413      	add	r3, r2
   81b06:	460a      	mov	r2, r1
   81b08:	721a      	strb	r2, [r3, #8]
        tx_packet->buffer[4 + count * 4 + 1] = cmd | LCD_ENABLE_LOW  | (byte & 0xF0);
   81b0a:	7dbb      	ldrb	r3, [r7, #22]
   81b0c:	3301      	adds	r3, #1
   81b0e:	009b      	lsls	r3, r3, #2
   81b10:	3301      	adds	r3, #1
   81b12:	f997 200e 	ldrsb.w	r2, [r7, #14]
   81b16:	f022 020f 	bic.w	r2, r2, #15
   81b1a:	b251      	sxtb	r1, r2
   81b1c:	f997 200f 	ldrsb.w	r2, [r7, #15]
   81b20:	430a      	orrs	r2, r1
   81b22:	b252      	sxtb	r2, r2
   81b24:	b2d1      	uxtb	r1, r2
   81b26:	693a      	ldr	r2, [r7, #16]
   81b28:	4413      	add	r3, r2
   81b2a:	460a      	mov	r2, r1
   81b2c:	721a      	strb	r2, [r3, #8]
        tx_packet->buffer[4 + count * 4 + 2] = cmd | LCD_ENABLE_HIGH | ((byte & 0x0F) << 4);
   81b2e:	7dbb      	ldrb	r3, [r7, #22]
   81b30:	3301      	adds	r3, #1
   81b32:	009b      	lsls	r3, r3, #2
   81b34:	3302      	adds	r3, #2
   81b36:	7bba      	ldrb	r2, [r7, #14]
   81b38:	0112      	lsls	r2, r2, #4
   81b3a:	b2d1      	uxtb	r1, r2
   81b3c:	7bfa      	ldrb	r2, [r7, #15]
   81b3e:	430a      	orrs	r2, r1
   81b40:	b2d2      	uxtb	r2, r2
   81b42:	f042 0204 	orr.w	r2, r2, #4
   81b46:	b2d1      	uxtb	r1, r2
   81b48:	693a      	ldr	r2, [r7, #16]
   81b4a:	4413      	add	r3, r2
   81b4c:	460a      	mov	r2, r1
   81b4e:	721a      	strb	r2, [r3, #8]
        tx_packet->buffer[4 + count * 4 + 3] = cmd | LCD_ENABLE_LOW  | ((byte & 0x0F) << 4);
   81b50:	7dbb      	ldrb	r3, [r7, #22]
   81b52:	3301      	adds	r3, #1
   81b54:	009b      	lsls	r3, r3, #2
   81b56:	3303      	adds	r3, #3
   81b58:	7bba      	ldrb	r2, [r7, #14]
   81b5a:	0112      	lsls	r2, r2, #4
   81b5c:	b251      	sxtb	r1, r2
   81b5e:	f997 200f 	ldrsb.w	r2, [r7, #15]
   81b62:	430a      	orrs	r2, r1
   81b64:	b252      	sxtb	r2, r2
   81b66:	b2d1      	uxtb	r1, r2
   81b68:	693a      	ldr	r2, [r7, #16]
   81b6a:	4413      	add	r3, r2
   81b6c:	460a      	mov	r2, r1
   81b6e:	721a      	strb	r2, [r3, #8]
    for(count = 0; count < strlen(str); count++)
   81b70:	7dbb      	ldrb	r3, [r7, #22]
   81b72:	3301      	adds	r3, #1
   81b74:	75bb      	strb	r3, [r7, #22]
   81b76:	7dbc      	ldrb	r4, [r7, #22]
   81b78:	6838      	ldr	r0, [r7, #0]
   81b7a:	4b1a      	ldr	r3, [pc, #104]	; (81be4 <lcd_print_s+0x218>)
   81b7c:	4798      	blx	r3
   81b7e:	4603      	mov	r3, r0
   81b80:	429c      	cmp	r4, r3
   81b82:	d3ac      	bcc.n	81ade <lcd_print_s+0x112>
    }
    tx_packet->length = 4 + count * 4;
   81b84:	7dbb      	ldrb	r3, [r7, #22]
   81b86:	3301      	adds	r3, #1
   81b88:	009b      	lsls	r3, r3, #2
   81b8a:	461a      	mov	r2, r3
   81b8c:	693b      	ldr	r3, [r7, #16]
   81b8e:	f8c3 2108 	str.w	r2, [r3, #264]	; 0x108

    lcdIsBusy = true;
   81b92:	4b0b      	ldr	r3, [pc, #44]	; (81bc0 <lcd_print_s+0x1f4>)
   81b94:	2201      	movs	r2, #1
   81b96:	701a      	strb	r2, [r3, #0]
    twi_pdc_master_write(TWI0, tx_packet);
   81b98:	6939      	ldr	r1, [r7, #16]
   81b9a:	480e      	ldr	r0, [pc, #56]	; (81bd4 <lcd_print_s+0x208>)
   81b9c:	4b12      	ldr	r3, [pc, #72]	; (81be8 <lcd_print_s+0x21c>)
   81b9e:	4798      	blx	r3
    lcdStartTicks = getTicks();
   81ba0:	4b05      	ldr	r3, [pc, #20]	; (81bb8 <lcd_print_s+0x1ec>)
   81ba2:	4798      	blx	r3
   81ba4:	4602      	mov	r2, r0
   81ba6:	4b05      	ldr	r3, [pc, #20]	; (81bbc <lcd_print_s+0x1f0>)
   81ba8:	601a      	str	r2, [r3, #0]
}
   81baa:	bf00      	nop
   81bac:	371c      	adds	r7, #28
   81bae:	46bd      	mov	sp, r7
   81bb0:	bd90      	pop	{r4, r7, pc}
   81bb2:	bf00      	nop
   81bb4:	0008123d 	.word	0x0008123d
   81bb8:	00083281 	.word	0x00083281
   81bbc:	20070dac 	.word	0x20070dac
   81bc0:	20070daa 	.word	0x20070daa
   81bc4:	20070db0 	.word	0x20070db0
   81bc8:	4008c100 	.word	0x4008c100
   81bcc:	0008024d 	.word	0x0008024d
   81bd0:	20070db4 	.word	0x20070db4
   81bd4:	4008c000 	.word	0x4008c000
   81bd8:	0008187d 	.word	0x0008187d
   81bdc:	00081229 	.word	0x00081229
   81be0:	20070da9 	.word	0x20070da9
   81be4:	00085915 	.word	0x00085915
   81be8:	0008133d 	.word	0x0008133d

00081bec <lcd_is_busy>:
    twi_pdc_master_write(TWI0, tx_packet);
    lcdStartTicks = getTicks();
}

uint8_t lcd_is_busy(void)
{
   81bec:	b480      	push	{r7}
   81bee:	af00      	add	r7, sp, #0
    return lcdIsBusy;
   81bf0:	4b02      	ldr	r3, [pc, #8]	; (81bfc <lcd_is_busy+0x10>)
   81bf2:	781b      	ldrb	r3, [r3, #0]
}
   81bf4:	4618      	mov	r0, r3
   81bf6:	46bd      	mov	sp, r7
   81bf8:	bc80      	pop	{r7}
   81bfa:	4770      	bx	lr
   81bfc:	20070daa 	.word	0x20070daa

00081c00 <send_nibble>:

/************************************************************
* Local Functions                                           *
************************************************************/
static void send_nibble(uint8_t cmd, uint8_t byte)
{
   81c00:	b580      	push	{r7, lr}
   81c02:	b084      	sub	sp, #16
   81c04:	af00      	add	r7, sp, #0
   81c06:	4603      	mov	r3, r0
   81c08:	460a      	mov	r2, r1
   81c0a:	71fb      	strb	r3, [r7, #7]
   81c0c:	4613      	mov	r3, r2
   81c0e:	71bb      	strb	r3, [r7, #6]
    twi_packet_t *tx_packet = twi_get_tx_packet();
   81c10:	4b32      	ldr	r3, [pc, #200]	; (81cdc <send_nibble+0xdc>)
   81c12:	4798      	blx	r3
   81c14:	60f8      	str	r0, [r7, #12]

    while(lcdIsBusy | twi_is_busy())
   81c16:	e019      	b.n	81c4c <send_nibble+0x4c>
    {
        if((getTicks() - lcdStartTicks) > LCD_TIMEOUT_DELAY)
   81c18:	4b31      	ldr	r3, [pc, #196]	; (81ce0 <send_nibble+0xe0>)
   81c1a:	4798      	blx	r3
   81c1c:	4602      	mov	r2, r0
   81c1e:	4b31      	ldr	r3, [pc, #196]	; (81ce4 <send_nibble+0xe4>)
   81c20:	681b      	ldr	r3, [r3, #0]
   81c22:	1ad3      	subs	r3, r2, r3
   81c24:	2b0a      	cmp	r3, #10
   81c26:	d911      	bls.n	81c4c <send_nibble+0x4c>
        {
            lcdIsBusy = false;
   81c28:	4b2f      	ldr	r3, [pc, #188]	; (81ce8 <send_nibble+0xe8>)
   81c2a:	2200      	movs	r2, #0
   81c2c:	701a      	strb	r2, [r3, #0]
            lcdTimeoutErrorCntr++;
   81c2e:	4b2f      	ldr	r3, [pc, #188]	; (81cec <send_nibble+0xec>)
   81c30:	681b      	ldr	r3, [r3, #0]
   81c32:	3301      	adds	r3, #1
   81c34:	4a2d      	ldr	r2, [pc, #180]	; (81cec <send_nibble+0xec>)
   81c36:	6013      	str	r3, [r2, #0]
            pdc_disable_transfer(PDC_TWI0, PERIPH_PTCR_TXTDIS | PERIPH_PTCR_RXTDIS);
   81c38:	f240 2102 	movw	r1, #514	; 0x202
   81c3c:	482c      	ldr	r0, [pc, #176]	; (81cf0 <send_nibble+0xf0>)
   81c3e:	4b2d      	ldr	r3, [pc, #180]	; (81cf4 <send_nibble+0xf4>)
   81c40:	4798      	blx	r3
            twi_master_setup(TWI0, &twiConfig);
   81c42:	492d      	ldr	r1, [pc, #180]	; (81cf8 <send_nibble+0xf8>)
   81c44:	482d      	ldr	r0, [pc, #180]	; (81cfc <send_nibble+0xfc>)
   81c46:	4b2e      	ldr	r3, [pc, #184]	; (81d00 <send_nibble+0x100>)
   81c48:	4798      	blx	r3
            break;
   81c4a:	e009      	b.n	81c60 <send_nibble+0x60>
    while(lcdIsBusy | twi_is_busy())
   81c4c:	4b2d      	ldr	r3, [pc, #180]	; (81d04 <send_nibble+0x104>)
   81c4e:	4798      	blx	r3
   81c50:	4603      	mov	r3, r0
   81c52:	461a      	mov	r2, r3
   81c54:	4b24      	ldr	r3, [pc, #144]	; (81ce8 <send_nibble+0xe8>)
   81c56:	781b      	ldrb	r3, [r3, #0]
   81c58:	4313      	orrs	r3, r2
   81c5a:	b2db      	uxtb	r3, r3
   81c5c:	2b00      	cmp	r3, #0
   81c5e:	d1db      	bne.n	81c18 <send_nibble+0x18>
        }
    }

    tx_packet->chip = 0x27;
   81c60:	68fb      	ldr	r3, [r7, #12]
   81c62:	2227      	movs	r2, #39	; 0x27
   81c64:	f883 210c 	strb.w	r2, [r3, #268]	; 0x10c
    tx_packet->addr[0] = 0x00;
   81c68:	68fb      	ldr	r3, [r7, #12]
   81c6a:	2200      	movs	r2, #0
   81c6c:	701a      	strb	r2, [r3, #0]
    tx_packet->addr_length = 0;
   81c6e:	68fb      	ldr	r3, [r7, #12]
   81c70:	2200      	movs	r2, #0
   81c72:	605a      	str	r2, [r3, #4]
    
    cmd = (cmd & 0x0F) | backlight;                  /* mask command bits */
   81c74:	f997 3007 	ldrsb.w	r3, [r7, #7]
   81c78:	f003 030f 	and.w	r3, r3, #15
   81c7c:	b25a      	sxtb	r2, r3
   81c7e:	4b22      	ldr	r3, [pc, #136]	; (81d08 <send_nibble+0x108>)
   81c80:	781b      	ldrb	r3, [r3, #0]
   81c82:	b25b      	sxtb	r3, r3
   81c84:	4313      	orrs	r3, r2
   81c86:	b25b      	sxtb	r3, r3
   81c88:	71fb      	strb	r3, [r7, #7]
    tx_packet->buffer[0] = cmd | LCD_ENABLE_HIGH | ((byte & 0x0F) << 4);
   81c8a:	79bb      	ldrb	r3, [r7, #6]
   81c8c:	011b      	lsls	r3, r3, #4
   81c8e:	b2da      	uxtb	r2, r3
   81c90:	79fb      	ldrb	r3, [r7, #7]
   81c92:	4313      	orrs	r3, r2
   81c94:	b2db      	uxtb	r3, r3
   81c96:	f043 0304 	orr.w	r3, r3, #4
   81c9a:	b2da      	uxtb	r2, r3
   81c9c:	68fb      	ldr	r3, [r7, #12]
   81c9e:	721a      	strb	r2, [r3, #8]
    tx_packet->buffer[1] = cmd | LCD_ENABLE_LOW  | ((byte & 0x0F) << 4);
   81ca0:	79bb      	ldrb	r3, [r7, #6]
   81ca2:	011b      	lsls	r3, r3, #4
   81ca4:	b25a      	sxtb	r2, r3
   81ca6:	f997 3007 	ldrsb.w	r3, [r7, #7]
   81caa:	4313      	orrs	r3, r2
   81cac:	b25b      	sxtb	r3, r3
   81cae:	b2da      	uxtb	r2, r3
   81cb0:	68fb      	ldr	r3, [r7, #12]
   81cb2:	725a      	strb	r2, [r3, #9]
    tx_packet->length = 2;
   81cb4:	68fb      	ldr	r3, [r7, #12]
   81cb6:	2202      	movs	r2, #2
   81cb8:	f8c3 2108 	str.w	r2, [r3, #264]	; 0x108
    
    lcdIsBusy = true;
   81cbc:	4b0a      	ldr	r3, [pc, #40]	; (81ce8 <send_nibble+0xe8>)
   81cbe:	2201      	movs	r2, #1
   81cc0:	701a      	strb	r2, [r3, #0]
    twi_pdc_master_write(TWI0, tx_packet);
   81cc2:	68f9      	ldr	r1, [r7, #12]
   81cc4:	480d      	ldr	r0, [pc, #52]	; (81cfc <send_nibble+0xfc>)
   81cc6:	4b11      	ldr	r3, [pc, #68]	; (81d0c <send_nibble+0x10c>)
   81cc8:	4798      	blx	r3
    lcdStartTicks = getTicks();
   81cca:	4b05      	ldr	r3, [pc, #20]	; (81ce0 <send_nibble+0xe0>)
   81ccc:	4798      	blx	r3
   81cce:	4602      	mov	r2, r0
   81cd0:	4b04      	ldr	r3, [pc, #16]	; (81ce4 <send_nibble+0xe4>)
   81cd2:	601a      	str	r2, [r3, #0]
}
   81cd4:	bf00      	nop
   81cd6:	3710      	adds	r7, #16
   81cd8:	46bd      	mov	sp, r7
   81cda:	bd80      	pop	{r7, pc}
   81cdc:	0008123d 	.word	0x0008123d
   81ce0:	00083281 	.word	0x00083281
   81ce4:	20070dac 	.word	0x20070dac
   81ce8:	20070daa 	.word	0x20070daa
   81cec:	20070db0 	.word	0x20070db0
   81cf0:	4008c100 	.word	0x4008c100
   81cf4:	0008024d 	.word	0x0008024d
   81cf8:	20070db4 	.word	0x20070db4
   81cfc:	4008c000 	.word	0x4008c000
   81d00:	0008187d 	.word	0x0008187d
   81d04:	00081229 	.word	0x00081229
   81d08:	20070da9 	.word	0x20070da9
   81d0c:	0008133d 	.word	0x0008133d

00081d10 <send_byte>:

static void send_byte(uint8_t cmd, uint8_t byte)
{
   81d10:	b580      	push	{r7, lr}
   81d12:	b084      	sub	sp, #16
   81d14:	af00      	add	r7, sp, #0
   81d16:	4603      	mov	r3, r0
   81d18:	460a      	mov	r2, r1
   81d1a:	71fb      	strb	r3, [r7, #7]
   81d1c:	4613      	mov	r3, r2
   81d1e:	71bb      	strb	r3, [r7, #6]
    twi_packet_t *tx_packet = twi_get_tx_packet();
   81d20:	4b3e      	ldr	r3, [pc, #248]	; (81e1c <send_byte+0x10c>)
   81d22:	4798      	blx	r3
   81d24:	60f8      	str	r0, [r7, #12]

    while(lcdIsBusy | twi_is_busy())
   81d26:	e019      	b.n	81d5c <send_byte+0x4c>
    {
        if((getTicks() - lcdStartTicks) > LCD_TIMEOUT_DELAY)
   81d28:	4b3d      	ldr	r3, [pc, #244]	; (81e20 <send_byte+0x110>)
   81d2a:	4798      	blx	r3
   81d2c:	4602      	mov	r2, r0
   81d2e:	4b3d      	ldr	r3, [pc, #244]	; (81e24 <send_byte+0x114>)
   81d30:	681b      	ldr	r3, [r3, #0]
   81d32:	1ad3      	subs	r3, r2, r3
   81d34:	2b0a      	cmp	r3, #10
   81d36:	d911      	bls.n	81d5c <send_byte+0x4c>
        {
            lcdIsBusy = false;
   81d38:	4b3b      	ldr	r3, [pc, #236]	; (81e28 <send_byte+0x118>)
   81d3a:	2200      	movs	r2, #0
   81d3c:	701a      	strb	r2, [r3, #0]
            lcdTimeoutErrorCntr++;
   81d3e:	4b3b      	ldr	r3, [pc, #236]	; (81e2c <send_byte+0x11c>)
   81d40:	681b      	ldr	r3, [r3, #0]
   81d42:	3301      	adds	r3, #1
   81d44:	4a39      	ldr	r2, [pc, #228]	; (81e2c <send_byte+0x11c>)
   81d46:	6013      	str	r3, [r2, #0]
            pdc_disable_transfer(PDC_TWI0, PERIPH_PTCR_TXTDIS | PERIPH_PTCR_RXTDIS);
   81d48:	f240 2102 	movw	r1, #514	; 0x202
   81d4c:	4838      	ldr	r0, [pc, #224]	; (81e30 <send_byte+0x120>)
   81d4e:	4b39      	ldr	r3, [pc, #228]	; (81e34 <send_byte+0x124>)
   81d50:	4798      	blx	r3
            twi_master_setup(TWI0, &twiConfig);
   81d52:	4939      	ldr	r1, [pc, #228]	; (81e38 <send_byte+0x128>)
   81d54:	4839      	ldr	r0, [pc, #228]	; (81e3c <send_byte+0x12c>)
   81d56:	4b3a      	ldr	r3, [pc, #232]	; (81e40 <send_byte+0x130>)
   81d58:	4798      	blx	r3
            break;
   81d5a:	e009      	b.n	81d70 <send_byte+0x60>
    while(lcdIsBusy | twi_is_busy())
   81d5c:	4b39      	ldr	r3, [pc, #228]	; (81e44 <send_byte+0x134>)
   81d5e:	4798      	blx	r3
   81d60:	4603      	mov	r3, r0
   81d62:	461a      	mov	r2, r3
   81d64:	4b30      	ldr	r3, [pc, #192]	; (81e28 <send_byte+0x118>)
   81d66:	781b      	ldrb	r3, [r3, #0]
   81d68:	4313      	orrs	r3, r2
   81d6a:	b2db      	uxtb	r3, r3
   81d6c:	2b00      	cmp	r3, #0
   81d6e:	d1db      	bne.n	81d28 <send_byte+0x18>
        }
    }

    tx_packet->chip = 0x27;
   81d70:	68fb      	ldr	r3, [r7, #12]
   81d72:	2227      	movs	r2, #39	; 0x27
   81d74:	f883 210c 	strb.w	r2, [r3, #268]	; 0x10c
    tx_packet->addr[0] = 0x00;
   81d78:	68fb      	ldr	r3, [r7, #12]
   81d7a:	2200      	movs	r2, #0
   81d7c:	701a      	strb	r2, [r3, #0]
    tx_packet->addr_length = 0;
   81d7e:	68fb      	ldr	r3, [r7, #12]
   81d80:	2200      	movs	r2, #0
   81d82:	605a      	str	r2, [r3, #4]
    
    cmd = (cmd & 0x0F) | backlight;                  /* mask command bits */
   81d84:	f997 3007 	ldrsb.w	r3, [r7, #7]
   81d88:	f003 030f 	and.w	r3, r3, #15
   81d8c:	b25a      	sxtb	r2, r3
   81d8e:	4b2e      	ldr	r3, [pc, #184]	; (81e48 <send_byte+0x138>)
   81d90:	781b      	ldrb	r3, [r3, #0]
   81d92:	b25b      	sxtb	r3, r3
   81d94:	4313      	orrs	r3, r2
   81d96:	b25b      	sxtb	r3, r3
   81d98:	71fb      	strb	r3, [r7, #7]
    tx_packet->buffer[0] = cmd | LCD_ENABLE_HIGH | (byte & 0xF0) ;
   81d9a:	79bb      	ldrb	r3, [r7, #6]
   81d9c:	f023 030f 	bic.w	r3, r3, #15
   81da0:	b2da      	uxtb	r2, r3
   81da2:	79fb      	ldrb	r3, [r7, #7]
   81da4:	4313      	orrs	r3, r2
   81da6:	b2db      	uxtb	r3, r3
   81da8:	f043 0304 	orr.w	r3, r3, #4
   81dac:	b2da      	uxtb	r2, r3
   81dae:	68fb      	ldr	r3, [r7, #12]
   81db0:	721a      	strb	r2, [r3, #8]
    tx_packet->buffer[1] = cmd | LCD_ENABLE_LOW  | (byte & 0xF0) ;
   81db2:	f997 3006 	ldrsb.w	r3, [r7, #6]
   81db6:	f023 030f 	bic.w	r3, r3, #15
   81dba:	b25a      	sxtb	r2, r3
   81dbc:	f997 3007 	ldrsb.w	r3, [r7, #7]
   81dc0:	4313      	orrs	r3, r2
   81dc2:	b25b      	sxtb	r3, r3
   81dc4:	b2da      	uxtb	r2, r3
   81dc6:	68fb      	ldr	r3, [r7, #12]
   81dc8:	725a      	strb	r2, [r3, #9]
    tx_packet->buffer[2] = cmd | LCD_ENABLE_HIGH | ((byte & 0x0F) << 4);
   81dca:	79bb      	ldrb	r3, [r7, #6]
   81dcc:	011b      	lsls	r3, r3, #4
   81dce:	b2da      	uxtb	r2, r3
   81dd0:	79fb      	ldrb	r3, [r7, #7]
   81dd2:	4313      	orrs	r3, r2
   81dd4:	b2db      	uxtb	r3, r3
   81dd6:	f043 0304 	orr.w	r3, r3, #4
   81dda:	b2da      	uxtb	r2, r3
   81ddc:	68fb      	ldr	r3, [r7, #12]
   81dde:	729a      	strb	r2, [r3, #10]
    tx_packet->buffer[3] = cmd | LCD_ENABLE_LOW  | ((byte & 0x0F) << 4);
   81de0:	79bb      	ldrb	r3, [r7, #6]
   81de2:	011b      	lsls	r3, r3, #4
   81de4:	b25a      	sxtb	r2, r3
   81de6:	f997 3007 	ldrsb.w	r3, [r7, #7]
   81dea:	4313      	orrs	r3, r2
   81dec:	b25b      	sxtb	r3, r3
   81dee:	b2da      	uxtb	r2, r3
   81df0:	68fb      	ldr	r3, [r7, #12]
   81df2:	72da      	strb	r2, [r3, #11]
    tx_packet->length = 4;
   81df4:	68fb      	ldr	r3, [r7, #12]
   81df6:	2204      	movs	r2, #4
   81df8:	f8c3 2108 	str.w	r2, [r3, #264]	; 0x108
    
    lcdIsBusy = true;
   81dfc:	4b0a      	ldr	r3, [pc, #40]	; (81e28 <send_byte+0x118>)
   81dfe:	2201      	movs	r2, #1
   81e00:	701a      	strb	r2, [r3, #0]
    twi_pdc_master_write(TWI0, tx_packet);
   81e02:	68f9      	ldr	r1, [r7, #12]
   81e04:	480d      	ldr	r0, [pc, #52]	; (81e3c <send_byte+0x12c>)
   81e06:	4b11      	ldr	r3, [pc, #68]	; (81e4c <send_byte+0x13c>)
   81e08:	4798      	blx	r3
    lcdStartTicks = getTicks();
   81e0a:	4b05      	ldr	r3, [pc, #20]	; (81e20 <send_byte+0x110>)
   81e0c:	4798      	blx	r3
   81e0e:	4602      	mov	r2, r0
   81e10:	4b04      	ldr	r3, [pc, #16]	; (81e24 <send_byte+0x114>)
   81e12:	601a      	str	r2, [r3, #0]
}
   81e14:	bf00      	nop
   81e16:	3710      	adds	r7, #16
   81e18:	46bd      	mov	sp, r7
   81e1a:	bd80      	pop	{r7, pc}
   81e1c:	0008123d 	.word	0x0008123d
   81e20:	00083281 	.word	0x00083281
   81e24:	20070dac 	.word	0x20070dac
   81e28:	20070daa 	.word	0x20070daa
   81e2c:	20070db0 	.word	0x20070db0
   81e30:	4008c100 	.word	0x4008c100
   81e34:	0008024d 	.word	0x0008024d
   81e38:	20070db4 	.word	0x20070db4
   81e3c:	4008c000 	.word	0x4008c000
   81e40:	0008187d 	.word	0x0008187d
   81e44:	00081229 	.word	0x00081229
   81e48:	20070da9 	.word	0x20070da9
   81e4c:	0008133d 	.word	0x0008133d

00081e50 <lcd_callback>:

static void lcd_callback(void)
{
   81e50:	b480      	push	{r7}
   81e52:	af00      	add	r7, sp, #0
    lcdIsBusy = false;
   81e54:	4b03      	ldr	r3, [pc, #12]	; (81e64 <lcd_callback+0x14>)
   81e56:	2200      	movs	r2, #0
   81e58:	701a      	strb	r2, [r3, #0]
}
   81e5a:	bf00      	nop
   81e5c:	46bd      	mov	sp, r7
   81e5e:	bc80      	pop	{r7}
   81e60:	4770      	bx	lr
   81e62:	bf00      	nop
   81e64:	20070daa 	.word	0x20070daa

00081e68 <ioport_set_pin_level>:
 *
 * \param pin IOPORT pin to configure
 * \param level Logical value of the pin
 */
static inline void ioport_set_pin_level(ioport_pin_t pin, bool level)
{
   81e68:	b480      	push	{r7}
   81e6a:	b08b      	sub	sp, #44	; 0x2c
   81e6c:	af00      	add	r7, sp, #0
   81e6e:	6078      	str	r0, [r7, #4]
   81e70:	460b      	mov	r3, r1
   81e72:	70fb      	strb	r3, [r7, #3]
   81e74:	687b      	ldr	r3, [r7, #4]
   81e76:	627b      	str	r3, [r7, #36]	; 0x24
   81e78:	78fb      	ldrb	r3, [r7, #3]
   81e7a:	f887 3023 	strb.w	r3, [r7, #35]	; 0x23
   81e7e:	6a7b      	ldr	r3, [r7, #36]	; 0x24
   81e80:	61fb      	str	r3, [r7, #28]
   81e82:	69fb      	ldr	r3, [r7, #28]
   81e84:	61bb      	str	r3, [r7, #24]
typedef uint32_t ioport_port_t;
typedef uint32_t ioport_port_mask_t;

__always_inline static ioport_port_t arch_ioport_pin_to_port_id(ioport_pin_t pin)
{
	return pin >> 5;
   81e86:	69bb      	ldr	r3, [r7, #24]
   81e88:	095b      	lsrs	r3, r3, #5
   81e8a:	617b      	str	r3, [r7, #20]
	} else {
		return (Pio *)((uintptr_t)IOPORT_BASE_ADDRESS +
		       (IOPORT_PIO_OFFSET * port));
	}
#else
	return (Pio *)((uintptr_t)IOPORT_BASE_ADDRESS +
   81e8c:	697b      	ldr	r3, [r7, #20]
   81e8e:	f503 1300 	add.w	r3, r3, #2097152	; 0x200000
   81e92:	f203 7307 	addw	r3, r3, #1799	; 0x707
   81e96:	025b      	lsls	r3, r3, #9
}

__always_inline static void arch_ioport_set_pin_level(ioport_pin_t pin,
		bool level)
{
	Pio *base = arch_ioport_pin_to_base(pin);
   81e98:	613b      	str	r3, [r7, #16]

	if (level) {
   81e9a:	f897 3023 	ldrb.w	r3, [r7, #35]	; 0x23
   81e9e:	2b00      	cmp	r3, #0
   81ea0:	d009      	beq.n	81eb6 <ioport_set_pin_level+0x4e>
   81ea2:	6a7b      	ldr	r3, [r7, #36]	; 0x24
   81ea4:	60fb      	str	r3, [r7, #12]
	return 1U << (pin & 0x1F);
   81ea6:	68fb      	ldr	r3, [r7, #12]
   81ea8:	f003 031f 	and.w	r3, r3, #31
   81eac:	2201      	movs	r2, #1
   81eae:	409a      	lsls	r2, r3
		base->PIO_SODR = arch_ioport_pin_to_mask(pin);
   81eb0:	693b      	ldr	r3, [r7, #16]
   81eb2:	631a      	str	r2, [r3, #48]	; 0x30
	arch_ioport_set_pin_level(pin, level);
}
   81eb4:	e008      	b.n	81ec8 <ioport_set_pin_level+0x60>
   81eb6:	6a7b      	ldr	r3, [r7, #36]	; 0x24
   81eb8:	60bb      	str	r3, [r7, #8]
	return 1U << (pin & 0x1F);
   81eba:	68bb      	ldr	r3, [r7, #8]
   81ebc:	f003 031f 	and.w	r3, r3, #31
   81ec0:	2201      	movs	r2, #1
   81ec2:	409a      	lsls	r2, r3
	} else {
		base->PIO_CODR = arch_ioport_pin_to_mask(pin);
   81ec4:	693b      	ldr	r3, [r7, #16]
   81ec6:	635a      	str	r2, [r3, #52]	; 0x34
   81ec8:	bf00      	nop
   81eca:	372c      	adds	r7, #44	; 0x2c
   81ecc:	46bd      	mov	sp, r7
   81ece:	bc80      	pop	{r7}
   81ed0:	4770      	bx	lr

00081ed2 <ioport_get_pin_level>:
 *
 * \param pin IOPORT pin to read
 * \return Current logical value of the specified pin
 */
static inline bool ioport_get_pin_level(ioport_pin_t pin)
{
   81ed2:	b480      	push	{r7}
   81ed4:	b089      	sub	sp, #36	; 0x24
   81ed6:	af00      	add	r7, sp, #0
   81ed8:	6078      	str	r0, [r7, #4]
   81eda:	687b      	ldr	r3, [r7, #4]
   81edc:	61fb      	str	r3, [r7, #28]
   81ede:	69fb      	ldr	r3, [r7, #28]
   81ee0:	61bb      	str	r3, [r7, #24]
   81ee2:	69bb      	ldr	r3, [r7, #24]
   81ee4:	617b      	str	r3, [r7, #20]
	return pin >> 5;
   81ee6:	697b      	ldr	r3, [r7, #20]
   81ee8:	095b      	lsrs	r3, r3, #5
   81eea:	613b      	str	r3, [r7, #16]
	return (Pio *)((uintptr_t)IOPORT_BASE_ADDRESS +
   81eec:	693b      	ldr	r3, [r7, #16]
   81eee:	f503 1300 	add.w	r3, r3, #2097152	; 0x200000
   81ef2:	f203 7307 	addw	r3, r3, #1799	; 0x707
   81ef6:	025b      	lsls	r3, r3, #9
	}
}

__always_inline static bool arch_ioport_get_pin_level(ioport_pin_t pin)
{
	return arch_ioport_pin_to_base(pin)->PIO_PDSR & arch_ioport_pin_to_mask(pin);
   81ef8:	6bda      	ldr	r2, [r3, #60]	; 0x3c
   81efa:	69fb      	ldr	r3, [r7, #28]
   81efc:	60fb      	str	r3, [r7, #12]
	return 1U << (pin & 0x1F);
   81efe:	68fb      	ldr	r3, [r7, #12]
   81f00:	f003 031f 	and.w	r3, r3, #31
   81f04:	2101      	movs	r1, #1
   81f06:	fa01 f303 	lsl.w	r3, r1, r3
	return arch_ioport_pin_to_base(pin)->PIO_PDSR & arch_ioport_pin_to_mask(pin);
   81f0a:	4013      	ands	r3, r2
   81f0c:	2b00      	cmp	r3, #0
   81f0e:	bf14      	ite	ne
   81f10:	2301      	movne	r3, #1
   81f12:	2300      	moveq	r3, #0
   81f14:	b2db      	uxtb	r3, r3
	return arch_ioport_get_pin_level(pin);
}
   81f16:	4618      	mov	r0, r3
   81f18:	3724      	adds	r7, #36	; 0x24
   81f1a:	46bd      	mov	sp, r7
   81f1c:	bc80      	pop	{r7}
   81f1e:	4770      	bx	lr

00081f20 <menu>:
static void print_menu_sensors(void);
static void print_menu_settings(void);
static void print_cursor(menu_info_t *info);

void menu(event_t event1)
{
   81f20:	b580      	push	{r7, lr}
   81f22:	b082      	sub	sp, #8
   81f24:	af00      	add	r7, sp, #0
   81f26:	4603      	mov	r3, r0
   81f28:	71fb      	strb	r3, [r7, #7]
    switch (act_menu)
   81f2a:	4b28      	ldr	r3, [pc, #160]	; (81fcc <menu+0xac>)
   81f2c:	781b      	ldrb	r3, [r3, #0]
   81f2e:	2b09      	cmp	r3, #9
   81f30:	d847      	bhi.n	81fc2 <menu+0xa2>
   81f32:	a201      	add	r2, pc, #4	; (adr r2, 81f38 <menu+0x18>)
   81f34:	f852 f023 	ldr.w	pc, [r2, r3, lsl #2]
   81f38:	00081f61 	.word	0x00081f61
   81f3c:	00081f6b 	.word	0x00081f6b
   81f40:	00081f75 	.word	0x00081f75
   81f44:	00081f7f 	.word	0x00081f7f
   81f48:	00081f89 	.word	0x00081f89
   81f4c:	00081fa7 	.word	0x00081fa7
   81f50:	00081fb1 	.word	0x00081fb1
   81f54:	00081f93 	.word	0x00081f93
   81f58:	00081f9d 	.word	0x00081f9d
   81f5c:	00081fbb 	.word	0x00081fbb
    {
        case MENU_MAIN:
            menu_main(event1);
   81f60:	79fb      	ldrb	r3, [r7, #7]
   81f62:	4618      	mov	r0, r3
   81f64:	4b1a      	ldr	r3, [pc, #104]	; (81fd0 <menu+0xb0>)
   81f66:	4798      	blx	r3
            break;
   81f68:	e02c      	b.n	81fc4 <menu+0xa4>
        case MENU_MATCH:
            menu_match(event1);
   81f6a:	79fb      	ldrb	r3, [r7, #7]
   81f6c:	4618      	mov	r0, r3
   81f6e:	4b19      	ldr	r3, [pc, #100]	; (81fd4 <menu+0xb4>)
   81f70:	4798      	blx	r3
            break;
   81f72:	e027      	b.n	81fc4 <menu+0xa4>
        case MENU_SENSORS:
            menu_sensors(event1);
   81f74:	79fb      	ldrb	r3, [r7, #7]
   81f76:	4618      	mov	r0, r3
   81f78:	4b17      	ldr	r3, [pc, #92]	; (81fd8 <menu+0xb8>)
   81f7a:	4798      	blx	r3
            break;
   81f7c:	e022      	b.n	81fc4 <menu+0xa4>
        case MENU_SETTINGS:
            menu_settings(event1);
   81f7e:	79fb      	ldrb	r3, [r7, #7]
   81f80:	4618      	mov	r0, r3
   81f82:	4b16      	ldr	r3, [pc, #88]	; (81fdc <menu+0xbc>)
   81f84:	4798      	blx	r3
            break;
   81f86:	e01d      	b.n	81fc4 <menu+0xa4>
        case MENU_BALL:
            menu_ball(event1);
   81f88:	79fb      	ldrb	r3, [r7, #7]
   81f8a:	4618      	mov	r0, r3
   81f8c:	4b14      	ldr	r3, [pc, #80]	; (81fe0 <menu+0xc0>)
   81f8e:	4798      	blx	r3
            break;
   81f90:	e018      	b.n	81fc4 <menu+0xa4>
        case MENU_COMPASS:
            menu_compass(event1);
   81f92:	79fb      	ldrb	r3, [r7, #7]
   81f94:	4618      	mov	r0, r3
   81f96:	4b13      	ldr	r3, [pc, #76]	; (81fe4 <menu+0xc4>)
   81f98:	4798      	blx	r3
            break;
   81f9a:	e013      	b.n	81fc4 <menu+0xa4>
        case MENU_COMPASS_CALIBRATION:
            menu_compass_calibration(event1);
   81f9c:	79fb      	ldrb	r3, [r7, #7]
   81f9e:	4618      	mov	r0, r3
   81fa0:	4b11      	ldr	r3, [pc, #68]	; (81fe8 <menu+0xc8>)
   81fa2:	4798      	blx	r3
            break;
   81fa4:	e00e      	b.n	81fc4 <menu+0xa4>
        case MENU_LINE:
            menu_line(event1);
   81fa6:	79fb      	ldrb	r3, [r7, #7]
   81fa8:	4618      	mov	r0, r3
   81faa:	4b10      	ldr	r3, [pc, #64]	; (81fec <menu+0xcc>)
   81fac:	4798      	blx	r3
            break;
   81fae:	e009      	b.n	81fc4 <menu+0xa4>
        case MENU_LINE_CALIBRATION:
            menu_line_calibration(event1);
   81fb0:	79fb      	ldrb	r3, [r7, #7]
   81fb2:	4618      	mov	r0, r3
   81fb4:	4b0e      	ldr	r3, [pc, #56]	; (81ff0 <menu+0xd0>)
   81fb6:	4798      	blx	r3
            break;
   81fb8:	e004      	b.n	81fc4 <menu+0xa4>
        case MENU_SHUTDOWN:
            menu_shutdown(event1);
   81fba:	79fb      	ldrb	r3, [r7, #7]
   81fbc:	4618      	mov	r0, r3
   81fbe:	4b0d      	ldr	r3, [pc, #52]	; (81ff4 <menu+0xd4>)
   81fc0:	4798      	blx	r3
        default:
            break;
   81fc2:	bf00      	nop
    }
}
   81fc4:	bf00      	nop
   81fc6:	3708      	adds	r7, #8
   81fc8:	46bd      	mov	sp, r7
   81fca:	bd80      	pop	{r7, pc}
   81fcc:	20070dc0 	.word	0x20070dc0
   81fd0:	00081ff9 	.word	0x00081ff9
   81fd4:	00082121 	.word	0x00082121
   81fd8:	00082151 	.word	0x00082151
   81fdc:	000824fd 	.word	0x000824fd
   81fe0:	00082275 	.word	0x00082275
   81fe4:	000822c9 	.word	0x000822c9
   81fe8:	0008239d 	.word	0x0008239d
   81fec:	0008249d 	.word	0x0008249d
   81ff0:	000824cd 	.word	0x000824cd
   81ff4:	00082621 	.word	0x00082621

00081ff8 <menu_main>:

static void menu_main(event_t event1)
{
   81ff8:	b580      	push	{r7, lr}
   81ffa:	b082      	sub	sp, #8
   81ffc:	af00      	add	r7, sp, #0
   81ffe:	4603      	mov	r3, r0
   82000:	71fb      	strb	r3, [r7, #7]
    if (print_menu)
   82002:	4b41      	ldr	r3, [pc, #260]	; (82108 <menu_main+0x110>)
   82004:	781b      	ldrb	r3, [r3, #0]
   82006:	2b00      	cmp	r3, #0
   82008:	d004      	beq.n	82014 <menu_main+0x1c>
    {
        print_menu = 0;
   8200a:	4b3f      	ldr	r3, [pc, #252]	; (82108 <menu_main+0x110>)
   8200c:	2200      	movs	r2, #0
   8200e:	701a      	strb	r2, [r3, #0]
        print_menu_main();
   82010:	4b3e      	ldr	r3, [pc, #248]	; (8210c <menu_main+0x114>)
   82012:	4798      	blx	r3
    }
    
    update_battery(0);
   82014:	2000      	movs	r0, #0
   82016:	4b3e      	ldr	r3, [pc, #248]	; (82110 <menu_main+0x118>)
   82018:	4798      	blx	r3
    
    switch (event1)
   8201a:	79fb      	ldrb	r3, [r7, #7]
   8201c:	3b01      	subs	r3, #1
   8201e:	2b0f      	cmp	r3, #15
   82020:	d868      	bhi.n	820f4 <menu_main+0xfc>
   82022:	a201      	add	r2, pc, #4	; (adr r2, 82028 <menu_main+0x30>)
   82024:	f852 f023 	ldr.w	pc, [r2, r3, lsl #2]
   82028:	00082069 	.word	0x00082069
   8202c:	000820f5 	.word	0x000820f5
   82030:	000820f5 	.word	0x000820f5
   82034:	000820f5 	.word	0x000820f5
   82038:	000820f5 	.word	0x000820f5
   8203c:	000820f5 	.word	0x000820f5
   82040:	000820a9 	.word	0x000820a9
   82044:	000820f5 	.word	0x000820f5
   82048:	000820f5 	.word	0x000820f5
   8204c:	000820f5 	.word	0x000820f5
   82050:	000820f5 	.word	0x000820f5
   82054:	000820f5 	.word	0x000820f5
   82058:	00082089 	.word	0x00082089
   8205c:	000820f5 	.word	0x000820f5
   82060:	000820f5 	.word	0x000820f5
   82064:	000820e7 	.word	0x000820e7
    {
        case EVENT_BUTTON_UP_P:
            if (menu_info.main.act_cursor_line > menu_info.main.min_cursor_line)
   82068:	4b2a      	ldr	r3, [pc, #168]	; (82114 <menu_main+0x11c>)
   8206a:	781a      	ldrb	r2, [r3, #0]
   8206c:	4b29      	ldr	r3, [pc, #164]	; (82114 <menu_main+0x11c>)
   8206e:	789b      	ldrb	r3, [r3, #2]
   82070:	429a      	cmp	r2, r3
   82072:	d941      	bls.n	820f8 <menu_main+0x100>
            {
                menu_info.main.act_cursor_line--;
   82074:	4b27      	ldr	r3, [pc, #156]	; (82114 <menu_main+0x11c>)
   82076:	781b      	ldrb	r3, [r3, #0]
   82078:	3b01      	subs	r3, #1
   8207a:	b2da      	uxtb	r2, r3
   8207c:	4b25      	ldr	r3, [pc, #148]	; (82114 <menu_main+0x11c>)
   8207e:	701a      	strb	r2, [r3, #0]
                print_cursor(&menu_info.main);
   82080:	4824      	ldr	r0, [pc, #144]	; (82114 <menu_main+0x11c>)
   82082:	4b25      	ldr	r3, [pc, #148]	; (82118 <menu_main+0x120>)
   82084:	4798      	blx	r3
            }
            break;
   82086:	e037      	b.n	820f8 <menu_main+0x100>
        case EVENT_BUTTON_DOWN_P:
            if (menu_info.main.act_cursor_line < menu_info.main.max_cursor_line)
   82088:	4b22      	ldr	r3, [pc, #136]	; (82114 <menu_main+0x11c>)
   8208a:	781a      	ldrb	r2, [r3, #0]
   8208c:	4b21      	ldr	r3, [pc, #132]	; (82114 <menu_main+0x11c>)
   8208e:	78db      	ldrb	r3, [r3, #3]
   82090:	429a      	cmp	r2, r3
   82092:	d233      	bcs.n	820fc <menu_main+0x104>
            {
                menu_info.main.act_cursor_line++;
   82094:	4b1f      	ldr	r3, [pc, #124]	; (82114 <menu_main+0x11c>)
   82096:	781b      	ldrb	r3, [r3, #0]
   82098:	3301      	adds	r3, #1
   8209a:	b2da      	uxtb	r2, r3
   8209c:	4b1d      	ldr	r3, [pc, #116]	; (82114 <menu_main+0x11c>)
   8209e:	701a      	strb	r2, [r3, #0]
                print_cursor(&menu_info.main);
   820a0:	481c      	ldr	r0, [pc, #112]	; (82114 <menu_main+0x11c>)
   820a2:	4b1d      	ldr	r3, [pc, #116]	; (82118 <menu_main+0x120>)
   820a4:	4798      	blx	r3
            }
            break;
   820a6:	e029      	b.n	820fc <menu_main+0x104>
        case EVENT_BUTTON_MID_P:
            {
                switch (menu_info.main.act_cursor_line)
   820a8:	4b1a      	ldr	r3, [pc, #104]	; (82114 <menu_main+0x11c>)
   820aa:	781b      	ldrb	r3, [r3, #0]
   820ac:	2b03      	cmp	r3, #3
   820ae:	d00b      	beq.n	820c8 <menu_main+0xd0>
   820b0:	2b04      	cmp	r3, #4
   820b2:	d010      	beq.n	820d6 <menu_main+0xde>
   820b4:	2b02      	cmp	r3, #2
   820b6:	d000      	beq.n	820ba <menu_main+0xc2>
                    case 4:
                        act_menu = MENU_SETTINGS;
                        print_menu = 1;
                        break;
                    default:
                        break;
   820b8:	e014      	b.n	820e4 <menu_main+0xec>
                        act_menu = MENU_MATCH;
   820ba:	4b18      	ldr	r3, [pc, #96]	; (8211c <menu_main+0x124>)
   820bc:	2201      	movs	r2, #1
   820be:	701a      	strb	r2, [r3, #0]
                        print_menu = 1;
   820c0:	4b11      	ldr	r3, [pc, #68]	; (82108 <menu_main+0x110>)
   820c2:	2201      	movs	r2, #1
   820c4:	701a      	strb	r2, [r3, #0]
                        break;
   820c6:	e00d      	b.n	820e4 <menu_main+0xec>
                        act_menu = MENU_SENSORS;
   820c8:	4b14      	ldr	r3, [pc, #80]	; (8211c <menu_main+0x124>)
   820ca:	2202      	movs	r2, #2
   820cc:	701a      	strb	r2, [r3, #0]
                        print_menu = 1;
   820ce:	4b0e      	ldr	r3, [pc, #56]	; (82108 <menu_main+0x110>)
   820d0:	2201      	movs	r2, #1
   820d2:	701a      	strb	r2, [r3, #0]
                        break;
   820d4:	e006      	b.n	820e4 <menu_main+0xec>
                        act_menu = MENU_SETTINGS;
   820d6:	4b11      	ldr	r3, [pc, #68]	; (8211c <menu_main+0x124>)
   820d8:	2203      	movs	r2, #3
   820da:	701a      	strb	r2, [r3, #0]
                        print_menu = 1;
   820dc:	4b0a      	ldr	r3, [pc, #40]	; (82108 <menu_main+0x110>)
   820de:	2201      	movs	r2, #1
   820e0:	701a      	strb	r2, [r3, #0]
                        break;
   820e2:	bf00      	nop
                }
            }
            break;
   820e4:	e00b      	b.n	820fe <menu_main+0x106>
        case EVENT_BUTTON_RETURN_P:
            act_menu = MENU_SHUTDOWN;
   820e6:	4b0d      	ldr	r3, [pc, #52]	; (8211c <menu_main+0x124>)
   820e8:	2209      	movs	r2, #9
   820ea:	701a      	strb	r2, [r3, #0]
            print_menu = 1;
   820ec:	4b06      	ldr	r3, [pc, #24]	; (82108 <menu_main+0x110>)
   820ee:	2201      	movs	r2, #1
   820f0:	701a      	strb	r2, [r3, #0]
            break;
   820f2:	e004      	b.n	820fe <menu_main+0x106>
        default:
            break;
   820f4:	bf00      	nop
   820f6:	e002      	b.n	820fe <menu_main+0x106>
            break;
   820f8:	bf00      	nop
   820fa:	e000      	b.n	820fe <menu_main+0x106>
            break;
   820fc:	bf00      	nop
    }
}
   820fe:	bf00      	nop
   82100:	3708      	adds	r7, #8
   82102:	46bd      	mov	sp, r7
   82104:	bd80      	pop	{r7, pc}
   82106:	bf00      	nop
   82108:	2007018c 	.word	0x2007018c
   8210c:	00082731 	.word	0x00082731
   82110:	00083309 	.word	0x00083309
   82114:	20070190 	.word	0x20070190
   82118:	00082871 	.word	0x00082871
   8211c:	20070dc0 	.word	0x20070dc0

00082120 <menu_match>:

static void menu_match(event_t event1)
{
   82120:	b480      	push	{r7}
   82122:	b083      	sub	sp, #12
   82124:	af00      	add	r7, sp, #0
   82126:	4603      	mov	r3, r0
   82128:	71fb      	strb	r3, [r7, #7]
    
    
    if(event1 == EVENT_BUTTON_RETURN_P)
   8212a:	79fb      	ldrb	r3, [r7, #7]
   8212c:	2b10      	cmp	r3, #16
   8212e:	d105      	bne.n	8213c <menu_match+0x1c>
    {
        act_menu = MENU_MAIN;
   82130:	4b05      	ldr	r3, [pc, #20]	; (82148 <menu_match+0x28>)
   82132:	2200      	movs	r2, #0
   82134:	701a      	strb	r2, [r3, #0]
        print_menu = 1;
   82136:	4b05      	ldr	r3, [pc, #20]	; (8214c <menu_match+0x2c>)
   82138:	2201      	movs	r2, #1
   8213a:	701a      	strb	r2, [r3, #0]
    }
}
   8213c:	bf00      	nop
   8213e:	370c      	adds	r7, #12
   82140:	46bd      	mov	sp, r7
   82142:	bc80      	pop	{r7}
   82144:	4770      	bx	lr
   82146:	bf00      	nop
   82148:	20070dc0 	.word	0x20070dc0
   8214c:	2007018c 	.word	0x2007018c

00082150 <menu_sensors>:

static void menu_sensors(event_t event1)
{
   82150:	b580      	push	{r7, lr}
   82152:	b082      	sub	sp, #8
   82154:	af00      	add	r7, sp, #0
   82156:	4603      	mov	r3, r0
   82158:	71fb      	strb	r3, [r7, #7]
    if (print_menu)
   8215a:	4b40      	ldr	r3, [pc, #256]	; (8225c <menu_sensors+0x10c>)
   8215c:	781b      	ldrb	r3, [r3, #0]
   8215e:	2b00      	cmp	r3, #0
   82160:	d004      	beq.n	8216c <menu_sensors+0x1c>
    {
        print_menu = 0;
   82162:	4b3e      	ldr	r3, [pc, #248]	; (8225c <menu_sensors+0x10c>)
   82164:	2200      	movs	r2, #0
   82166:	701a      	strb	r2, [r3, #0]
        print_menu_sensors();
   82168:	4b3d      	ldr	r3, [pc, #244]	; (82260 <menu_sensors+0x110>)
   8216a:	4798      	blx	r3
    }
    
    switch(event1)
   8216c:	79fb      	ldrb	r3, [r7, #7]
   8216e:	3b01      	subs	r3, #1
   82170:	2b0f      	cmp	r3, #15
   82172:	d869      	bhi.n	82248 <menu_sensors+0xf8>
   82174:	a201      	add	r2, pc, #4	; (adr r2, 8217c <menu_sensors+0x2c>)
   82176:	f852 f023 	ldr.w	pc, [r2, r3, lsl #2]
   8217a:	bf00      	nop
   8217c:	000821bd 	.word	0x000821bd
   82180:	00082249 	.word	0x00082249
   82184:	00082249 	.word	0x00082249
   82188:	00082249 	.word	0x00082249
   8218c:	00082249 	.word	0x00082249
   82190:	00082249 	.word	0x00082249
   82194:	000821fd 	.word	0x000821fd
   82198:	00082249 	.word	0x00082249
   8219c:	00082249 	.word	0x00082249
   821a0:	00082249 	.word	0x00082249
   821a4:	00082249 	.word	0x00082249
   821a8:	00082249 	.word	0x00082249
   821ac:	000821dd 	.word	0x000821dd
   821b0:	00082249 	.word	0x00082249
   821b4:	00082249 	.word	0x00082249
   821b8:	0008223b 	.word	0x0008223b
    {
        case EVENT_BUTTON_UP_P:
            if (menu_info.sensors.act_cursor_line > menu_info.sensors.min_cursor_line)
   821bc:	4b29      	ldr	r3, [pc, #164]	; (82264 <menu_sensors+0x114>)
   821be:	791a      	ldrb	r2, [r3, #4]
   821c0:	4b28      	ldr	r3, [pc, #160]	; (82264 <menu_sensors+0x114>)
   821c2:	799b      	ldrb	r3, [r3, #6]
   821c4:	429a      	cmp	r2, r3
   821c6:	d941      	bls.n	8224c <menu_sensors+0xfc>
            {
                menu_info.sensors.act_cursor_line--;
   821c8:	4b26      	ldr	r3, [pc, #152]	; (82264 <menu_sensors+0x114>)
   821ca:	791b      	ldrb	r3, [r3, #4]
   821cc:	3b01      	subs	r3, #1
   821ce:	b2da      	uxtb	r2, r3
   821d0:	4b24      	ldr	r3, [pc, #144]	; (82264 <menu_sensors+0x114>)
   821d2:	711a      	strb	r2, [r3, #4]
                print_cursor(&menu_info.sensors);
   821d4:	4824      	ldr	r0, [pc, #144]	; (82268 <menu_sensors+0x118>)
   821d6:	4b25      	ldr	r3, [pc, #148]	; (8226c <menu_sensors+0x11c>)
   821d8:	4798      	blx	r3
            }
            break;
   821da:	e037      	b.n	8224c <menu_sensors+0xfc>
        case EVENT_BUTTON_DOWN_P:
            if (menu_info.sensors.act_cursor_line < menu_info.sensors.max_cursor_line)
   821dc:	4b21      	ldr	r3, [pc, #132]	; (82264 <menu_sensors+0x114>)
   821de:	791a      	ldrb	r2, [r3, #4]
   821e0:	4b20      	ldr	r3, [pc, #128]	; (82264 <menu_sensors+0x114>)
   821e2:	79db      	ldrb	r3, [r3, #7]
   821e4:	429a      	cmp	r2, r3
   821e6:	d233      	bcs.n	82250 <menu_sensors+0x100>
            {
                menu_info.sensors.act_cursor_line++;
   821e8:	4b1e      	ldr	r3, [pc, #120]	; (82264 <menu_sensors+0x114>)
   821ea:	791b      	ldrb	r3, [r3, #4]
   821ec:	3301      	adds	r3, #1
   821ee:	b2da      	uxtb	r2, r3
   821f0:	4b1c      	ldr	r3, [pc, #112]	; (82264 <menu_sensors+0x114>)
   821f2:	711a      	strb	r2, [r3, #4]
                print_cursor(&menu_info.sensors);
   821f4:	481c      	ldr	r0, [pc, #112]	; (82268 <menu_sensors+0x118>)
   821f6:	4b1d      	ldr	r3, [pc, #116]	; (8226c <menu_sensors+0x11c>)
   821f8:	4798      	blx	r3
            }
            break;
   821fa:	e029      	b.n	82250 <menu_sensors+0x100>
        case EVENT_BUTTON_MID_P:
            switch (menu_info.sensors.act_cursor_line)
   821fc:	4b19      	ldr	r3, [pc, #100]	; (82264 <menu_sensors+0x114>)
   821fe:	791b      	ldrb	r3, [r3, #4]
   82200:	2b02      	cmp	r3, #2
   82202:	d00b      	beq.n	8221c <menu_sensors+0xcc>
   82204:	2b03      	cmp	r3, #3
   82206:	d010      	beq.n	8222a <menu_sensors+0xda>
   82208:	2b01      	cmp	r3, #1
   8220a:	d000      	beq.n	8220e <menu_sensors+0xbe>
                case 3:
                    act_menu = MENU_LINE;
                    print_menu = 1;
                    break;
                default:
                    break;
   8220c:	e014      	b.n	82238 <menu_sensors+0xe8>
                    act_menu = MENU_BALL;
   8220e:	4b18      	ldr	r3, [pc, #96]	; (82270 <menu_sensors+0x120>)
   82210:	2204      	movs	r2, #4
   82212:	701a      	strb	r2, [r3, #0]
                    print_menu = 1;
   82214:	4b11      	ldr	r3, [pc, #68]	; (8225c <menu_sensors+0x10c>)
   82216:	2201      	movs	r2, #1
   82218:	701a      	strb	r2, [r3, #0]
                    break;
   8221a:	e00d      	b.n	82238 <menu_sensors+0xe8>
                    act_menu = MENU_COMPASS;
   8221c:	4b14      	ldr	r3, [pc, #80]	; (82270 <menu_sensors+0x120>)
   8221e:	2207      	movs	r2, #7
   82220:	701a      	strb	r2, [r3, #0]
                    print_menu = 1;
   82222:	4b0e      	ldr	r3, [pc, #56]	; (8225c <menu_sensors+0x10c>)
   82224:	2201      	movs	r2, #1
   82226:	701a      	strb	r2, [r3, #0]
                    break;
   82228:	e006      	b.n	82238 <menu_sensors+0xe8>
                    act_menu = MENU_LINE;
   8222a:	4b11      	ldr	r3, [pc, #68]	; (82270 <menu_sensors+0x120>)
   8222c:	2205      	movs	r2, #5
   8222e:	701a      	strb	r2, [r3, #0]
                    print_menu = 1;
   82230:	4b0a      	ldr	r3, [pc, #40]	; (8225c <menu_sensors+0x10c>)
   82232:	2201      	movs	r2, #1
   82234:	701a      	strb	r2, [r3, #0]
                    break;
   82236:	bf00      	nop
            }
            break;
   82238:	e00b      	b.n	82252 <menu_sensors+0x102>
        case EVENT_BUTTON_RETURN_P:
            act_menu = MENU_MAIN;
   8223a:	4b0d      	ldr	r3, [pc, #52]	; (82270 <menu_sensors+0x120>)
   8223c:	2200      	movs	r2, #0
   8223e:	701a      	strb	r2, [r3, #0]
            print_menu = 1;
   82240:	4b06      	ldr	r3, [pc, #24]	; (8225c <menu_sensors+0x10c>)
   82242:	2201      	movs	r2, #1
   82244:	701a      	strb	r2, [r3, #0]
            break;
   82246:	e004      	b.n	82252 <menu_sensors+0x102>
        default:
            break;
   82248:	bf00      	nop
   8224a:	e002      	b.n	82252 <menu_sensors+0x102>
            break;
   8224c:	bf00      	nop
   8224e:	e000      	b.n	82252 <menu_sensors+0x102>
            break;
   82250:	bf00      	nop
    }
}
   82252:	bf00      	nop
   82254:	3708      	adds	r7, #8
   82256:	46bd      	mov	sp, r7
   82258:	bd80      	pop	{r7, pc}
   8225a:	bf00      	nop
   8225c:	2007018c 	.word	0x2007018c
   82260:	000827a1 	.word	0x000827a1
   82264:	20070190 	.word	0x20070190
   82268:	20070194 	.word	0x20070194
   8226c:	00082871 	.word	0x00082871
   82270:	20070dc0 	.word	0x20070dc0

00082274 <menu_ball>:

static void menu_ball(event_t event1)
{
   82274:	b580      	push	{r7, lr}
   82276:	b082      	sub	sp, #8
   82278:	af00      	add	r7, sp, #0
   8227a:	4603      	mov	r3, r0
   8227c:	71fb      	strb	r3, [r7, #7]
    if(print_menu)
   8227e:	4b0d      	ldr	r3, [pc, #52]	; (822b4 <menu_ball+0x40>)
   82280:	781b      	ldrb	r3, [r3, #0]
   82282:	2b00      	cmp	r3, #0
   82284:	d004      	beq.n	82290 <menu_ball+0x1c>
    {
        print_menu = 0;
   82286:	4b0b      	ldr	r3, [pc, #44]	; (822b4 <menu_ball+0x40>)
   82288:	2200      	movs	r2, #0
   8228a:	701a      	strb	r2, [r3, #0]
        lcd_clear();
   8228c:	4b0a      	ldr	r3, [pc, #40]	; (822b8 <menu_ball+0x44>)
   8228e:	4798      	blx	r3
    {
        lcd_print_s(2, 0, "Direction: no ball");
    }
    
    sprintf(sprintf_buf, "Having ball: %1d", rpi_rx.ibit.have_ball);*/
    lcd_print_s(3, 0, sprintf_buf);
   82290:	4a0a      	ldr	r2, [pc, #40]	; (822bc <menu_ball+0x48>)
   82292:	2100      	movs	r1, #0
   82294:	2003      	movs	r0, #3
   82296:	4b0a      	ldr	r3, [pc, #40]	; (822c0 <menu_ball+0x4c>)
   82298:	4798      	blx	r3
    
    if(event1 == EVENT_BUTTON_RETURN_P)
   8229a:	79fb      	ldrb	r3, [r7, #7]
   8229c:	2b10      	cmp	r3, #16
   8229e:	d105      	bne.n	822ac <menu_ball+0x38>
    {
        act_menu = MENU_SENSORS;
   822a0:	4b08      	ldr	r3, [pc, #32]	; (822c4 <menu_ball+0x50>)
   822a2:	2202      	movs	r2, #2
   822a4:	701a      	strb	r2, [r3, #0]
        print_menu = 1;
   822a6:	4b03      	ldr	r3, [pc, #12]	; (822b4 <menu_ball+0x40>)
   822a8:	2201      	movs	r2, #1
   822aa:	701a      	strb	r2, [r3, #0]
    }
}
   822ac:	bf00      	nop
   822ae:	3708      	adds	r7, #8
   822b0:	46bd      	mov	sp, r7
   822b2:	bd80      	pop	{r7, pc}
   822b4:	2007018c 	.word	0x2007018c
   822b8:	000819ad 	.word	0x000819ad
   822bc:	20070e50 	.word	0x20070e50
   822c0:	000819cd 	.word	0x000819cd
   822c4:	20070dc0 	.word	0x20070dc0

000822c8 <menu_compass>:

static void menu_compass(event_t event1)
{
   822c8:	b590      	push	{r4, r7, lr}
   822ca:	b083      	sub	sp, #12
   822cc:	af00      	add	r7, sp, #0
   822ce:	4603      	mov	r3, r0
   822d0:	71fb      	strb	r3, [r7, #7]
    static uint16_t prev_direction = 0;
    
    if(print_menu)
   822d2:	4b24      	ldr	r3, [pc, #144]	; (82364 <menu_compass+0x9c>)
   822d4:	781b      	ldrb	r3, [r3, #0]
   822d6:	2b00      	cmp	r3, #0
   822d8:	d004      	beq.n	822e4 <menu_compass+0x1c>
    {
        print_menu = 0;
   822da:	4b22      	ldr	r3, [pc, #136]	; (82364 <menu_compass+0x9c>)
   822dc:	2200      	movs	r2, #0
   822de:	701a      	strb	r2, [r3, #0]
        lcd_clear();
   822e0:	4b21      	ldr	r3, [pc, #132]	; (82368 <menu_compass+0xa0>)
   822e2:	4798      	blx	r3
    }
    
    update_compass();
   822e4:	4b21      	ldr	r3, [pc, #132]	; (8236c <menu_compass+0xa4>)
   822e6:	4798      	blx	r3
    if(direction != prev_direction)
   822e8:	4b21      	ldr	r3, [pc, #132]	; (82370 <menu_compass+0xa8>)
   822ea:	881a      	ldrh	r2, [r3, #0]
   822ec:	4b21      	ldr	r3, [pc, #132]	; (82374 <menu_compass+0xac>)
   822ee:	881b      	ldrh	r3, [r3, #0]
   822f0:	429a      	cmp	r2, r3
   822f2:	d01e      	beq.n	82332 <menu_compass+0x6a>
    {
        prev_direction = direction;
   822f4:	4b1e      	ldr	r3, [pc, #120]	; (82370 <menu_compass+0xa8>)
   822f6:	881a      	ldrh	r2, [r3, #0]
   822f8:	4b1e      	ldr	r3, [pc, #120]	; (82374 <menu_compass+0xac>)
   822fa:	801a      	strh	r2, [r3, #0]
        sprintf(sprintf_buf, "  Direction: %3.1f  ", (float)direction / 10.0);
   822fc:	4b1c      	ldr	r3, [pc, #112]	; (82370 <menu_compass+0xa8>)
   822fe:	881a      	ldrh	r2, [r3, #0]
   82300:	4b1d      	ldr	r3, [pc, #116]	; (82378 <menu_compass+0xb0>)
   82302:	4610      	mov	r0, r2
   82304:	4798      	blx	r3
   82306:	4602      	mov	r2, r0
   82308:	4b1c      	ldr	r3, [pc, #112]	; (8237c <menu_compass+0xb4>)
   8230a:	4610      	mov	r0, r2
   8230c:	4798      	blx	r3
   8230e:	4c1c      	ldr	r4, [pc, #112]	; (82380 <menu_compass+0xb8>)
   82310:	f04f 0200 	mov.w	r2, #0
   82314:	4b1b      	ldr	r3, [pc, #108]	; (82384 <menu_compass+0xbc>)
   82316:	47a0      	blx	r4
   82318:	4603      	mov	r3, r0
   8231a:	460c      	mov	r4, r1
   8231c:	461a      	mov	r2, r3
   8231e:	4623      	mov	r3, r4
   82320:	4919      	ldr	r1, [pc, #100]	; (82388 <menu_compass+0xc0>)
   82322:	481a      	ldr	r0, [pc, #104]	; (8238c <menu_compass+0xc4>)
   82324:	4c1a      	ldr	r4, [pc, #104]	; (82390 <menu_compass+0xc8>)
   82326:	47a0      	blx	r4
        lcd_print_s(2, 0, sprintf_buf);
   82328:	4a18      	ldr	r2, [pc, #96]	; (8238c <menu_compass+0xc4>)
   8232a:	2100      	movs	r1, #0
   8232c:	2002      	movs	r0, #2
   8232e:	4b19      	ldr	r3, [pc, #100]	; (82394 <menu_compass+0xcc>)
   82330:	4798      	blx	r3
    }
    
    switch(event1)
   82332:	79fb      	ldrb	r3, [r7, #7]
   82334:	2b07      	cmp	r3, #7
   82336:	d002      	beq.n	8233e <menu_compass+0x76>
   82338:	2b10      	cmp	r3, #16
   8233a:	d007      	beq.n	8234c <menu_compass+0x84>
        case EVENT_BUTTON_RETURN_P:
            act_menu = MENU_SENSORS;
            print_menu = 1;
            break;
        default:
            break;
   8233c:	e00d      	b.n	8235a <menu_compass+0x92>
            act_menu = MENU_COMPASS_CALIBRATION;
   8233e:	4b16      	ldr	r3, [pc, #88]	; (82398 <menu_compass+0xd0>)
   82340:	2208      	movs	r2, #8
   82342:	701a      	strb	r2, [r3, #0]
            print_menu = 1;
   82344:	4b07      	ldr	r3, [pc, #28]	; (82364 <menu_compass+0x9c>)
   82346:	2201      	movs	r2, #1
   82348:	701a      	strb	r2, [r3, #0]
            break;
   8234a:	e006      	b.n	8235a <menu_compass+0x92>
            act_menu = MENU_SENSORS;
   8234c:	4b12      	ldr	r3, [pc, #72]	; (82398 <menu_compass+0xd0>)
   8234e:	2202      	movs	r2, #2
   82350:	701a      	strb	r2, [r3, #0]
            print_menu = 1;
   82352:	4b04      	ldr	r3, [pc, #16]	; (82364 <menu_compass+0x9c>)
   82354:	2201      	movs	r2, #1
   82356:	701a      	strb	r2, [r3, #0]
            break;
   82358:	bf00      	nop
    }
}
   8235a:	bf00      	nop
   8235c:	370c      	adds	r7, #12
   8235e:	46bd      	mov	sp, r7
   82360:	bd90      	pop	{r4, r7, pc}
   82362:	bf00      	nop
   82364:	2007018c 	.word	0x2007018c
   82368:	000819ad 	.word	0x000819ad
   8236c:	000816e9 	.word	0x000816e9
   82370:	20070e20 	.word	0x20070e20
   82374:	20070dc4 	.word	0x20070dc4
   82378:	00085355 	.word	0x00085355
   8237c:	00084d1d 	.word	0x00084d1d
   82380:	00085019 	.word	0x00085019
   82384:	40240000 	.word	0x40240000
   82388:	00089920 	.word	0x00089920
   8238c:	20070e50 	.word	0x20070e50
   82390:	000858c9 	.word	0x000858c9
   82394:	000819cd 	.word	0x000819cd
   82398:	20070dc0 	.word	0x20070dc0

0008239c <menu_compass_calibration>:

static void menu_compass_calibration(event_t event1)
{
   8239c:	b580      	push	{r7, lr}
   8239e:	b084      	sub	sp, #16
   823a0:	af00      	add	r7, sp, #0
   823a2:	4603      	mov	r3, r0
   823a4:	71fb      	strb	r3, [r7, #7]
    if(print_menu)
   823a6:	4b2e      	ldr	r3, [pc, #184]	; (82460 <menu_compass_calibration+0xc4>)
   823a8:	781b      	ldrb	r3, [r3, #0]
   823aa:	2b00      	cmp	r3, #0
   823ac:	d016      	beq.n	823dc <menu_compass_calibration+0x40>
    {
        print_menu = 0;
   823ae:	4b2c      	ldr	r3, [pc, #176]	; (82460 <menu_compass_calibration+0xc4>)
   823b0:	2200      	movs	r2, #0
   823b2:	701a      	strb	r2, [r3, #0]
        lcd_clear();
   823b4:	4b2b      	ldr	r3, [pc, #172]	; (82464 <menu_compass_calibration+0xc8>)
   823b6:	4798      	blx	r3
        lcd_print_s(2, 1, "calibrate compass");
   823b8:	4a2b      	ldr	r2, [pc, #172]	; (82468 <menu_compass_calibration+0xcc>)
   823ba:	2101      	movs	r1, #1
   823bc:	2002      	movs	r0, #2
   823be:	4b2b      	ldr	r3, [pc, #172]	; (8246c <menu_compass_calibration+0xd0>)
   823c0:	4798      	blx	r3
        sprintf(sprintf_buf, "  Direction: %1d  ", compass_cal_step + 1);
   823c2:	4b2b      	ldr	r3, [pc, #172]	; (82470 <menu_compass_calibration+0xd4>)
   823c4:	781b      	ldrb	r3, [r3, #0]
   823c6:	3301      	adds	r3, #1
   823c8:	461a      	mov	r2, r3
   823ca:	492a      	ldr	r1, [pc, #168]	; (82474 <menu_compass_calibration+0xd8>)
   823cc:	482a      	ldr	r0, [pc, #168]	; (82478 <menu_compass_calibration+0xdc>)
   823ce:	4b2b      	ldr	r3, [pc, #172]	; (8247c <menu_compass_calibration+0xe0>)
   823d0:	4798      	blx	r3
        lcd_print_s(3, 1, sprintf_buf);
   823d2:	4a29      	ldr	r2, [pc, #164]	; (82478 <menu_compass_calibration+0xdc>)
   823d4:	2101      	movs	r1, #1
   823d6:	2003      	movs	r0, #3
   823d8:	4b24      	ldr	r3, [pc, #144]	; (8246c <menu_compass_calibration+0xd0>)
   823da:	4798      	blx	r3
    }
    
    if(event1 == EVENT_BUTTON_MID_P)
   823dc:	79fb      	ldrb	r3, [r7, #7]
   823de:	2b07      	cmp	r3, #7
   823e0:	d139      	bne.n	82456 <menu_compass_calibration+0xba>
    {
        twi_packet_t *tx_packet = twi_get_tx_packet();
   823e2:	4b27      	ldr	r3, [pc, #156]	; (82480 <menu_compass_calibration+0xe4>)
   823e4:	4798      	blx	r3
   823e6:	60f8      	str	r0, [r7, #12]
        
        tx_packet->chip = 0x60;
   823e8:	68fb      	ldr	r3, [r7, #12]
   823ea:	2260      	movs	r2, #96	; 0x60
   823ec:	f883 210c 	strb.w	r2, [r3, #268]	; 0x10c
        tx_packet->addr[0] = 0x0f;
   823f0:	68fb      	ldr	r3, [r7, #12]
   823f2:	220f      	movs	r2, #15
   823f4:	701a      	strb	r2, [r3, #0]
        tx_packet->addr_length = 1;
   823f6:	68fb      	ldr	r3, [r7, #12]
   823f8:	2201      	movs	r2, #1
   823fa:	605a      	str	r2, [r3, #4]
        
        tx_packet->buffer[0] = 0xff;
   823fc:	68fb      	ldr	r3, [r7, #12]
   823fe:	22ff      	movs	r2, #255	; 0xff
   82400:	721a      	strb	r2, [r3, #8]
        tx_packet->length = 1;
   82402:	68fb      	ldr	r3, [r7, #12]
   82404:	2201      	movs	r2, #1
   82406:	f8c3 2108 	str.w	r2, [r3, #264]	; 0x108
        
        set_compass_is_busy();
   8240a:	4b1e      	ldr	r3, [pc, #120]	; (82484 <menu_compass_calibration+0xe8>)
   8240c:	4798      	blx	r3
        twi_pdc_master_write(TWI0, tx_packet);
   8240e:	68f9      	ldr	r1, [r7, #12]
   82410:	481d      	ldr	r0, [pc, #116]	; (82488 <menu_compass_calibration+0xec>)
   82412:	4b1e      	ldr	r3, [pc, #120]	; (8248c <menu_compass_calibration+0xf0>)
   82414:	4798      	blx	r3
        while(compass_is_busy());
   82416:	bf00      	nop
   82418:	4b1d      	ldr	r3, [pc, #116]	; (82490 <menu_compass_calibration+0xf4>)
   8241a:	4798      	blx	r3
   8241c:	4603      	mov	r3, r0
   8241e:	2b00      	cmp	r3, #0
   82420:	d1fa      	bne.n	82418 <menu_compass_calibration+0x7c>
        mdelay(500);
   82422:	f44f 70fa 	mov.w	r0, #500	; 0x1f4
   82426:	4b1b      	ldr	r3, [pc, #108]	; (82494 <menu_compass_calibration+0xf8>)
   82428:	4798      	blx	r3
        
        compass_cal_step++;
   8242a:	4b11      	ldr	r3, [pc, #68]	; (82470 <menu_compass_calibration+0xd4>)
   8242c:	781b      	ldrb	r3, [r3, #0]
   8242e:	3301      	adds	r3, #1
   82430:	b2da      	uxtb	r2, r3
   82432:	4b0f      	ldr	r3, [pc, #60]	; (82470 <menu_compass_calibration+0xd4>)
   82434:	701a      	strb	r2, [r3, #0]
        
        if(compass_cal_step == 4)
   82436:	4b0e      	ldr	r3, [pc, #56]	; (82470 <menu_compass_calibration+0xd4>)
   82438:	781b      	ldrb	r3, [r3, #0]
   8243a:	2b04      	cmp	r3, #4
   8243c:	d108      	bne.n	82450 <menu_compass_calibration+0xb4>
        {
            compass_cal_step = 0;
   8243e:	4b0c      	ldr	r3, [pc, #48]	; (82470 <menu_compass_calibration+0xd4>)
   82440:	2200      	movs	r2, #0
   82442:	701a      	strb	r2, [r3, #0]
            act_menu = MENU_COMPASS;
   82444:	4b14      	ldr	r3, [pc, #80]	; (82498 <menu_compass_calibration+0xfc>)
   82446:	2207      	movs	r2, #7
   82448:	701a      	strb	r2, [r3, #0]
            print_menu = 1;
   8244a:	4b05      	ldr	r3, [pc, #20]	; (82460 <menu_compass_calibration+0xc4>)
   8244c:	2201      	movs	r2, #1
   8244e:	701a      	strb	r2, [r3, #0]
        }
        print_menu = 1;
   82450:	4b03      	ldr	r3, [pc, #12]	; (82460 <menu_compass_calibration+0xc4>)
   82452:	2201      	movs	r2, #1
   82454:	701a      	strb	r2, [r3, #0]
    }
}
   82456:	bf00      	nop
   82458:	3710      	adds	r7, #16
   8245a:	46bd      	mov	sp, r7
   8245c:	bd80      	pop	{r7, pc}
   8245e:	bf00      	nop
   82460:	2007018c 	.word	0x2007018c
   82464:	000819ad 	.word	0x000819ad
   82468:	00089938 	.word	0x00089938
   8246c:	000819cd 	.word	0x000819cd
   82470:	20070dc1 	.word	0x20070dc1
   82474:	0008994c 	.word	0x0008994c
   82478:	20070e50 	.word	0x20070e50
   8247c:	000858c9 	.word	0x000858c9
   82480:	0008123d 	.word	0x0008123d
   82484:	00081779 	.word	0x00081779
   82488:	4008c000 	.word	0x4008c000
   8248c:	0008133d 	.word	0x0008133d
   82490:	00081791 	.word	0x00081791
   82494:	00083295 	.word	0x00083295
   82498:	20070dc0 	.word	0x20070dc0

0008249c <menu_line>:

static void menu_line(event_t event1)
{
   8249c:	b480      	push	{r7}
   8249e:	b083      	sub	sp, #12
   824a0:	af00      	add	r7, sp, #0
   824a2:	4603      	mov	r3, r0
   824a4:	71fb      	strb	r3, [r7, #7]
    
    
    if(event1 == EVENT_BUTTON_RETURN_P)
   824a6:	79fb      	ldrb	r3, [r7, #7]
   824a8:	2b10      	cmp	r3, #16
   824aa:	d105      	bne.n	824b8 <menu_line+0x1c>
    {
        act_menu = MENU_SENSORS;
   824ac:	4b05      	ldr	r3, [pc, #20]	; (824c4 <menu_line+0x28>)
   824ae:	2202      	movs	r2, #2
   824b0:	701a      	strb	r2, [r3, #0]
        print_menu = 1;
   824b2:	4b05      	ldr	r3, [pc, #20]	; (824c8 <menu_line+0x2c>)
   824b4:	2201      	movs	r2, #1
   824b6:	701a      	strb	r2, [r3, #0]
    }
}
   824b8:	bf00      	nop
   824ba:	370c      	adds	r7, #12
   824bc:	46bd      	mov	sp, r7
   824be:	bc80      	pop	{r7}
   824c0:	4770      	bx	lr
   824c2:	bf00      	nop
   824c4:	20070dc0 	.word	0x20070dc0
   824c8:	2007018c 	.word	0x2007018c

000824cc <menu_line_calibration>:

static void menu_line_calibration(event_t event1)
{
   824cc:	b480      	push	{r7}
   824ce:	b083      	sub	sp, #12
   824d0:	af00      	add	r7, sp, #0
   824d2:	4603      	mov	r3, r0
   824d4:	71fb      	strb	r3, [r7, #7]
    
    
    if(event1 == EVENT_BUTTON_RETURN_P)
   824d6:	79fb      	ldrb	r3, [r7, #7]
   824d8:	2b10      	cmp	r3, #16
   824da:	d105      	bne.n	824e8 <menu_line_calibration+0x1c>
    {
        act_menu = MENU_LINE;
   824dc:	4b05      	ldr	r3, [pc, #20]	; (824f4 <menu_line_calibration+0x28>)
   824de:	2205      	movs	r2, #5
   824e0:	701a      	strb	r2, [r3, #0]
        print_menu = 1;
   824e2:	4b05      	ldr	r3, [pc, #20]	; (824f8 <menu_line_calibration+0x2c>)
   824e4:	2201      	movs	r2, #1
   824e6:	701a      	strb	r2, [r3, #0]
    }
}
   824e8:	bf00      	nop
   824ea:	370c      	adds	r7, #12
   824ec:	46bd      	mov	sp, r7
   824ee:	bc80      	pop	{r7}
   824f0:	4770      	bx	lr
   824f2:	bf00      	nop
   824f4:	20070dc0 	.word	0x20070dc0
   824f8:	2007018c 	.word	0x2007018c

000824fc <menu_settings>:

static void menu_settings(event_t event1)
{
   824fc:	b580      	push	{r7, lr}
   824fe:	b082      	sub	sp, #8
   82500:	af00      	add	r7, sp, #0
   82502:	4603      	mov	r3, r0
   82504:	71fb      	strb	r3, [r7, #7]
    if (print_menu)
   82506:	4b40      	ldr	r3, [pc, #256]	; (82608 <menu_settings+0x10c>)
   82508:	781b      	ldrb	r3, [r3, #0]
   8250a:	2b00      	cmp	r3, #0
   8250c:	d004      	beq.n	82518 <menu_settings+0x1c>
    {
        print_menu = 0;
   8250e:	4b3e      	ldr	r3, [pc, #248]	; (82608 <menu_settings+0x10c>)
   82510:	2200      	movs	r2, #0
   82512:	701a      	strb	r2, [r3, #0]
        print_menu_settings();
   82514:	4b3d      	ldr	r3, [pc, #244]	; (8260c <menu_settings+0x110>)
   82516:	4798      	blx	r3
    }
    
    switch(event1)
   82518:	79fb      	ldrb	r3, [r7, #7]
   8251a:	3b01      	subs	r3, #1
   8251c:	2b0f      	cmp	r3, #15
   8251e:	d869      	bhi.n	825f4 <menu_settings+0xf8>
   82520:	a201      	add	r2, pc, #4	; (adr r2, 82528 <menu_settings+0x2c>)
   82522:	f852 f023 	ldr.w	pc, [r2, r3, lsl #2]
   82526:	bf00      	nop
   82528:	00082569 	.word	0x00082569
   8252c:	000825f5 	.word	0x000825f5
   82530:	000825f5 	.word	0x000825f5
   82534:	000825f5 	.word	0x000825f5
   82538:	000825f5 	.word	0x000825f5
   8253c:	000825f5 	.word	0x000825f5
   82540:	000825a9 	.word	0x000825a9
   82544:	000825f5 	.word	0x000825f5
   82548:	000825f5 	.word	0x000825f5
   8254c:	000825f5 	.word	0x000825f5
   82550:	000825f5 	.word	0x000825f5
   82554:	000825f5 	.word	0x000825f5
   82558:	00082589 	.word	0x00082589
   8255c:	000825f5 	.word	0x000825f5
   82560:	000825f5 	.word	0x000825f5
   82564:	000825e7 	.word	0x000825e7
    {
        case EVENT_BUTTON_UP_P:
            if (menu_info.settings.act_cursor_line > menu_info.settings.min_cursor_line)
   82568:	4b29      	ldr	r3, [pc, #164]	; (82610 <menu_settings+0x114>)
   8256a:	7a1a      	ldrb	r2, [r3, #8]
   8256c:	4b28      	ldr	r3, [pc, #160]	; (82610 <menu_settings+0x114>)
   8256e:	7a9b      	ldrb	r3, [r3, #10]
   82570:	429a      	cmp	r2, r3
   82572:	d941      	bls.n	825f8 <menu_settings+0xfc>
            {
                menu_info.settings.act_cursor_line--;
   82574:	4b26      	ldr	r3, [pc, #152]	; (82610 <menu_settings+0x114>)
   82576:	7a1b      	ldrb	r3, [r3, #8]
   82578:	3b01      	subs	r3, #1
   8257a:	b2da      	uxtb	r2, r3
   8257c:	4b24      	ldr	r3, [pc, #144]	; (82610 <menu_settings+0x114>)
   8257e:	721a      	strb	r2, [r3, #8]
                print_cursor(&menu_info.settings);
   82580:	4824      	ldr	r0, [pc, #144]	; (82614 <menu_settings+0x118>)
   82582:	4b25      	ldr	r3, [pc, #148]	; (82618 <menu_settings+0x11c>)
   82584:	4798      	blx	r3
            }
            break;
   82586:	e037      	b.n	825f8 <menu_settings+0xfc>
        case EVENT_BUTTON_DOWN_P:
            if (menu_info.settings.act_cursor_line < menu_info.settings.max_cursor_line)
   82588:	4b21      	ldr	r3, [pc, #132]	; (82610 <menu_settings+0x114>)
   8258a:	7a1a      	ldrb	r2, [r3, #8]
   8258c:	4b20      	ldr	r3, [pc, #128]	; (82610 <menu_settings+0x114>)
   8258e:	7adb      	ldrb	r3, [r3, #11]
   82590:	429a      	cmp	r2, r3
   82592:	d233      	bcs.n	825fc <menu_settings+0x100>
            {
                menu_info.settings.act_cursor_line++;
   82594:	4b1e      	ldr	r3, [pc, #120]	; (82610 <menu_settings+0x114>)
   82596:	7a1b      	ldrb	r3, [r3, #8]
   82598:	3301      	adds	r3, #1
   8259a:	b2da      	uxtb	r2, r3
   8259c:	4b1c      	ldr	r3, [pc, #112]	; (82610 <menu_settings+0x114>)
   8259e:	721a      	strb	r2, [r3, #8]
                print_cursor(&menu_info.settings);
   825a0:	481c      	ldr	r0, [pc, #112]	; (82614 <menu_settings+0x118>)
   825a2:	4b1d      	ldr	r3, [pc, #116]	; (82618 <menu_settings+0x11c>)
   825a4:	4798      	blx	r3
            }
            break;
   825a6:	e029      	b.n	825fc <menu_settings+0x100>
        case EVENT_BUTTON_MID_P:
            switch (menu_info.settings.act_cursor_line)
   825a8:	4b19      	ldr	r3, [pc, #100]	; (82610 <menu_settings+0x114>)
   825aa:	7a1b      	ldrb	r3, [r3, #8]
   825ac:	2b02      	cmp	r3, #2
   825ae:	d00b      	beq.n	825c8 <menu_settings+0xcc>
   825b0:	2b03      	cmp	r3, #3
   825b2:	d010      	beq.n	825d6 <menu_settings+0xda>
   825b4:	2b01      	cmp	r3, #1
   825b6:	d000      	beq.n	825ba <menu_settings+0xbe>
                case 3:
                    act_menu = MENU_LINE;
                    print_menu = 1;
                    break;
                default:
                    break;
   825b8:	e014      	b.n	825e4 <menu_settings+0xe8>
                    act_menu = MENU_BALL;
   825ba:	4b18      	ldr	r3, [pc, #96]	; (8261c <menu_settings+0x120>)
   825bc:	2204      	movs	r2, #4
   825be:	701a      	strb	r2, [r3, #0]
                    print_menu = 1;
   825c0:	4b11      	ldr	r3, [pc, #68]	; (82608 <menu_settings+0x10c>)
   825c2:	2201      	movs	r2, #1
   825c4:	701a      	strb	r2, [r3, #0]
                    break;
   825c6:	e00d      	b.n	825e4 <menu_settings+0xe8>
                    act_menu = MENU_COMPASS;
   825c8:	4b14      	ldr	r3, [pc, #80]	; (8261c <menu_settings+0x120>)
   825ca:	2207      	movs	r2, #7
   825cc:	701a      	strb	r2, [r3, #0]
                    print_menu = 1;
   825ce:	4b0e      	ldr	r3, [pc, #56]	; (82608 <menu_settings+0x10c>)
   825d0:	2201      	movs	r2, #1
   825d2:	701a      	strb	r2, [r3, #0]
                    break;
   825d4:	e006      	b.n	825e4 <menu_settings+0xe8>
                    act_menu = MENU_LINE;
   825d6:	4b11      	ldr	r3, [pc, #68]	; (8261c <menu_settings+0x120>)
   825d8:	2205      	movs	r2, #5
   825da:	701a      	strb	r2, [r3, #0]
                    print_menu = 1;
   825dc:	4b0a      	ldr	r3, [pc, #40]	; (82608 <menu_settings+0x10c>)
   825de:	2201      	movs	r2, #1
   825e0:	701a      	strb	r2, [r3, #0]
                    break;
   825e2:	bf00      	nop
            }
            break;
   825e4:	e00b      	b.n	825fe <menu_settings+0x102>
        case EVENT_BUTTON_RETURN_P:
            act_menu = MENU_MAIN;
   825e6:	4b0d      	ldr	r3, [pc, #52]	; (8261c <menu_settings+0x120>)
   825e8:	2200      	movs	r2, #0
   825ea:	701a      	strb	r2, [r3, #0]
            print_menu = 1;
   825ec:	4b06      	ldr	r3, [pc, #24]	; (82608 <menu_settings+0x10c>)
   825ee:	2201      	movs	r2, #1
   825f0:	701a      	strb	r2, [r3, #0]
            break;
   825f2:	e004      	b.n	825fe <menu_settings+0x102>
        default:
            break;
   825f4:	bf00      	nop
   825f6:	e002      	b.n	825fe <menu_settings+0x102>
            break;
   825f8:	bf00      	nop
   825fa:	e000      	b.n	825fe <menu_settings+0x102>
            break;
   825fc:	bf00      	nop
    }
}
   825fe:	bf00      	nop
   82600:	3708      	adds	r7, #8
   82602:	46bd      	mov	sp, r7
   82604:	bd80      	pop	{r7, pc}
   82606:	bf00      	nop
   82608:	2007018c 	.word	0x2007018c
   8260c:	00082809 	.word	0x00082809
   82610:	20070190 	.word	0x20070190
   82614:	20070198 	.word	0x20070198
   82618:	00082871 	.word	0x00082871
   8261c:	20070dc0 	.word	0x20070dc0

00082620 <menu_shutdown>:

static void menu_shutdown(event_t event1)
{
   82620:	b580      	push	{r7, lr}
   82622:	b082      	sub	sp, #8
   82624:	af00      	add	r7, sp, #0
   82626:	4603      	mov	r3, r0
   82628:	71fb      	strb	r3, [r7, #7]
    if(shutdown_confirmed)
   8262a:	4b35      	ldr	r3, [pc, #212]	; (82700 <menu_shutdown+0xe0>)
   8262c:	781b      	ldrb	r3, [r3, #0]
   8262e:	2b00      	cmp	r3, #0
   82630:	d043      	beq.n	826ba <menu_shutdown+0x9a>
    {
        lcd_clear();
   82632:	4b34      	ldr	r3, [pc, #208]	; (82704 <menu_shutdown+0xe4>)
   82634:	4798      	blx	r3
        lcd_print_s(2, 2, "shutting down...");
   82636:	4a34      	ldr	r2, [pc, #208]	; (82708 <menu_shutdown+0xe8>)
   82638:	2102      	movs	r1, #2
   8263a:	2002      	movs	r0, #2
   8263c:	4b33      	ldr	r3, [pc, #204]	; (8270c <menu_shutdown+0xec>)
   8263e:	4798      	blx	r3
        
        ioport_set_pin_level(LED_ONBOARD, 0);
   82640:	2100      	movs	r1, #0
   82642:	206a      	movs	r0, #106	; 0x6a
   82644:	4b32      	ldr	r3, [pc, #200]	; (82710 <menu_shutdown+0xf0>)
   82646:	4798      	blx	r3
        ioport_set_pin_level(LED_BAT, 0);
   82648:	2100      	movs	r1, #0
   8264a:	2066      	movs	r0, #102	; 0x66
   8264c:	4b30      	ldr	r3, [pc, #192]	; (82710 <menu_shutdown+0xf0>)
   8264e:	4798      	blx	r3
        ioport_set_pin_level(LED_M1, 0);
   82650:	2100      	movs	r1, #0
   82652:	2067      	movs	r0, #103	; 0x67
   82654:	4b2e      	ldr	r3, [pc, #184]	; (82710 <menu_shutdown+0xf0>)
   82656:	4798      	blx	r3
        ioport_set_pin_level(LED_M2, 0);
   82658:	2100      	movs	r1, #0
   8265a:	2068      	movs	r0, #104	; 0x68
   8265c:	4b2c      	ldr	r3, [pc, #176]	; (82710 <menu_shutdown+0xf0>)
   8265e:	4798      	blx	r3
        ioport_set_pin_level(LED_M3, 0);
   82660:	2100      	movs	r1, #0
   82662:	2069      	movs	r0, #105	; 0x69
   82664:	4b2a      	ldr	r3, [pc, #168]	; (82710 <menu_shutdown+0xf0>)
   82666:	4798      	blx	r3
        pwm_channel_disable(PWM, MREAR);
        
        pwm_channel_disable(PWM, ENC_CLK);
        
        sensor_parameters.ibit.sleep_mode = 1;*/
        update_comm();
   82668:	4b2a      	ldr	r3, [pc, #168]	; (82714 <menu_shutdown+0xf4>)
   8266a:	4798      	blx	r3
        
        ioport_set_pin_level(RPI1, 0);
   8266c:	2100      	movs	r1, #0
   8266e:	2001      	movs	r0, #1
   82670:	4b27      	ldr	r3, [pc, #156]	; (82710 <menu_shutdown+0xf0>)
   82672:	4798      	blx	r3
        while (ioport_get_pin_level(RPI2) == 1);
   82674:	bf00      	nop
   82676:	2008      	movs	r0, #8
   82678:	4b27      	ldr	r3, [pc, #156]	; (82718 <menu_shutdown+0xf8>)
   8267a:	4798      	blx	r3
   8267c:	4603      	mov	r3, r0
   8267e:	2b00      	cmp	r3, #0
   82680:	d1f9      	bne.n	82676 <menu_shutdown+0x56>
        mdelay(7500);
   82682:	f641 504c 	movw	r0, #7500	; 0x1d4c
   82686:	4b25      	ldr	r3, [pc, #148]	; (8271c <menu_shutdown+0xfc>)
   82688:	4798      	blx	r3
        
        lcd_set_backlight(LCD_LIGHT_OFF);
   8268a:	2000      	movs	r0, #0
   8268c:	4b24      	ldr	r3, [pc, #144]	; (82720 <menu_shutdown+0x100>)
   8268e:	4798      	blx	r3
        lcd_clear();    // required to turn backlight on/off
   82690:	4b1c      	ldr	r3, [pc, #112]	; (82704 <menu_shutdown+0xe4>)
   82692:	4798      	blx	r3
        mdelay(100);
   82694:	2064      	movs	r0, #100	; 0x64
   82696:	4b21      	ldr	r3, [pc, #132]	; (8271c <menu_shutdown+0xfc>)
   82698:	4798      	blx	r3
        lcd_set_backlight(LCD_LIGHT_ON);
   8269a:	2008      	movs	r0, #8
   8269c:	4b20      	ldr	r3, [pc, #128]	; (82720 <menu_shutdown+0x100>)
   8269e:	4798      	blx	r3
        lcd_clear();    // required to turn backlight on/off
   826a0:	4b18      	ldr	r3, [pc, #96]	; (82704 <menu_shutdown+0xe4>)
   826a2:	4798      	blx	r3
        mdelay(100);
   826a4:	2064      	movs	r0, #100	; 0x64
   826a6:	4b1d      	ldr	r3, [pc, #116]	; (8271c <menu_shutdown+0xfc>)
   826a8:	4798      	blx	r3
        lcd_set_backlight(LCD_LIGHT_OFF);
   826aa:	2000      	movs	r0, #0
   826ac:	4b1c      	ldr	r3, [pc, #112]	; (82720 <menu_shutdown+0x100>)
   826ae:	4798      	blx	r3
        lcd_clear();    // required to turn backlight on/off
   826b0:	4b14      	ldr	r3, [pc, #80]	; (82704 <menu_shutdown+0xe4>)
   826b2:	4798      	blx	r3
        
        while(1)
        {
            update_comm();
   826b4:	4b17      	ldr	r3, [pc, #92]	; (82714 <menu_shutdown+0xf4>)
   826b6:	4798      	blx	r3
   826b8:	e7fc      	b.n	826b4 <menu_shutdown+0x94>
            //check_bat();
        }
    }
    else
    {
        if(print_menu)
   826ba:	4b1a      	ldr	r3, [pc, #104]	; (82724 <menu_shutdown+0x104>)
   826bc:	781b      	ldrb	r3, [r3, #0]
   826be:	2b00      	cmp	r3, #0
   826c0:	d009      	beq.n	826d6 <menu_shutdown+0xb6>
        {
            print_menu = 0;
   826c2:	4b18      	ldr	r3, [pc, #96]	; (82724 <menu_shutdown+0x104>)
   826c4:	2200      	movs	r2, #0
   826c6:	701a      	strb	r2, [r3, #0]
            lcd_clear();
   826c8:	4b0e      	ldr	r3, [pc, #56]	; (82704 <menu_shutdown+0xe4>)
   826ca:	4798      	blx	r3
            lcd_print_s(2, 1, "confirm shutdown?");
   826cc:	4a16      	ldr	r2, [pc, #88]	; (82728 <menu_shutdown+0x108>)
   826ce:	2101      	movs	r1, #1
   826d0:	2002      	movs	r0, #2
   826d2:	4b0e      	ldr	r3, [pc, #56]	; (8270c <menu_shutdown+0xec>)
   826d4:	4798      	blx	r3
        }
    }
    
    switch (event1)
   826d6:	79fb      	ldrb	r3, [r7, #7]
   826d8:	2b07      	cmp	r3, #7
   826da:	d002      	beq.n	826e2 <menu_shutdown+0xc2>
   826dc:	2b10      	cmp	r3, #16
   826de:	d004      	beq.n	826ea <menu_shutdown+0xca>
        case EVENT_BUTTON_RETURN_P:
            act_menu = MENU_MAIN;
            print_menu = 1;
            break;
        default:
            break;
   826e0:	e00a      	b.n	826f8 <menu_shutdown+0xd8>
            shutdown_confirmed = 1;
   826e2:	4b07      	ldr	r3, [pc, #28]	; (82700 <menu_shutdown+0xe0>)
   826e4:	2201      	movs	r2, #1
   826e6:	701a      	strb	r2, [r3, #0]
            break;
   826e8:	e006      	b.n	826f8 <menu_shutdown+0xd8>
            act_menu = MENU_MAIN;
   826ea:	4b10      	ldr	r3, [pc, #64]	; (8272c <menu_shutdown+0x10c>)
   826ec:	2200      	movs	r2, #0
   826ee:	701a      	strb	r2, [r3, #0]
            print_menu = 1;
   826f0:	4b0c      	ldr	r3, [pc, #48]	; (82724 <menu_shutdown+0x104>)
   826f2:	2201      	movs	r2, #1
   826f4:	701a      	strb	r2, [r3, #0]
            break;
   826f6:	bf00      	nop
    }
}
   826f8:	bf00      	nop
   826fa:	3708      	adds	r7, #8
   826fc:	46bd      	mov	sp, r7
   826fe:	bd80      	pop	{r7, pc}
   82700:	20070dc2 	.word	0x20070dc2
   82704:	000819ad 	.word	0x000819ad
   82708:	00089960 	.word	0x00089960
   8270c:	000819cd 	.word	0x000819cd
   82710:	00081e69 	.word	0x00081e69
   82714:	000832c1 	.word	0x000832c1
   82718:	00081ed3 	.word	0x00081ed3
   8271c:	00083295 	.word	0x00083295
   82720:	0008198d 	.word	0x0008198d
   82724:	2007018c 	.word	0x2007018c
   82728:	00089974 	.word	0x00089974
   8272c:	20070dc0 	.word	0x20070dc0

00082730 <print_menu_main>:

static void print_menu_main(void)
{
   82730:	b590      	push	{r4, r7, lr}
   82732:	b085      	sub	sp, #20
   82734:	af00      	add	r7, sp, #0
    const char *text[4] = {"    noOS ONE", " Match", " Sensors", " Settings"};
   82736:	4b14      	ldr	r3, [pc, #80]	; (82788 <print_menu_main+0x58>)
   82738:	463c      	mov	r4, r7
   8273a:	cb0f      	ldmia	r3, {r0, r1, r2, r3}
   8273c:	e884 000f 	stmia.w	r4, {r0, r1, r2, r3}
//    lcd_print_m(text);
    lcd_clear();
   82740:	4b12      	ldr	r3, [pc, #72]	; (8278c <print_menu_main+0x5c>)
   82742:	4798      	blx	r3
    lcd_print_s(1, 0, text[0]);
   82744:	683b      	ldr	r3, [r7, #0]
   82746:	461a      	mov	r2, r3
   82748:	2100      	movs	r1, #0
   8274a:	2001      	movs	r0, #1
   8274c:	4b10      	ldr	r3, [pc, #64]	; (82790 <print_menu_main+0x60>)
   8274e:	4798      	blx	r3
    lcd_print_s(2, 0, text[1]);
   82750:	687b      	ldr	r3, [r7, #4]
   82752:	461a      	mov	r2, r3
   82754:	2100      	movs	r1, #0
   82756:	2002      	movs	r0, #2
   82758:	4b0d      	ldr	r3, [pc, #52]	; (82790 <print_menu_main+0x60>)
   8275a:	4798      	blx	r3
    lcd_print_s(3, 0, text[2]);
   8275c:	68bb      	ldr	r3, [r7, #8]
   8275e:	461a      	mov	r2, r3
   82760:	2100      	movs	r1, #0
   82762:	2003      	movs	r0, #3
   82764:	4b0a      	ldr	r3, [pc, #40]	; (82790 <print_menu_main+0x60>)
   82766:	4798      	blx	r3
    lcd_print_s(4, 0, text[3]);
   82768:	68fb      	ldr	r3, [r7, #12]
   8276a:	461a      	mov	r2, r3
   8276c:	2100      	movs	r1, #0
   8276e:	2004      	movs	r0, #4
   82770:	4b07      	ldr	r3, [pc, #28]	; (82790 <print_menu_main+0x60>)
   82772:	4798      	blx	r3
    print_cursor(&menu_info.main);
   82774:	4807      	ldr	r0, [pc, #28]	; (82794 <print_menu_main+0x64>)
   82776:	4b08      	ldr	r3, [pc, #32]	; (82798 <print_menu_main+0x68>)
   82778:	4798      	blx	r3
    update_battery(1);
   8277a:	2001      	movs	r0, #1
   8277c:	4b07      	ldr	r3, [pc, #28]	; (8279c <print_menu_main+0x6c>)
   8277e:	4798      	blx	r3
}
   82780:	bf00      	nop
   82782:	3714      	adds	r7, #20
   82784:	46bd      	mov	sp, r7
   82786:	bd90      	pop	{r4, r7, pc}
   82788:	000899b8 	.word	0x000899b8
   8278c:	000819ad 	.word	0x000819ad
   82790:	000819cd 	.word	0x000819cd
   82794:	20070190 	.word	0x20070190
   82798:	00082871 	.word	0x00082871
   8279c:	00083309 	.word	0x00083309

000827a0 <print_menu_sensors>:

static void print_menu_sensors(void)
{
   827a0:	b590      	push	{r4, r7, lr}
   827a2:	b085      	sub	sp, #20
   827a4:	af00      	add	r7, sp, #0
    const char *text[4] = {" Ball", " Compass", " Line", " "};
   827a6:	4b13      	ldr	r3, [pc, #76]	; (827f4 <print_menu_sensors+0x54>)
   827a8:	463c      	mov	r4, r7
   827aa:	cb0f      	ldmia	r3, {r0, r1, r2, r3}
   827ac:	e884 000f 	stmia.w	r4, {r0, r1, r2, r3}
//    lcd_print_m(text);
    lcd_clear();
   827b0:	4b11      	ldr	r3, [pc, #68]	; (827f8 <print_menu_sensors+0x58>)
   827b2:	4798      	blx	r3
    lcd_print_s(1, 0, text[0]);
   827b4:	683b      	ldr	r3, [r7, #0]
   827b6:	461a      	mov	r2, r3
   827b8:	2100      	movs	r1, #0
   827ba:	2001      	movs	r0, #1
   827bc:	4b0f      	ldr	r3, [pc, #60]	; (827fc <print_menu_sensors+0x5c>)
   827be:	4798      	blx	r3
    lcd_print_s(2, 0, text[1]);
   827c0:	687b      	ldr	r3, [r7, #4]
   827c2:	461a      	mov	r2, r3
   827c4:	2100      	movs	r1, #0
   827c6:	2002      	movs	r0, #2
   827c8:	4b0c      	ldr	r3, [pc, #48]	; (827fc <print_menu_sensors+0x5c>)
   827ca:	4798      	blx	r3
    lcd_print_s(3, 0, text[2]);
   827cc:	68bb      	ldr	r3, [r7, #8]
   827ce:	461a      	mov	r2, r3
   827d0:	2100      	movs	r1, #0
   827d2:	2003      	movs	r0, #3
   827d4:	4b09      	ldr	r3, [pc, #36]	; (827fc <print_menu_sensors+0x5c>)
   827d6:	4798      	blx	r3
    lcd_print_s(4, 0, text[3]);
   827d8:	68fb      	ldr	r3, [r7, #12]
   827da:	461a      	mov	r2, r3
   827dc:	2100      	movs	r1, #0
   827de:	2004      	movs	r0, #4
   827e0:	4b06      	ldr	r3, [pc, #24]	; (827fc <print_menu_sensors+0x5c>)
   827e2:	4798      	blx	r3
    print_cursor(&menu_info.sensors);
   827e4:	4806      	ldr	r0, [pc, #24]	; (82800 <print_menu_sensors+0x60>)
   827e6:	4b07      	ldr	r3, [pc, #28]	; (82804 <print_menu_sensors+0x64>)
   827e8:	4798      	blx	r3
}
   827ea:	bf00      	nop
   827ec:	3714      	adds	r7, #20
   827ee:	46bd      	mov	sp, r7
   827f0:	bd90      	pop	{r4, r7, pc}
   827f2:	bf00      	nop
   827f4:	000899e8 	.word	0x000899e8
   827f8:	000819ad 	.word	0x000819ad
   827fc:	000819cd 	.word	0x000819cd
   82800:	20070194 	.word	0x20070194
   82804:	00082871 	.word	0x00082871

00082808 <print_menu_settings>:

static void print_menu_settings(void)
{
   82808:	b590      	push	{r4, r7, lr}
   8280a:	b085      	sub	sp, #20
   8280c:	af00      	add	r7, sp, #0
    const char *text[4] = {" ", " ", " ", " "};
   8280e:	4b13      	ldr	r3, [pc, #76]	; (8285c <print_menu_settings+0x54>)
   82810:	463c      	mov	r4, r7
   82812:	cb0f      	ldmia	r3, {r0, r1, r2, r3}
   82814:	e884 000f 	stmia.w	r4, {r0, r1, r2, r3}
//    lcd_print_m(text);
    lcd_clear();
   82818:	4b11      	ldr	r3, [pc, #68]	; (82860 <print_menu_settings+0x58>)
   8281a:	4798      	blx	r3
    lcd_print_s(1, 0, text[0]);
   8281c:	683b      	ldr	r3, [r7, #0]
   8281e:	461a      	mov	r2, r3
   82820:	2100      	movs	r1, #0
   82822:	2001      	movs	r0, #1
   82824:	4b0f      	ldr	r3, [pc, #60]	; (82864 <print_menu_settings+0x5c>)
   82826:	4798      	blx	r3
    lcd_print_s(2, 0, text[1]);
   82828:	687b      	ldr	r3, [r7, #4]
   8282a:	461a      	mov	r2, r3
   8282c:	2100      	movs	r1, #0
   8282e:	2002      	movs	r0, #2
   82830:	4b0c      	ldr	r3, [pc, #48]	; (82864 <print_menu_settings+0x5c>)
   82832:	4798      	blx	r3
    lcd_print_s(3, 0, text[2]);
   82834:	68bb      	ldr	r3, [r7, #8]
   82836:	461a      	mov	r2, r3
   82838:	2100      	movs	r1, #0
   8283a:	2003      	movs	r0, #3
   8283c:	4b09      	ldr	r3, [pc, #36]	; (82864 <print_menu_settings+0x5c>)
   8283e:	4798      	blx	r3
    lcd_print_s(4, 0, text[3]);
   82840:	68fb      	ldr	r3, [r7, #12]
   82842:	461a      	mov	r2, r3
   82844:	2100      	movs	r1, #0
   82846:	2004      	movs	r0, #4
   82848:	4b06      	ldr	r3, [pc, #24]	; (82864 <print_menu_settings+0x5c>)
   8284a:	4798      	blx	r3
    print_cursor(&menu_info.settings);
   8284c:	4806      	ldr	r0, [pc, #24]	; (82868 <print_menu_settings+0x60>)
   8284e:	4b07      	ldr	r3, [pc, #28]	; (8286c <print_menu_settings+0x64>)
   82850:	4798      	blx	r3
}
   82852:	bf00      	nop
   82854:	3714      	adds	r7, #20
   82856:	46bd      	mov	sp, r7
   82858:	bd90      	pop	{r4, r7, pc}
   8285a:	bf00      	nop
   8285c:	000899f8 	.word	0x000899f8
   82860:	000819ad 	.word	0x000819ad
   82864:	000819cd 	.word	0x000819cd
   82868:	20070198 	.word	0x20070198
   8286c:	00082871 	.word	0x00082871

00082870 <print_cursor>:

static void print_cursor(menu_info_t *info)
{
   82870:	b580      	push	{r7, lr}
   82872:	b082      	sub	sp, #8
   82874:	af00      	add	r7, sp, #0
   82876:	6078      	str	r0, [r7, #4]
    lcd_print_s(info->prev_cursor_line, 0, " ");
   82878:	687b      	ldr	r3, [r7, #4]
   8287a:	785b      	ldrb	r3, [r3, #1]
   8287c:	4a09      	ldr	r2, [pc, #36]	; (828a4 <print_cursor+0x34>)
   8287e:	2100      	movs	r1, #0
   82880:	4618      	mov	r0, r3
   82882:	4b09      	ldr	r3, [pc, #36]	; (828a8 <print_cursor+0x38>)
   82884:	4798      	blx	r3
    lcd_print_s(info->act_cursor_line, 0, ">");
   82886:	687b      	ldr	r3, [r7, #4]
   82888:	781b      	ldrb	r3, [r3, #0]
   8288a:	4a08      	ldr	r2, [pc, #32]	; (828ac <print_cursor+0x3c>)
   8288c:	2100      	movs	r1, #0
   8288e:	4618      	mov	r0, r3
   82890:	4b05      	ldr	r3, [pc, #20]	; (828a8 <print_cursor+0x38>)
   82892:	4798      	blx	r3
    
    info->prev_cursor_line = info->act_cursor_line;
   82894:	687b      	ldr	r3, [r7, #4]
   82896:	781a      	ldrb	r2, [r3, #0]
   82898:	687b      	ldr	r3, [r7, #4]
   8289a:	705a      	strb	r2, [r3, #1]
}
   8289c:	bf00      	nop
   8289e:	3708      	adds	r7, #8
   828a0:	46bd      	mov	sp, r7
   828a2:	bd80      	pop	{r7, pc}
   828a4:	000899e4 	.word	0x000899e4
   828a8:	000819cd 	.word	0x000819cd
   828ac:	00089a08 	.word	0x00089a08

000828b0 <button_events>:

event_t button_events(void)
{
   828b0:	b580      	push	{r7, lr}
   828b2:	b082      	sub	sp, #8
   828b4:	af00      	add	r7, sp, #0
    event_t nextEvent = EVENT_NO_EVENT;
   828b6:	2300      	movs	r3, #0
   828b8:	71fb      	strb	r3, [r7, #7]

    if (getTicks() >= (ticks_button_update + 30))
   828ba:	4b75      	ldr	r3, [pc, #468]	; (82a90 <button_events+0x1e0>)
   828bc:	4798      	blx	r3
   828be:	4602      	mov	r2, r0
   828c0:	4b74      	ldr	r3, [pc, #464]	; (82a94 <button_events+0x1e4>)
   828c2:	681b      	ldr	r3, [r3, #0]
   828c4:	331e      	adds	r3, #30
   828c6:	429a      	cmp	r2, r3
   828c8:	f0c0 80dd 	bcc.w	82a86 <button_events+0x1d6>
    {
        ticks_button_update = getTicks();
   828cc:	4b70      	ldr	r3, [pc, #448]	; (82a90 <button_events+0x1e0>)
   828ce:	4798      	blx	r3
   828d0:	4602      	mov	r2, r0
   828d2:	4b70      	ldr	r3, [pc, #448]	; (82a94 <button_events+0x1e4>)
   828d4:	601a      	str	r2, [r3, #0]
        
        pb_up_act = ioport_get_pin_level(PB_UP);
   828d6:	2060      	movs	r0, #96	; 0x60
   828d8:	4b6f      	ldr	r3, [pc, #444]	; (82a98 <button_events+0x1e8>)
   828da:	4798      	blx	r3
   828dc:	4603      	mov	r3, r0
   828de:	461a      	mov	r2, r3
   828e0:	4b6e      	ldr	r3, [pc, #440]	; (82a9c <button_events+0x1ec>)
   828e2:	701a      	strb	r2, [r3, #0]
        pb_left_act = ioport_get_pin_level(PB_LEFT);
   828e4:	2061      	movs	r0, #97	; 0x61
   828e6:	4b6c      	ldr	r3, [pc, #432]	; (82a98 <button_events+0x1e8>)
   828e8:	4798      	blx	r3
   828ea:	4603      	mov	r3, r0
   828ec:	461a      	mov	r2, r3
   828ee:	4b6c      	ldr	r3, [pc, #432]	; (82aa0 <button_events+0x1f0>)
   828f0:	701a      	strb	r2, [r3, #0]
        pb_mid_act = ioport_get_pin_level(PB_MID);
   828f2:	2062      	movs	r0, #98	; 0x62
   828f4:	4b68      	ldr	r3, [pc, #416]	; (82a98 <button_events+0x1e8>)
   828f6:	4798      	blx	r3
   828f8:	4603      	mov	r3, r0
   828fa:	461a      	mov	r2, r3
   828fc:	4b69      	ldr	r3, [pc, #420]	; (82aa4 <button_events+0x1f4>)
   828fe:	701a      	strb	r2, [r3, #0]
        pb_right_act = ioport_get_pin_level(PB_RIGHT);
   82900:	2063      	movs	r0, #99	; 0x63
   82902:	4b65      	ldr	r3, [pc, #404]	; (82a98 <button_events+0x1e8>)
   82904:	4798      	blx	r3
   82906:	4603      	mov	r3, r0
   82908:	461a      	mov	r2, r3
   8290a:	4b67      	ldr	r3, [pc, #412]	; (82aa8 <button_events+0x1f8>)
   8290c:	701a      	strb	r2, [r3, #0]
        pb_down_act = ioport_get_pin_level(PB_DOWN);
   8290e:	2064      	movs	r0, #100	; 0x64
   82910:	4b61      	ldr	r3, [pc, #388]	; (82a98 <button_events+0x1e8>)
   82912:	4798      	blx	r3
   82914:	4603      	mov	r3, r0
   82916:	461a      	mov	r2, r3
   82918:	4b64      	ldr	r3, [pc, #400]	; (82aac <button_events+0x1fc>)
   8291a:	701a      	strb	r2, [r3, #0]
        pb_return_act = ioport_get_pin_level(PB_RETURN);
   8291c:	2065      	movs	r0, #101	; 0x65
   8291e:	4b5e      	ldr	r3, [pc, #376]	; (82a98 <button_events+0x1e8>)
   82920:	4798      	blx	r3
   82922:	4603      	mov	r3, r0
   82924:	461a      	mov	r2, r3
   82926:	4b62      	ldr	r3, [pc, #392]	; (82ab0 <button_events+0x200>)
   82928:	701a      	strb	r2, [r3, #0]
        
        if (pb_up_act != pb_up_prev && pb_up_act == 0)
   8292a:	4b5c      	ldr	r3, [pc, #368]	; (82a9c <button_events+0x1ec>)
   8292c:	781a      	ldrb	r2, [r3, #0]
   8292e:	4b61      	ldr	r3, [pc, #388]	; (82ab4 <button_events+0x204>)
   82930:	781b      	ldrb	r3, [r3, #0]
   82932:	429a      	cmp	r2, r3
   82934:	d006      	beq.n	82944 <button_events+0x94>
   82936:	4b59      	ldr	r3, [pc, #356]	; (82a9c <button_events+0x1ec>)
   82938:	781b      	ldrb	r3, [r3, #0]
   8293a:	2b00      	cmp	r3, #0
   8293c:	d102      	bne.n	82944 <button_events+0x94>
        {
            nextEvent = EVENT_BUTTON_UP_P;
   8293e:	2301      	movs	r3, #1
   82940:	71fb      	strb	r3, [r7, #7]
   82942:	e00b      	b.n	8295c <button_events+0xac>
        }
        else if (pb_up_act != pb_up_prev && pb_up_act == 1)
   82944:	4b55      	ldr	r3, [pc, #340]	; (82a9c <button_events+0x1ec>)
   82946:	781a      	ldrb	r2, [r3, #0]
   82948:	4b5a      	ldr	r3, [pc, #360]	; (82ab4 <button_events+0x204>)
   8294a:	781b      	ldrb	r3, [r3, #0]
   8294c:	429a      	cmp	r2, r3
   8294e:	d005      	beq.n	8295c <button_events+0xac>
   82950:	4b52      	ldr	r3, [pc, #328]	; (82a9c <button_events+0x1ec>)
   82952:	781b      	ldrb	r3, [r3, #0]
   82954:	2b01      	cmp	r3, #1
   82956:	d101      	bne.n	8295c <button_events+0xac>
        {
            nextEvent = EVENT_BUTTON_UP_R;
   82958:	2303      	movs	r3, #3
   8295a:	71fb      	strb	r3, [r7, #7]
        /*else if (pb_up_act == pb_up_prev && pb_up_act == 0)
        {
            nextEvent = EVENT_BUTTON_UP_H;
        }*/
        
        if (pb_left_act != pb_left_prev && pb_left_act == 0)
   8295c:	4b50      	ldr	r3, [pc, #320]	; (82aa0 <button_events+0x1f0>)
   8295e:	781a      	ldrb	r2, [r3, #0]
   82960:	4b55      	ldr	r3, [pc, #340]	; (82ab8 <button_events+0x208>)
   82962:	781b      	ldrb	r3, [r3, #0]
   82964:	429a      	cmp	r2, r3
   82966:	d006      	beq.n	82976 <button_events+0xc6>
   82968:	4b4d      	ldr	r3, [pc, #308]	; (82aa0 <button_events+0x1f0>)
   8296a:	781b      	ldrb	r3, [r3, #0]
   8296c:	2b00      	cmp	r3, #0
   8296e:	d102      	bne.n	82976 <button_events+0xc6>
        {
            nextEvent = EVENT_BUTTON_LEFT_P;
   82970:	2304      	movs	r3, #4
   82972:	71fb      	strb	r3, [r7, #7]
   82974:	e00b      	b.n	8298e <button_events+0xde>
        }
        else if (pb_left_act != pb_left_prev && pb_left_act == 1)
   82976:	4b4a      	ldr	r3, [pc, #296]	; (82aa0 <button_events+0x1f0>)
   82978:	781a      	ldrb	r2, [r3, #0]
   8297a:	4b4f      	ldr	r3, [pc, #316]	; (82ab8 <button_events+0x208>)
   8297c:	781b      	ldrb	r3, [r3, #0]
   8297e:	429a      	cmp	r2, r3
   82980:	d005      	beq.n	8298e <button_events+0xde>
   82982:	4b47      	ldr	r3, [pc, #284]	; (82aa0 <button_events+0x1f0>)
   82984:	781b      	ldrb	r3, [r3, #0]
   82986:	2b01      	cmp	r3, #1
   82988:	d101      	bne.n	8298e <button_events+0xde>
        {
            nextEvent = EVENT_BUTTON_LEFT_R;
   8298a:	2306      	movs	r3, #6
   8298c:	71fb      	strb	r3, [r7, #7]
        /*else if (pb_left_act == pb_left_prev && pb_left_act == 0)
        {
            nextEvent = EVENT_BUTTON_LEFT_H;
        }*/
        
        if (pb_mid_act != pb_mid_prev && pb_mid_act == 0)
   8298e:	4b45      	ldr	r3, [pc, #276]	; (82aa4 <button_events+0x1f4>)
   82990:	781a      	ldrb	r2, [r3, #0]
   82992:	4b4a      	ldr	r3, [pc, #296]	; (82abc <button_events+0x20c>)
   82994:	781b      	ldrb	r3, [r3, #0]
   82996:	429a      	cmp	r2, r3
   82998:	d006      	beq.n	829a8 <button_events+0xf8>
   8299a:	4b42      	ldr	r3, [pc, #264]	; (82aa4 <button_events+0x1f4>)
   8299c:	781b      	ldrb	r3, [r3, #0]
   8299e:	2b00      	cmp	r3, #0
   829a0:	d102      	bne.n	829a8 <button_events+0xf8>
        {
            nextEvent = EVENT_BUTTON_MID_P;
   829a2:	2307      	movs	r3, #7
   829a4:	71fb      	strb	r3, [r7, #7]
   829a6:	e00b      	b.n	829c0 <button_events+0x110>
        }
        else if (pb_mid_act != pb_mid_prev && pb_mid_act == 1)
   829a8:	4b3e      	ldr	r3, [pc, #248]	; (82aa4 <button_events+0x1f4>)
   829aa:	781a      	ldrb	r2, [r3, #0]
   829ac:	4b43      	ldr	r3, [pc, #268]	; (82abc <button_events+0x20c>)
   829ae:	781b      	ldrb	r3, [r3, #0]
   829b0:	429a      	cmp	r2, r3
   829b2:	d005      	beq.n	829c0 <button_events+0x110>
   829b4:	4b3b      	ldr	r3, [pc, #236]	; (82aa4 <button_events+0x1f4>)
   829b6:	781b      	ldrb	r3, [r3, #0]
   829b8:	2b01      	cmp	r3, #1
   829ba:	d101      	bne.n	829c0 <button_events+0x110>
        {
            nextEvent = EVENT_BUTTON_MID_R;
   829bc:	2309      	movs	r3, #9
   829be:	71fb      	strb	r3, [r7, #7]
        /*else if (pb_mid_act == pb_mid_prev && pb_mid_act == 0)
        {
            nextEvent = EVENT_BUTTON_MID_H;
        }*/
        
        if (pb_right_act != pb_right_prev && pb_right_act == 0)
   829c0:	4b39      	ldr	r3, [pc, #228]	; (82aa8 <button_events+0x1f8>)
   829c2:	781a      	ldrb	r2, [r3, #0]
   829c4:	4b3e      	ldr	r3, [pc, #248]	; (82ac0 <button_events+0x210>)
   829c6:	781b      	ldrb	r3, [r3, #0]
   829c8:	429a      	cmp	r2, r3
   829ca:	d006      	beq.n	829da <button_events+0x12a>
   829cc:	4b36      	ldr	r3, [pc, #216]	; (82aa8 <button_events+0x1f8>)
   829ce:	781b      	ldrb	r3, [r3, #0]
   829d0:	2b00      	cmp	r3, #0
   829d2:	d102      	bne.n	829da <button_events+0x12a>
        {
            nextEvent = EVENT_BUTTON_RIGHT_P;
   829d4:	230a      	movs	r3, #10
   829d6:	71fb      	strb	r3, [r7, #7]
   829d8:	e00b      	b.n	829f2 <button_events+0x142>
        }
        else if (pb_right_act != pb_right_prev && pb_right_act == 1)
   829da:	4b33      	ldr	r3, [pc, #204]	; (82aa8 <button_events+0x1f8>)
   829dc:	781a      	ldrb	r2, [r3, #0]
   829de:	4b38      	ldr	r3, [pc, #224]	; (82ac0 <button_events+0x210>)
   829e0:	781b      	ldrb	r3, [r3, #0]
   829e2:	429a      	cmp	r2, r3
   829e4:	d005      	beq.n	829f2 <button_events+0x142>
   829e6:	4b30      	ldr	r3, [pc, #192]	; (82aa8 <button_events+0x1f8>)
   829e8:	781b      	ldrb	r3, [r3, #0]
   829ea:	2b01      	cmp	r3, #1
   829ec:	d101      	bne.n	829f2 <button_events+0x142>
        {
            nextEvent = EVENT_BUTTON_RIGHT_R;
   829ee:	230c      	movs	r3, #12
   829f0:	71fb      	strb	r3, [r7, #7]
        /*else if (pb_right_act == pb_right_prev && pb_right_act == 0)
        {
            nextEvent = EVENT_BUTTON_RIGHT_H;
        }*/
        
        if (pb_down_act != pb_down_prev && pb_down_act == 0)
   829f2:	4b2e      	ldr	r3, [pc, #184]	; (82aac <button_events+0x1fc>)
   829f4:	781a      	ldrb	r2, [r3, #0]
   829f6:	4b33      	ldr	r3, [pc, #204]	; (82ac4 <button_events+0x214>)
   829f8:	781b      	ldrb	r3, [r3, #0]
   829fa:	429a      	cmp	r2, r3
   829fc:	d006      	beq.n	82a0c <button_events+0x15c>
   829fe:	4b2b      	ldr	r3, [pc, #172]	; (82aac <button_events+0x1fc>)
   82a00:	781b      	ldrb	r3, [r3, #0]
   82a02:	2b00      	cmp	r3, #0
   82a04:	d102      	bne.n	82a0c <button_events+0x15c>
        {
            nextEvent = EVENT_BUTTON_DOWN_P;
   82a06:	230d      	movs	r3, #13
   82a08:	71fb      	strb	r3, [r7, #7]
   82a0a:	e00b      	b.n	82a24 <button_events+0x174>
        }
        else if (pb_down_act != pb_down_prev && pb_down_act == 1)
   82a0c:	4b27      	ldr	r3, [pc, #156]	; (82aac <button_events+0x1fc>)
   82a0e:	781a      	ldrb	r2, [r3, #0]
   82a10:	4b2c      	ldr	r3, [pc, #176]	; (82ac4 <button_events+0x214>)
   82a12:	781b      	ldrb	r3, [r3, #0]
   82a14:	429a      	cmp	r2, r3
   82a16:	d005      	beq.n	82a24 <button_events+0x174>
   82a18:	4b24      	ldr	r3, [pc, #144]	; (82aac <button_events+0x1fc>)
   82a1a:	781b      	ldrb	r3, [r3, #0]
   82a1c:	2b01      	cmp	r3, #1
   82a1e:	d101      	bne.n	82a24 <button_events+0x174>
        {
            nextEvent = EVENT_BUTTON_DOWN_R;
   82a20:	230f      	movs	r3, #15
   82a22:	71fb      	strb	r3, [r7, #7]
        /*else if (pb_down_act == pb_down_prev && pb_down_act == 0)
        {
            nextEvent = EVENT_BUTTON_DOWN_H;
        }*/
        
        if (pb_return_act != pb_return_prev && pb_return_act == 0)
   82a24:	4b22      	ldr	r3, [pc, #136]	; (82ab0 <button_events+0x200>)
   82a26:	781a      	ldrb	r2, [r3, #0]
   82a28:	4b27      	ldr	r3, [pc, #156]	; (82ac8 <button_events+0x218>)
   82a2a:	781b      	ldrb	r3, [r3, #0]
   82a2c:	429a      	cmp	r2, r3
   82a2e:	d006      	beq.n	82a3e <button_events+0x18e>
   82a30:	4b1f      	ldr	r3, [pc, #124]	; (82ab0 <button_events+0x200>)
   82a32:	781b      	ldrb	r3, [r3, #0]
   82a34:	2b00      	cmp	r3, #0
   82a36:	d102      	bne.n	82a3e <button_events+0x18e>
        {
            nextEvent = EVENT_BUTTON_RETURN_P;
   82a38:	2310      	movs	r3, #16
   82a3a:	71fb      	strb	r3, [r7, #7]
   82a3c:	e00b      	b.n	82a56 <button_events+0x1a6>
        }
        else if (pb_return_act != pb_return_prev && pb_return_act == 1)
   82a3e:	4b1c      	ldr	r3, [pc, #112]	; (82ab0 <button_events+0x200>)
   82a40:	781a      	ldrb	r2, [r3, #0]
   82a42:	4b21      	ldr	r3, [pc, #132]	; (82ac8 <button_events+0x218>)
   82a44:	781b      	ldrb	r3, [r3, #0]
   82a46:	429a      	cmp	r2, r3
   82a48:	d005      	beq.n	82a56 <button_events+0x1a6>
   82a4a:	4b19      	ldr	r3, [pc, #100]	; (82ab0 <button_events+0x200>)
   82a4c:	781b      	ldrb	r3, [r3, #0]
   82a4e:	2b01      	cmp	r3, #1
   82a50:	d101      	bne.n	82a56 <button_events+0x1a6>
        {
            nextEvent = EVENT_BUTTON_RETURN_R;
   82a52:	2312      	movs	r3, #18
   82a54:	71fb      	strb	r3, [r7, #7]
        /*else if (pb_return_act == pb_up_prev && pb_return_act == 0)
        {
            nextEvent = EVENT_BUTTON_RETURN_H;
        }*/
        
        pb_up_prev = pb_up_act;
   82a56:	4b11      	ldr	r3, [pc, #68]	; (82a9c <button_events+0x1ec>)
   82a58:	781a      	ldrb	r2, [r3, #0]
   82a5a:	4b16      	ldr	r3, [pc, #88]	; (82ab4 <button_events+0x204>)
   82a5c:	701a      	strb	r2, [r3, #0]
        pb_left_prev = pb_left_act;
   82a5e:	4b10      	ldr	r3, [pc, #64]	; (82aa0 <button_events+0x1f0>)
   82a60:	781a      	ldrb	r2, [r3, #0]
   82a62:	4b15      	ldr	r3, [pc, #84]	; (82ab8 <button_events+0x208>)
   82a64:	701a      	strb	r2, [r3, #0]
        pb_mid_prev = pb_mid_act;
   82a66:	4b0f      	ldr	r3, [pc, #60]	; (82aa4 <button_events+0x1f4>)
   82a68:	781a      	ldrb	r2, [r3, #0]
   82a6a:	4b14      	ldr	r3, [pc, #80]	; (82abc <button_events+0x20c>)
   82a6c:	701a      	strb	r2, [r3, #0]
        pb_right_prev = pb_right_act;
   82a6e:	4b0e      	ldr	r3, [pc, #56]	; (82aa8 <button_events+0x1f8>)
   82a70:	781a      	ldrb	r2, [r3, #0]
   82a72:	4b13      	ldr	r3, [pc, #76]	; (82ac0 <button_events+0x210>)
   82a74:	701a      	strb	r2, [r3, #0]
        pb_down_prev = pb_down_act;
   82a76:	4b0d      	ldr	r3, [pc, #52]	; (82aac <button_events+0x1fc>)
   82a78:	781a      	ldrb	r2, [r3, #0]
   82a7a:	4b12      	ldr	r3, [pc, #72]	; (82ac4 <button_events+0x214>)
   82a7c:	701a      	strb	r2, [r3, #0]
        pb_return_prev = pb_return_act;
   82a7e:	4b0c      	ldr	r3, [pc, #48]	; (82ab0 <button_events+0x200>)
   82a80:	781a      	ldrb	r2, [r3, #0]
   82a82:	4b11      	ldr	r3, [pc, #68]	; (82ac8 <button_events+0x218>)
   82a84:	701a      	strb	r2, [r3, #0]
    }

    return nextEvent;
   82a86:	79fb      	ldrb	r3, [r7, #7]
}
   82a88:	4618      	mov	r0, r3
   82a8a:	3708      	adds	r7, #8
   82a8c:	46bd      	mov	sp, r7
   82a8e:	bd80      	pop	{r7, pc}
   82a90:	00083281 	.word	0x00083281
   82a94:	20070e24 	.word	0x20070e24
   82a98:	00081ed3 	.word	0x00081ed3
   82a9c:	20070e4d 	.word	0x20070e4d
   82aa0:	20070e34 	.word	0x20070e34
   82aa4:	20070e4c 	.word	0x20070e4c
   82aa8:	20070e4e 	.word	0x20070e4e
   82aac:	20070e30 	.word	0x20070e30
   82ab0:	20070e2c 	.word	0x20070e2c
   82ab4:	20070e31 	.word	0x20070e31
   82ab8:	20070e2f 	.word	0x20070e2f
   82abc:	20070e2d 	.word	0x20070e2d
   82ac0:	20070e32 	.word	0x20070e32
   82ac4:	20070e2e 	.word	0x20070e2e
   82ac8:	20070e33 	.word	0x20070e33

00082acc <NVIC_EnableIRQ>:
{
   82acc:	b480      	push	{r7}
   82ace:	b083      	sub	sp, #12
   82ad0:	af00      	add	r7, sp, #0
   82ad2:	4603      	mov	r3, r0
   82ad4:	71fb      	strb	r3, [r7, #7]
  NVIC->ISER[((uint32_t)(IRQn) >> 5)] = (1 << ((uint32_t)(IRQn) & 0x1F)); /* enable interrupt */
   82ad6:	4908      	ldr	r1, [pc, #32]	; (82af8 <NVIC_EnableIRQ+0x2c>)
   82ad8:	f997 3007 	ldrsb.w	r3, [r7, #7]
   82adc:	095b      	lsrs	r3, r3, #5
   82ade:	79fa      	ldrb	r2, [r7, #7]
   82ae0:	f002 021f 	and.w	r2, r2, #31
   82ae4:	2001      	movs	r0, #1
   82ae6:	fa00 f202 	lsl.w	r2, r0, r2
   82aea:	f841 2023 	str.w	r2, [r1, r3, lsl #2]
}
   82aee:	bf00      	nop
   82af0:	370c      	adds	r7, #12
   82af2:	46bd      	mov	sp, r7
   82af4:	bc80      	pop	{r7}
   82af6:	4770      	bx	lr
   82af8:	e000e100 	.word	0xe000e100

00082afc <NVIC_DisableIRQ>:
{
   82afc:	b480      	push	{r7}
   82afe:	b083      	sub	sp, #12
   82b00:	af00      	add	r7, sp, #0
   82b02:	4603      	mov	r3, r0
   82b04:	71fb      	strb	r3, [r7, #7]
  NVIC->ICER[((uint32_t)(IRQn) >> 5)] = (1 << ((uint32_t)(IRQn) & 0x1F)); /* disable interrupt */
   82b06:	4909      	ldr	r1, [pc, #36]	; (82b2c <NVIC_DisableIRQ+0x30>)
   82b08:	f997 3007 	ldrsb.w	r3, [r7, #7]
   82b0c:	095b      	lsrs	r3, r3, #5
   82b0e:	79fa      	ldrb	r2, [r7, #7]
   82b10:	f002 021f 	and.w	r2, r2, #31
   82b14:	2001      	movs	r0, #1
   82b16:	fa00 f202 	lsl.w	r2, r0, r2
   82b1a:	3320      	adds	r3, #32
   82b1c:	f841 2023 	str.w	r2, [r1, r3, lsl #2]
}
   82b20:	bf00      	nop
   82b22:	370c      	adds	r7, #12
   82b24:	46bd      	mov	sp, r7
   82b26:	bc80      	pop	{r7}
   82b28:	4770      	bx	lr
   82b2a:	bf00      	nop
   82b2c:	e000e100 	.word	0xe000e100

00082b30 <NVIC_ClearPendingIRQ>:
{
   82b30:	b480      	push	{r7}
   82b32:	b083      	sub	sp, #12
   82b34:	af00      	add	r7, sp, #0
   82b36:	4603      	mov	r3, r0
   82b38:	71fb      	strb	r3, [r7, #7]
  NVIC->ICPR[((uint32_t)(IRQn) >> 5)] = (1 << ((uint32_t)(IRQn) & 0x1F)); /* Clear pending interrupt */
   82b3a:	4909      	ldr	r1, [pc, #36]	; (82b60 <NVIC_ClearPendingIRQ+0x30>)
   82b3c:	f997 3007 	ldrsb.w	r3, [r7, #7]
   82b40:	095b      	lsrs	r3, r3, #5
   82b42:	79fa      	ldrb	r2, [r7, #7]
   82b44:	f002 021f 	and.w	r2, r2, #31
   82b48:	2001      	movs	r0, #1
   82b4a:	fa00 f202 	lsl.w	r2, r0, r2
   82b4e:	3360      	adds	r3, #96	; 0x60
   82b50:	f841 2023 	str.w	r2, [r1, r3, lsl #2]
}
   82b54:	bf00      	nop
   82b56:	370c      	adds	r7, #12
   82b58:	46bd      	mov	sp, r7
   82b5a:	bc80      	pop	{r7}
   82b5c:	4770      	bx	lr
   82b5e:	bf00      	nop
   82b60:	e000e100 	.word	0xe000e100

00082b64 <NVIC_SetPriority>:

    \param [in]      IRQn  Interrupt number.
    \param [in]  priority  Priority to set.
 */
__STATIC_INLINE void NVIC_SetPriority(IRQn_Type IRQn, uint32_t priority)
{
   82b64:	b480      	push	{r7}
   82b66:	b083      	sub	sp, #12
   82b68:	af00      	add	r7, sp, #0
   82b6a:	4603      	mov	r3, r0
   82b6c:	6039      	str	r1, [r7, #0]
   82b6e:	71fb      	strb	r3, [r7, #7]
  if(IRQn < 0) {
   82b70:	f997 3007 	ldrsb.w	r3, [r7, #7]
   82b74:	2b00      	cmp	r3, #0
   82b76:	da0b      	bge.n	82b90 <NVIC_SetPriority+0x2c>
    SCB->SHP[((uint32_t)(IRQn) & 0xF)-4] = ((priority << (8 - __NVIC_PRIO_BITS)) & 0xff); } /* set Priority for Cortex-M  System Interrupts */
   82b78:	490d      	ldr	r1, [pc, #52]	; (82bb0 <NVIC_SetPriority+0x4c>)
   82b7a:	79fb      	ldrb	r3, [r7, #7]
   82b7c:	f003 030f 	and.w	r3, r3, #15
   82b80:	3b04      	subs	r3, #4
   82b82:	683a      	ldr	r2, [r7, #0]
   82b84:	b2d2      	uxtb	r2, r2
   82b86:	0112      	lsls	r2, r2, #4
   82b88:	b2d2      	uxtb	r2, r2
   82b8a:	440b      	add	r3, r1
   82b8c:	761a      	strb	r2, [r3, #24]
  else {
    NVIC->IP[(uint32_t)(IRQn)] = ((priority << (8 - __NVIC_PRIO_BITS)) & 0xff);    }        /* set Priority for device specific Interrupts  */
}
   82b8e:	e009      	b.n	82ba4 <NVIC_SetPriority+0x40>
    NVIC->IP[(uint32_t)(IRQn)] = ((priority << (8 - __NVIC_PRIO_BITS)) & 0xff);    }        /* set Priority for device specific Interrupts  */
   82b90:	4908      	ldr	r1, [pc, #32]	; (82bb4 <NVIC_SetPriority+0x50>)
   82b92:	f997 3007 	ldrsb.w	r3, [r7, #7]
   82b96:	683a      	ldr	r2, [r7, #0]
   82b98:	b2d2      	uxtb	r2, r2
   82b9a:	0112      	lsls	r2, r2, #4
   82b9c:	b2d2      	uxtb	r2, r2
   82b9e:	440b      	add	r3, r1
   82ba0:	f883 2300 	strb.w	r2, [r3, #768]	; 0x300
}
   82ba4:	bf00      	nop
   82ba6:	370c      	adds	r7, #12
   82ba8:	46bd      	mov	sp, r7
   82baa:	bc80      	pop	{r7}
   82bac:	4770      	bx	lr
   82bae:	bf00      	nop
   82bb0:	e000ed00 	.word	0xe000ed00
   82bb4:	e000e100 	.word	0xe000e100

00082bb8 <sysclk_enable_peripheral_clock>:
{
   82bb8:	b580      	push	{r7, lr}
   82bba:	b082      	sub	sp, #8
   82bbc:	af00      	add	r7, sp, #0
   82bbe:	6078      	str	r0, [r7, #4]
	pmc_enable_periph_clk(ul_id);
   82bc0:	6878      	ldr	r0, [r7, #4]
   82bc2:	4b03      	ldr	r3, [pc, #12]	; (82bd0 <sysclk_enable_peripheral_clock+0x18>)
   82bc4:	4798      	blx	r3
}
   82bc6:	bf00      	nop
   82bc8:	3708      	adds	r7, #8
   82bca:	46bd      	mov	sp, r7
   82bcc:	bd80      	pop	{r7, pc}
   82bce:	bf00      	nop
   82bd0:	00083c41 	.word	0x00083c41

00082bd4 <ioport_set_pin_level>:
{
   82bd4:	b480      	push	{r7}
   82bd6:	b08b      	sub	sp, #44	; 0x2c
   82bd8:	af00      	add	r7, sp, #0
   82bda:	6078      	str	r0, [r7, #4]
   82bdc:	460b      	mov	r3, r1
   82bde:	70fb      	strb	r3, [r7, #3]
   82be0:	687b      	ldr	r3, [r7, #4]
   82be2:	627b      	str	r3, [r7, #36]	; 0x24
   82be4:	78fb      	ldrb	r3, [r7, #3]
   82be6:	f887 3023 	strb.w	r3, [r7, #35]	; 0x23
   82bea:	6a7b      	ldr	r3, [r7, #36]	; 0x24
   82bec:	61fb      	str	r3, [r7, #28]
   82bee:	69fb      	ldr	r3, [r7, #28]
   82bf0:	61bb      	str	r3, [r7, #24]
	return pin >> 5;
   82bf2:	69bb      	ldr	r3, [r7, #24]
   82bf4:	095b      	lsrs	r3, r3, #5
   82bf6:	617b      	str	r3, [r7, #20]
	return (Pio *)((uintptr_t)IOPORT_BASE_ADDRESS +
   82bf8:	697b      	ldr	r3, [r7, #20]
   82bfa:	f503 1300 	add.w	r3, r3, #2097152	; 0x200000
   82bfe:	f203 7307 	addw	r3, r3, #1799	; 0x707
   82c02:	025b      	lsls	r3, r3, #9
	Pio *base = arch_ioport_pin_to_base(pin);
   82c04:	613b      	str	r3, [r7, #16]
	if (level) {
   82c06:	f897 3023 	ldrb.w	r3, [r7, #35]	; 0x23
   82c0a:	2b00      	cmp	r3, #0
   82c0c:	d009      	beq.n	82c22 <ioport_set_pin_level+0x4e>
   82c0e:	6a7b      	ldr	r3, [r7, #36]	; 0x24
   82c10:	60fb      	str	r3, [r7, #12]
	return 1U << (pin & 0x1F);
   82c12:	68fb      	ldr	r3, [r7, #12]
   82c14:	f003 031f 	and.w	r3, r3, #31
   82c18:	2201      	movs	r2, #1
   82c1a:	409a      	lsls	r2, r3
		base->PIO_SODR = arch_ioport_pin_to_mask(pin);
   82c1c:	693b      	ldr	r3, [r7, #16]
   82c1e:	631a      	str	r2, [r3, #48]	; 0x30
}
   82c20:	e008      	b.n	82c34 <ioport_set_pin_level+0x60>
   82c22:	6a7b      	ldr	r3, [r7, #36]	; 0x24
   82c24:	60bb      	str	r3, [r7, #8]
	return 1U << (pin & 0x1F);
   82c26:	68bb      	ldr	r3, [r7, #8]
   82c28:	f003 031f 	and.w	r3, r3, #31
   82c2c:	2201      	movs	r2, #1
   82c2e:	409a      	lsls	r2, r3
		base->PIO_CODR = arch_ioport_pin_to_mask(pin);
   82c30:	693b      	ldr	r3, [r7, #16]
   82c32:	635a      	str	r2, [r3, #52]	; 0x34
   82c34:	bf00      	nop
   82c36:	372c      	adds	r7, #44	; 0x2c
   82c38:	46bd      	mov	sp, r7
   82c3a:	bc80      	pop	{r7}
   82c3c:	4770      	bx	lr

00082c3e <ioport_get_port_level>:
 * \return Logical levels of the specified pins from the read port, returned as
 * a mask.
 */
static inline ioport_port_mask_t ioport_get_port_level(ioport_pin_t port,
		ioport_port_mask_t mask)
{
   82c3e:	b480      	push	{r7}
   82c40:	b087      	sub	sp, #28
   82c42:	af00      	add	r7, sp, #0
   82c44:	6078      	str	r0, [r7, #4]
   82c46:	6039      	str	r1, [r7, #0]
   82c48:	687b      	ldr	r3, [r7, #4]
   82c4a:	617b      	str	r3, [r7, #20]
   82c4c:	683b      	ldr	r3, [r7, #0]
   82c4e:	613b      	str	r3, [r7, #16]
   82c50:	697b      	ldr	r3, [r7, #20]
   82c52:	60fb      	str	r3, [r7, #12]
	return (Pio *)((uintptr_t)IOPORT_BASE_ADDRESS +
   82c54:	68fb      	ldr	r3, [r7, #12]
   82c56:	f503 1300 	add.w	r3, r3, #2097152	; 0x200000
   82c5a:	f203 7307 	addw	r3, r3, #1799	; 0x707
   82c5e:	025b      	lsls	r3, r3, #9
}

__always_inline static ioport_port_mask_t arch_ioport_get_port_level(
		ioport_port_t port, ioport_port_mask_t mask)
{
	return arch_ioport_port_to_base(port)->PIO_PDSR & mask;
   82c60:	6bda      	ldr	r2, [r3, #60]	; 0x3c
   82c62:	693b      	ldr	r3, [r7, #16]
   82c64:	4013      	ands	r3, r2
	return arch_ioport_get_port_level(port, mask);
   82c66:	bf00      	nop
}
   82c68:	4618      	mov	r0, r3
   82c6a:	371c      	adds	r7, #28
   82c6c:	46bd      	mov	sp, r7
   82c6e:	bc80      	pop	{r7}
   82c70:	4770      	bx	lr
	...

00082c74 <motor_init>:
float CosinMA1 = -0.866025404f;
float CosinMA2 = 0.866025404f;
float CosinMA3 = 0.0f;

void motor_init(void)
{
   82c74:	b5b0      	push	{r4, r5, r7, lr}
   82c76:	af00      	add	r7, sp, #0
    /* Initialize PWM channel for MLeft */
    /* Period is left-aligned */
    g_pwm_channel_MLeft.alignment = PWM_ALIGN_LEFT;
   82c78:	4b5e      	ldr	r3, [pc, #376]	; (82df4 <motor_init+0x180>)
   82c7a:	2200      	movs	r2, #0
   82c7c:	811a      	strh	r2, [r3, #8]
    /* Output waveform starts at a low level */
    g_pwm_channel_MLeft.polarity = PWM_LOW;
   82c7e:	4b5d      	ldr	r3, [pc, #372]	; (82df4 <motor_init+0x180>)
   82c80:	2200      	movs	r2, #0
   82c82:	729a      	strb	r2, [r3, #10]
    /* Use PWM clock A as source clock */
    g_pwm_channel_MLeft.ul_prescaler = PWM_CMR_CPRE_CLKA;
   82c84:	4b5b      	ldr	r3, [pc, #364]	; (82df4 <motor_init+0x180>)
   82c86:	220b      	movs	r2, #11
   82c88:	605a      	str	r2, [r3, #4]
    /* Period value of output waveform */
    g_pwm_channel_MLeft.ul_period = PERIOD_VALUE;
   82c8a:	4b5a      	ldr	r3, [pc, #360]	; (82df4 <motor_init+0x180>)
   82c8c:	f44f 727a 	mov.w	r2, #1000	; 0x3e8
   82c90:	611a      	str	r2, [r3, #16]
    /* Duty cycle value of output waveform */
    g_pwm_channel_MLeft.ul_duty = INIT_DUTY_VALUE;
   82c92:	4b58      	ldr	r3, [pc, #352]	; (82df4 <motor_init+0x180>)
   82c94:	f44f 72fa 	mov.w	r2, #500	; 0x1f4
   82c98:	60da      	str	r2, [r3, #12]
    g_pwm_channel_MLeft.channel = MOTOR_LEFT;
   82c9a:	4b56      	ldr	r3, [pc, #344]	; (82df4 <motor_init+0x180>)
   82c9c:	2200      	movs	r2, #0
   82c9e:	601a      	str	r2, [r3, #0]
    pwm_channel_init(PWM, &g_pwm_channel_MLeft);
   82ca0:	4954      	ldr	r1, [pc, #336]	; (82df4 <motor_init+0x180>)
   82ca2:	4855      	ldr	r0, [pc, #340]	; (82df8 <motor_init+0x184>)
   82ca4:	4b55      	ldr	r3, [pc, #340]	; (82dfc <motor_init+0x188>)
   82ca6:	4798      	blx	r3


    /* Initialize PWM channel for MRight */
    /* Period is left-aligned */
    g_pwm_channel_MRight.alignment = PWM_ALIGN_LEFT;
   82ca8:	4b55      	ldr	r3, [pc, #340]	; (82e00 <motor_init+0x18c>)
   82caa:	2200      	movs	r2, #0
   82cac:	811a      	strh	r2, [r3, #8]
    /* Output waveform starts at a low level */
    g_pwm_channel_MRight.polarity = PWM_LOW;
   82cae:	4b54      	ldr	r3, [pc, #336]	; (82e00 <motor_init+0x18c>)
   82cb0:	2200      	movs	r2, #0
   82cb2:	729a      	strb	r2, [r3, #10]
    /* Use PWM clock A as source clock */
    g_pwm_channel_MRight.ul_prescaler = PWM_CMR_CPRE_CLKA;
   82cb4:	4b52      	ldr	r3, [pc, #328]	; (82e00 <motor_init+0x18c>)
   82cb6:	220b      	movs	r2, #11
   82cb8:	605a      	str	r2, [r3, #4]
    /* Period value of output waveform */
    g_pwm_channel_MRight.ul_period = PERIOD_VALUE;
   82cba:	4b51      	ldr	r3, [pc, #324]	; (82e00 <motor_init+0x18c>)
   82cbc:	f44f 727a 	mov.w	r2, #1000	; 0x3e8
   82cc0:	611a      	str	r2, [r3, #16]
    /* Duty cycle value of output waveform */
    g_pwm_channel_MRight.ul_duty = INIT_DUTY_VALUE;
   82cc2:	4b4f      	ldr	r3, [pc, #316]	; (82e00 <motor_init+0x18c>)
   82cc4:	f44f 72fa 	mov.w	r2, #500	; 0x1f4
   82cc8:	60da      	str	r2, [r3, #12]
    g_pwm_channel_MRight.channel = MOTOR_RIGHT;
   82cca:	4b4d      	ldr	r3, [pc, #308]	; (82e00 <motor_init+0x18c>)
   82ccc:	2201      	movs	r2, #1
   82cce:	601a      	str	r2, [r3, #0]
    pwm_channel_init(PWM, &g_pwm_channel_MRight);
   82cd0:	494b      	ldr	r1, [pc, #300]	; (82e00 <motor_init+0x18c>)
   82cd2:	4849      	ldr	r0, [pc, #292]	; (82df8 <motor_init+0x184>)
   82cd4:	4b49      	ldr	r3, [pc, #292]	; (82dfc <motor_init+0x188>)
   82cd6:	4798      	blx	r3


    /* Initialize PWM channel for MBack */
    /* Period is left-aligned */
    g_pwm_channel_MRear.alignment = PWM_ALIGN_LEFT;
   82cd8:	4b4a      	ldr	r3, [pc, #296]	; (82e04 <motor_init+0x190>)
   82cda:	2200      	movs	r2, #0
   82cdc:	811a      	strh	r2, [r3, #8]
    /* Output waveform starts at a low level */
    g_pwm_channel_MRear.polarity = PWM_LOW;
   82cde:	4b49      	ldr	r3, [pc, #292]	; (82e04 <motor_init+0x190>)
   82ce0:	2200      	movs	r2, #0
   82ce2:	729a      	strb	r2, [r3, #10]
    /* Use PWM clock A as source clock */
    g_pwm_channel_MRear.ul_prescaler = PWM_CMR_CPRE_CLKA;
   82ce4:	4b47      	ldr	r3, [pc, #284]	; (82e04 <motor_init+0x190>)
   82ce6:	220b      	movs	r2, #11
   82ce8:	605a      	str	r2, [r3, #4]
    /* Period value of output waveform */
    g_pwm_channel_MRear.ul_period = PERIOD_VALUE;
   82cea:	4b46      	ldr	r3, [pc, #280]	; (82e04 <motor_init+0x190>)
   82cec:	f44f 727a 	mov.w	r2, #1000	; 0x3e8
   82cf0:	611a      	str	r2, [r3, #16]
    /* Duty cycle value of output waveform */
    g_pwm_channel_MRear.ul_duty = INIT_DUTY_VALUE;
   82cf2:	4b44      	ldr	r3, [pc, #272]	; (82e04 <motor_init+0x190>)
   82cf4:	f44f 72fa 	mov.w	r2, #500	; 0x1f4
   82cf8:	60da      	str	r2, [r3, #12]
    g_pwm_channel_MRear.channel = MOTOR_REAR;
   82cfa:	4b42      	ldr	r3, [pc, #264]	; (82e04 <motor_init+0x190>)
   82cfc:	2202      	movs	r2, #2
   82cfe:	601a      	str	r2, [r3, #0]
    pwm_channel_init(PWM, &g_pwm_channel_MRear);
   82d00:	4940      	ldr	r1, [pc, #256]	; (82e04 <motor_init+0x190>)
   82d02:	483d      	ldr	r0, [pc, #244]	; (82df8 <motor_init+0x184>)
   82d04:	4b3d      	ldr	r3, [pc, #244]	; (82dfc <motor_init+0x188>)
   82d06:	4798      	blx	r3

    pwm_channel_disable(PWM, MOTOR_LEFT);
   82d08:	2100      	movs	r1, #0
   82d0a:	483b      	ldr	r0, [pc, #236]	; (82df8 <motor_init+0x184>)
   82d0c:	4b3e      	ldr	r3, [pc, #248]	; (82e08 <motor_init+0x194>)
   82d0e:	4798      	blx	r3
    pwm_channel_disable(PWM, MOTOR_RIGHT);
   82d10:	2101      	movs	r1, #1
   82d12:	4839      	ldr	r0, [pc, #228]	; (82df8 <motor_init+0x184>)
   82d14:	4b3c      	ldr	r3, [pc, #240]	; (82e08 <motor_init+0x194>)
   82d16:	4798      	blx	r3
    pwm_channel_disable(PWM, MOTOR_REAR);
   82d18:	2102      	movs	r1, #2
   82d1a:	4837      	ldr	r0, [pc, #220]	; (82df8 <motor_init+0x184>)
   82d1c:	4b3a      	ldr	r3, [pc, #232]	; (82e08 <motor_init+0x194>)
   82d1e:	4798      	blx	r3

    g_pwm_channel_ENC.alignment = PWM_ALIGN_LEFT;
   82d20:	4b3a      	ldr	r3, [pc, #232]	; (82e0c <motor_init+0x198>)
   82d22:	2200      	movs	r2, #0
   82d24:	811a      	strh	r2, [r3, #8]
    g_pwm_channel_ENC.polarity = PWM_LOW;
   82d26:	4b39      	ldr	r3, [pc, #228]	; (82e0c <motor_init+0x198>)
   82d28:	2200      	movs	r2, #0
   82d2a:	729a      	strb	r2, [r3, #10]
    g_pwm_channel_ENC.ul_prescaler = PWM_CMR_CPRE_CLKA;
   82d2c:	4b37      	ldr	r3, [pc, #220]	; (82e0c <motor_init+0x198>)
   82d2e:	220b      	movs	r2, #11
   82d30:	605a      	str	r2, [r3, #4]
    g_pwm_channel_ENC.ul_period = 330;
   82d32:	4b36      	ldr	r3, [pc, #216]	; (82e0c <motor_init+0x198>)
   82d34:	f44f 72a5 	mov.w	r2, #330	; 0x14a
   82d38:	611a      	str	r2, [r3, #16]
    g_pwm_channel_ENC.ul_duty = 165;
   82d3a:	4b34      	ldr	r3, [pc, #208]	; (82e0c <motor_init+0x198>)
   82d3c:	22a5      	movs	r2, #165	; 0xa5
   82d3e:	60da      	str	r2, [r3, #12]
    g_pwm_channel_ENC.channel = ENC_CLK;
   82d40:	4b32      	ldr	r3, [pc, #200]	; (82e0c <motor_init+0x198>)
   82d42:	2204      	movs	r2, #4
   82d44:	601a      	str	r2, [r3, #0]
    pwm_channel_init(PWM, &g_pwm_channel_ENC);
   82d46:	4931      	ldr	r1, [pc, #196]	; (82e0c <motor_init+0x198>)
   82d48:	482b      	ldr	r0, [pc, #172]	; (82df8 <motor_init+0x184>)
   82d4a:	4b2c      	ldr	r3, [pc, #176]	; (82dfc <motor_init+0x188>)
   82d4c:	4798      	blx	r3
    pwm_channel_enable(PWM, ENC_CLK);
   82d4e:	2104      	movs	r1, #4
   82d50:	4829      	ldr	r0, [pc, #164]	; (82df8 <motor_init+0x184>)
   82d52:	4b2f      	ldr	r3, [pc, #188]	; (82e10 <motor_init+0x19c>)
   82d54:	4798      	blx	r3

    sysclk_enable_peripheral_clock(ID_TC1);
   82d56:	201c      	movs	r0, #28
   82d58:	4b2e      	ldr	r3, [pc, #184]	; (82e14 <motor_init+0x1a0>)
   82d5a:	4798      	blx	r3
    tc_init(TC0, 1, TC_CMR_TCCLKS_TIMER_CLOCK4 | TC_CMR_CPCTRG);
   82d5c:	f244 0203 	movw	r2, #16387	; 0x4003
   82d60:	2101      	movs	r1, #1
   82d62:	482d      	ldr	r0, [pc, #180]	; (82e18 <motor_init+0x1a4>)
   82d64:	4b2d      	ldr	r3, [pc, #180]	; (82e1c <motor_init+0x1a8>)
   82d66:	4798      	blx	r3
    tc_write_rc(TC0, 1, 5249);  //MCLK / 128 * 0,008
   82d68:	f241 4281 	movw	r2, #5249	; 0x1481
   82d6c:	2101      	movs	r1, #1
   82d6e:	482a      	ldr	r0, [pc, #168]	; (82e18 <motor_init+0x1a4>)
   82d70:	4b2b      	ldr	r3, [pc, #172]	; (82e20 <motor_init+0x1ac>)
   82d72:	4798      	blx	r3
    NVIC_DisableIRQ(TC1_IRQn);
   82d74:	201c      	movs	r0, #28
   82d76:	4b2b      	ldr	r3, [pc, #172]	; (82e24 <motor_init+0x1b0>)
   82d78:	4798      	blx	r3
    NVIC_ClearPendingIRQ(TC1_IRQn);
   82d7a:	201c      	movs	r0, #28
   82d7c:	4b2a      	ldr	r3, [pc, #168]	; (82e28 <motor_init+0x1b4>)
   82d7e:	4798      	blx	r3
    NVIC_SetPriority(TC1_IRQn, 0);
   82d80:	2100      	movs	r1, #0
   82d82:	201c      	movs	r0, #28
   82d84:	4b29      	ldr	r3, [pc, #164]	; (82e2c <motor_init+0x1b8>)
   82d86:	4798      	blx	r3
    NVIC_EnableIRQ(TC1_IRQn);
   82d88:	201c      	movs	r0, #28
   82d8a:	4b29      	ldr	r3, [pc, #164]	; (82e30 <motor_init+0x1bc>)
   82d8c:	4798      	blx	r3
    tc_enable_interrupt(TC0, 1, TC_IER_CPCS);
   82d8e:	2210      	movs	r2, #16
   82d90:	2101      	movs	r1, #1
   82d92:	4821      	ldr	r0, [pc, #132]	; (82e18 <motor_init+0x1a4>)
   82d94:	4b27      	ldr	r3, [pc, #156]	; (82e34 <motor_init+0x1c0>)
   82d96:	4798      	blx	r3
    tc_start(TC0, 1);
   82d98:	2101      	movs	r1, #1
   82d9a:	481f      	ldr	r0, [pc, #124]	; (82e18 <motor_init+0x1a4>)
   82d9c:	4b26      	ldr	r3, [pc, #152]	; (82e38 <motor_init+0x1c4>)
   82d9e:	4798      	blx	r3

    mleft_pid_reg.kp = 15.0f;
   82da0:	4b26      	ldr	r3, [pc, #152]	; (82e3c <motor_init+0x1c8>)
   82da2:	4a27      	ldr	r2, [pc, #156]	; (82e40 <motor_init+0x1cc>)
   82da4:	601a      	str	r2, [r3, #0]
    mleft_pid_reg.ki = 10.0f;
   82da6:	4b25      	ldr	r3, [pc, #148]	; (82e3c <motor_init+0x1c8>)
   82da8:	4a26      	ldr	r2, [pc, #152]	; (82e44 <motor_init+0x1d0>)
   82daa:	605a      	str	r2, [r3, #4]
    mleft_pid_reg.kc = 1.0f;
   82dac:	4b23      	ldr	r3, [pc, #140]	; (82e3c <motor_init+0x1c8>)
   82dae:	f04f 527e 	mov.w	r2, #1065353216	; 0x3f800000
   82db2:	609a      	str	r2, [r3, #8]
    mleft_pid_reg.kd = 5.0f;
   82db4:	4b21      	ldr	r3, [pc, #132]	; (82e3c <motor_init+0x1c8>)
   82db6:	4a24      	ldr	r2, [pc, #144]	; (82e48 <motor_init+0x1d4>)
   82db8:	60da      	str	r2, [r3, #12]
    mleft_pid_reg.outMin = -500.0f;
   82dba:	4b20      	ldr	r3, [pc, #128]	; (82e3c <motor_init+0x1c8>)
   82dbc:	4a23      	ldr	r2, [pc, #140]	; (82e4c <motor_init+0x1d8>)
   82dbe:	619a      	str	r2, [r3, #24]
    mleft_pid_reg.outMax = 500.0f;
   82dc0:	4b1e      	ldr	r3, [pc, #120]	; (82e3c <motor_init+0x1c8>)
   82dc2:	4a23      	ldr	r2, [pc, #140]	; (82e50 <motor_init+0x1dc>)
   82dc4:	615a      	str	r2, [r3, #20]

    mright_pid_reg = mleft_pid_reg;
   82dc6:	4a23      	ldr	r2, [pc, #140]	; (82e54 <motor_init+0x1e0>)
   82dc8:	4b1c      	ldr	r3, [pc, #112]	; (82e3c <motor_init+0x1c8>)
   82dca:	4614      	mov	r4, r2
   82dcc:	461d      	mov	r5, r3
   82dce:	cd0f      	ldmia	r5!, {r0, r1, r2, r3}
   82dd0:	c40f      	stmia	r4!, {r0, r1, r2, r3}
   82dd2:	cd0f      	ldmia	r5!, {r0, r1, r2, r3}
   82dd4:	c40f      	stmia	r4!, {r0, r1, r2, r3}
   82dd6:	682b      	ldr	r3, [r5, #0]
   82dd8:	6023      	str	r3, [r4, #0]
    mrear_pid_reg = mleft_pid_reg;
   82dda:	4a1f      	ldr	r2, [pc, #124]	; (82e58 <motor_init+0x1e4>)
   82ddc:	4b17      	ldr	r3, [pc, #92]	; (82e3c <motor_init+0x1c8>)
   82dde:	4614      	mov	r4, r2
   82de0:	461d      	mov	r5, r3
   82de2:	cd0f      	ldmia	r5!, {r0, r1, r2, r3}
   82de4:	c40f      	stmia	r4!, {r0, r1, r2, r3}
   82de6:	cd0f      	ldmia	r5!, {r0, r1, r2, r3}
   82de8:	c40f      	stmia	r4!, {r0, r1, r2, r3}
   82dea:	682b      	ldr	r3, [r5, #0]
   82dec:	6023      	str	r3, [r4, #0]
}
   82dee:	bf00      	nop
   82df0:	bdb0      	pop	{r4, r5, r7, pc}
   82df2:	bf00      	nop
   82df4:	20070e68 	.word	0x20070e68
   82df8:	40094000 	.word	0x40094000
   82dfc:	00080369 	.word	0x00080369
   82e00:	20070f38 	.word	0x20070f38
   82e04:	20070ee0 	.word	0x20070ee0
   82e08:	00080615 	.word	0x00080615
   82e0c:	20070e90 	.word	0x20070e90
   82e10:	000805f3 	.word	0x000805f3
   82e14:	00082bb9 	.word	0x00082bb9
   82e18:	40080000 	.word	0x40080000
   82e1c:	0008074d 	.word	0x0008074d
   82e20:	000807a5 	.word	0x000807a5
   82e24:	00082afd 	.word	0x00082afd
   82e28:	00082b31 	.word	0x00082b31
   82e2c:	00082b65 	.word	0x00082b65
   82e30:	00082acd 	.word	0x00082acd
   82e34:	000807c9 	.word	0x000807c9
   82e38:	00080785 	.word	0x00080785
   82e3c:	20070f60 	.word	0x20070f60
   82e40:	41700000 	.word	0x41700000
   82e44:	41200000 	.word	0x41200000
   82e48:	40a00000 	.word	0x40a00000
   82e4c:	c3fa0000 	.word	0xc3fa0000
   82e50:	43fa0000 	.word	0x43fa0000
   82e54:	20070eb8 	.word	0x20070eb8
   82e58:	20070f08 	.word	0x20070f08

00082e5c <enable_motor>:

void enable_motor(void)
{
   82e5c:	b580      	push	{r7, lr}
   82e5e:	af00      	add	r7, sp, #0
    pwm_channel_enable(PWM, MOTOR_LEFT);
   82e60:	2100      	movs	r1, #0
   82e62:	480d      	ldr	r0, [pc, #52]	; (82e98 <enable_motor+0x3c>)
   82e64:	4b0d      	ldr	r3, [pc, #52]	; (82e9c <enable_motor+0x40>)
   82e66:	4798      	blx	r3
    pwm_channel_enable(PWM, MOTOR_RIGHT);
   82e68:	2101      	movs	r1, #1
   82e6a:	480b      	ldr	r0, [pc, #44]	; (82e98 <enable_motor+0x3c>)
   82e6c:	4b0b      	ldr	r3, [pc, #44]	; (82e9c <enable_motor+0x40>)
   82e6e:	4798      	blx	r3
    pwm_channel_enable(PWM, MOTOR_REAR);
   82e70:	2102      	movs	r1, #2
   82e72:	4809      	ldr	r0, [pc, #36]	; (82e98 <enable_motor+0x3c>)
   82e74:	4b09      	ldr	r3, [pc, #36]	; (82e9c <enable_motor+0x40>)
   82e76:	4798      	blx	r3

    ioport_set_pin_level(ENC_LOAD, 0);
   82e78:	2100      	movs	r1, #0
   82e7a:	2020      	movs	r0, #32
   82e7c:	4b08      	ldr	r3, [pc, #32]	; (82ea0 <enable_motor+0x44>)
   82e7e:	4798      	blx	r3
    ioport_set_pin_level(ENC_LOAD, 1);
   82e80:	2101      	movs	r1, #1
   82e82:	2020      	movs	r0, #32
   82e84:	4b06      	ldr	r3, [pc, #24]	; (82ea0 <enable_motor+0x44>)
   82e86:	4798      	blx	r3

    tc_enable_interrupt(TC0, 1, TC_IER_CPCS);
   82e88:	2210      	movs	r2, #16
   82e8a:	2101      	movs	r1, #1
   82e8c:	4805      	ldr	r0, [pc, #20]	; (82ea4 <enable_motor+0x48>)
   82e8e:	4b06      	ldr	r3, [pc, #24]	; (82ea8 <enable_motor+0x4c>)
   82e90:	4798      	blx	r3
}
   82e92:	bf00      	nop
   82e94:	bd80      	pop	{r7, pc}
   82e96:	bf00      	nop
   82e98:	40094000 	.word	0x40094000
   82e9c:	000805f3 	.word	0x000805f3
   82ea0:	00082bd5 	.word	0x00082bd5
   82ea4:	40080000 	.word	0x40080000
   82ea8:	000807c9 	.word	0x000807c9

00082eac <motor_speed>:
        pwm_channel_enable(PWM, ENC_CLK);
    }*/ 
}

void motor_speed(uint8_t motor, int16_t ispeed)
{
   82eac:	b580      	push	{r7, lr}
   82eae:	b084      	sub	sp, #16
   82eb0:	af00      	add	r7, sp, #0
   82eb2:	4603      	mov	r3, r0
   82eb4:	460a      	mov	r2, r1
   82eb6:	71fb      	strb	r3, [r7, #7]
   82eb8:	4613      	mov	r3, r2
   82eba:	80bb      	strh	r3, [r7, #4]
    if (ispeed > 500)
   82ebc:	f9b7 3004 	ldrsh.w	r3, [r7, #4]
   82ec0:	f5b3 7ffa 	cmp.w	r3, #500	; 0x1f4
   82ec4:	dd02      	ble.n	82ecc <motor_speed+0x20>
    {
        ispeed = 500;
   82ec6:	f44f 73fa 	mov.w	r3, #500	; 0x1f4
   82eca:	80bb      	strh	r3, [r7, #4]
    }

    if (ispeed < -500)
   82ecc:	f9b7 3004 	ldrsh.w	r3, [r7, #4]
   82ed0:	f513 7ffa 	cmn.w	r3, #500	; 0x1f4
   82ed4:	da02      	bge.n	82edc <motor_speed+0x30>
    {
        ispeed = -500;
   82ed6:	f64f 630c 	movw	r3, #65036	; 0xfe0c
   82eda:	80bb      	strh	r3, [r7, #4]
    }

    uint16_t duty_cycle = (uint16_t)(ispeed + (int16_t)INIT_DUTY_VALUE);
   82edc:	88bb      	ldrh	r3, [r7, #4]
   82ede:	f503 73fa 	add.w	r3, r3, #500	; 0x1f4
   82ee2:	81fb      	strh	r3, [r7, #14]

    if (duty_cycle < 10)
   82ee4:	89fb      	ldrh	r3, [r7, #14]
   82ee6:	2b09      	cmp	r3, #9
   82ee8:	d801      	bhi.n	82eee <motor_speed+0x42>
    {
        duty_cycle = 10;
   82eea:	230a      	movs	r3, #10
   82eec:	81fb      	strh	r3, [r7, #14]
    }

    if (duty_cycle > 990)
   82eee:	89fb      	ldrh	r3, [r7, #14]
   82ef0:	f240 32de 	movw	r2, #990	; 0x3de
   82ef4:	4293      	cmp	r3, r2
   82ef6:	d902      	bls.n	82efe <motor_speed+0x52>
    {
        duty_cycle = 990;
   82ef8:	f240 33de 	movw	r3, #990	; 0x3de
   82efc:	81fb      	strh	r3, [r7, #14]
    }

    switch(motor)
   82efe:	79fb      	ldrb	r3, [r7, #7]
   82f00:	2b01      	cmp	r3, #1
   82f02:	d00b      	beq.n	82f1c <motor_speed+0x70>
   82f04:	2b02      	cmp	r3, #2
   82f06:	d010      	beq.n	82f2a <motor_speed+0x7e>
   82f08:	2b00      	cmp	r3, #0
   82f0a:	d000      	beq.n	82f0e <motor_speed+0x62>
            break;
        case MOTOR_REAR:
            pwm_channel_update_duty(PWM, &g_pwm_channel_MRear, duty_cycle);
            break;
        default:
            break;
   82f0c:	e014      	b.n	82f38 <motor_speed+0x8c>
            pwm_channel_update_duty(PWM, &g_pwm_channel_MLeft, duty_cycle);
   82f0e:	89fb      	ldrh	r3, [r7, #14]
   82f10:	461a      	mov	r2, r3
   82f12:	490b      	ldr	r1, [pc, #44]	; (82f40 <motor_speed+0x94>)
   82f14:	480b      	ldr	r0, [pc, #44]	; (82f44 <motor_speed+0x98>)
   82f16:	4b0c      	ldr	r3, [pc, #48]	; (82f48 <motor_speed+0x9c>)
   82f18:	4798      	blx	r3
            break;
   82f1a:	e00d      	b.n	82f38 <motor_speed+0x8c>
            pwm_channel_update_duty(PWM, &g_pwm_channel_MRight, duty_cycle);
   82f1c:	89fb      	ldrh	r3, [r7, #14]
   82f1e:	461a      	mov	r2, r3
   82f20:	490a      	ldr	r1, [pc, #40]	; (82f4c <motor_speed+0xa0>)
   82f22:	4808      	ldr	r0, [pc, #32]	; (82f44 <motor_speed+0x98>)
   82f24:	4b08      	ldr	r3, [pc, #32]	; (82f48 <motor_speed+0x9c>)
   82f26:	4798      	blx	r3
            break;
   82f28:	e006      	b.n	82f38 <motor_speed+0x8c>
            pwm_channel_update_duty(PWM, &g_pwm_channel_MRear, duty_cycle);
   82f2a:	89fb      	ldrh	r3, [r7, #14]
   82f2c:	461a      	mov	r2, r3
   82f2e:	4908      	ldr	r1, [pc, #32]	; (82f50 <motor_speed+0xa4>)
   82f30:	4804      	ldr	r0, [pc, #16]	; (82f44 <motor_speed+0x98>)
   82f32:	4b05      	ldr	r3, [pc, #20]	; (82f48 <motor_speed+0x9c>)
   82f34:	4798      	blx	r3
            break;
   82f36:	bf00      	nop
    }
}
   82f38:	bf00      	nop
   82f3a:	3710      	adds	r7, #16
   82f3c:	46bd      	mov	sp, r7
   82f3e:	bd80      	pop	{r7, pc}
   82f40:	20070e68 	.word	0x20070e68
   82f44:	40094000 	.word	0x40094000
   82f48:	000805af 	.word	0x000805af
   82f4c:	20070f38 	.word	0x20070f38
   82f50:	20070ee0 	.word	0x20070ee0

00082f54 <TC1_Handler>:

void TC1_Handler(void)
{
   82f54:	b590      	push	{r4, r7, lr}
   82f56:	b085      	sub	sp, #20
   82f58:	af00      	add	r7, sp, #0
    uint32_t PIOC_value;
    int32_t eleft_counts;
    int32_t eright_counts;
    int32_t erear_counts;

    ioport_set_pin_level(LED_M3, 1);
   82f5a:	2101      	movs	r1, #1
   82f5c:	2069      	movs	r0, #105	; 0x69
   82f5e:	4b50      	ldr	r3, [pc, #320]	; (830a0 <TC1_Handler+0x14c>)
   82f60:	4798      	blx	r3

    if ((tc_get_status(TC0, 1) & TC_SR_CPCS) == TC_SR_CPCS)
   82f62:	2101      	movs	r1, #1
   82f64:	484f      	ldr	r0, [pc, #316]	; (830a4 <TC1_Handler+0x150>)
   82f66:	4b50      	ldr	r3, [pc, #320]	; (830a8 <TC1_Handler+0x154>)
   82f68:	4798      	blx	r3
   82f6a:	4603      	mov	r3, r0
   82f6c:	f003 0310 	and.w	r3, r3, #16
   82f70:	2b10      	cmp	r3, #16
   82f72:	f040 808c 	bne.w	8308e <TC1_Handler+0x13a>
    {
        pwm_channel_disable(PWM, ENC_CLK);
   82f76:	2104      	movs	r1, #4
   82f78:	484c      	ldr	r0, [pc, #304]	; (830ac <TC1_Handler+0x158>)
   82f7a:	4b4d      	ldr	r3, [pc, #308]	; (830b0 <TC1_Handler+0x15c>)
   82f7c:	4798      	blx	r3
        PIOC_value = ioport_get_port_level(IOPORT_PIOC, 0xFFFFFFFF);
   82f7e:	f04f 31ff 	mov.w	r1, #4294967295
   82f82:	2002      	movs	r0, #2
   82f84:	4b4b      	ldr	r3, [pc, #300]	; (830b4 <TC1_Handler+0x160>)
   82f86:	4798      	blx	r3
   82f88:	60f8      	str	r0, [r7, #12]
        ioport_set_pin_level(ENC_LOAD, 0);
   82f8a:	2100      	movs	r1, #0
   82f8c:	2020      	movs	r0, #32
   82f8e:	4b44      	ldr	r3, [pc, #272]	; (830a0 <TC1_Handler+0x14c>)
   82f90:	4798      	blx	r3
        ioport_set_pin_level(ENC_LOAD, 1);
   82f92:	2101      	movs	r1, #1
   82f94:	2020      	movs	r0, #32
   82f96:	4b42      	ldr	r3, [pc, #264]	; (830a0 <TC1_Handler+0x14c>)
   82f98:	4798      	blx	r3
        pwm_channel_enable(PWM, ENC_CLK);
   82f9a:	2104      	movs	r1, #4
   82f9c:	4843      	ldr	r0, [pc, #268]	; (830ac <TC1_Handler+0x158>)
   82f9e:	4b46      	ldr	r3, [pc, #280]	; (830b8 <TC1_Handler+0x164>)
   82fa0:	4798      	blx	r3

        eleft_counts = (PIOC_value & 0x7F000000) >> 24;
   82fa2:	68fb      	ldr	r3, [r7, #12]
   82fa4:	0e1b      	lsrs	r3, r3, #24
   82fa6:	f003 037f 	and.w	r3, r3, #127	; 0x7f
   82faa:	60bb      	str	r3, [r7, #8]
        eleft_counts = (eleft_counts & 0x00000040) ? eleft_counts - 128 : eleft_counts;
   82fac:	68bb      	ldr	r3, [r7, #8]
   82fae:	f003 0340 	and.w	r3, r3, #64	; 0x40
   82fb2:	2b00      	cmp	r3, #0
   82fb4:	d002      	beq.n	82fbc <TC1_Handler+0x68>
   82fb6:	68bb      	ldr	r3, [r7, #8]
   82fb8:	3b80      	subs	r3, #128	; 0x80
   82fba:	e000      	b.n	82fbe <TC1_Handler+0x6a>
   82fbc:	68bb      	ldr	r3, [r7, #8]
   82fbe:	60bb      	str	r3, [r7, #8]
        eright_counts = ((PIOC_value & 0x00C00000) >> 17) | ((PIOC_value & 0x001F0000) >> 16);
   82fc0:	68fb      	ldr	r3, [r7, #12]
   82fc2:	0c5b      	lsrs	r3, r3, #17
   82fc4:	f003 0260 	and.w	r2, r3, #96	; 0x60
   82fc8:	68fb      	ldr	r3, [r7, #12]
   82fca:	0c1b      	lsrs	r3, r3, #16
   82fcc:	f003 031f 	and.w	r3, r3, #31
   82fd0:	4313      	orrs	r3, r2
   82fd2:	607b      	str	r3, [r7, #4]
        eright_counts = (eright_counts & 0x00000040) ? eright_counts - 128 : eright_counts;
   82fd4:	687b      	ldr	r3, [r7, #4]
   82fd6:	f003 0340 	and.w	r3, r3, #64	; 0x40
   82fda:	2b00      	cmp	r3, #0
   82fdc:	d002      	beq.n	82fe4 <TC1_Handler+0x90>
   82fde:	687b      	ldr	r3, [r7, #4]
   82fe0:	3b80      	subs	r3, #128	; 0x80
   82fe2:	e000      	b.n	82fe6 <TC1_Handler+0x92>
   82fe4:	687b      	ldr	r3, [r7, #4]
   82fe6:	607b      	str	r3, [r7, #4]
        erear_counts = ((PIOC_value & 0x0000FC00) >> 9) | ((PIOC_value & 0x00000002) >> 1);
   82fe8:	68fb      	ldr	r3, [r7, #12]
   82fea:	0a5b      	lsrs	r3, r3, #9
   82fec:	f003 027e 	and.w	r2, r3, #126	; 0x7e
   82ff0:	68fb      	ldr	r3, [r7, #12]
   82ff2:	085b      	lsrs	r3, r3, #1
   82ff4:	f003 0301 	and.w	r3, r3, #1
   82ff8:	4313      	orrs	r3, r2
   82ffa:	603b      	str	r3, [r7, #0]
        erear_counts = (erear_counts & 0x00000040) ? erear_counts - 128 : erear_counts;
   82ffc:	683b      	ldr	r3, [r7, #0]
   82ffe:	f003 0340 	and.w	r3, r3, #64	; 0x40
   83002:	2b00      	cmp	r3, #0
   83004:	d002      	beq.n	8300c <TC1_Handler+0xb8>
   83006:	683b      	ldr	r3, [r7, #0]
   83008:	3b80      	subs	r3, #128	; 0x80
   8300a:	e000      	b.n	8300e <TC1_Handler+0xba>
   8300c:	683b      	ldr	r3, [r7, #0]
   8300e:	603b      	str	r3, [r7, #0]

        motor_speed(MOTOR_LEFT, pidReg(&mleft_pid_reg, speed_mleft, (float)eleft_counts));
   83010:	4b2a      	ldr	r3, [pc, #168]	; (830bc <TC1_Handler+0x168>)
   83012:	681c      	ldr	r4, [r3, #0]
   83014:	4b2a      	ldr	r3, [pc, #168]	; (830c0 <TC1_Handler+0x16c>)
   83016:	68b8      	ldr	r0, [r7, #8]
   83018:	4798      	blx	r3
   8301a:	4603      	mov	r3, r0
   8301c:	461a      	mov	r2, r3
   8301e:	4621      	mov	r1, r4
   83020:	4828      	ldr	r0, [pc, #160]	; (830c4 <TC1_Handler+0x170>)
   83022:	4b29      	ldr	r3, [pc, #164]	; (830c8 <TC1_Handler+0x174>)
   83024:	4798      	blx	r3
   83026:	4602      	mov	r2, r0
   83028:	4b28      	ldr	r3, [pc, #160]	; (830cc <TC1_Handler+0x178>)
   8302a:	4610      	mov	r0, r2
   8302c:	4798      	blx	r3
   8302e:	4603      	mov	r3, r0
   83030:	b21b      	sxth	r3, r3
   83032:	4619      	mov	r1, r3
   83034:	2000      	movs	r0, #0
   83036:	4b26      	ldr	r3, [pc, #152]	; (830d0 <TC1_Handler+0x17c>)
   83038:	4798      	blx	r3
        motor_speed(MOTOR_RIGHT, pidReg(&mright_pid_reg, speed_mright, (float)eright_counts));
   8303a:	4b26      	ldr	r3, [pc, #152]	; (830d4 <TC1_Handler+0x180>)
   8303c:	681c      	ldr	r4, [r3, #0]
   8303e:	4b20      	ldr	r3, [pc, #128]	; (830c0 <TC1_Handler+0x16c>)
   83040:	6878      	ldr	r0, [r7, #4]
   83042:	4798      	blx	r3
   83044:	4603      	mov	r3, r0
   83046:	461a      	mov	r2, r3
   83048:	4621      	mov	r1, r4
   8304a:	4823      	ldr	r0, [pc, #140]	; (830d8 <TC1_Handler+0x184>)
   8304c:	4b1e      	ldr	r3, [pc, #120]	; (830c8 <TC1_Handler+0x174>)
   8304e:	4798      	blx	r3
   83050:	4602      	mov	r2, r0
   83052:	4b1e      	ldr	r3, [pc, #120]	; (830cc <TC1_Handler+0x178>)
   83054:	4610      	mov	r0, r2
   83056:	4798      	blx	r3
   83058:	4603      	mov	r3, r0
   8305a:	b21b      	sxth	r3, r3
   8305c:	4619      	mov	r1, r3
   8305e:	2001      	movs	r0, #1
   83060:	4b1b      	ldr	r3, [pc, #108]	; (830d0 <TC1_Handler+0x17c>)
   83062:	4798      	blx	r3
        motor_speed(MOTOR_REAR, pidReg(&mrear_pid_reg, speed_mrear, (float)erear_counts));
   83064:	4b1d      	ldr	r3, [pc, #116]	; (830dc <TC1_Handler+0x188>)
   83066:	681c      	ldr	r4, [r3, #0]
   83068:	4b15      	ldr	r3, [pc, #84]	; (830c0 <TC1_Handler+0x16c>)
   8306a:	6838      	ldr	r0, [r7, #0]
   8306c:	4798      	blx	r3
   8306e:	4603      	mov	r3, r0
   83070:	461a      	mov	r2, r3
   83072:	4621      	mov	r1, r4
   83074:	481a      	ldr	r0, [pc, #104]	; (830e0 <TC1_Handler+0x18c>)
   83076:	4b14      	ldr	r3, [pc, #80]	; (830c8 <TC1_Handler+0x174>)
   83078:	4798      	blx	r3
   8307a:	4602      	mov	r2, r0
   8307c:	4b13      	ldr	r3, [pc, #76]	; (830cc <TC1_Handler+0x178>)
   8307e:	4610      	mov	r0, r2
   83080:	4798      	blx	r3
   83082:	4603      	mov	r3, r0
   83084:	b21b      	sxth	r3, r3
   83086:	4619      	mov	r1, r3
   83088:	2002      	movs	r0, #2
   8308a:	4b11      	ldr	r3, [pc, #68]	; (830d0 <TC1_Handler+0x17c>)
   8308c:	4798      	blx	r3

        //pwm_channel_enable(PWM, ENC_CLK);
    }

    ioport_set_pin_level(LED_M3, 0);
   8308e:	2100      	movs	r1, #0
   83090:	2069      	movs	r0, #105	; 0x69
   83092:	4b03      	ldr	r3, [pc, #12]	; (830a0 <TC1_Handler+0x14c>)
   83094:	4798      	blx	r3
}
   83096:	bf00      	nop
   83098:	3714      	adds	r7, #20
   8309a:	46bd      	mov	sp, r7
   8309c:	bd90      	pop	{r4, r7, pc}
   8309e:	bf00      	nop
   830a0:	00082bd5 	.word	0x00082bd5
   830a4:	40080000 	.word	0x40080000
   830a8:	000807ef 	.word	0x000807ef
   830ac:	40094000 	.word	0x40094000
   830b0:	00080615 	.word	0x00080615
   830b4:	00082c3f 	.word	0x00082c3f
   830b8:	000805f3 	.word	0x000805f3
   830bc:	20070f30 	.word	0x20070f30
   830c0:	0008535d 	.word	0x0008535d
   830c4:	20070f60 	.word	0x20070f60
   830c8:	000830e5 	.word	0x000830e5
   830cc:	00085791 	.word	0x00085791
   830d0:	00082ead 	.word	0x00082ead
   830d4:	20070edc 	.word	0x20070edc
   830d8:	20070eb8 	.word	0x20070eb8
   830dc:	20070fb8 	.word	0x20070fb8
   830e0:	20070f08 	.word	0x20070f08

000830e4 <pidReg>:
/************************************************************************/

#include "pid.h"

float pidReg(pidReg_t* reg, float refer, float act)
{
   830e4:	b590      	push	{r4, r7, lr}
   830e6:	b08b      	sub	sp, #44	; 0x2c
   830e8:	af00      	add	r7, sp, #0
   830ea:	60f8      	str	r0, [r7, #12]
   830ec:	60b9      	str	r1, [r7, #8]
   830ee:	607a      	str	r2, [r7, #4]
    float diff;
    float outPreSat;
    float out;

    // Compute the error
    err = refer - act;
   830f0:	4b3c      	ldr	r3, [pc, #240]	; (831e4 <pidReg+0x100>)
   830f2:	6879      	ldr	r1, [r7, #4]
   830f4:	68b8      	ldr	r0, [r7, #8]
   830f6:	4798      	blx	r3
   830f8:	4603      	mov	r3, r0
   830fa:	623b      	str	r3, [r7, #32]

    // Compute the proportional output
    prop = reg->kp * err;
   830fc:	68fb      	ldr	r3, [r7, #12]
   830fe:	681a      	ldr	r2, [r3, #0]
   83100:	4b39      	ldr	r3, [pc, #228]	; (831e8 <pidReg+0x104>)
   83102:	6a39      	ldr	r1, [r7, #32]
   83104:	4610      	mov	r0, r2
   83106:	4798      	blx	r3
   83108:	4603      	mov	r3, r0
   8310a:	61fb      	str	r3, [r7, #28]

    // Compute the integral output
    reg->intg = reg->intg + reg->ki * err + reg->kc * reg->satErr;
   8310c:	68fb      	ldr	r3, [r7, #12]
   8310e:	691c      	ldr	r4, [r3, #16]
   83110:	68fb      	ldr	r3, [r7, #12]
   83112:	685a      	ldr	r2, [r3, #4]
   83114:	4b34      	ldr	r3, [pc, #208]	; (831e8 <pidReg+0x104>)
   83116:	6a39      	ldr	r1, [r7, #32]
   83118:	4610      	mov	r0, r2
   8311a:	4798      	blx	r3
   8311c:	4603      	mov	r3, r0
   8311e:	461a      	mov	r2, r3
   83120:	4b32      	ldr	r3, [pc, #200]	; (831ec <pidReg+0x108>)
   83122:	4611      	mov	r1, r2
   83124:	4620      	mov	r0, r4
   83126:	4798      	blx	r3
   83128:	4603      	mov	r3, r0
   8312a:	461c      	mov	r4, r3
   8312c:	68fb      	ldr	r3, [r7, #12]
   8312e:	689a      	ldr	r2, [r3, #8]
   83130:	68fb      	ldr	r3, [r7, #12]
   83132:	69d9      	ldr	r1, [r3, #28]
   83134:	4b2c      	ldr	r3, [pc, #176]	; (831e8 <pidReg+0x104>)
   83136:	4610      	mov	r0, r2
   83138:	4798      	blx	r3
   8313a:	4603      	mov	r3, r0
   8313c:	461a      	mov	r2, r3
   8313e:	4b2b      	ldr	r3, [pc, #172]	; (831ec <pidReg+0x108>)
   83140:	4611      	mov	r1, r2
   83142:	4620      	mov	r0, r4
   83144:	4798      	blx	r3
   83146:	4603      	mov	r3, r0
   83148:	461a      	mov	r2, r3
   8314a:	68fb      	ldr	r3, [r7, #12]
   8314c:	611a      	str	r2, [r3, #16]

    // Compute the derivative output
    diff = reg->kd * (err - reg->prevErr);
   8314e:	68fb      	ldr	r3, [r7, #12]
   83150:	68dc      	ldr	r4, [r3, #12]
   83152:	68fb      	ldr	r3, [r7, #12]
   83154:	6a1a      	ldr	r2, [r3, #32]
   83156:	4b23      	ldr	r3, [pc, #140]	; (831e4 <pidReg+0x100>)
   83158:	4611      	mov	r1, r2
   8315a:	6a38      	ldr	r0, [r7, #32]
   8315c:	4798      	blx	r3
   8315e:	4603      	mov	r3, r0
   83160:	461a      	mov	r2, r3
   83162:	4b21      	ldr	r3, [pc, #132]	; (831e8 <pidReg+0x104>)
   83164:	4611      	mov	r1, r2
   83166:	4620      	mov	r0, r4
   83168:	4798      	blx	r3
   8316a:	4603      	mov	r3, r0
   8316c:	61bb      	str	r3, [r7, #24]

    // Compute the pre-saturated output
    outPreSat = prop + reg->intg + diff;
   8316e:	68fb      	ldr	r3, [r7, #12]
   83170:	691a      	ldr	r2, [r3, #16]
   83172:	4b1e      	ldr	r3, [pc, #120]	; (831ec <pidReg+0x108>)
   83174:	69f9      	ldr	r1, [r7, #28]
   83176:	4610      	mov	r0, r2
   83178:	4798      	blx	r3
   8317a:	4603      	mov	r3, r0
   8317c:	461a      	mov	r2, r3
   8317e:	4b1b      	ldr	r3, [pc, #108]	; (831ec <pidReg+0x108>)
   83180:	69b9      	ldr	r1, [r7, #24]
   83182:	4610      	mov	r0, r2
   83184:	4798      	blx	r3
   83186:	4603      	mov	r3, r0
   83188:	617b      	str	r3, [r7, #20]

    // Saturate the output
    if (outPreSat > reg->outMax)
   8318a:	68fb      	ldr	r3, [r7, #12]
   8318c:	695a      	ldr	r2, [r3, #20]
   8318e:	4b18      	ldr	r3, [pc, #96]	; (831f0 <pidReg+0x10c>)
   83190:	6979      	ldr	r1, [r7, #20]
   83192:	4610      	mov	r0, r2
   83194:	4798      	blx	r3
   83196:	4603      	mov	r3, r0
   83198:	2b00      	cmp	r3, #0
   8319a:	d003      	beq.n	831a4 <pidReg+0xc0>
    {
        out = reg->outMax;
   8319c:	68fb      	ldr	r3, [r7, #12]
   8319e:	695b      	ldr	r3, [r3, #20]
   831a0:	627b      	str	r3, [r7, #36]	; 0x24
   831a2:	e00e      	b.n	831c2 <pidReg+0xde>
    }
    else if (outPreSat < reg->outMin)
   831a4:	68fb      	ldr	r3, [r7, #12]
   831a6:	699a      	ldr	r2, [r3, #24]
   831a8:	4b12      	ldr	r3, [pc, #72]	; (831f4 <pidReg+0x110>)
   831aa:	6979      	ldr	r1, [r7, #20]
   831ac:	4610      	mov	r0, r2
   831ae:	4798      	blx	r3
   831b0:	4603      	mov	r3, r0
   831b2:	2b00      	cmp	r3, #0
   831b4:	d003      	beq.n	831be <pidReg+0xda>
    {
        out = reg->outMin;
   831b6:	68fb      	ldr	r3, [r7, #12]
   831b8:	699b      	ldr	r3, [r3, #24]
   831ba:	627b      	str	r3, [r7, #36]	; 0x24
   831bc:	e001      	b.n	831c2 <pidReg+0xde>
    }
    else
    {
        out = outPreSat;
   831be:	697b      	ldr	r3, [r7, #20]
   831c0:	627b      	str	r3, [r7, #36]	; 0x24
    }

    // Compute the saturate difference
    reg->satErr = out - outPreSat;
   831c2:	4b08      	ldr	r3, [pc, #32]	; (831e4 <pidReg+0x100>)
   831c4:	6979      	ldr	r1, [r7, #20]
   831c6:	6a78      	ldr	r0, [r7, #36]	; 0x24
   831c8:	4798      	blx	r3
   831ca:	4603      	mov	r3, r0
   831cc:	461a      	mov	r2, r3
   831ce:	68fb      	ldr	r3, [r7, #12]
   831d0:	61da      	str	r2, [r3, #28]

    // Keep error for next iteration
    reg->prevErr = err;
   831d2:	68fb      	ldr	r3, [r7, #12]
   831d4:	6a3a      	ldr	r2, [r7, #32]
   831d6:	621a      	str	r2, [r3, #32]

    return out;
   831d8:	6a7b      	ldr	r3, [r7, #36]	; 0x24
}
   831da:	4618      	mov	r0, r3
   831dc:	372c      	adds	r7, #44	; 0x2c
   831de:	46bd      	mov	sp, r7
   831e0:	bd90      	pop	{r4, r7, pc}
   831e2:	bf00      	nop
   831e4:	000851f1 	.word	0x000851f1
   831e8:	00085405 	.word	0x00085405
   831ec:	000851f5 	.word	0x000851f5
   831f0:	00085741 	.word	0x00085741
   831f4:	0008577d 	.word	0x0008577d

000831f8 <ioport_set_pin_level>:
{
   831f8:	b480      	push	{r7}
   831fa:	b08b      	sub	sp, #44	; 0x2c
   831fc:	af00      	add	r7, sp, #0
   831fe:	6078      	str	r0, [r7, #4]
   83200:	460b      	mov	r3, r1
   83202:	70fb      	strb	r3, [r7, #3]
   83204:	687b      	ldr	r3, [r7, #4]
   83206:	627b      	str	r3, [r7, #36]	; 0x24
   83208:	78fb      	ldrb	r3, [r7, #3]
   8320a:	f887 3023 	strb.w	r3, [r7, #35]	; 0x23
   8320e:	6a7b      	ldr	r3, [r7, #36]	; 0x24
   83210:	61fb      	str	r3, [r7, #28]
   83212:	69fb      	ldr	r3, [r7, #28]
   83214:	61bb      	str	r3, [r7, #24]
	return pin >> 5;
   83216:	69bb      	ldr	r3, [r7, #24]
   83218:	095b      	lsrs	r3, r3, #5
   8321a:	617b      	str	r3, [r7, #20]
	return (Pio *)((uintptr_t)IOPORT_BASE_ADDRESS +
   8321c:	697b      	ldr	r3, [r7, #20]
   8321e:	f503 1300 	add.w	r3, r3, #2097152	; 0x200000
   83222:	f203 7307 	addw	r3, r3, #1799	; 0x707
   83226:	025b      	lsls	r3, r3, #9
	Pio *base = arch_ioport_pin_to_base(pin);
   83228:	613b      	str	r3, [r7, #16]
	if (level) {
   8322a:	f897 3023 	ldrb.w	r3, [r7, #35]	; 0x23
   8322e:	2b00      	cmp	r3, #0
   83230:	d009      	beq.n	83246 <ioport_set_pin_level+0x4e>
   83232:	6a7b      	ldr	r3, [r7, #36]	; 0x24
   83234:	60fb      	str	r3, [r7, #12]
	return 1U << (pin & 0x1F);
   83236:	68fb      	ldr	r3, [r7, #12]
   83238:	f003 031f 	and.w	r3, r3, #31
   8323c:	2201      	movs	r2, #1
   8323e:	409a      	lsls	r2, r3
		base->PIO_SODR = arch_ioport_pin_to_mask(pin);
   83240:	693b      	ldr	r3, [r7, #16]
   83242:	631a      	str	r2, [r3, #48]	; 0x30
}
   83244:	e008      	b.n	83258 <ioport_set_pin_level+0x60>
   83246:	6a7b      	ldr	r3, [r7, #36]	; 0x24
   83248:	60bb      	str	r3, [r7, #8]
	return 1U << (pin & 0x1F);
   8324a:	68bb      	ldr	r3, [r7, #8]
   8324c:	f003 031f 	and.w	r3, r3, #31
   83250:	2201      	movs	r2, #1
   83252:	409a      	lsls	r2, r3
		base->PIO_CODR = arch_ioport_pin_to_mask(pin);
   83254:	693b      	ldr	r3, [r7, #16]
   83256:	635a      	str	r2, [r3, #52]	; 0x34
   83258:	bf00      	nop
   8325a:	372c      	adds	r7, #44	; 0x2c
   8325c:	46bd      	mov	sp, r7
   8325e:	bc80      	pop	{r7}
   83260:	4770      	bx	lr
	...

00083264 <SysTick_Handler>:
//float battery_voltage = 0;
uint8_t battery_percentage;
uint8_t prev_battery_percentage = 0;

void SysTick_Handler(void)
{
   83264:	b480      	push	{r7}
   83266:	af00      	add	r7, sp, #0
    g_ul_ms_ticks++;
   83268:	4b04      	ldr	r3, [pc, #16]	; (8327c <SysTick_Handler+0x18>)
   8326a:	681b      	ldr	r3, [r3, #0]
   8326c:	3301      	adds	r3, #1
   8326e:	4a03      	ldr	r2, [pc, #12]	; (8327c <SysTick_Handler+0x18>)
   83270:	6013      	str	r3, [r2, #0]
}
   83272:	bf00      	nop
   83274:	46bd      	mov	sp, r7
   83276:	bc80      	pop	{r7}
   83278:	4770      	bx	lr
   8327a:	bf00      	nop
   8327c:	20070dc8 	.word	0x20070dc8

00083280 <getTicks>:

uint32_t getTicks(void)
{
   83280:	b480      	push	{r7}
   83282:	af00      	add	r7, sp, #0
    return g_ul_ms_ticks;
   83284:	4b02      	ldr	r3, [pc, #8]	; (83290 <getTicks+0x10>)
   83286:	681b      	ldr	r3, [r3, #0]
}
   83288:	4618      	mov	r0, r3
   8328a:	46bd      	mov	sp, r7
   8328c:	bc80      	pop	{r7}
   8328e:	4770      	bx	lr
   83290:	20070dc8 	.word	0x20070dc8

00083294 <mdelay>:

void mdelay(uint32_t ul_dly_ticks)
{
   83294:	b480      	push	{r7}
   83296:	b085      	sub	sp, #20
   83298:	af00      	add	r7, sp, #0
   8329a:	6078      	str	r0, [r7, #4]
    uint32_t ul_cur_ticks;

    ul_cur_ticks = g_ul_ms_ticks;
   8329c:	4b07      	ldr	r3, [pc, #28]	; (832bc <mdelay+0x28>)
   8329e:	681b      	ldr	r3, [r3, #0]
   832a0:	60fb      	str	r3, [r7, #12]
    while ((g_ul_ms_ticks - ul_cur_ticks) < ul_dly_ticks);
   832a2:	bf00      	nop
   832a4:	4b05      	ldr	r3, [pc, #20]	; (832bc <mdelay+0x28>)
   832a6:	681a      	ldr	r2, [r3, #0]
   832a8:	68fb      	ldr	r3, [r7, #12]
   832aa:	1ad2      	subs	r2, r2, r3
   832ac:	687b      	ldr	r3, [r7, #4]
   832ae:	429a      	cmp	r2, r3
   832b0:	d3f8      	bcc.n	832a4 <mdelay+0x10>
}
   832b2:	bf00      	nop
   832b4:	3714      	adds	r7, #20
   832b6:	46bd      	mov	sp, r7
   832b8:	bc80      	pop	{r7}
   832ba:	4770      	bx	lr
   832bc:	20070dc8 	.word	0x20070dc8

000832c0 <update_comm>:

void update_comm(void)
{
   832c0:	b580      	push	{r7, lr}
   832c2:	af00      	add	r7, sp, #0
    if ((getTicks() - ticks_comm) > 5)
   832c4:	4b0b      	ldr	r3, [pc, #44]	; (832f4 <update_comm+0x34>)
   832c6:	4798      	blx	r3
   832c8:	4602      	mov	r2, r0
   832ca:	4b0b      	ldr	r3, [pc, #44]	; (832f8 <update_comm+0x38>)
   832cc:	681b      	ldr	r3, [r3, #0]
   832ce:	1ad3      	subs	r3, r2, r3
   832d0:	2b05      	cmp	r3, #5
   832d2:	d90d      	bls.n	832f0 <update_comm+0x30>
    {
        ticks_comm = getTicks();
   832d4:	4b07      	ldr	r3, [pc, #28]	; (832f4 <update_comm+0x34>)
   832d6:	4798      	blx	r3
   832d8:	4602      	mov	r2, r0
   832da:	4b07      	ldr	r3, [pc, #28]	; (832f8 <update_comm+0x38>)
   832dc:	601a      	str	r2, [r3, #0]
        
        memcpy(&sens_buf, &mts, sizeof(mts));
   832de:	4b07      	ldr	r3, [pc, #28]	; (832fc <update_comm+0x3c>)
   832e0:	681b      	ldr	r3, [r3, #0]
   832e2:	461a      	mov	r2, r3
   832e4:	4b06      	ldr	r3, [pc, #24]	; (83300 <update_comm+0x40>)
   832e6:	601a      	str	r2, [r3, #0]
        spi_master_transfer(&sens_buf, sizeof(sens_buf));
   832e8:	2103      	movs	r1, #3
   832ea:	4805      	ldr	r0, [pc, #20]	; (83300 <update_comm+0x40>)
   832ec:	4b05      	ldr	r3, [pc, #20]	; (83304 <update_comm+0x44>)
   832ee:	4798      	blx	r3
    }
}
   832f0:	bf00      	nop
   832f2:	bd80      	pop	{r7, pc}
   832f4:	00083281 	.word	0x00083281
   832f8:	20070e1c 	.word	0x20070e1c
   832fc:	20070e10 	.word	0x20070e10
   83300:	20070e0c 	.word	0x20070e0c
   83304:	00080d5d 	.word	0x00080d5d

00083308 <update_battery>:

void update_battery(Bool update_forced)
{
   83308:	b580      	push	{r7, lr}
   8330a:	b084      	sub	sp, #16
   8330c:	af00      	add	r7, sp, #0
   8330e:	4603      	mov	r3, r0
   83310:	71fb      	strb	r3, [r7, #7]
    char tmp[6];
    battery_percentage = stm.bat_percentage;
   83312:	4b20      	ldr	r3, [pc, #128]	; (83394 <update_battery+0x8c>)
   83314:	789a      	ldrb	r2, [r3, #2]
   83316:	4b20      	ldr	r3, [pc, #128]	; (83398 <update_battery+0x90>)
   83318:	701a      	strb	r2, [r3, #0]
    
    if (update_forced || prev_battery_percentage != battery_percentage)
   8331a:	79fb      	ldrb	r3, [r7, #7]
   8331c:	2b00      	cmp	r3, #0
   8331e:	d105      	bne.n	8332c <update_battery+0x24>
   83320:	4b1e      	ldr	r3, [pc, #120]	; (8339c <update_battery+0x94>)
   83322:	781a      	ldrb	r2, [r3, #0]
   83324:	4b1c      	ldr	r3, [pc, #112]	; (83398 <update_battery+0x90>)
   83326:	781b      	ldrb	r3, [r3, #0]
   83328:	429a      	cmp	r2, r3
   8332a:	d02f      	beq.n	8338c <update_battery+0x84>
    {
        if (battery_percentage >= 100)
   8332c:	4b1a      	ldr	r3, [pc, #104]	; (83398 <update_battery+0x90>)
   8332e:	781b      	ldrb	r3, [r3, #0]
   83330:	2b63      	cmp	r3, #99	; 0x63
   83332:	d909      	bls.n	83348 <update_battery+0x40>
        {
            sprintf(tmp, "%3u%%", battery_percentage);
   83334:	4b18      	ldr	r3, [pc, #96]	; (83398 <update_battery+0x90>)
   83336:	781b      	ldrb	r3, [r3, #0]
   83338:	461a      	mov	r2, r3
   8333a:	f107 0308 	add.w	r3, r7, #8
   8333e:	4918      	ldr	r1, [pc, #96]	; (833a0 <update_battery+0x98>)
   83340:	4618      	mov	r0, r3
   83342:	4b18      	ldr	r3, [pc, #96]	; (833a4 <update_battery+0x9c>)
   83344:	4798      	blx	r3
   83346:	e016      	b.n	83376 <update_battery+0x6e>
        }
        else if (battery_percentage >= 10)
   83348:	4b13      	ldr	r3, [pc, #76]	; (83398 <update_battery+0x90>)
   8334a:	781b      	ldrb	r3, [r3, #0]
   8334c:	2b09      	cmp	r3, #9
   8334e:	d909      	bls.n	83364 <update_battery+0x5c>
        {
            sprintf(tmp, " %2u%%", battery_percentage);
   83350:	4b11      	ldr	r3, [pc, #68]	; (83398 <update_battery+0x90>)
   83352:	781b      	ldrb	r3, [r3, #0]
   83354:	461a      	mov	r2, r3
   83356:	f107 0308 	add.w	r3, r7, #8
   8335a:	4913      	ldr	r1, [pc, #76]	; (833a8 <update_battery+0xa0>)
   8335c:	4618      	mov	r0, r3
   8335e:	4b11      	ldr	r3, [pc, #68]	; (833a4 <update_battery+0x9c>)
   83360:	4798      	blx	r3
   83362:	e008      	b.n	83376 <update_battery+0x6e>
        }
        else
        {
            sprintf(tmp, "  %1u%%", battery_percentage);
   83364:	4b0c      	ldr	r3, [pc, #48]	; (83398 <update_battery+0x90>)
   83366:	781b      	ldrb	r3, [r3, #0]
   83368:	461a      	mov	r2, r3
   8336a:	f107 0308 	add.w	r3, r7, #8
   8336e:	490f      	ldr	r1, [pc, #60]	; (833ac <update_battery+0xa4>)
   83370:	4618      	mov	r0, r3
   83372:	4b0c      	ldr	r3, [pc, #48]	; (833a4 <update_battery+0x9c>)
   83374:	4798      	blx	r3
        }
            
        lcd_print_s(1, 16, tmp);
   83376:	f107 0308 	add.w	r3, r7, #8
   8337a:	461a      	mov	r2, r3
   8337c:	2110      	movs	r1, #16
   8337e:	2001      	movs	r0, #1
   83380:	4b0b      	ldr	r3, [pc, #44]	; (833b0 <update_battery+0xa8>)
   83382:	4798      	blx	r3
        prev_battery_percentage = battery_percentage;
   83384:	4b04      	ldr	r3, [pc, #16]	; (83398 <update_battery+0x90>)
   83386:	781a      	ldrb	r2, [r3, #0]
   83388:	4b04      	ldr	r3, [pc, #16]	; (8339c <update_battery+0x94>)
   8338a:	701a      	strb	r2, [r3, #0]
    }
}
   8338c:	bf00      	nop
   8338e:	3710      	adds	r7, #16
   83390:	46bd      	mov	sp, r7
   83392:	bd80      	pop	{r7, pc}
   83394:	20070e14 	.word	0x20070e14
   83398:	20070fbc 	.word	0x20070fbc
   8339c:	20070dcc 	.word	0x20070dcc
   833a0:	00089a0c 	.word	0x00089a0c
   833a4:	000858c9 	.word	0x000858c9
   833a8:	00089a14 	.word	0x00089a14
   833ac:	00089a1c 	.word	0x00089a1c
   833b0:	000819cd 	.word	0x000819cd

000833b4 <update_heartbeat>:

void update_heartbeat(void)
{
   833b4:	b580      	push	{r7, lr}
   833b6:	af00      	add	r7, sp, #0
    if (heart_state)
   833b8:	4b20      	ldr	r3, [pc, #128]	; (8343c <update_heartbeat+0x88>)
   833ba:	781b      	ldrb	r3, [r3, #0]
   833bc:	2b00      	cmp	r3, #0
   833be:	d01d      	beq.n	833fc <update_heartbeat+0x48>
    {
        if (getTicks() >= (ticks_heartbeat + 100))
   833c0:	4b1f      	ldr	r3, [pc, #124]	; (83440 <update_heartbeat+0x8c>)
   833c2:	4798      	blx	r3
   833c4:	4602      	mov	r2, r0
   833c6:	4b1f      	ldr	r3, [pc, #124]	; (83444 <update_heartbeat+0x90>)
   833c8:	681b      	ldr	r3, [r3, #0]
   833ca:	3364      	adds	r3, #100	; 0x64
   833cc:	429a      	cmp	r2, r3
   833ce:	d333      	bcc.n	83438 <update_heartbeat+0x84>
        {
            ticks_heartbeat = getTicks();
   833d0:	4b1b      	ldr	r3, [pc, #108]	; (83440 <update_heartbeat+0x8c>)
   833d2:	4798      	blx	r3
   833d4:	4602      	mov	r2, r0
   833d6:	4b1b      	ldr	r3, [pc, #108]	; (83444 <update_heartbeat+0x90>)
   833d8:	601a      	str	r2, [r3, #0]
            ioport_set_pin_level(LED_ONBOARD, 0);
   833da:	2100      	movs	r1, #0
   833dc:	206a      	movs	r0, #106	; 0x6a
   833de:	4b1a      	ldr	r3, [pc, #104]	; (83448 <update_heartbeat+0x94>)
   833e0:	4798      	blx	r3
            ioport_set_pin_level(LED_M1, 0);
   833e2:	2100      	movs	r1, #0
   833e4:	2067      	movs	r0, #103	; 0x67
   833e6:	4b18      	ldr	r3, [pc, #96]	; (83448 <update_heartbeat+0x94>)
   833e8:	4798      	blx	r3
            mts.ibit.heartbeat = 0;
   833ea:	4a18      	ldr	r2, [pc, #96]	; (8344c <update_heartbeat+0x98>)
   833ec:	7813      	ldrb	r3, [r2, #0]
   833ee:	f36f 0300 	bfc	r3, #0, #1
   833f2:	7013      	strb	r3, [r2, #0]
            heart_state = 0;
   833f4:	4b11      	ldr	r3, [pc, #68]	; (8343c <update_heartbeat+0x88>)
   833f6:	2200      	movs	r2, #0
   833f8:	701a      	strb	r2, [r3, #0]
            ioport_set_pin_level(LED_M1, 1);
            mts.ibit.heartbeat = 1;
            heart_state = 1;
        }
    }
}
   833fa:	e01d      	b.n	83438 <update_heartbeat+0x84>
        if (getTicks() >= (ticks_heartbeat + 900))
   833fc:	4b10      	ldr	r3, [pc, #64]	; (83440 <update_heartbeat+0x8c>)
   833fe:	4798      	blx	r3
   83400:	4602      	mov	r2, r0
   83402:	4b10      	ldr	r3, [pc, #64]	; (83444 <update_heartbeat+0x90>)
   83404:	681b      	ldr	r3, [r3, #0]
   83406:	f503 7361 	add.w	r3, r3, #900	; 0x384
   8340a:	429a      	cmp	r2, r3
   8340c:	d314      	bcc.n	83438 <update_heartbeat+0x84>
            ticks_heartbeat = getTicks();
   8340e:	4b0c      	ldr	r3, [pc, #48]	; (83440 <update_heartbeat+0x8c>)
   83410:	4798      	blx	r3
   83412:	4602      	mov	r2, r0
   83414:	4b0b      	ldr	r3, [pc, #44]	; (83444 <update_heartbeat+0x90>)
   83416:	601a      	str	r2, [r3, #0]
            ioport_set_pin_level(LED_ONBOARD, 1);
   83418:	2101      	movs	r1, #1
   8341a:	206a      	movs	r0, #106	; 0x6a
   8341c:	4b0a      	ldr	r3, [pc, #40]	; (83448 <update_heartbeat+0x94>)
   8341e:	4798      	blx	r3
            ioport_set_pin_level(LED_M1, 1);
   83420:	2101      	movs	r1, #1
   83422:	2067      	movs	r0, #103	; 0x67
   83424:	4b08      	ldr	r3, [pc, #32]	; (83448 <update_heartbeat+0x94>)
   83426:	4798      	blx	r3
            mts.ibit.heartbeat = 1;
   83428:	4a08      	ldr	r2, [pc, #32]	; (8344c <update_heartbeat+0x98>)
   8342a:	7813      	ldrb	r3, [r2, #0]
   8342c:	f043 0301 	orr.w	r3, r3, #1
   83430:	7013      	strb	r3, [r2, #0]
            heart_state = 1;
   83432:	4b02      	ldr	r3, [pc, #8]	; (8343c <update_heartbeat+0x88>)
   83434:	2201      	movs	r2, #1
   83436:	701a      	strb	r2, [r3, #0]
}
   83438:	bf00      	nop
   8343a:	bd80      	pop	{r7, pc}
   8343c:	20070e18 	.word	0x20070e18
   83440:	00083281 	.word	0x00083281
   83444:	20070e28 	.word	0x20070e28
   83448:	000831f9 	.word	0x000831f9
   8344c:	20070e10 	.word	0x20070e10

00083450 <osc_enable>:
{
   83450:	b580      	push	{r7, lr}
   83452:	b082      	sub	sp, #8
   83454:	af00      	add	r7, sp, #0
   83456:	6078      	str	r0, [r7, #4]
	switch (ul_id) {
   83458:	687b      	ldr	r3, [r7, #4]
   8345a:	2b07      	cmp	r3, #7
   8345c:	d831      	bhi.n	834c2 <osc_enable+0x72>
   8345e:	a201      	add	r2, pc, #4	; (adr r2, 83464 <osc_enable+0x14>)
   83460:	f852 f023 	ldr.w	pc, [r2, r3, lsl #2]
   83464:	000834c1 	.word	0x000834c1
   83468:	00083485 	.word	0x00083485
   8346c:	0008348d 	.word	0x0008348d
   83470:	00083495 	.word	0x00083495
   83474:	0008349d 	.word	0x0008349d
   83478:	000834a5 	.word	0x000834a5
   8347c:	000834ad 	.word	0x000834ad
   83480:	000834b7 	.word	0x000834b7
		pmc_switch_sclk_to_32kxtal(PMC_OSC_XTAL);
   83484:	2000      	movs	r0, #0
   83486:	4b11      	ldr	r3, [pc, #68]	; (834cc <osc_enable+0x7c>)
   83488:	4798      	blx	r3
		break;
   8348a:	e01a      	b.n	834c2 <osc_enable+0x72>
		pmc_switch_sclk_to_32kxtal(PMC_OSC_BYPASS);
   8348c:	2001      	movs	r0, #1
   8348e:	4b0f      	ldr	r3, [pc, #60]	; (834cc <osc_enable+0x7c>)
   83490:	4798      	blx	r3
		break;
   83492:	e016      	b.n	834c2 <osc_enable+0x72>
		pmc_switch_mainck_to_fastrc(CKGR_MOR_MOSCRCF_4_MHz);
   83494:	2000      	movs	r0, #0
   83496:	4b0e      	ldr	r3, [pc, #56]	; (834d0 <osc_enable+0x80>)
   83498:	4798      	blx	r3
		break;
   8349a:	e012      	b.n	834c2 <osc_enable+0x72>
		pmc_switch_mainck_to_fastrc(CKGR_MOR_MOSCRCF_8_MHz);
   8349c:	2010      	movs	r0, #16
   8349e:	4b0c      	ldr	r3, [pc, #48]	; (834d0 <osc_enable+0x80>)
   834a0:	4798      	blx	r3
		break;
   834a2:	e00e      	b.n	834c2 <osc_enable+0x72>
		pmc_switch_mainck_to_fastrc(CKGR_MOR_MOSCRCF_12_MHz);
   834a4:	2020      	movs	r0, #32
   834a6:	4b0a      	ldr	r3, [pc, #40]	; (834d0 <osc_enable+0x80>)
   834a8:	4798      	blx	r3
		break;
   834aa:	e00a      	b.n	834c2 <osc_enable+0x72>
		pmc_switch_mainck_to_xtal(PMC_OSC_XTAL,
   834ac:	213e      	movs	r1, #62	; 0x3e
   834ae:	2000      	movs	r0, #0
   834b0:	4b08      	ldr	r3, [pc, #32]	; (834d4 <osc_enable+0x84>)
   834b2:	4798      	blx	r3
		break;
   834b4:	e005      	b.n	834c2 <osc_enable+0x72>
		pmc_switch_mainck_to_xtal(PMC_OSC_BYPASS,
   834b6:	213e      	movs	r1, #62	; 0x3e
   834b8:	2001      	movs	r0, #1
   834ba:	4b06      	ldr	r3, [pc, #24]	; (834d4 <osc_enable+0x84>)
   834bc:	4798      	blx	r3
		break;
   834be:	e000      	b.n	834c2 <osc_enable+0x72>
		break;
   834c0:	bf00      	nop
}
   834c2:	bf00      	nop
   834c4:	3708      	adds	r7, #8
   834c6:	46bd      	mov	sp, r7
   834c8:	bd80      	pop	{r7, pc}
   834ca:	bf00      	nop
   834cc:	00083a8d 	.word	0x00083a8d
   834d0:	00083af9 	.word	0x00083af9
   834d4:	00083b69 	.word	0x00083b69

000834d8 <osc_is_ready>:
{
   834d8:	b580      	push	{r7, lr}
   834da:	b082      	sub	sp, #8
   834dc:	af00      	add	r7, sp, #0
   834de:	6078      	str	r0, [r7, #4]
	switch (ul_id) {
   834e0:	687b      	ldr	r3, [r7, #4]
   834e2:	2b07      	cmp	r3, #7
   834e4:	d826      	bhi.n	83534 <osc_is_ready+0x5c>
   834e6:	a201      	add	r2, pc, #4	; (adr r2, 834ec <osc_is_ready+0x14>)
   834e8:	f852 f023 	ldr.w	pc, [r2, r3, lsl #2]
   834ec:	0008350d 	.word	0x0008350d
   834f0:	00083511 	.word	0x00083511
   834f4:	00083511 	.word	0x00083511
   834f8:	00083523 	.word	0x00083523
   834fc:	00083523 	.word	0x00083523
   83500:	00083523 	.word	0x00083523
   83504:	00083523 	.word	0x00083523
   83508:	00083523 	.word	0x00083523
		return 1;
   8350c:	2301      	movs	r3, #1
   8350e:	e012      	b.n	83536 <osc_is_ready+0x5e>
		return pmc_osc_is_ready_32kxtal();
   83510:	4b0b      	ldr	r3, [pc, #44]	; (83540 <osc_is_ready+0x68>)
   83512:	4798      	blx	r3
   83514:	4603      	mov	r3, r0
   83516:	2b00      	cmp	r3, #0
   83518:	bf14      	ite	ne
   8351a:	2301      	movne	r3, #1
   8351c:	2300      	moveq	r3, #0
   8351e:	b2db      	uxtb	r3, r3
   83520:	e009      	b.n	83536 <osc_is_ready+0x5e>
		return pmc_osc_is_ready_mainck();
   83522:	4b08      	ldr	r3, [pc, #32]	; (83544 <osc_is_ready+0x6c>)
   83524:	4798      	blx	r3
   83526:	4603      	mov	r3, r0
   83528:	2b00      	cmp	r3, #0
   8352a:	bf14      	ite	ne
   8352c:	2301      	movne	r3, #1
   8352e:	2300      	moveq	r3, #0
   83530:	b2db      	uxtb	r3, r3
   83532:	e000      	b.n	83536 <osc_is_ready+0x5e>
	return 0;
   83534:	2300      	movs	r3, #0
}
   83536:	4618      	mov	r0, r3
   83538:	3708      	adds	r7, #8
   8353a:	46bd      	mov	sp, r7
   8353c:	bd80      	pop	{r7, pc}
   8353e:	bf00      	nop
   83540:	00083ac5 	.word	0x00083ac5
   83544:	00083be1 	.word	0x00083be1

00083548 <osc_get_rate>:
{
   83548:	b480      	push	{r7}
   8354a:	b083      	sub	sp, #12
   8354c:	af00      	add	r7, sp, #0
   8354e:	6078      	str	r0, [r7, #4]
	switch (ul_id) {
   83550:	687b      	ldr	r3, [r7, #4]
   83552:	2b07      	cmp	r3, #7
   83554:	d825      	bhi.n	835a2 <osc_get_rate+0x5a>
   83556:	a201      	add	r2, pc, #4	; (adr r2, 8355c <osc_get_rate+0x14>)
   83558:	f852 f023 	ldr.w	pc, [r2, r3, lsl #2]
   8355c:	0008357d 	.word	0x0008357d
   83560:	00083583 	.word	0x00083583
   83564:	00083589 	.word	0x00083589
   83568:	0008358f 	.word	0x0008358f
   8356c:	00083593 	.word	0x00083593
   83570:	00083597 	.word	0x00083597
   83574:	0008359b 	.word	0x0008359b
   83578:	0008359f 	.word	0x0008359f
		return OSC_SLCK_32K_RC_HZ;
   8357c:	f44f 43fa 	mov.w	r3, #32000	; 0x7d00
   83580:	e010      	b.n	835a4 <osc_get_rate+0x5c>
		return BOARD_FREQ_SLCK_XTAL;
   83582:	f44f 4300 	mov.w	r3, #32768	; 0x8000
   83586:	e00d      	b.n	835a4 <osc_get_rate+0x5c>
		return BOARD_FREQ_SLCK_BYPASS;
   83588:	f44f 4300 	mov.w	r3, #32768	; 0x8000
   8358c:	e00a      	b.n	835a4 <osc_get_rate+0x5c>
		return OSC_MAINCK_4M_RC_HZ;
   8358e:	4b08      	ldr	r3, [pc, #32]	; (835b0 <osc_get_rate+0x68>)
   83590:	e008      	b.n	835a4 <osc_get_rate+0x5c>
		return OSC_MAINCK_8M_RC_HZ;
   83592:	4b08      	ldr	r3, [pc, #32]	; (835b4 <osc_get_rate+0x6c>)
   83594:	e006      	b.n	835a4 <osc_get_rate+0x5c>
		return OSC_MAINCK_12M_RC_HZ;
   83596:	4b08      	ldr	r3, [pc, #32]	; (835b8 <osc_get_rate+0x70>)
   83598:	e004      	b.n	835a4 <osc_get_rate+0x5c>
		return BOARD_FREQ_MAINCK_XTAL;
   8359a:	4b07      	ldr	r3, [pc, #28]	; (835b8 <osc_get_rate+0x70>)
   8359c:	e002      	b.n	835a4 <osc_get_rate+0x5c>
		return BOARD_FREQ_MAINCK_BYPASS;
   8359e:	4b06      	ldr	r3, [pc, #24]	; (835b8 <osc_get_rate+0x70>)
   835a0:	e000      	b.n	835a4 <osc_get_rate+0x5c>
	return 0;
   835a2:	2300      	movs	r3, #0
}
   835a4:	4618      	mov	r0, r3
   835a6:	370c      	adds	r7, #12
   835a8:	46bd      	mov	sp, r7
   835aa:	bc80      	pop	{r7}
   835ac:	4770      	bx	lr
   835ae:	bf00      	nop
   835b0:	003d0900 	.word	0x003d0900
   835b4:	007a1200 	.word	0x007a1200
   835b8:	00b71b00 	.word	0x00b71b00

000835bc <osc_wait_ready>:
 * to become stable and ready to use as a clock source.
 *
 * \param id A number identifying the oscillator to wait for.
 */
static inline void osc_wait_ready(uint8_t id)
{
   835bc:	b580      	push	{r7, lr}
   835be:	b082      	sub	sp, #8
   835c0:	af00      	add	r7, sp, #0
   835c2:	4603      	mov	r3, r0
   835c4:	71fb      	strb	r3, [r7, #7]
	while (!osc_is_ready(id)) {
   835c6:	bf00      	nop
   835c8:	79fb      	ldrb	r3, [r7, #7]
   835ca:	4618      	mov	r0, r3
   835cc:	4b05      	ldr	r3, [pc, #20]	; (835e4 <osc_wait_ready+0x28>)
   835ce:	4798      	blx	r3
   835d0:	4603      	mov	r3, r0
   835d2:	f083 0301 	eor.w	r3, r3, #1
   835d6:	b2db      	uxtb	r3, r3
   835d8:	2b00      	cmp	r3, #0
   835da:	d1f5      	bne.n	835c8 <osc_wait_ready+0xc>
		/* Do nothing */
	}
}
   835dc:	bf00      	nop
   835de:	3708      	adds	r7, #8
   835e0:	46bd      	mov	sp, r7
   835e2:	bd80      	pop	{r7, pc}
   835e4:	000834d9 	.word	0x000834d9

000835e8 <pll_config_init>:
 * \note The SAM3X PLL hardware interprets mul as mul+1. For readability the hardware mul+1
 * is hidden in this implementation. Use mul as mul effective value.
 */
static inline void pll_config_init(struct pll_config *p_cfg,
		enum pll_source e_src, uint32_t ul_div, uint32_t ul_mul)
{
   835e8:	b580      	push	{r7, lr}
   835ea:	b086      	sub	sp, #24
   835ec:	af00      	add	r7, sp, #0
   835ee:	60f8      	str	r0, [r7, #12]
   835f0:	607a      	str	r2, [r7, #4]
   835f2:	603b      	str	r3, [r7, #0]
   835f4:	460b      	mov	r3, r1
   835f6:	72fb      	strb	r3, [r7, #11]
	uint32_t vco_hz;

	Assert(e_src < PLL_NR_SOURCES);

	if (ul_div == 0 && ul_mul == 0) { /* Must only be true for UTMI PLL */
   835f8:	687b      	ldr	r3, [r7, #4]
   835fa:	2b00      	cmp	r3, #0
   835fc:	d107      	bne.n	8360e <pll_config_init+0x26>
   835fe:	683b      	ldr	r3, [r7, #0]
   83600:	2b00      	cmp	r3, #0
   83602:	d104      	bne.n	8360e <pll_config_init+0x26>
		p_cfg->ctrl = CKGR_UCKR_UPLLCOUNT(PLL_COUNT);
   83604:	68fb      	ldr	r3, [r7, #12]
   83606:	f44f 0270 	mov.w	r2, #15728640	; 0xf00000
   8360a:	601a      	str	r2, [r3, #0]
   8360c:	e019      	b.n	83642 <pll_config_init+0x5a>
	} else { /* PLLA */
		/* Calculate internal VCO frequency */
		vco_hz = osc_get_rate(e_src) / ul_div;
   8360e:	7afb      	ldrb	r3, [r7, #11]
   83610:	4618      	mov	r0, r3
   83612:	4b0e      	ldr	r3, [pc, #56]	; (8364c <pll_config_init+0x64>)
   83614:	4798      	blx	r3
   83616:	4602      	mov	r2, r0
   83618:	687b      	ldr	r3, [r7, #4]
   8361a:	fbb2 f3f3 	udiv	r3, r2, r3
   8361e:	617b      	str	r3, [r7, #20]
		Assert(vco_hz >= PLL_INPUT_MIN_HZ);
		Assert(vco_hz <= PLL_INPUT_MAX_HZ);

		vco_hz *= ul_mul;
   83620:	697b      	ldr	r3, [r7, #20]
   83622:	683a      	ldr	r2, [r7, #0]
   83624:	fb02 f303 	mul.w	r3, r2, r3
   83628:	617b      	str	r3, [r7, #20]
		Assert(vco_hz >= PLL_OUTPUT_MIN_HZ);
		Assert(vco_hz <= PLL_OUTPUT_MAX_HZ);

		/* PMC hardware will automatically make it mul+1 */
		p_cfg->ctrl = CKGR_PLLAR_MULA(ul_mul - 1) | CKGR_PLLAR_DIVA(ul_div) | CKGR_PLLAR_PLLACOUNT(PLL_COUNT);
   8362a:	683b      	ldr	r3, [r7, #0]
   8362c:	3b01      	subs	r3, #1
   8362e:	041a      	lsls	r2, r3, #16
   83630:	4b07      	ldr	r3, [pc, #28]	; (83650 <pll_config_init+0x68>)
   83632:	4013      	ands	r3, r2
   83634:	687a      	ldr	r2, [r7, #4]
   83636:	b2d2      	uxtb	r2, r2
   83638:	4313      	orrs	r3, r2
   8363a:	f443 527c 	orr.w	r2, r3, #16128	; 0x3f00
   8363e:	68fb      	ldr	r3, [r7, #12]
   83640:	601a      	str	r2, [r3, #0]
	}
}
   83642:	bf00      	nop
   83644:	3718      	adds	r7, #24
   83646:	46bd      	mov	sp, r7
   83648:	bd80      	pop	{r7, pc}
   8364a:	bf00      	nop
   8364c:	00083549 	.word	0x00083549
   83650:	07ff0000 	.word	0x07ff0000

00083654 <pll_enable>:
		PMC->CKGR_UCKR = p_cfg->ctrl;
	}
}

static inline void pll_enable(const struct pll_config *p_cfg, uint32_t ul_pll_id)
{
   83654:	b580      	push	{r7, lr}
   83656:	b082      	sub	sp, #8
   83658:	af00      	add	r7, sp, #0
   8365a:	6078      	str	r0, [r7, #4]
   8365c:	6039      	str	r1, [r7, #0]
	Assert(ul_pll_id < NR_PLLS);

	if (ul_pll_id == PLLA_ID) {
   8365e:	683b      	ldr	r3, [r7, #0]
   83660:	2b00      	cmp	r3, #0
   83662:	d108      	bne.n	83676 <pll_enable+0x22>
		pmc_disable_pllack(); // Always stop PLL first!
   83664:	4b09      	ldr	r3, [pc, #36]	; (8368c <pll_enable+0x38>)
   83666:	4798      	blx	r3
		PMC->CKGR_PLLAR = CKGR_PLLAR_ONE | p_cfg->ctrl;
   83668:	4a09      	ldr	r2, [pc, #36]	; (83690 <pll_enable+0x3c>)
   8366a:	687b      	ldr	r3, [r7, #4]
   8366c:	681b      	ldr	r3, [r3, #0]
   8366e:	f043 5300 	orr.w	r3, r3, #536870912	; 0x20000000
   83672:	6293      	str	r3, [r2, #40]	; 0x28
	} else {
		PMC->CKGR_UCKR = p_cfg->ctrl | CKGR_UCKR_UPLLEN;
	}
}
   83674:	e005      	b.n	83682 <pll_enable+0x2e>
		PMC->CKGR_UCKR = p_cfg->ctrl | CKGR_UCKR_UPLLEN;
   83676:	4a06      	ldr	r2, [pc, #24]	; (83690 <pll_enable+0x3c>)
   83678:	687b      	ldr	r3, [r7, #4]
   8367a:	681b      	ldr	r3, [r3, #0]
   8367c:	f443 3380 	orr.w	r3, r3, #65536	; 0x10000
   83680:	61d3      	str	r3, [r2, #28]
}
   83682:	bf00      	nop
   83684:	3708      	adds	r7, #8
   83686:	46bd      	mov	sp, r7
   83688:	bd80      	pop	{r7, pc}
   8368a:	bf00      	nop
   8368c:	00083bf9 	.word	0x00083bf9
   83690:	400e0600 	.word	0x400e0600

00083694 <pll_is_locked>:
		PMC->CKGR_UCKR &= ~CKGR_UCKR_UPLLEN;
	}
}

static inline uint32_t pll_is_locked(uint32_t ul_pll_id)
{
   83694:	b580      	push	{r7, lr}
   83696:	b082      	sub	sp, #8
   83698:	af00      	add	r7, sp, #0
   8369a:	6078      	str	r0, [r7, #4]
	Assert(ul_pll_id < NR_PLLS);

	if (ul_pll_id == PLLA_ID) {
   8369c:	687b      	ldr	r3, [r7, #4]
   8369e:	2b00      	cmp	r3, #0
   836a0:	d103      	bne.n	836aa <pll_is_locked+0x16>
		return pmc_is_locked_pllack();
   836a2:	4b05      	ldr	r3, [pc, #20]	; (836b8 <pll_is_locked+0x24>)
   836a4:	4798      	blx	r3
   836a6:	4603      	mov	r3, r0
   836a8:	e002      	b.n	836b0 <pll_is_locked+0x1c>
	} else {
		return pmc_is_locked_upll();
   836aa:	4b04      	ldr	r3, [pc, #16]	; (836bc <pll_is_locked+0x28>)
   836ac:	4798      	blx	r3
   836ae:	4603      	mov	r3, r0
	}
}
   836b0:	4618      	mov	r0, r3
   836b2:	3708      	adds	r7, #8
   836b4:	46bd      	mov	sp, r7
   836b6:	bd80      	pop	{r7, pc}
   836b8:	00083c11 	.word	0x00083c11
   836bc:	00083c29 	.word	0x00083c29

000836c0 <pll_enable_source>:

static inline void pll_enable_source(enum pll_source e_src)
{
   836c0:	b580      	push	{r7, lr}
   836c2:	b082      	sub	sp, #8
   836c4:	af00      	add	r7, sp, #0
   836c6:	4603      	mov	r3, r0
   836c8:	71fb      	strb	r3, [r7, #7]
	switch (e_src) {
   836ca:	79fb      	ldrb	r3, [r7, #7]
   836cc:	3b03      	subs	r3, #3
   836ce:	2b04      	cmp	r3, #4
   836d0:	d808      	bhi.n	836e4 <pll_enable_source+0x24>
	case PLL_SRC_MAINCK_4M_RC:
	case PLL_SRC_MAINCK_8M_RC:
	case PLL_SRC_MAINCK_12M_RC:
	case PLL_SRC_MAINCK_XTAL:
	case PLL_SRC_MAINCK_BYPASS:
		osc_enable(e_src);
   836d2:	79fb      	ldrb	r3, [r7, #7]
   836d4:	4618      	mov	r0, r3
   836d6:	4b06      	ldr	r3, [pc, #24]	; (836f0 <pll_enable_source+0x30>)
   836d8:	4798      	blx	r3
		osc_wait_ready(e_src);
   836da:	79fb      	ldrb	r3, [r7, #7]
   836dc:	4618      	mov	r0, r3
   836de:	4b05      	ldr	r3, [pc, #20]	; (836f4 <pll_enable_source+0x34>)
   836e0:	4798      	blx	r3
		break;
   836e2:	e000      	b.n	836e6 <pll_enable_source+0x26>

	default:
		Assert(false);
		break;
   836e4:	bf00      	nop
	}
}
   836e6:	bf00      	nop
   836e8:	3708      	adds	r7, #8
   836ea:	46bd      	mov	sp, r7
   836ec:	bd80      	pop	{r7, pc}
   836ee:	bf00      	nop
   836f0:	00083451 	.word	0x00083451
   836f4:	000835bd 	.word	0x000835bd

000836f8 <pll_wait_for_lock>:
 *
 * \retval STATUS_OK The PLL is now locked.
 * \retval ERR_TIMEOUT Timed out waiting for PLL to become locked.
 */
static inline int pll_wait_for_lock(unsigned int pll_id)
{
   836f8:	b580      	push	{r7, lr}
   836fa:	b082      	sub	sp, #8
   836fc:	af00      	add	r7, sp, #0
   836fe:	6078      	str	r0, [r7, #4]
	Assert(pll_id < NR_PLLS);

	while (!pll_is_locked(pll_id)) {
   83700:	bf00      	nop
   83702:	6878      	ldr	r0, [r7, #4]
   83704:	4b04      	ldr	r3, [pc, #16]	; (83718 <pll_wait_for_lock+0x20>)
   83706:	4798      	blx	r3
   83708:	4603      	mov	r3, r0
   8370a:	2b00      	cmp	r3, #0
   8370c:	d0f9      	beq.n	83702 <pll_wait_for_lock+0xa>
		/* Do nothing */
	}

	return 0;
   8370e:	2300      	movs	r3, #0
}
   83710:	4618      	mov	r0, r3
   83712:	3708      	adds	r7, #8
   83714:	46bd      	mov	sp, r7
   83716:	bd80      	pop	{r7, pc}
   83718:	00083695 	.word	0x00083695

0008371c <sysclk_get_main_hz>:
{
   8371c:	b580      	push	{r7, lr}
   8371e:	af00      	add	r7, sp, #0
		return pll_get_default_rate(0);
   83720:	2006      	movs	r0, #6
   83722:	4b04      	ldr	r3, [pc, #16]	; (83734 <sysclk_get_main_hz+0x18>)
   83724:	4798      	blx	r3
   83726:	4602      	mov	r2, r0
   83728:	4613      	mov	r3, r2
   8372a:	00db      	lsls	r3, r3, #3
   8372c:	1a9b      	subs	r3, r3, r2
   8372e:	005b      	lsls	r3, r3, #1
}
   83730:	4618      	mov	r0, r3
   83732:	bd80      	pop	{r7, pc}
   83734:	00083549 	.word	0x00083549

00083738 <sysclk_get_cpu_hz>:
{
   83738:	b580      	push	{r7, lr}
   8373a:	af00      	add	r7, sp, #0
	return sysclk_get_main_hz() /
   8373c:	4b02      	ldr	r3, [pc, #8]	; (83748 <sysclk_get_cpu_hz+0x10>)
   8373e:	4798      	blx	r3
   83740:	4603      	mov	r3, r0
   83742:	085b      	lsrs	r3, r3, #1
}
   83744:	4618      	mov	r0, r3
   83746:	bd80      	pop	{r7, pc}
   83748:	0008371d 	.word	0x0008371d

0008374c <sysclk_init>:
	pmc_disable_udpck();
}
#endif // CONFIG_USBCLK_SOURCE

void sysclk_init(void)
{
   8374c:	b590      	push	{r4, r7, lr}
   8374e:	b083      	sub	sp, #12
   83750:	af00      	add	r7, sp, #0
	struct pll_config pllcfg;

	/* Set flash wait state to max in case the below clock switching. */
	system_init_flash(CHIP_FREQ_CPU_MAX);
   83752:	4811      	ldr	r0, [pc, #68]	; (83798 <sysclk_init+0x4c>)
   83754:	4b11      	ldr	r3, [pc, #68]	; (8379c <sysclk_init+0x50>)
   83756:	4798      	blx	r3
		pmc_switch_mck_to_mainck(CONFIG_SYSCLK_PRES);
	}

#ifdef CONFIG_PLL0_SOURCE
	else if (CONFIG_SYSCLK_SOURCE == SYSCLK_SRC_PLLACK) {
		pll_enable_source(CONFIG_PLL0_SOURCE);
   83758:	2006      	movs	r0, #6
   8375a:	4b11      	ldr	r3, [pc, #68]	; (837a0 <sysclk_init+0x54>)
   8375c:	4798      	blx	r3
		pll_config_defaults(&pllcfg, 0);
   8375e:	1d38      	adds	r0, r7, #4
   83760:	230e      	movs	r3, #14
   83762:	2201      	movs	r2, #1
   83764:	2106      	movs	r1, #6
   83766:	4c0f      	ldr	r4, [pc, #60]	; (837a4 <sysclk_init+0x58>)
   83768:	47a0      	blx	r4
		pll_enable(&pllcfg, 0);
   8376a:	1d3b      	adds	r3, r7, #4
   8376c:	2100      	movs	r1, #0
   8376e:	4618      	mov	r0, r3
   83770:	4b0d      	ldr	r3, [pc, #52]	; (837a8 <sysclk_init+0x5c>)
   83772:	4798      	blx	r3
		pll_wait_for_lock(0);
   83774:	2000      	movs	r0, #0
   83776:	4b0d      	ldr	r3, [pc, #52]	; (837ac <sysclk_init+0x60>)
   83778:	4798      	blx	r3
		pmc_switch_mck_to_pllack(CONFIG_SYSCLK_PRES);
   8377a:	2010      	movs	r0, #16
   8377c:	4b0c      	ldr	r3, [pc, #48]	; (837b0 <sysclk_init+0x64>)
   8377e:	4798      	blx	r3
		pll_wait_for_lock(1);
		pmc_switch_mck_to_upllck(CONFIG_SYSCLK_PRES);
	}

	/* Update the SystemFrequency variable */
	SystemCoreClockUpdate();
   83780:	4b0c      	ldr	r3, [pc, #48]	; (837b4 <sysclk_init+0x68>)
   83782:	4798      	blx	r3

	/* Set a flash wait state depending on the new cpu frequency */
	system_init_flash(sysclk_get_cpu_hz());
   83784:	4b0c      	ldr	r3, [pc, #48]	; (837b8 <sysclk_init+0x6c>)
   83786:	4798      	blx	r3
   83788:	4603      	mov	r3, r0
   8378a:	4618      	mov	r0, r3
   8378c:	4b03      	ldr	r3, [pc, #12]	; (8379c <sysclk_init+0x50>)
   8378e:	4798      	blx	r3

#if (defined CONFIG_SYSCLK_DEFAULT_RETURNS_SLOW_OSC)
	/* Signal that the internal frequencies are setup */
	sysclk_initialized = 1;
#endif
}
   83790:	bf00      	nop
   83792:	370c      	adds	r7, #12
   83794:	46bd      	mov	sp, r7
   83796:	bd90      	pop	{r4, r7, pc}
   83798:	0501bd00 	.word	0x0501bd00
   8379c:	200700d1 	.word	0x200700d1
   837a0:	000836c1 	.word	0x000836c1
   837a4:	000835e9 	.word	0x000835e9
   837a8:	00083655 	.word	0x00083655
   837ac:	000836f9 	.word	0x000836f9
   837b0:	00083a0d 	.word	0x00083a0d
   837b4:	000843d5 	.word	0x000843d5
   837b8:	00083739 	.word	0x00083739

000837bc <dmac_init>:
 *
 * \param[in,out] p_dmac Module hardware register base address pointer
 */
void dmac_init(
		Dmac *p_dmac)
{
   837bc:	b580      	push	{r7, lr}
   837be:	b082      	sub	sp, #8
   837c0:	af00      	add	r7, sp, #0
   837c2:	6078      	str	r0, [r7, #4]
	dmac_disable(p_dmac);
   837c4:	6878      	ldr	r0, [r7, #4]
   837c6:	4b03      	ldr	r3, [pc, #12]	; (837d4 <dmac_init+0x18>)
   837c8:	4798      	blx	r3
}
   837ca:	bf00      	nop
   837cc:	3708      	adds	r7, #8
   837ce:	46bd      	mov	sp, r7
   837d0:	bd80      	pop	{r7, pc}
   837d2:	bf00      	nop
   837d4:	00083817 	.word	0x00083817

000837d8 <dmac_set_priority_mode>:
 * \param[in] mode       \ref dmac_priority_mode_t "Priority mode"
 */
void dmac_set_priority_mode(
		Dmac *p_dmac,
		dmac_priority_mode_t mode)
{
   837d8:	b480      	push	{r7}
   837da:	b083      	sub	sp, #12
   837dc:	af00      	add	r7, sp, #0
   837de:	6078      	str	r0, [r7, #4]
   837e0:	460b      	mov	r3, r1
   837e2:	70fb      	strb	r3, [r7, #3]
	/* Validate parameters. */
	Assert(p_dmac);
	
	p_dmac->DMAC_GCFG = (p_dmac->DMAC_GCFG & (~DMAC_GCFG_ARB_CFG)) | mode;
   837e4:	687b      	ldr	r3, [r7, #4]
   837e6:	681b      	ldr	r3, [r3, #0]
   837e8:	f023 0210 	bic.w	r2, r3, #16
   837ec:	78fb      	ldrb	r3, [r7, #3]
   837ee:	431a      	orrs	r2, r3
   837f0:	687b      	ldr	r3, [r7, #4]
   837f2:	601a      	str	r2, [r3, #0]
}
   837f4:	bf00      	nop
   837f6:	370c      	adds	r7, #12
   837f8:	46bd      	mov	sp, r7
   837fa:	bc80      	pop	{r7}
   837fc:	4770      	bx	lr

000837fe <dmac_enable>:
 *
 * \param[out] p_dmac Module hardware register base address pointer
 */
void dmac_enable(
		Dmac *p_dmac)
{
   837fe:	b480      	push	{r7}
   83800:	b083      	sub	sp, #12
   83802:	af00      	add	r7, sp, #0
   83804:	6078      	str	r0, [r7, #4]
	/* Validate parameters. */
	Assert(p_dmac);
	
	p_dmac->DMAC_EN = DMAC_EN_ENABLE;
   83806:	687b      	ldr	r3, [r7, #4]
   83808:	2201      	movs	r2, #1
   8380a:	605a      	str	r2, [r3, #4]
}
   8380c:	bf00      	nop
   8380e:	370c      	adds	r7, #12
   83810:	46bd      	mov	sp, r7
   83812:	bc80      	pop	{r7}
   83814:	4770      	bx	lr

00083816 <dmac_disable>:
 *
 * \param[in,out] p_dmac Module hardware register base address pointer
 */
void dmac_disable(
		Dmac *p_dmac)
{
   83816:	b480      	push	{r7}
   83818:	b083      	sub	sp, #12
   8381a:	af00      	add	r7, sp, #0
   8381c:	6078      	str	r0, [r7, #4]
	/* Validate parameters. */
	Assert(p_dmac);
	
	p_dmac->DMAC_EN &= (~DMAC_EN_ENABLE);
   8381e:	687b      	ldr	r3, [r7, #4]
   83820:	685b      	ldr	r3, [r3, #4]
   83822:	f023 0201 	bic.w	r2, r3, #1
   83826:	687b      	ldr	r3, [r7, #4]
   83828:	605a      	str	r2, [r3, #4]
}
   8382a:	bf00      	nop
   8382c:	370c      	adds	r7, #12
   8382e:	46bd      	mov	sp, r7
   83830:	bc80      	pop	{r7}
   83832:	4770      	bx	lr

00083834 <dmac_enable_interrupt>:
 * </table>
 */
void dmac_enable_interrupt(
		Dmac *p_dmac,
		uint32_t ul_mask)
{
   83834:	b480      	push	{r7}
   83836:	b083      	sub	sp, #12
   83838:	af00      	add	r7, sp, #0
   8383a:	6078      	str	r0, [r7, #4]
   8383c:	6039      	str	r1, [r7, #0]
	/* Validate parameters. */
	Assert(p_dmac);
	
	p_dmac->DMAC_EBCIER = ul_mask;
   8383e:	687b      	ldr	r3, [r7, #4]
   83840:	683a      	ldr	r2, [r7, #0]
   83842:	619a      	str	r2, [r3, #24]
}
   83844:	bf00      	nop
   83846:	370c      	adds	r7, #12
   83848:	46bd      	mov	sp, r7
   8384a:	bc80      	pop	{r7}
   8384c:	4770      	bx	lr

0008384e <dmac_get_status>:
 * Buffer Transfer and Chained Buffer Transfer Status Register" in the
 * device-specific datasheet for more information.
 */
uint32_t dmac_get_status(
		Dmac *p_dmac)
{
   8384e:	b480      	push	{r7}
   83850:	b083      	sub	sp, #12
   83852:	af00      	add	r7, sp, #0
   83854:	6078      	str	r0, [r7, #4]
	/* Validate parameters. */
	Assert(p_dmac);
	
	return p_dmac->DMAC_EBCISR;
   83856:	687b      	ldr	r3, [r7, #4]
   83858:	6a5b      	ldr	r3, [r3, #36]	; 0x24
}
   8385a:	4618      	mov	r0, r3
   8385c:	370c      	adds	r7, #12
   8385e:	46bd      	mov	sp, r7
   83860:	bc80      	pop	{r7}
   83862:	4770      	bx	lr

00083864 <dmac_channel_enable>:
 * \param[in] ul_num  DMA Channel number (range 0 to 3)
 */
void dmac_channel_enable(
		Dmac *p_dmac,
		uint32_t ul_num)
{
   83864:	b480      	push	{r7}
   83866:	b083      	sub	sp, #12
   83868:	af00      	add	r7, sp, #0
   8386a:	6078      	str	r0, [r7, #4]
   8386c:	6039      	str	r1, [r7, #0]
	/* Validate parameters. */
	Assert(p_dmac);
	Assert(ul_num<=3);
	
	p_dmac->DMAC_CHER = DMAC_CHER_ENA0 << ul_num;
   8386e:	2201      	movs	r2, #1
   83870:	683b      	ldr	r3, [r7, #0]
   83872:	409a      	lsls	r2, r3
   83874:	687b      	ldr	r3, [r7, #4]
   83876:	629a      	str	r2, [r3, #40]	; 0x28
}
   83878:	bf00      	nop
   8387a:	370c      	adds	r7, #12
   8387c:	46bd      	mov	sp, r7
   8387e:	bc80      	pop	{r7}
   83880:	4770      	bx	lr

00083882 <dmac_channel_disable>:
 * \param[in] ul_num  DMA Channel number (range 0 to 3)
 */
void dmac_channel_disable(
		Dmac *p_dmac,
		uint32_t ul_num)
{
   83882:	b480      	push	{r7}
   83884:	b083      	sub	sp, #12
   83886:	af00      	add	r7, sp, #0
   83888:	6078      	str	r0, [r7, #4]
   8388a:	6039      	str	r1, [r7, #0]
	/* Validate parameters. */
	Assert(p_dmac);
	Assert(ul_num<=3);
	
	p_dmac->DMAC_CHDR = DMAC_CHDR_DIS0 << ul_num;
   8388c:	2201      	movs	r2, #1
   8388e:	683b      	ldr	r3, [r7, #0]
   83890:	409a      	lsls	r2, r3
   83892:	687b      	ldr	r3, [r7, #4]
   83894:	62da      	str	r2, [r3, #44]	; 0x2c
}
   83896:	bf00      	nop
   83898:	370c      	adds	r7, #12
   8389a:	46bd      	mov	sp, r7
   8389c:	bc80      	pop	{r7}
   8389e:	4770      	bx	lr

000838a0 <dmac_channel_set_source_addr>:
 */
void dmac_channel_set_source_addr(
		Dmac *p_dmac,
		uint32_t ul_num,
		uint32_t ul_addr)
{
   838a0:	b480      	push	{r7}
   838a2:	b085      	sub	sp, #20
   838a4:	af00      	add	r7, sp, #0
   838a6:	60f8      	str	r0, [r7, #12]
   838a8:	60b9      	str	r1, [r7, #8]
   838aa:	607a      	str	r2, [r7, #4]
	/* Validate parameters. */
	Assert(p_dmac);
	Assert(ul_num<=3);
	
	p_dmac->DMAC_CH_NUM[ul_num].DMAC_SADDR = ul_addr;
   838ac:	68f9      	ldr	r1, [r7, #12]
   838ae:	68ba      	ldr	r2, [r7, #8]
   838b0:	4613      	mov	r3, r2
   838b2:	009b      	lsls	r3, r3, #2
   838b4:	4413      	add	r3, r2
   838b6:	00db      	lsls	r3, r3, #3
   838b8:	440b      	add	r3, r1
   838ba:	333c      	adds	r3, #60	; 0x3c
   838bc:	687a      	ldr	r2, [r7, #4]
   838be:	601a      	str	r2, [r3, #0]
}
   838c0:	bf00      	nop
   838c2:	3714      	adds	r7, #20
   838c4:	46bd      	mov	sp, r7
   838c6:	bc80      	pop	{r7}
   838c8:	4770      	bx	lr

000838ca <dmac_channel_set_destination_addr>:
 */
void dmac_channel_set_destination_addr(
		Dmac *p_dmac, 
		uint32_t ul_num,
		uint32_t ul_addr)
{
   838ca:	b480      	push	{r7}
   838cc:	b085      	sub	sp, #20
   838ce:	af00      	add	r7, sp, #0
   838d0:	60f8      	str	r0, [r7, #12]
   838d2:	60b9      	str	r1, [r7, #8]
   838d4:	607a      	str	r2, [r7, #4]
	/* Validate parameters. */
	Assert(p_dmac);
	Assert(ul_num<=3);
	
	p_dmac->DMAC_CH_NUM[ul_num].DMAC_DADDR = ul_addr;
   838d6:	68f9      	ldr	r1, [r7, #12]
   838d8:	68ba      	ldr	r2, [r7, #8]
   838da:	4613      	mov	r3, r2
   838dc:	009b      	lsls	r3, r3, #2
   838de:	4413      	add	r3, r2
   838e0:	00db      	lsls	r3, r3, #3
   838e2:	440b      	add	r3, r1
   838e4:	3340      	adds	r3, #64	; 0x40
   838e6:	687a      	ldr	r2, [r7, #4]
   838e8:	601a      	str	r2, [r3, #0]
}
   838ea:	bf00      	nop
   838ec:	3714      	adds	r7, #20
   838ee:	46bd      	mov	sp, r7
   838f0:	bc80      	pop	{r7}
   838f2:	4770      	bx	lr

000838f4 <dmac_channel_set_descriptor_addr>:
 */
void dmac_channel_set_descriptor_addr(
		Dmac *p_dmac,
		uint32_t ul_num,
		uint32_t ul_desc)
{
   838f4:	b480      	push	{r7}
   838f6:	b085      	sub	sp, #20
   838f8:	af00      	add	r7, sp, #0
   838fa:	60f8      	str	r0, [r7, #12]
   838fc:	60b9      	str	r1, [r7, #8]
   838fe:	607a      	str	r2, [r7, #4]
	/* Validate parameters. */
	Assert(p_dmac);
	Assert(ul_num<=3);
	
	p_dmac->DMAC_CH_NUM[ul_num].DMAC_DSCR = ul_desc;
   83900:	68f9      	ldr	r1, [r7, #12]
   83902:	68ba      	ldr	r2, [r7, #8]
   83904:	4613      	mov	r3, r2
   83906:	009b      	lsls	r3, r3, #2
   83908:	4413      	add	r3, r2
   8390a:	00db      	lsls	r3, r3, #3
   8390c:	440b      	add	r3, r1
   8390e:	3344      	adds	r3, #68	; 0x44
   83910:	687a      	ldr	r2, [r7, #4]
   83912:	601a      	str	r2, [r3, #0]
}
   83914:	bf00      	nop
   83916:	3714      	adds	r7, #20
   83918:	46bd      	mov	sp, r7
   8391a:	bc80      	pop	{r7}
   8391c:	4770      	bx	lr

0008391e <dmac_channel_set_ctrlA>:
 */
void dmac_channel_set_ctrlA(
		Dmac *p_dmac, 
		uint32_t ul_num, 
		uint32_t ul_ctrlA)
{
   8391e:	b480      	push	{r7}
   83920:	b085      	sub	sp, #20
   83922:	af00      	add	r7, sp, #0
   83924:	60f8      	str	r0, [r7, #12]
   83926:	60b9      	str	r1, [r7, #8]
   83928:	607a      	str	r2, [r7, #4]
	/* Validate parameters. */
	Assert(p_dmac);
	Assert(ul_num<=3);
	
	p_dmac->DMAC_CH_NUM[ul_num].DMAC_CTRLA = ul_ctrlA;
   8392a:	68f9      	ldr	r1, [r7, #12]
   8392c:	68ba      	ldr	r2, [r7, #8]
   8392e:	4613      	mov	r3, r2
   83930:	009b      	lsls	r3, r3, #2
   83932:	4413      	add	r3, r2
   83934:	00db      	lsls	r3, r3, #3
   83936:	440b      	add	r3, r1
   83938:	3348      	adds	r3, #72	; 0x48
   8393a:	687a      	ldr	r2, [r7, #4]
   8393c:	601a      	str	r2, [r3, #0]
}
   8393e:	bf00      	nop
   83940:	3714      	adds	r7, #20
   83942:	46bd      	mov	sp, r7
   83944:	bc80      	pop	{r7}
   83946:	4770      	bx	lr

00083948 <dmac_channel_set_ctrlB>:
 */
void dmac_channel_set_ctrlB(
		Dmac *p_dmac,
		uint32_t ul_num,
		uint32_t ul_ctrlB)
{
   83948:	b480      	push	{r7}
   8394a:	b085      	sub	sp, #20
   8394c:	af00      	add	r7, sp, #0
   8394e:	60f8      	str	r0, [r7, #12]
   83950:	60b9      	str	r1, [r7, #8]
   83952:	607a      	str	r2, [r7, #4]
	/* Validate parameters. */
	Assert(p_dmac);
	Assert(ul_num<=3);
	
	p_dmac->DMAC_CH_NUM[ul_num].DMAC_CTRLB = ul_ctrlB;
   83954:	68f9      	ldr	r1, [r7, #12]
   83956:	68ba      	ldr	r2, [r7, #8]
   83958:	4613      	mov	r3, r2
   8395a:	009b      	lsls	r3, r3, #2
   8395c:	4413      	add	r3, r2
   8395e:	00db      	lsls	r3, r3, #3
   83960:	440b      	add	r3, r1
   83962:	334c      	adds	r3, #76	; 0x4c
   83964:	687a      	ldr	r2, [r7, #4]
   83966:	601a      	str	r2, [r3, #0]
}
   83968:	bf00      	nop
   8396a:	3714      	adds	r7, #20
   8396c:	46bd      	mov	sp, r7
   8396e:	bc80      	pop	{r7}
   83970:	4770      	bx	lr

00083972 <dmac_channel_set_configuration>:
 */
void dmac_channel_set_configuration(
		Dmac *p_dmac,
		uint32_t ul_num,
		uint32_t ul_cfg)
{
   83972:	b480      	push	{r7}
   83974:	b085      	sub	sp, #20
   83976:	af00      	add	r7, sp, #0
   83978:	60f8      	str	r0, [r7, #12]
   8397a:	60b9      	str	r1, [r7, #8]
   8397c:	607a      	str	r2, [r7, #4]
	/* Validate parameters. */
	Assert(p_dmac);
	Assert(ul_num<=3);
	
	p_dmac->DMAC_CH_NUM[ul_num].DMAC_CFG = ul_cfg;
   8397e:	68f9      	ldr	r1, [r7, #12]
   83980:	68ba      	ldr	r2, [r7, #8]
   83982:	4613      	mov	r3, r2
   83984:	009b      	lsls	r3, r3, #2
   83986:	4413      	add	r3, r2
   83988:	00db      	lsls	r3, r3, #3
   8398a:	440b      	add	r3, r1
   8398c:	3350      	adds	r3, #80	; 0x50
   8398e:	687a      	ldr	r2, [r7, #4]
   83990:	601a      	str	r2, [r3, #0]
}
   83992:	bf00      	nop
   83994:	3714      	adds	r7, #20
   83996:	46bd      	mov	sp, r7
   83998:	bc80      	pop	{r7}
   8399a:	4770      	bx	lr

0008399c <dmac_channel_single_buf_transfer_init>:
 */
void dmac_channel_single_buf_transfer_init(
		Dmac *p_dmac,
		uint32_t ul_num,
		dma_transfer_descriptor_t *p_desc)
{
   8399c:	b580      	push	{r7, lr}
   8399e:	b084      	sub	sp, #16
   839a0:	af00      	add	r7, sp, #0
   839a2:	60f8      	str	r0, [r7, #12]
   839a4:	60b9      	str	r1, [r7, #8]
   839a6:	607a      	str	r2, [r7, #4]
	Assert(p_dmac);
	Assert(ul_num<=3);
	Assert(p_desc);
	
	/* Clear any pending interrupts */
	p_dmac->DMAC_EBCISR;
   839a8:	68fb      	ldr	r3, [r7, #12]
   839aa:	6a5b      	ldr	r3, [r3, #36]	; 0x24

	dmac_channel_set_source_addr(p_dmac, ul_num, p_desc->ul_source_addr);
   839ac:	687b      	ldr	r3, [r7, #4]
   839ae:	681b      	ldr	r3, [r3, #0]
   839b0:	461a      	mov	r2, r3
   839b2:	68b9      	ldr	r1, [r7, #8]
   839b4:	68f8      	ldr	r0, [r7, #12]
   839b6:	4b10      	ldr	r3, [pc, #64]	; (839f8 <dmac_channel_single_buf_transfer_init+0x5c>)
   839b8:	4798      	blx	r3
	dmac_channel_set_destination_addr(p_dmac, ul_num,
   839ba:	687b      	ldr	r3, [r7, #4]
   839bc:	685b      	ldr	r3, [r3, #4]
   839be:	461a      	mov	r2, r3
   839c0:	68b9      	ldr	r1, [r7, #8]
   839c2:	68f8      	ldr	r0, [r7, #12]
   839c4:	4b0d      	ldr	r3, [pc, #52]	; (839fc <dmac_channel_single_buf_transfer_init+0x60>)
   839c6:	4798      	blx	r3
			p_desc->ul_destination_addr);
	dmac_channel_set_descriptor_addr(p_dmac, ul_num, 0);
   839c8:	2200      	movs	r2, #0
   839ca:	68b9      	ldr	r1, [r7, #8]
   839cc:	68f8      	ldr	r0, [r7, #12]
   839ce:	4b0c      	ldr	r3, [pc, #48]	; (83a00 <dmac_channel_single_buf_transfer_init+0x64>)
   839d0:	4798      	blx	r3
	dmac_channel_set_ctrlA(p_dmac, ul_num, p_desc->ul_ctrlA);
   839d2:	687b      	ldr	r3, [r7, #4]
   839d4:	689b      	ldr	r3, [r3, #8]
   839d6:	461a      	mov	r2, r3
   839d8:	68b9      	ldr	r1, [r7, #8]
   839da:	68f8      	ldr	r0, [r7, #12]
   839dc:	4b09      	ldr	r3, [pc, #36]	; (83a04 <dmac_channel_single_buf_transfer_init+0x68>)
   839de:	4798      	blx	r3
	dmac_channel_set_ctrlB(p_dmac, ul_num, p_desc->ul_ctrlB);
   839e0:	687b      	ldr	r3, [r7, #4]
   839e2:	68db      	ldr	r3, [r3, #12]
   839e4:	461a      	mov	r2, r3
   839e6:	68b9      	ldr	r1, [r7, #8]
   839e8:	68f8      	ldr	r0, [r7, #12]
   839ea:	4b07      	ldr	r3, [pc, #28]	; (83a08 <dmac_channel_single_buf_transfer_init+0x6c>)
   839ec:	4798      	blx	r3
}
   839ee:	bf00      	nop
   839f0:	3710      	adds	r7, #16
   839f2:	46bd      	mov	sp, r7
   839f4:	bd80      	pop	{r7, pc}
   839f6:	bf00      	nop
   839f8:	000838a1 	.word	0x000838a1
   839fc:	000838cb 	.word	0x000838cb
   83a00:	000838f5 	.word	0x000838f5
   83a04:	0008391f 	.word	0x0008391f
   83a08:	00083949 	.word	0x00083949

00083a0c <pmc_switch_mck_to_pllack>:
 *
 * \retval 0 Success.
 * \retval 1 Timeout error.
 */
uint32_t pmc_switch_mck_to_pllack(uint32_t ul_pres)
{
   83a0c:	b480      	push	{r7}
   83a0e:	b085      	sub	sp, #20
   83a10:	af00      	add	r7, sp, #0
   83a12:	6078      	str	r0, [r7, #4]
	uint32_t ul_timeout;

	PMC->PMC_MCKR = (PMC->PMC_MCKR & (~PMC_MCKR_PRES_Msk)) | ul_pres;
   83a14:	491c      	ldr	r1, [pc, #112]	; (83a88 <pmc_switch_mck_to_pllack+0x7c>)
   83a16:	4b1c      	ldr	r3, [pc, #112]	; (83a88 <pmc_switch_mck_to_pllack+0x7c>)
   83a18:	6b1b      	ldr	r3, [r3, #48]	; 0x30
   83a1a:	f023 0270 	bic.w	r2, r3, #112	; 0x70
   83a1e:	687b      	ldr	r3, [r7, #4]
   83a20:	4313      	orrs	r3, r2
   83a22:	630b      	str	r3, [r1, #48]	; 0x30
	for (ul_timeout = PMC_TIMEOUT; !(PMC->PMC_SR & PMC_SR_MCKRDY);
   83a24:	f44f 6300 	mov.w	r3, #2048	; 0x800
   83a28:	60fb      	str	r3, [r7, #12]
   83a2a:	e007      	b.n	83a3c <pmc_switch_mck_to_pllack+0x30>
			--ul_timeout) {
		if (ul_timeout == 0) {
   83a2c:	68fb      	ldr	r3, [r7, #12]
   83a2e:	2b00      	cmp	r3, #0
   83a30:	d101      	bne.n	83a36 <pmc_switch_mck_to_pllack+0x2a>
			return 1;
   83a32:	2301      	movs	r3, #1
   83a34:	e023      	b.n	83a7e <pmc_switch_mck_to_pllack+0x72>
			--ul_timeout) {
   83a36:	68fb      	ldr	r3, [r7, #12]
   83a38:	3b01      	subs	r3, #1
   83a3a:	60fb      	str	r3, [r7, #12]
	for (ul_timeout = PMC_TIMEOUT; !(PMC->PMC_SR & PMC_SR_MCKRDY);
   83a3c:	4b12      	ldr	r3, [pc, #72]	; (83a88 <pmc_switch_mck_to_pllack+0x7c>)
   83a3e:	6e9b      	ldr	r3, [r3, #104]	; 0x68
   83a40:	f003 0308 	and.w	r3, r3, #8
   83a44:	2b00      	cmp	r3, #0
   83a46:	d0f1      	beq.n	83a2c <pmc_switch_mck_to_pllack+0x20>
		}
	}

	PMC->PMC_MCKR = (PMC->PMC_MCKR & (~PMC_MCKR_CSS_Msk)) |
   83a48:	4a0f      	ldr	r2, [pc, #60]	; (83a88 <pmc_switch_mck_to_pllack+0x7c>)
   83a4a:	4b0f      	ldr	r3, [pc, #60]	; (83a88 <pmc_switch_mck_to_pllack+0x7c>)
   83a4c:	6b1b      	ldr	r3, [r3, #48]	; 0x30
   83a4e:	f023 0303 	bic.w	r3, r3, #3
   83a52:	f043 0302 	orr.w	r3, r3, #2
   83a56:	6313      	str	r3, [r2, #48]	; 0x30
			PMC_MCKR_CSS_PLLA_CLK;

	for (ul_timeout = PMC_TIMEOUT; !(PMC->PMC_SR & PMC_SR_MCKRDY);
   83a58:	f44f 6300 	mov.w	r3, #2048	; 0x800
   83a5c:	60fb      	str	r3, [r7, #12]
   83a5e:	e007      	b.n	83a70 <pmc_switch_mck_to_pllack+0x64>
			--ul_timeout) {
		if (ul_timeout == 0) {
   83a60:	68fb      	ldr	r3, [r7, #12]
   83a62:	2b00      	cmp	r3, #0
   83a64:	d101      	bne.n	83a6a <pmc_switch_mck_to_pllack+0x5e>
			return 1;
   83a66:	2301      	movs	r3, #1
   83a68:	e009      	b.n	83a7e <pmc_switch_mck_to_pllack+0x72>
			--ul_timeout) {
   83a6a:	68fb      	ldr	r3, [r7, #12]
   83a6c:	3b01      	subs	r3, #1
   83a6e:	60fb      	str	r3, [r7, #12]
	for (ul_timeout = PMC_TIMEOUT; !(PMC->PMC_SR & PMC_SR_MCKRDY);
   83a70:	4b05      	ldr	r3, [pc, #20]	; (83a88 <pmc_switch_mck_to_pllack+0x7c>)
   83a72:	6e9b      	ldr	r3, [r3, #104]	; 0x68
   83a74:	f003 0308 	and.w	r3, r3, #8
   83a78:	2b00      	cmp	r3, #0
   83a7a:	d0f1      	beq.n	83a60 <pmc_switch_mck_to_pllack+0x54>
		}
	}

	return 0;
   83a7c:	2300      	movs	r3, #0
}
   83a7e:	4618      	mov	r0, r3
   83a80:	3714      	adds	r7, #20
   83a82:	46bd      	mov	sp, r7
   83a84:	bc80      	pop	{r7}
   83a86:	4770      	bx	lr
   83a88:	400e0600 	.word	0x400e0600

00083a8c <pmc_switch_sclk_to_32kxtal>:
 *       VDDIO power supply.
 *
 * \param ul_bypass 0 for Xtal, 1 for bypass.
 */
void pmc_switch_sclk_to_32kxtal(uint32_t ul_bypass)
{
   83a8c:	b480      	push	{r7}
   83a8e:	b083      	sub	sp, #12
   83a90:	af00      	add	r7, sp, #0
   83a92:	6078      	str	r0, [r7, #4]
	/* Set Bypass mode if required */
	if (ul_bypass == 1) {
   83a94:	687b      	ldr	r3, [r7, #4]
   83a96:	2b01      	cmp	r3, #1
   83a98:	d107      	bne.n	83aaa <pmc_switch_sclk_to_32kxtal+0x1e>
		SUPC->SUPC_MR |= SUPC_MR_KEY_PASSWD |
   83a9a:	4a08      	ldr	r2, [pc, #32]	; (83abc <pmc_switch_sclk_to_32kxtal+0x30>)
   83a9c:	4b07      	ldr	r3, [pc, #28]	; (83abc <pmc_switch_sclk_to_32kxtal+0x30>)
   83a9e:	689b      	ldr	r3, [r3, #8]
   83aa0:	f043 4325 	orr.w	r3, r3, #2768240640	; 0xa5000000
   83aa4:	f443 1380 	orr.w	r3, r3, #1048576	; 0x100000
   83aa8:	6093      	str	r3, [r2, #8]
			SUPC_MR_OSCBYPASS;
	}

	SUPC->SUPC_CR = SUPC_CR_KEY_PASSWD | SUPC_CR_XTALSEL;
   83aaa:	4b04      	ldr	r3, [pc, #16]	; (83abc <pmc_switch_sclk_to_32kxtal+0x30>)
   83aac:	4a04      	ldr	r2, [pc, #16]	; (83ac0 <pmc_switch_sclk_to_32kxtal+0x34>)
   83aae:	601a      	str	r2, [r3, #0]
}
   83ab0:	bf00      	nop
   83ab2:	370c      	adds	r7, #12
   83ab4:	46bd      	mov	sp, r7
   83ab6:	bc80      	pop	{r7}
   83ab8:	4770      	bx	lr
   83aba:	bf00      	nop
   83abc:	400e1a10 	.word	0x400e1a10
   83ac0:	a5000008 	.word	0xa5000008

00083ac4 <pmc_osc_is_ready_32kxtal>:
 *
 * \retval 1 External 32k Xtal is ready.
 * \retval 0 External 32k Xtal is not ready.
 */
uint32_t pmc_osc_is_ready_32kxtal(void)
{
   83ac4:	b480      	push	{r7}
   83ac6:	af00      	add	r7, sp, #0
	return ((SUPC->SUPC_SR & SUPC_SR_OSCSEL)
   83ac8:	4b09      	ldr	r3, [pc, #36]	; (83af0 <pmc_osc_is_ready_32kxtal+0x2c>)
   83aca:	695b      	ldr	r3, [r3, #20]
   83acc:	f003 0380 	and.w	r3, r3, #128	; 0x80
			&& (PMC->PMC_SR & PMC_SR_OSCSELS));
   83ad0:	2b00      	cmp	r3, #0
   83ad2:	d007      	beq.n	83ae4 <pmc_osc_is_ready_32kxtal+0x20>
   83ad4:	4b07      	ldr	r3, [pc, #28]	; (83af4 <pmc_osc_is_ready_32kxtal+0x30>)
   83ad6:	6e9b      	ldr	r3, [r3, #104]	; 0x68
   83ad8:	f003 0380 	and.w	r3, r3, #128	; 0x80
   83adc:	2b00      	cmp	r3, #0
   83ade:	d001      	beq.n	83ae4 <pmc_osc_is_ready_32kxtal+0x20>
   83ae0:	2301      	movs	r3, #1
   83ae2:	e000      	b.n	83ae6 <pmc_osc_is_ready_32kxtal+0x22>
   83ae4:	2300      	movs	r3, #0
}
   83ae6:	4618      	mov	r0, r3
   83ae8:	46bd      	mov	sp, r7
   83aea:	bc80      	pop	{r7}
   83aec:	4770      	bx	lr
   83aee:	bf00      	nop
   83af0:	400e1a10 	.word	0x400e1a10
   83af4:	400e0600 	.word	0x400e0600

00083af8 <pmc_switch_mainck_to_fastrc>:
 * \retval 0 Success.
 * \retval 1 Timeout error.
 * \retval 2 Invalid frequency.
 */
void pmc_switch_mainck_to_fastrc(uint32_t ul_moscrcf)
{
   83af8:	b480      	push	{r7}
   83afa:	b083      	sub	sp, #12
   83afc:	af00      	add	r7, sp, #0
   83afe:	6078      	str	r0, [r7, #4]
	/* Enable Fast RC oscillator but DO NOT switch to RC now */
	PMC->CKGR_MOR |= (CKGR_MOR_KEY_PASSWD | CKGR_MOR_MOSCRCEN);
   83b00:	4a18      	ldr	r2, [pc, #96]	; (83b64 <pmc_switch_mainck_to_fastrc+0x6c>)
   83b02:	4b18      	ldr	r3, [pc, #96]	; (83b64 <pmc_switch_mainck_to_fastrc+0x6c>)
   83b04:	6a1b      	ldr	r3, [r3, #32]
   83b06:	f443 135c 	orr.w	r3, r3, #3604480	; 0x370000
   83b0a:	f043 0308 	orr.w	r3, r3, #8
   83b0e:	6213      	str	r3, [r2, #32]

	/* Wait the Fast RC to stabilize */
	while (!(PMC->PMC_SR & PMC_SR_MOSCRCS));
   83b10:	bf00      	nop
   83b12:	4b14      	ldr	r3, [pc, #80]	; (83b64 <pmc_switch_mainck_to_fastrc+0x6c>)
   83b14:	6e9b      	ldr	r3, [r3, #104]	; 0x68
   83b16:	f403 3300 	and.w	r3, r3, #131072	; 0x20000
   83b1a:	2b00      	cmp	r3, #0
   83b1c:	d0f9      	beq.n	83b12 <pmc_switch_mainck_to_fastrc+0x1a>

	/* Change Fast RC oscillator frequency */
	PMC->CKGR_MOR = (PMC->CKGR_MOR & ~CKGR_MOR_MOSCRCF_Msk) |
   83b1e:	4911      	ldr	r1, [pc, #68]	; (83b64 <pmc_switch_mainck_to_fastrc+0x6c>)
   83b20:	4b10      	ldr	r3, [pc, #64]	; (83b64 <pmc_switch_mainck_to_fastrc+0x6c>)
   83b22:	6a1b      	ldr	r3, [r3, #32]
   83b24:	f423 135c 	bic.w	r3, r3, #3604480	; 0x370000
   83b28:	f023 0370 	bic.w	r3, r3, #112	; 0x70
			CKGR_MOR_KEY_PASSWD | ul_moscrcf;
   83b2c:	687a      	ldr	r2, [r7, #4]
   83b2e:	4313      	orrs	r3, r2
   83b30:	f443 135c 	orr.w	r3, r3, #3604480	; 0x370000
	PMC->CKGR_MOR = (PMC->CKGR_MOR & ~CKGR_MOR_MOSCRCF_Msk) |
   83b34:	620b      	str	r3, [r1, #32]

	/* Wait the Fast RC to stabilize */
	while (!(PMC->PMC_SR & PMC_SR_MOSCRCS));
   83b36:	bf00      	nop
   83b38:	4b0a      	ldr	r3, [pc, #40]	; (83b64 <pmc_switch_mainck_to_fastrc+0x6c>)
   83b3a:	6e9b      	ldr	r3, [r3, #104]	; 0x68
   83b3c:	f403 3300 	and.w	r3, r3, #131072	; 0x20000
   83b40:	2b00      	cmp	r3, #0
   83b42:	d0f9      	beq.n	83b38 <pmc_switch_mainck_to_fastrc+0x40>

	/* Switch to Fast RC */
	PMC->CKGR_MOR = (PMC->CKGR_MOR & ~CKGR_MOR_MOSCSEL) |
   83b44:	4a07      	ldr	r2, [pc, #28]	; (83b64 <pmc_switch_mainck_to_fastrc+0x6c>)
   83b46:	4b07      	ldr	r3, [pc, #28]	; (83b64 <pmc_switch_mainck_to_fastrc+0x6c>)
   83b48:	6a1b      	ldr	r3, [r3, #32]
   83b4a:	f023 739b 	bic.w	r3, r3, #20316160	; 0x1360000
   83b4e:	f423 3380 	bic.w	r3, r3, #65536	; 0x10000
   83b52:	f443 135c 	orr.w	r3, r3, #3604480	; 0x370000
   83b56:	6213      	str	r3, [r2, #32]
			CKGR_MOR_KEY_PASSWD;
}
   83b58:	bf00      	nop
   83b5a:	370c      	adds	r7, #12
   83b5c:	46bd      	mov	sp, r7
   83b5e:	bc80      	pop	{r7}
   83b60:	4770      	bx	lr
   83b62:	bf00      	nop
   83b64:	400e0600 	.word	0x400e0600

00083b68 <pmc_switch_mainck_to_xtal>:
 * \retval 0 Success.
 * \retval 1 Timeout error.
 */
void pmc_switch_mainck_to_xtal(uint32_t ul_bypass,
		uint32_t ul_xtal_startup_time)
{
   83b68:	b480      	push	{r7}
   83b6a:	b083      	sub	sp, #12
   83b6c:	af00      	add	r7, sp, #0
   83b6e:	6078      	str	r0, [r7, #4]
   83b70:	6039      	str	r1, [r7, #0]
	/* Enable Main Xtal oscillator */
	if (ul_bypass) {
   83b72:	687b      	ldr	r3, [r7, #4]
   83b74:	2b00      	cmp	r3, #0
   83b76:	d008      	beq.n	83b8a <pmc_switch_mainck_to_xtal+0x22>
		PMC->CKGR_MOR = (PMC->CKGR_MOR & ~CKGR_MOR_MOSCXTEN) |
   83b78:	4916      	ldr	r1, [pc, #88]	; (83bd4 <pmc_switch_mainck_to_xtal+0x6c>)
   83b7a:	4b16      	ldr	r3, [pc, #88]	; (83bd4 <pmc_switch_mainck_to_xtal+0x6c>)
   83b7c:	6a1b      	ldr	r3, [r3, #32]
				CKGR_MOR_KEY_PASSWD | CKGR_MOR_MOSCXTBY |
   83b7e:	4a16      	ldr	r2, [pc, #88]	; (83bd8 <pmc_switch_mainck_to_xtal+0x70>)
   83b80:	401a      	ands	r2, r3
   83b82:	4b16      	ldr	r3, [pc, #88]	; (83bdc <pmc_switch_mainck_to_xtal+0x74>)
   83b84:	4313      	orrs	r3, r2
		PMC->CKGR_MOR = (PMC->CKGR_MOR & ~CKGR_MOR_MOSCXTEN) |
   83b86:	620b      	str	r3, [r1, #32]
		/* Wait the Xtal to stabilize */
		while (!(PMC->PMC_SR & PMC_SR_MOSCXTS));

		PMC->CKGR_MOR |= CKGR_MOR_KEY_PASSWD | CKGR_MOR_MOSCSEL;
	}
}
   83b88:	e01e      	b.n	83bc8 <pmc_switch_mainck_to_xtal+0x60>
		PMC->CKGR_MOR = (PMC->CKGR_MOR & ~CKGR_MOR_MOSCXTBY) |
   83b8a:	4912      	ldr	r1, [pc, #72]	; (83bd4 <pmc_switch_mainck_to_xtal+0x6c>)
   83b8c:	4b11      	ldr	r3, [pc, #68]	; (83bd4 <pmc_switch_mainck_to_xtal+0x6c>)
   83b8e:	6a1b      	ldr	r3, [r3, #32]
				CKGR_MOR_KEY_PASSWD | CKGR_MOR_MOSCXTEN |
   83b90:	f423 135c 	bic.w	r3, r3, #3604480	; 0x370000
   83b94:	f023 0303 	bic.w	r3, r3, #3
				CKGR_MOR_MOSCXTST(ul_xtal_startup_time);
   83b98:	683a      	ldr	r2, [r7, #0]
   83b9a:	0212      	lsls	r2, r2, #8
   83b9c:	b292      	uxth	r2, r2
				CKGR_MOR_KEY_PASSWD | CKGR_MOR_MOSCXTEN |
   83b9e:	4313      	orrs	r3, r2
   83ba0:	f443 135c 	orr.w	r3, r3, #3604480	; 0x370000
   83ba4:	f043 0301 	orr.w	r3, r3, #1
		PMC->CKGR_MOR = (PMC->CKGR_MOR & ~CKGR_MOR_MOSCXTBY) |
   83ba8:	620b      	str	r3, [r1, #32]
		while (!(PMC->PMC_SR & PMC_SR_MOSCXTS));
   83baa:	bf00      	nop
   83bac:	4b09      	ldr	r3, [pc, #36]	; (83bd4 <pmc_switch_mainck_to_xtal+0x6c>)
   83bae:	6e9b      	ldr	r3, [r3, #104]	; 0x68
   83bb0:	f003 0301 	and.w	r3, r3, #1
   83bb4:	2b00      	cmp	r3, #0
   83bb6:	d0f9      	beq.n	83bac <pmc_switch_mainck_to_xtal+0x44>
		PMC->CKGR_MOR |= CKGR_MOR_KEY_PASSWD | CKGR_MOR_MOSCSEL;
   83bb8:	4a06      	ldr	r2, [pc, #24]	; (83bd4 <pmc_switch_mainck_to_xtal+0x6c>)
   83bba:	4b06      	ldr	r3, [pc, #24]	; (83bd4 <pmc_switch_mainck_to_xtal+0x6c>)
   83bbc:	6a1b      	ldr	r3, [r3, #32]
   83bbe:	f043 739b 	orr.w	r3, r3, #20316160	; 0x1360000
   83bc2:	f443 3380 	orr.w	r3, r3, #65536	; 0x10000
   83bc6:	6213      	str	r3, [r2, #32]
}
   83bc8:	bf00      	nop
   83bca:	370c      	adds	r7, #12
   83bcc:	46bd      	mov	sp, r7
   83bce:	bc80      	pop	{r7}
   83bd0:	4770      	bx	lr
   83bd2:	bf00      	nop
   83bd4:	400e0600 	.word	0x400e0600
   83bd8:	fec8fffc 	.word	0xfec8fffc
   83bdc:	01370002 	.word	0x01370002

00083be0 <pmc_osc_is_ready_mainck>:
 *
 * \retval 1 Xtal is ready.
 * \retval 0 Xtal is not ready.
 */
uint32_t pmc_osc_is_ready_mainck(void)
{
   83be0:	b480      	push	{r7}
   83be2:	af00      	add	r7, sp, #0
	return PMC->PMC_SR & PMC_SR_MOSCSELS;
   83be4:	4b03      	ldr	r3, [pc, #12]	; (83bf4 <pmc_osc_is_ready_mainck+0x14>)
   83be6:	6e9b      	ldr	r3, [r3, #104]	; 0x68
   83be8:	f403 3380 	and.w	r3, r3, #65536	; 0x10000
}
   83bec:	4618      	mov	r0, r3
   83bee:	46bd      	mov	sp, r7
   83bf0:	bc80      	pop	{r7}
   83bf2:	4770      	bx	lr
   83bf4:	400e0600 	.word	0x400e0600

00083bf8 <pmc_disable_pllack>:

/**
 * \brief Disable PLLA clock.
 */
void pmc_disable_pllack(void)
{
   83bf8:	b480      	push	{r7}
   83bfa:	af00      	add	r7, sp, #0
#if (SAM4C || SAM4CM || SAM4CP || SAMG)
	PMC->CKGR_PLLAR = CKGR_PLLAR_MULA(0);
#else
	PMC->CKGR_PLLAR = CKGR_PLLAR_ONE | CKGR_PLLAR_MULA(0);
   83bfc:	4b03      	ldr	r3, [pc, #12]	; (83c0c <pmc_disable_pllack+0x14>)
   83bfe:	f04f 5200 	mov.w	r2, #536870912	; 0x20000000
   83c02:	629a      	str	r2, [r3, #40]	; 0x28
#endif
}
   83c04:	bf00      	nop
   83c06:	46bd      	mov	sp, r7
   83c08:	bc80      	pop	{r7}
   83c0a:	4770      	bx	lr
   83c0c:	400e0600 	.word	0x400e0600

00083c10 <pmc_is_locked_pllack>:
 *
 * \retval 0 Not locked.
 * \retval 1 Locked.
 */
uint32_t pmc_is_locked_pllack(void)
{
   83c10:	b480      	push	{r7}
   83c12:	af00      	add	r7, sp, #0
	return (PMC->PMC_SR & PMC_SR_LOCKA);
   83c14:	4b03      	ldr	r3, [pc, #12]	; (83c24 <pmc_is_locked_pllack+0x14>)
   83c16:	6e9b      	ldr	r3, [r3, #104]	; 0x68
   83c18:	f003 0302 	and.w	r3, r3, #2
}
   83c1c:	4618      	mov	r0, r3
   83c1e:	46bd      	mov	sp, r7
   83c20:	bc80      	pop	{r7}
   83c22:	4770      	bx	lr
   83c24:	400e0600 	.word	0x400e0600

00083c28 <pmc_is_locked_upll>:
 *
 * \retval 0 Not locked.
 * \retval 1 Locked.
 */
uint32_t pmc_is_locked_upll(void)
{
   83c28:	b480      	push	{r7}
   83c2a:	af00      	add	r7, sp, #0
	return (PMC->PMC_SR & PMC_SR_LOCKU);
   83c2c:	4b03      	ldr	r3, [pc, #12]	; (83c3c <pmc_is_locked_upll+0x14>)
   83c2e:	6e9b      	ldr	r3, [r3, #104]	; 0x68
   83c30:	f003 0340 	and.w	r3, r3, #64	; 0x40
}
   83c34:	4618      	mov	r0, r3
   83c36:	46bd      	mov	sp, r7
   83c38:	bc80      	pop	{r7}
   83c3a:	4770      	bx	lr
   83c3c:	400e0600 	.word	0x400e0600

00083c40 <pmc_enable_periph_clk>:
 *
 * \retval 0 Success.
 * \retval 1 Invalid parameter.
 */
uint32_t pmc_enable_periph_clk(uint32_t ul_id)
{
   83c40:	b480      	push	{r7}
   83c42:	b083      	sub	sp, #12
   83c44:	af00      	add	r7, sp, #0
   83c46:	6078      	str	r0, [r7, #4]
	if (ul_id > MAX_PERIPH_ID) {
   83c48:	687b      	ldr	r3, [r7, #4]
   83c4a:	2b2c      	cmp	r3, #44	; 0x2c
   83c4c:	d901      	bls.n	83c52 <pmc_enable_periph_clk+0x12>
		return 1;
   83c4e:	2301      	movs	r3, #1
   83c50:	e02f      	b.n	83cb2 <pmc_enable_periph_clk+0x72>
	}

	if (ul_id < 32) {
   83c52:	687b      	ldr	r3, [r7, #4]
   83c54:	2b1f      	cmp	r3, #31
   83c56:	d813      	bhi.n	83c80 <pmc_enable_periph_clk+0x40>
		if ((PMC->PMC_PCSR0 & (1u << ul_id)) != (1u << ul_id)) {
   83c58:	4b18      	ldr	r3, [pc, #96]	; (83cbc <pmc_enable_periph_clk+0x7c>)
   83c5a:	699a      	ldr	r2, [r3, #24]
   83c5c:	2101      	movs	r1, #1
   83c5e:	687b      	ldr	r3, [r7, #4]
   83c60:	fa01 f303 	lsl.w	r3, r1, r3
   83c64:	401a      	ands	r2, r3
   83c66:	2101      	movs	r1, #1
   83c68:	687b      	ldr	r3, [r7, #4]
   83c6a:	fa01 f303 	lsl.w	r3, r1, r3
   83c6e:	429a      	cmp	r2, r3
   83c70:	d01e      	beq.n	83cb0 <pmc_enable_periph_clk+0x70>
			PMC->PMC_PCER0 = 1 << ul_id;
   83c72:	4a12      	ldr	r2, [pc, #72]	; (83cbc <pmc_enable_periph_clk+0x7c>)
   83c74:	2101      	movs	r1, #1
   83c76:	687b      	ldr	r3, [r7, #4]
   83c78:	fa01 f303 	lsl.w	r3, r1, r3
   83c7c:	6113      	str	r3, [r2, #16]
   83c7e:	e017      	b.n	83cb0 <pmc_enable_periph_clk+0x70>
		}
#if (SAM3S || SAM3XA || SAM4S || SAM4E || SAM4C || SAM4CM || SAM4CP || SAMG55 || SAMV71 || SAMV70 || SAME70 || SAMS70)
	} else {
		ul_id -= 32;
   83c80:	687b      	ldr	r3, [r7, #4]
   83c82:	3b20      	subs	r3, #32
   83c84:	607b      	str	r3, [r7, #4]
		if ((PMC->PMC_PCSR1 & (1u << ul_id)) != (1u << ul_id)) {
   83c86:	4b0d      	ldr	r3, [pc, #52]	; (83cbc <pmc_enable_periph_clk+0x7c>)
   83c88:	f8d3 2108 	ldr.w	r2, [r3, #264]	; 0x108
   83c8c:	2101      	movs	r1, #1
   83c8e:	687b      	ldr	r3, [r7, #4]
   83c90:	fa01 f303 	lsl.w	r3, r1, r3
   83c94:	401a      	ands	r2, r3
   83c96:	2101      	movs	r1, #1
   83c98:	687b      	ldr	r3, [r7, #4]
   83c9a:	fa01 f303 	lsl.w	r3, r1, r3
   83c9e:	429a      	cmp	r2, r3
   83ca0:	d006      	beq.n	83cb0 <pmc_enable_periph_clk+0x70>
			PMC->PMC_PCER1 = 1 << ul_id;
   83ca2:	4a06      	ldr	r2, [pc, #24]	; (83cbc <pmc_enable_periph_clk+0x7c>)
   83ca4:	2101      	movs	r1, #1
   83ca6:	687b      	ldr	r3, [r7, #4]
   83ca8:	fa01 f303 	lsl.w	r3, r1, r3
   83cac:	f8c2 3100 	str.w	r3, [r2, #256]	; 0x100
		}
#endif
	}

	return 0;
   83cb0:	2300      	movs	r3, #0
}
   83cb2:	4618      	mov	r0, r3
   83cb4:	370c      	adds	r7, #12
   83cb6:	46bd      	mov	sp, r7
   83cb8:	bc80      	pop	{r7}
   83cba:	4770      	bx	lr
   83cbc:	400e0600 	.word	0x400e0600

00083cc0 <osc_get_rate>:
{
   83cc0:	b480      	push	{r7}
   83cc2:	b083      	sub	sp, #12
   83cc4:	af00      	add	r7, sp, #0
   83cc6:	6078      	str	r0, [r7, #4]
	switch (ul_id) {
   83cc8:	687b      	ldr	r3, [r7, #4]
   83cca:	2b07      	cmp	r3, #7
   83ccc:	d825      	bhi.n	83d1a <osc_get_rate+0x5a>
   83cce:	a201      	add	r2, pc, #4	; (adr r2, 83cd4 <osc_get_rate+0x14>)
   83cd0:	f852 f023 	ldr.w	pc, [r2, r3, lsl #2]
   83cd4:	00083cf5 	.word	0x00083cf5
   83cd8:	00083cfb 	.word	0x00083cfb
   83cdc:	00083d01 	.word	0x00083d01
   83ce0:	00083d07 	.word	0x00083d07
   83ce4:	00083d0b 	.word	0x00083d0b
   83ce8:	00083d0f 	.word	0x00083d0f
   83cec:	00083d13 	.word	0x00083d13
   83cf0:	00083d17 	.word	0x00083d17
		return OSC_SLCK_32K_RC_HZ;
   83cf4:	f44f 43fa 	mov.w	r3, #32000	; 0x7d00
   83cf8:	e010      	b.n	83d1c <osc_get_rate+0x5c>
		return BOARD_FREQ_SLCK_XTAL;
   83cfa:	f44f 4300 	mov.w	r3, #32768	; 0x8000
   83cfe:	e00d      	b.n	83d1c <osc_get_rate+0x5c>
		return BOARD_FREQ_SLCK_BYPASS;
   83d00:	f44f 4300 	mov.w	r3, #32768	; 0x8000
   83d04:	e00a      	b.n	83d1c <osc_get_rate+0x5c>
		return OSC_MAINCK_4M_RC_HZ;
   83d06:	4b08      	ldr	r3, [pc, #32]	; (83d28 <osc_get_rate+0x68>)
   83d08:	e008      	b.n	83d1c <osc_get_rate+0x5c>
		return OSC_MAINCK_8M_RC_HZ;
   83d0a:	4b08      	ldr	r3, [pc, #32]	; (83d2c <osc_get_rate+0x6c>)
   83d0c:	e006      	b.n	83d1c <osc_get_rate+0x5c>
		return OSC_MAINCK_12M_RC_HZ;
   83d0e:	4b08      	ldr	r3, [pc, #32]	; (83d30 <osc_get_rate+0x70>)
   83d10:	e004      	b.n	83d1c <osc_get_rate+0x5c>
		return BOARD_FREQ_MAINCK_XTAL;
   83d12:	4b07      	ldr	r3, [pc, #28]	; (83d30 <osc_get_rate+0x70>)
   83d14:	e002      	b.n	83d1c <osc_get_rate+0x5c>
		return BOARD_FREQ_MAINCK_BYPASS;
   83d16:	4b06      	ldr	r3, [pc, #24]	; (83d30 <osc_get_rate+0x70>)
   83d18:	e000      	b.n	83d1c <osc_get_rate+0x5c>
	return 0;
   83d1a:	2300      	movs	r3, #0
}
   83d1c:	4618      	mov	r0, r3
   83d1e:	370c      	adds	r7, #12
   83d20:	46bd      	mov	sp, r7
   83d22:	bc80      	pop	{r7}
   83d24:	4770      	bx	lr
   83d26:	bf00      	nop
   83d28:	003d0900 	.word	0x003d0900
   83d2c:	007a1200 	.word	0x007a1200
   83d30:	00b71b00 	.word	0x00b71b00

00083d34 <sysclk_get_main_hz>:
{
   83d34:	b580      	push	{r7, lr}
   83d36:	af00      	add	r7, sp, #0
		return pll_get_default_rate(0);
   83d38:	2006      	movs	r0, #6
   83d3a:	4b04      	ldr	r3, [pc, #16]	; (83d4c <sysclk_get_main_hz+0x18>)
   83d3c:	4798      	blx	r3
   83d3e:	4602      	mov	r2, r0
   83d40:	4613      	mov	r3, r2
   83d42:	00db      	lsls	r3, r3, #3
   83d44:	1a9b      	subs	r3, r3, r2
   83d46:	005b      	lsls	r3, r3, #1
}
   83d48:	4618      	mov	r0, r3
   83d4a:	bd80      	pop	{r7, pc}
   83d4c:	00083cc1 	.word	0x00083cc1

00083d50 <sysclk_get_cpu_hz>:
{
   83d50:	b580      	push	{r7, lr}
   83d52:	af00      	add	r7, sp, #0
	return sysclk_get_main_hz() /
   83d54:	4b02      	ldr	r3, [pc, #8]	; (83d60 <sysclk_get_cpu_hz+0x10>)
   83d56:	4798      	blx	r3
   83d58:	4603      	mov	r3, r0
   83d5a:	085b      	lsrs	r3, r3, #1
}
   83d5c:	4618      	mov	r0, r3
   83d5e:	bd80      	pop	{r7, pc}
   83d60:	00083d35 	.word	0x00083d35

00083d64 <sysclk_enable_peripheral_clock>:
{
   83d64:	b580      	push	{r7, lr}
   83d66:	b082      	sub	sp, #8
   83d68:	af00      	add	r7, sp, #0
   83d6a:	6078      	str	r0, [r7, #4]
	pmc_enable_periph_clk(ul_id);
   83d6c:	6878      	ldr	r0, [r7, #4]
   83d6e:	4b03      	ldr	r3, [pc, #12]	; (83d7c <sysclk_enable_peripheral_clock+0x18>)
   83d70:	4798      	blx	r3
}
   83d72:	bf00      	nop
   83d74:	3708      	adds	r7, #8
   83d76:	46bd      	mov	sp, r7
   83d78:	bd80      	pop	{r7, pc}
   83d7a:	bf00      	nop
   83d7c:	00083c41 	.word	0x00083c41

00083d80 <ioport_init>:
{
   83d80:	b580      	push	{r7, lr}
   83d82:	af00      	add	r7, sp, #0
	sysclk_enable_peripheral_clock(ID_PIOA);
   83d84:	200b      	movs	r0, #11
   83d86:	4b06      	ldr	r3, [pc, #24]	; (83da0 <ioport_init+0x20>)
   83d88:	4798      	blx	r3
	sysclk_enable_peripheral_clock(ID_PIOB);
   83d8a:	200c      	movs	r0, #12
   83d8c:	4b04      	ldr	r3, [pc, #16]	; (83da0 <ioport_init+0x20>)
   83d8e:	4798      	blx	r3
	sysclk_enable_peripheral_clock(ID_PIOC);
   83d90:	200d      	movs	r0, #13
   83d92:	4b03      	ldr	r3, [pc, #12]	; (83da0 <ioport_init+0x20>)
   83d94:	4798      	blx	r3
	sysclk_enable_peripheral_clock(ID_PIOD);
   83d96:	200e      	movs	r0, #14
   83d98:	4b01      	ldr	r3, [pc, #4]	; (83da0 <ioport_init+0x20>)
   83d9a:	4798      	blx	r3
}
   83d9c:	bf00      	nop
   83d9e:	bd80      	pop	{r7, pc}
   83da0:	00083d65 	.word	0x00083d65

00083da4 <ioport_disable_pin>:
{
   83da4:	b480      	push	{r7}
   83da6:	b089      	sub	sp, #36	; 0x24
   83da8:	af00      	add	r7, sp, #0
   83daa:	6078      	str	r0, [r7, #4]
   83dac:	687b      	ldr	r3, [r7, #4]
   83dae:	61fb      	str	r3, [r7, #28]
   83db0:	69fb      	ldr	r3, [r7, #28]
   83db2:	61bb      	str	r3, [r7, #24]
	return pin >> 5;
   83db4:	69bb      	ldr	r3, [r7, #24]
   83db6:	095a      	lsrs	r2, r3, #5
   83db8:	69fb      	ldr	r3, [r7, #28]
   83dba:	617b      	str	r3, [r7, #20]
	return 1U << (pin & 0x1F);
   83dbc:	697b      	ldr	r3, [r7, #20]
   83dbe:	f003 031f 	and.w	r3, r3, #31
   83dc2:	2101      	movs	r1, #1
   83dc4:	fa01 f303 	lsl.w	r3, r1, r3
   83dc8:	613a      	str	r2, [r7, #16]
   83dca:	60fb      	str	r3, [r7, #12]
   83dcc:	693b      	ldr	r3, [r7, #16]
   83dce:	60bb      	str	r3, [r7, #8]
	return (Pio *)((uintptr_t)IOPORT_BASE_ADDRESS +
   83dd0:	68bb      	ldr	r3, [r7, #8]
   83dd2:	f503 1300 	add.w	r3, r3, #2097152	; 0x200000
   83dd6:	f203 7307 	addw	r3, r3, #1799	; 0x707
   83dda:	025b      	lsls	r3, r3, #9
   83ddc:	461a      	mov	r2, r3
	arch_ioport_port_to_base(port)->PIO_PDR = mask;
   83dde:	68fb      	ldr	r3, [r7, #12]
   83de0:	6053      	str	r3, [r2, #4]
}
   83de2:	bf00      	nop
   83de4:	3724      	adds	r7, #36	; 0x24
   83de6:	46bd      	mov	sp, r7
   83de8:	bc80      	pop	{r7}
   83dea:	4770      	bx	lr

00083dec <ioport_set_pin_mode>:
{
   83dec:	b480      	push	{r7}
   83dee:	b08d      	sub	sp, #52	; 0x34
   83df0:	af00      	add	r7, sp, #0
   83df2:	6078      	str	r0, [r7, #4]
   83df4:	6039      	str	r1, [r7, #0]
   83df6:	687b      	ldr	r3, [r7, #4]
   83df8:	62fb      	str	r3, [r7, #44]	; 0x2c
   83dfa:	683b      	ldr	r3, [r7, #0]
   83dfc:	62bb      	str	r3, [r7, #40]	; 0x28
   83dfe:	6afb      	ldr	r3, [r7, #44]	; 0x2c
   83e00:	627b      	str	r3, [r7, #36]	; 0x24
	return pin >> 5;
   83e02:	6a7b      	ldr	r3, [r7, #36]	; 0x24
   83e04:	095a      	lsrs	r2, r3, #5
   83e06:	6afb      	ldr	r3, [r7, #44]	; 0x2c
   83e08:	623b      	str	r3, [r7, #32]
	return 1U << (pin & 0x1F);
   83e0a:	6a3b      	ldr	r3, [r7, #32]
   83e0c:	f003 031f 	and.w	r3, r3, #31
   83e10:	2101      	movs	r1, #1
   83e12:	fa01 f303 	lsl.w	r3, r1, r3
   83e16:	61fa      	str	r2, [r7, #28]
   83e18:	61bb      	str	r3, [r7, #24]
   83e1a:	6abb      	ldr	r3, [r7, #40]	; 0x28
   83e1c:	617b      	str	r3, [r7, #20]
   83e1e:	69fb      	ldr	r3, [r7, #28]
   83e20:	613b      	str	r3, [r7, #16]
	return (Pio *)((uintptr_t)IOPORT_BASE_ADDRESS +
   83e22:	693b      	ldr	r3, [r7, #16]
   83e24:	f503 1300 	add.w	r3, r3, #2097152	; 0x200000
   83e28:	f203 7307 	addw	r3, r3, #1799	; 0x707
   83e2c:	025b      	lsls	r3, r3, #9
	Pio *base = arch_ioport_port_to_base(port);
   83e2e:	60fb      	str	r3, [r7, #12]
	if (mode & IOPORT_MODE_PULLUP) {
   83e30:	697b      	ldr	r3, [r7, #20]
   83e32:	f003 0308 	and.w	r3, r3, #8
   83e36:	2b00      	cmp	r3, #0
   83e38:	d003      	beq.n	83e42 <ioport_set_pin_mode+0x56>
		base->PIO_PUER = mask;
   83e3a:	68fb      	ldr	r3, [r7, #12]
   83e3c:	69ba      	ldr	r2, [r7, #24]
   83e3e:	665a      	str	r2, [r3, #100]	; 0x64
   83e40:	e002      	b.n	83e48 <ioport_set_pin_mode+0x5c>
		base->PIO_PUDR = mask;
   83e42:	68fb      	ldr	r3, [r7, #12]
   83e44:	69ba      	ldr	r2, [r7, #24]
   83e46:	661a      	str	r2, [r3, #96]	; 0x60
	if (mode & IOPORT_MODE_OPEN_DRAIN) {
   83e48:	697b      	ldr	r3, [r7, #20]
   83e4a:	f003 0320 	and.w	r3, r3, #32
   83e4e:	2b00      	cmp	r3, #0
   83e50:	d003      	beq.n	83e5a <ioport_set_pin_mode+0x6e>
		base->PIO_MDER = mask;
   83e52:	68fb      	ldr	r3, [r7, #12]
   83e54:	69ba      	ldr	r2, [r7, #24]
   83e56:	651a      	str	r2, [r3, #80]	; 0x50
   83e58:	e002      	b.n	83e60 <ioport_set_pin_mode+0x74>
		base->PIO_MDDR = mask;
   83e5a:	68fb      	ldr	r3, [r7, #12]
   83e5c:	69ba      	ldr	r2, [r7, #24]
   83e5e:	655a      	str	r2, [r3, #84]	; 0x54
	if (mode & (IOPORT_MODE_GLITCH_FILTER | IOPORT_MODE_DEBOUNCE)) {
   83e60:	697b      	ldr	r3, [r7, #20]
   83e62:	f003 03c0 	and.w	r3, r3, #192	; 0xc0
   83e66:	2b00      	cmp	r3, #0
   83e68:	d003      	beq.n	83e72 <ioport_set_pin_mode+0x86>
		base->PIO_IFER = mask;
   83e6a:	68fb      	ldr	r3, [r7, #12]
   83e6c:	69ba      	ldr	r2, [r7, #24]
   83e6e:	621a      	str	r2, [r3, #32]
   83e70:	e002      	b.n	83e78 <ioport_set_pin_mode+0x8c>
		base->PIO_IFDR = mask;
   83e72:	68fb      	ldr	r3, [r7, #12]
   83e74:	69ba      	ldr	r2, [r7, #24]
   83e76:	625a      	str	r2, [r3, #36]	; 0x24
	if (mode & IOPORT_MODE_DEBOUNCE) {
   83e78:	697b      	ldr	r3, [r7, #20]
   83e7a:	f003 0380 	and.w	r3, r3, #128	; 0x80
   83e7e:	2b00      	cmp	r3, #0
   83e80:	d004      	beq.n	83e8c <ioport_set_pin_mode+0xa0>
		base->PIO_DIFSR = mask;
   83e82:	68fb      	ldr	r3, [r7, #12]
   83e84:	69ba      	ldr	r2, [r7, #24]
   83e86:	f8c3 2084 	str.w	r2, [r3, #132]	; 0x84
   83e8a:	e003      	b.n	83e94 <ioport_set_pin_mode+0xa8>
		base->PIO_SCIFSR = mask;
   83e8c:	68fb      	ldr	r3, [r7, #12]
   83e8e:	69ba      	ldr	r2, [r7, #24]
   83e90:	f8c3 2080 	str.w	r2, [r3, #128]	; 0x80
	if (mode & IOPORT_MODE_MUX_BIT0) {
   83e94:	697b      	ldr	r3, [r7, #20]
   83e96:	f003 0301 	and.w	r3, r3, #1
   83e9a:	2b00      	cmp	r3, #0
   83e9c:	d006      	beq.n	83eac <ioport_set_pin_mode+0xc0>
		base->PIO_ABSR |= mask;
   83e9e:	68fb      	ldr	r3, [r7, #12]
   83ea0:	6f1a      	ldr	r2, [r3, #112]	; 0x70
   83ea2:	69bb      	ldr	r3, [r7, #24]
   83ea4:	431a      	orrs	r2, r3
   83ea6:	68fb      	ldr	r3, [r7, #12]
   83ea8:	671a      	str	r2, [r3, #112]	; 0x70
}
   83eaa:	e006      	b.n	83eba <ioport_set_pin_mode+0xce>
		base->PIO_ABSR &= ~mask;
   83eac:	68fb      	ldr	r3, [r7, #12]
   83eae:	6f1a      	ldr	r2, [r3, #112]	; 0x70
   83eb0:	69bb      	ldr	r3, [r7, #24]
   83eb2:	43db      	mvns	r3, r3
   83eb4:	401a      	ands	r2, r3
   83eb6:	68fb      	ldr	r3, [r7, #12]
   83eb8:	671a      	str	r2, [r3, #112]	; 0x70
   83eba:	bf00      	nop
   83ebc:	3734      	adds	r7, #52	; 0x34
   83ebe:	46bd      	mov	sp, r7
   83ec0:	bc80      	pop	{r7}
   83ec2:	4770      	bx	lr

00083ec4 <ioport_set_pin_dir>:
{
   83ec4:	b480      	push	{r7}
   83ec6:	b08d      	sub	sp, #52	; 0x34
   83ec8:	af00      	add	r7, sp, #0
   83eca:	6078      	str	r0, [r7, #4]
   83ecc:	460b      	mov	r3, r1
   83ece:	70fb      	strb	r3, [r7, #3]
   83ed0:	687b      	ldr	r3, [r7, #4]
   83ed2:	62fb      	str	r3, [r7, #44]	; 0x2c
   83ed4:	78fb      	ldrb	r3, [r7, #3]
   83ed6:	f887 302b 	strb.w	r3, [r7, #43]	; 0x2b
   83eda:	6afb      	ldr	r3, [r7, #44]	; 0x2c
   83edc:	627b      	str	r3, [r7, #36]	; 0x24
   83ede:	6a7b      	ldr	r3, [r7, #36]	; 0x24
   83ee0:	623b      	str	r3, [r7, #32]
	return pin >> 5;
   83ee2:	6a3b      	ldr	r3, [r7, #32]
   83ee4:	095b      	lsrs	r3, r3, #5
   83ee6:	61fb      	str	r3, [r7, #28]
	return (Pio *)((uintptr_t)IOPORT_BASE_ADDRESS +
   83ee8:	69fb      	ldr	r3, [r7, #28]
   83eea:	f503 1300 	add.w	r3, r3, #2097152	; 0x200000
   83eee:	f203 7307 	addw	r3, r3, #1799	; 0x707
   83ef2:	025b      	lsls	r3, r3, #9
	Pio *base = arch_ioport_pin_to_base(pin);
   83ef4:	61bb      	str	r3, [r7, #24]
	if (dir == IOPORT_DIR_OUTPUT) {
   83ef6:	f897 302b 	ldrb.w	r3, [r7, #43]	; 0x2b
   83efa:	2b01      	cmp	r3, #1
   83efc:	d109      	bne.n	83f12 <ioport_set_pin_dir+0x4e>
   83efe:	6afb      	ldr	r3, [r7, #44]	; 0x2c
   83f00:	617b      	str	r3, [r7, #20]
	return 1U << (pin & 0x1F);
   83f02:	697b      	ldr	r3, [r7, #20]
   83f04:	f003 031f 	and.w	r3, r3, #31
   83f08:	2201      	movs	r2, #1
   83f0a:	409a      	lsls	r2, r3
		base->PIO_OER = arch_ioport_pin_to_mask(pin);
   83f0c:	69bb      	ldr	r3, [r7, #24]
   83f0e:	611a      	str	r2, [r3, #16]
   83f10:	e00c      	b.n	83f2c <ioport_set_pin_dir+0x68>
	} else if (dir == IOPORT_DIR_INPUT) {
   83f12:	f897 302b 	ldrb.w	r3, [r7, #43]	; 0x2b
   83f16:	2b00      	cmp	r3, #0
   83f18:	d108      	bne.n	83f2c <ioport_set_pin_dir+0x68>
   83f1a:	6afb      	ldr	r3, [r7, #44]	; 0x2c
   83f1c:	613b      	str	r3, [r7, #16]
	return 1U << (pin & 0x1F);
   83f1e:	693b      	ldr	r3, [r7, #16]
   83f20:	f003 031f 	and.w	r3, r3, #31
   83f24:	2201      	movs	r2, #1
   83f26:	409a      	lsls	r2, r3
		base->PIO_ODR = arch_ioport_pin_to_mask(pin);
   83f28:	69bb      	ldr	r3, [r7, #24]
   83f2a:	615a      	str	r2, [r3, #20]
   83f2c:	6afb      	ldr	r3, [r7, #44]	; 0x2c
   83f2e:	60fb      	str	r3, [r7, #12]
	return 1U << (pin & 0x1F);
   83f30:	68fb      	ldr	r3, [r7, #12]
   83f32:	f003 031f 	and.w	r3, r3, #31
   83f36:	2201      	movs	r2, #1
   83f38:	409a      	lsls	r2, r3
	base->PIO_OWER = arch_ioport_pin_to_mask(pin);
   83f3a:	69bb      	ldr	r3, [r7, #24]
   83f3c:	f8c3 20a0 	str.w	r2, [r3, #160]	; 0xa0
}
   83f40:	bf00      	nop
   83f42:	3734      	adds	r7, #52	; 0x34
   83f44:	46bd      	mov	sp, r7
   83f46:	bc80      	pop	{r7}
   83f48:	4770      	bx	lr

00083f4a <ioport_set_pin_level>:
{
   83f4a:	b480      	push	{r7}
   83f4c:	b08b      	sub	sp, #44	; 0x2c
   83f4e:	af00      	add	r7, sp, #0
   83f50:	6078      	str	r0, [r7, #4]
   83f52:	460b      	mov	r3, r1
   83f54:	70fb      	strb	r3, [r7, #3]
   83f56:	687b      	ldr	r3, [r7, #4]
   83f58:	627b      	str	r3, [r7, #36]	; 0x24
   83f5a:	78fb      	ldrb	r3, [r7, #3]
   83f5c:	f887 3023 	strb.w	r3, [r7, #35]	; 0x23
   83f60:	6a7b      	ldr	r3, [r7, #36]	; 0x24
   83f62:	61fb      	str	r3, [r7, #28]
   83f64:	69fb      	ldr	r3, [r7, #28]
   83f66:	61bb      	str	r3, [r7, #24]
	return pin >> 5;
   83f68:	69bb      	ldr	r3, [r7, #24]
   83f6a:	095b      	lsrs	r3, r3, #5
   83f6c:	617b      	str	r3, [r7, #20]
	return (Pio *)((uintptr_t)IOPORT_BASE_ADDRESS +
   83f6e:	697b      	ldr	r3, [r7, #20]
   83f70:	f503 1300 	add.w	r3, r3, #2097152	; 0x200000
   83f74:	f203 7307 	addw	r3, r3, #1799	; 0x707
   83f78:	025b      	lsls	r3, r3, #9
	Pio *base = arch_ioport_pin_to_base(pin);
   83f7a:	613b      	str	r3, [r7, #16]
	if (level) {
   83f7c:	f897 3023 	ldrb.w	r3, [r7, #35]	; 0x23
   83f80:	2b00      	cmp	r3, #0
   83f82:	d009      	beq.n	83f98 <ioport_set_pin_level+0x4e>
   83f84:	6a7b      	ldr	r3, [r7, #36]	; 0x24
   83f86:	60fb      	str	r3, [r7, #12]
	return 1U << (pin & 0x1F);
   83f88:	68fb      	ldr	r3, [r7, #12]
   83f8a:	f003 031f 	and.w	r3, r3, #31
   83f8e:	2201      	movs	r2, #1
   83f90:	409a      	lsls	r2, r3
		base->PIO_SODR = arch_ioport_pin_to_mask(pin);
   83f92:	693b      	ldr	r3, [r7, #16]
   83f94:	631a      	str	r2, [r3, #48]	; 0x30
}
   83f96:	e008      	b.n	83faa <ioport_set_pin_level+0x60>
   83f98:	6a7b      	ldr	r3, [r7, #36]	; 0x24
   83f9a:	60bb      	str	r3, [r7, #8]
	return 1U << (pin & 0x1F);
   83f9c:	68bb      	ldr	r3, [r7, #8]
   83f9e:	f003 031f 	and.w	r3, r3, #31
   83fa2:	2201      	movs	r2, #1
   83fa4:	409a      	lsls	r2, r3
		base->PIO_CODR = arch_ioport_pin_to_mask(pin);
   83fa6:	693b      	ldr	r3, [r7, #16]
   83fa8:	635a      	str	r2, [r3, #52]	; 0x34
   83faa:	bf00      	nop
   83fac:	372c      	adds	r7, #44	; 0x2c
   83fae:	46bd      	mov	sp, r7
   83fb0:	bc80      	pop	{r7}
   83fb2:	4770      	bx	lr

00083fb4 <board_init>:
#include "asf.h"
#include "board.h"
#include "conf_board.h"

void board_init(void)
{
   83fb4:	b580      	push	{r7, lr}
   83fb6:	b084      	sub	sp, #16
   83fb8:	af00      	add	r7, sp, #0
	#ifndef CONF_BOARD_KEEP_WATCHDOG_AT_INIT
	/* Disable the watchdog */
	WDT->WDT_MR = WDT_MR_WDDIS;
   83fba:	4ba6      	ldr	r3, [pc, #664]	; (84254 <board_init+0x2a0>)
   83fbc:	f44f 4200 	mov.w	r2, #32768	; 0x8000
   83fc0:	605a      	str	r2, [r3, #4]
	#endif
	
	ioport_init();
   83fc2:	4ba5      	ldr	r3, [pc, #660]	; (84258 <board_init+0x2a4>)
   83fc4:	4798      	blx	r3
	
	/* Configure LED pins */
	ioport_set_pin_dir(LED_ONBOARD, IOPORT_DIR_OUTPUT);
   83fc6:	2101      	movs	r1, #1
   83fc8:	206a      	movs	r0, #106	; 0x6a
   83fca:	4ba4      	ldr	r3, [pc, #656]	; (8425c <board_init+0x2a8>)
   83fcc:	4798      	blx	r3
	ioport_set_pin_level(LED_ONBOARD, 0);
   83fce:	2100      	movs	r1, #0
   83fd0:	206a      	movs	r0, #106	; 0x6a
   83fd2:	4ba3      	ldr	r3, [pc, #652]	; (84260 <board_init+0x2ac>)
   83fd4:	4798      	blx	r3
	ioport_set_pin_dir(LED_M1, IOPORT_DIR_OUTPUT);
   83fd6:	2101      	movs	r1, #1
   83fd8:	2067      	movs	r0, #103	; 0x67
   83fda:	4ba0      	ldr	r3, [pc, #640]	; (8425c <board_init+0x2a8>)
   83fdc:	4798      	blx	r3
	ioport_set_pin_level(LED_M1, 0);
   83fde:	2100      	movs	r1, #0
   83fe0:	2067      	movs	r0, #103	; 0x67
   83fe2:	4b9f      	ldr	r3, [pc, #636]	; (84260 <board_init+0x2ac>)
   83fe4:	4798      	blx	r3
	ioport_set_pin_dir(LED_M2, IOPORT_DIR_OUTPUT);
   83fe6:	2101      	movs	r1, #1
   83fe8:	2068      	movs	r0, #104	; 0x68
   83fea:	4b9c      	ldr	r3, [pc, #624]	; (8425c <board_init+0x2a8>)
   83fec:	4798      	blx	r3
	ioport_set_pin_level(LED_M2, 0);
   83fee:	2100      	movs	r1, #0
   83ff0:	2068      	movs	r0, #104	; 0x68
   83ff2:	4b9b      	ldr	r3, [pc, #620]	; (84260 <board_init+0x2ac>)
   83ff4:	4798      	blx	r3
	ioport_set_pin_dir(LED_M3, IOPORT_DIR_OUTPUT);
   83ff6:	2101      	movs	r1, #1
   83ff8:	2069      	movs	r0, #105	; 0x69
   83ffa:	4b98      	ldr	r3, [pc, #608]	; (8425c <board_init+0x2a8>)
   83ffc:	4798      	blx	r3
	ioport_set_pin_level(LED_M3, 0);
   83ffe:	2100      	movs	r1, #0
   84000:	2069      	movs	r0, #105	; 0x69
   84002:	4b97      	ldr	r3, [pc, #604]	; (84260 <board_init+0x2ac>)
   84004:	4798      	blx	r3
	ioport_set_pin_dir(LED_BAT, IOPORT_DIR_OUTPUT);
   84006:	2101      	movs	r1, #1
   84008:	2066      	movs	r0, #102	; 0x66
   8400a:	4b94      	ldr	r3, [pc, #592]	; (8425c <board_init+0x2a8>)
   8400c:	4798      	blx	r3
	ioport_set_pin_level(LED_BAT, 0);
   8400e:	2100      	movs	r1, #0
   84010:	2066      	movs	r0, #102	; 0x66
   84012:	4b93      	ldr	r3, [pc, #588]	; (84260 <board_init+0x2ac>)
   84014:	4798      	blx	r3
	
	/* Configure pushbutton pins */
	ioport_set_pin_dir(PB_UP, IOPORT_DIR_INPUT);
   84016:	2100      	movs	r1, #0
   84018:	2060      	movs	r0, #96	; 0x60
   8401a:	4b90      	ldr	r3, [pc, #576]	; (8425c <board_init+0x2a8>)
   8401c:	4798      	blx	r3
	ioport_set_pin_mode(PB_UP, IOPORT_MODE_PULLUP | IOPORT_MODE_DEBOUNCE);
   8401e:	2188      	movs	r1, #136	; 0x88
   84020:	2060      	movs	r0, #96	; 0x60
   84022:	4b90      	ldr	r3, [pc, #576]	; (84264 <board_init+0x2b0>)
   84024:	4798      	blx	r3
	ioport_set_pin_dir(PB_LEFT, IOPORT_DIR_INPUT);
   84026:	2100      	movs	r1, #0
   84028:	2061      	movs	r0, #97	; 0x61
   8402a:	4b8c      	ldr	r3, [pc, #560]	; (8425c <board_init+0x2a8>)
   8402c:	4798      	blx	r3
	ioport_set_pin_mode(PB_LEFT, IOPORT_MODE_PULLUP | IOPORT_MODE_DEBOUNCE);
   8402e:	2188      	movs	r1, #136	; 0x88
   84030:	2061      	movs	r0, #97	; 0x61
   84032:	4b8c      	ldr	r3, [pc, #560]	; (84264 <board_init+0x2b0>)
   84034:	4798      	blx	r3
	ioport_set_pin_dir(PB_MID, IOPORT_DIR_INPUT);
   84036:	2100      	movs	r1, #0
   84038:	2062      	movs	r0, #98	; 0x62
   8403a:	4b88      	ldr	r3, [pc, #544]	; (8425c <board_init+0x2a8>)
   8403c:	4798      	blx	r3
	ioport_set_pin_mode(PB_MID, IOPORT_MODE_PULLUP | IOPORT_MODE_DEBOUNCE);
   8403e:	2188      	movs	r1, #136	; 0x88
   84040:	2062      	movs	r0, #98	; 0x62
   84042:	4b88      	ldr	r3, [pc, #544]	; (84264 <board_init+0x2b0>)
   84044:	4798      	blx	r3
	ioport_set_pin_dir(PB_RIGHT, IOPORT_DIR_INPUT);
   84046:	2100      	movs	r1, #0
   84048:	2063      	movs	r0, #99	; 0x63
   8404a:	4b84      	ldr	r3, [pc, #528]	; (8425c <board_init+0x2a8>)
   8404c:	4798      	blx	r3
	ioport_set_pin_mode(PB_RIGHT, IOPORT_MODE_PULLUP | IOPORT_MODE_DEBOUNCE);
   8404e:	2188      	movs	r1, #136	; 0x88
   84050:	2063      	movs	r0, #99	; 0x63
   84052:	4b84      	ldr	r3, [pc, #528]	; (84264 <board_init+0x2b0>)
   84054:	4798      	blx	r3
	ioport_set_pin_dir(PB_DOWN, IOPORT_DIR_INPUT);
   84056:	2100      	movs	r1, #0
   84058:	2064      	movs	r0, #100	; 0x64
   8405a:	4b80      	ldr	r3, [pc, #512]	; (8425c <board_init+0x2a8>)
   8405c:	4798      	blx	r3
	ioport_set_pin_mode(PB_DOWN, IOPORT_MODE_PULLUP | IOPORT_MODE_DEBOUNCE);
   8405e:	2188      	movs	r1, #136	; 0x88
   84060:	2064      	movs	r0, #100	; 0x64
   84062:	4b80      	ldr	r3, [pc, #512]	; (84264 <board_init+0x2b0>)
   84064:	4798      	blx	r3
	ioport_set_pin_dir(PB_RETURN, IOPORT_DIR_INPUT);
   84066:	2100      	movs	r1, #0
   84068:	2065      	movs	r0, #101	; 0x65
   8406a:	4b7c      	ldr	r3, [pc, #496]	; (8425c <board_init+0x2a8>)
   8406c:	4798      	blx	r3
	ioport_set_pin_mode(PB_RETURN, IOPORT_MODE_PULLUP | IOPORT_MODE_DEBOUNCE);
   8406e:	2188      	movs	r1, #136	; 0x88
   84070:	2065      	movs	r0, #101	; 0x65
   84072:	4b7c      	ldr	r3, [pc, #496]	; (84264 <board_init+0x2b0>)
   84074:	4798      	blx	r3
  
    /* Configure Motor pins */
    ioport_set_pin_mode(MOTOR_LEFT_L, IOPORT_MODE_MUX_B);
   84076:	2101      	movs	r1, #1
   84078:	2042      	movs	r0, #66	; 0x42
   8407a:	4b7a      	ldr	r3, [pc, #488]	; (84264 <board_init+0x2b0>)
   8407c:	4798      	blx	r3
    ioport_disable_pin(MOTOR_LEFT_L);
   8407e:	2042      	movs	r0, #66	; 0x42
   84080:	4b79      	ldr	r3, [pc, #484]	; (84268 <board_init+0x2b4>)
   84082:	4798      	blx	r3
    ioport_set_pin_mode(MOTOR_LEFT_H, IOPORT_MODE_MUX_B);
   84084:	2101      	movs	r1, #1
   84086:	2043      	movs	r0, #67	; 0x43
   84088:	4b76      	ldr	r3, [pc, #472]	; (84264 <board_init+0x2b0>)
   8408a:	4798      	blx	r3
    ioport_disable_pin(MOTOR_LEFT_H);
   8408c:	2043      	movs	r0, #67	; 0x43
   8408e:	4b76      	ldr	r3, [pc, #472]	; (84268 <board_init+0x2b4>)
   84090:	4798      	blx	r3
    ioport_set_pin_mode(MOTOR_RIGHT_L, IOPORT_MODE_MUX_B);
   84092:	2101      	movs	r1, #1
   84094:	2044      	movs	r0, #68	; 0x44
   84096:	4b73      	ldr	r3, [pc, #460]	; (84264 <board_init+0x2b0>)
   84098:	4798      	blx	r3
    ioport_disable_pin(MOTOR_RIGHT_L);
   8409a:	2044      	movs	r0, #68	; 0x44
   8409c:	4b72      	ldr	r3, [pc, #456]	; (84268 <board_init+0x2b4>)
   8409e:	4798      	blx	r3
    ioport_set_pin_mode(MOTOR_RIGHT_H, IOPORT_MODE_MUX_B);
   840a0:	2101      	movs	r1, #1
   840a2:	2045      	movs	r0, #69	; 0x45
   840a4:	4b6f      	ldr	r3, [pc, #444]	; (84264 <board_init+0x2b0>)
   840a6:	4798      	blx	r3
    ioport_disable_pin(MOTOR_RIGHT_H);
   840a8:	2045      	movs	r0, #69	; 0x45
   840aa:	4b6f      	ldr	r3, [pc, #444]	; (84268 <board_init+0x2b4>)
   840ac:	4798      	blx	r3
    ioport_set_pin_mode(MOTOR_REAR_L, IOPORT_MODE_MUX_B);
   840ae:	2101      	movs	r1, #1
   840b0:	2046      	movs	r0, #70	; 0x46
   840b2:	4b6c      	ldr	r3, [pc, #432]	; (84264 <board_init+0x2b0>)
   840b4:	4798      	blx	r3
    ioport_disable_pin(MOTOR_REAR_L);
   840b6:	2046      	movs	r0, #70	; 0x46
   840b8:	4b6b      	ldr	r3, [pc, #428]	; (84268 <board_init+0x2b4>)
   840ba:	4798      	blx	r3
    ioport_set_pin_mode(MOTOR_REAR_H, IOPORT_MODE_MUX_B);
   840bc:	2101      	movs	r1, #1
   840be:	2047      	movs	r0, #71	; 0x47
   840c0:	4b68      	ldr	r3, [pc, #416]	; (84264 <board_init+0x2b0>)
   840c2:	4798      	blx	r3
    ioport_disable_pin(MOTOR_REAR_H);
   840c4:	2047      	movs	r0, #71	; 0x47
   840c6:	4b68      	ldr	r3, [pc, #416]	; (84268 <board_init+0x2b4>)
   840c8:	4798      	blx	r3

    /* Configure Encoder pins */
    ioport_set_pin_mode(ENC_CLK_PIN, IOPORT_MODE_MUX_B);
   840ca:	2101      	movs	r1, #1
   840cc:	2055      	movs	r0, #85	; 0x55
   840ce:	4b65      	ldr	r3, [pc, #404]	; (84264 <board_init+0x2b0>)
   840d0:	4798      	blx	r3
    ioport_disable_pin(ENC_CLK_PIN);
   840d2:	2055      	movs	r0, #85	; 0x55
   840d4:	4b64      	ldr	r3, [pc, #400]	; (84268 <board_init+0x2b4>)
   840d6:	4798      	blx	r3
    ioport_set_pin_dir(ENC_LOAD, IOPORT_DIR_OUTPUT);
   840d8:	2101      	movs	r1, #1
   840da:	2020      	movs	r0, #32
   840dc:	4b5f      	ldr	r3, [pc, #380]	; (8425c <board_init+0x2a8>)
   840de:	4798      	blx	r3
    ioport_set_pin_level(ENC_LOAD, 1);
   840e0:	2101      	movs	r1, #1
   840e2:	2020      	movs	r0, #32
   840e4:	4b5e      	ldr	r3, [pc, #376]	; (84260 <board_init+0x2ac>)
   840e6:	4798      	blx	r3

    ioport_set_pin_dir(ENC_LEFT_A, IOPORT_DIR_INPUT);
   840e8:	2100      	movs	r1, #0
   840ea:	2058      	movs	r0, #88	; 0x58
   840ec:	4b5b      	ldr	r3, [pc, #364]	; (8425c <board_init+0x2a8>)
   840ee:	4798      	blx	r3
    ioport_set_pin_dir(ENC_LEFT_B, IOPORT_DIR_INPUT);
   840f0:	2100      	movs	r1, #0
   840f2:	2059      	movs	r0, #89	; 0x59
   840f4:	4b59      	ldr	r3, [pc, #356]	; (8425c <board_init+0x2a8>)
   840f6:	4798      	blx	r3
    ioport_set_pin_dir(ENC_LEFT_C, IOPORT_DIR_INPUT);
   840f8:	2100      	movs	r1, #0
   840fa:	205a      	movs	r0, #90	; 0x5a
   840fc:	4b57      	ldr	r3, [pc, #348]	; (8425c <board_init+0x2a8>)
   840fe:	4798      	blx	r3
    ioport_set_pin_dir(ENC_LEFT_D, IOPORT_DIR_INPUT);
   84100:	2100      	movs	r1, #0
   84102:	205b      	movs	r0, #91	; 0x5b
   84104:	4b55      	ldr	r3, [pc, #340]	; (8425c <board_init+0x2a8>)
   84106:	4798      	blx	r3
    ioport_set_pin_dir(ENC_LEFT_E, IOPORT_DIR_INPUT);
   84108:	2100      	movs	r1, #0
   8410a:	205c      	movs	r0, #92	; 0x5c
   8410c:	4b53      	ldr	r3, [pc, #332]	; (8425c <board_init+0x2a8>)
   8410e:	4798      	blx	r3
    ioport_set_pin_dir(ENC_LEFT_F, IOPORT_DIR_INPUT);
   84110:	2100      	movs	r1, #0
   84112:	205d      	movs	r0, #93	; 0x5d
   84114:	4b51      	ldr	r3, [pc, #324]	; (8425c <board_init+0x2a8>)
   84116:	4798      	blx	r3
    ioport_set_pin_dir(ENC_LEFT_G, IOPORT_DIR_INPUT);
   84118:	2100      	movs	r1, #0
   8411a:	205e      	movs	r0, #94	; 0x5e
   8411c:	4b4f      	ldr	r3, [pc, #316]	; (8425c <board_init+0x2a8>)
   8411e:	4798      	blx	r3
    
    ioport_set_pin_dir(ENC_RIGHT_A, IOPORT_DIR_INPUT);
   84120:	2100      	movs	r1, #0
   84122:	2050      	movs	r0, #80	; 0x50
   84124:	4b4d      	ldr	r3, [pc, #308]	; (8425c <board_init+0x2a8>)
   84126:	4798      	blx	r3
    ioport_set_pin_dir(ENC_RIGHT_B, IOPORT_DIR_INPUT);
   84128:	2100      	movs	r1, #0
   8412a:	2051      	movs	r0, #81	; 0x51
   8412c:	4b4b      	ldr	r3, [pc, #300]	; (8425c <board_init+0x2a8>)
   8412e:	4798      	blx	r3
    ioport_set_pin_dir(ENC_RIGHT_C, IOPORT_DIR_INPUT);
   84130:	2100      	movs	r1, #0
   84132:	2052      	movs	r0, #82	; 0x52
   84134:	4b49      	ldr	r3, [pc, #292]	; (8425c <board_init+0x2a8>)
   84136:	4798      	blx	r3
    ioport_set_pin_dir(ENC_RIGHT_D, IOPORT_DIR_INPUT);
   84138:	2100      	movs	r1, #0
   8413a:	2053      	movs	r0, #83	; 0x53
   8413c:	4b47      	ldr	r3, [pc, #284]	; (8425c <board_init+0x2a8>)
   8413e:	4798      	blx	r3
    ioport_set_pin_dir(ENC_RIGHT_E, IOPORT_DIR_INPUT);
   84140:	2100      	movs	r1, #0
   84142:	2054      	movs	r0, #84	; 0x54
   84144:	4b45      	ldr	r3, [pc, #276]	; (8425c <board_init+0x2a8>)
   84146:	4798      	blx	r3
    ioport_set_pin_dir(ENC_RIGHT_F, IOPORT_DIR_INPUT);
   84148:	2100      	movs	r1, #0
   8414a:	2056      	movs	r0, #86	; 0x56
   8414c:	4b43      	ldr	r3, [pc, #268]	; (8425c <board_init+0x2a8>)
   8414e:	4798      	blx	r3
    ioport_set_pin_dir(ENC_RIGHT_G, IOPORT_DIR_INPUT);
   84150:	2100      	movs	r1, #0
   84152:	2057      	movs	r0, #87	; 0x57
   84154:	4b41      	ldr	r3, [pc, #260]	; (8425c <board_init+0x2a8>)
   84156:	4798      	blx	r3
    
    ioport_set_pin_dir(ENC_REAR_A, IOPORT_DIR_INPUT);
   84158:	2100      	movs	r1, #0
   8415a:	2041      	movs	r0, #65	; 0x41
   8415c:	4b3f      	ldr	r3, [pc, #252]	; (8425c <board_init+0x2a8>)
   8415e:	4798      	blx	r3
    ioport_set_pin_dir(ENC_REAR_B, IOPORT_DIR_INPUT);
   84160:	2100      	movs	r1, #0
   84162:	204a      	movs	r0, #74	; 0x4a
   84164:	4b3d      	ldr	r3, [pc, #244]	; (8425c <board_init+0x2a8>)
   84166:	4798      	blx	r3
    ioport_set_pin_dir(ENC_REAR_C, IOPORT_DIR_INPUT);
   84168:	2100      	movs	r1, #0
   8416a:	204b      	movs	r0, #75	; 0x4b
   8416c:	4b3b      	ldr	r3, [pc, #236]	; (8425c <board_init+0x2a8>)
   8416e:	4798      	blx	r3
    ioport_set_pin_dir(ENC_REAR_D, IOPORT_DIR_INPUT);
   84170:	2100      	movs	r1, #0
   84172:	204c      	movs	r0, #76	; 0x4c
   84174:	4b39      	ldr	r3, [pc, #228]	; (8425c <board_init+0x2a8>)
   84176:	4798      	blx	r3
    ioport_set_pin_dir(ENC_REAR_E, IOPORT_DIR_INPUT);
   84178:	2100      	movs	r1, #0
   8417a:	204d      	movs	r0, #77	; 0x4d
   8417c:	4b37      	ldr	r3, [pc, #220]	; (8425c <board_init+0x2a8>)
   8417e:	4798      	blx	r3
    ioport_set_pin_dir(ENC_REAR_F, IOPORT_DIR_INPUT);
   84180:	2100      	movs	r1, #0
   84182:	204e      	movs	r0, #78	; 0x4e
   84184:	4b35      	ldr	r3, [pc, #212]	; (8425c <board_init+0x2a8>)
   84186:	4798      	blx	r3
    ioport_set_pin_dir(ENC_REAR_G, IOPORT_DIR_INPUT);
   84188:	2100      	movs	r1, #0
   8418a:	204f      	movs	r0, #79	; 0x4f
   8418c:	4b33      	ldr	r3, [pc, #204]	; (8425c <board_init+0x2a8>)
   8418e:	4798      	blx	r3
  
    /* Configure Raspberry Pi GPIO pins */
    ioport_set_pin_dir(RPI1, IOPORT_DIR_OUTPUT);
   84190:	2101      	movs	r1, #1
   84192:	2001      	movs	r0, #1
   84194:	4b31      	ldr	r3, [pc, #196]	; (8425c <board_init+0x2a8>)
   84196:	4798      	blx	r3
    ioport_set_pin_level(RPI1, 1);
   84198:	2101      	movs	r1, #1
   8419a:	2001      	movs	r0, #1
   8419c:	4b30      	ldr	r3, [pc, #192]	; (84260 <board_init+0x2ac>)
   8419e:	4798      	blx	r3
    ioport_set_pin_dir(RPI2, IOPORT_DIR_INPUT);
   841a0:	2100      	movs	r1, #0
   841a2:	2008      	movs	r0, #8
   841a4:	4b2d      	ldr	r3, [pc, #180]	; (8425c <board_init+0x2a8>)
   841a6:	4798      	blx	r3
    ioport_set_pin_dir(RPI3, IOPORT_DIR_INPUT);
   841a8:	2100      	movs	r1, #0
   841aa:	2009      	movs	r0, #9
   841ac:	4b2b      	ldr	r3, [pc, #172]	; (8425c <board_init+0x2a8>)
   841ae:	4798      	blx	r3
    ioport_set_pin_dir(RPI4, IOPORT_DIR_INPUT);
   841b0:	2100      	movs	r1, #0
   841b2:	2007      	movs	r0, #7
   841b4:	4b29      	ldr	r3, [pc, #164]	; (8425c <board_init+0x2a8>)
   841b6:	4798      	blx	r3
    ioport_set_pin_dir(RPI5, IOPORT_DIR_INPUT);
   841b8:	2100      	movs	r1, #0
   841ba:	2005      	movs	r0, #5
   841bc:	4b27      	ldr	r3, [pc, #156]	; (8425c <board_init+0x2a8>)
   841be:	4798      	blx	r3
    ioport_set_pin_dir(RPI6, IOPORT_DIR_INPUT);
   841c0:	2100      	movs	r1, #0
   841c2:	2000      	movs	r0, #0
   841c4:	4b25      	ldr	r3, [pc, #148]	; (8425c <board_init+0x2a8>)
   841c6:	4798      	blx	r3
  
    /* Configure I2C pins */
    ioport_set_pin_mode(I2C0_DATA, IOPORT_MODE_MUX_A);
   841c8:	2100      	movs	r1, #0
   841ca:	2011      	movs	r0, #17
   841cc:	4b25      	ldr	r3, [pc, #148]	; (84264 <board_init+0x2b0>)
   841ce:	4798      	blx	r3
    ioport_disable_pin(I2C0_DATA);
   841d0:	2011      	movs	r0, #17
   841d2:	4b25      	ldr	r3, [pc, #148]	; (84268 <board_init+0x2b4>)
   841d4:	4798      	blx	r3
    ioport_set_pin_mode(I2C0_CLK, IOPORT_MODE_MUX_A);
   841d6:	2100      	movs	r1, #0
   841d8:	2012      	movs	r0, #18
   841da:	4b22      	ldr	r3, [pc, #136]	; (84264 <board_init+0x2b0>)
   841dc:	4798      	blx	r3
    ioport_disable_pin(I2C0_CLK);
   841de:	2012      	movs	r0, #18
   841e0:	4b21      	ldr	r3, [pc, #132]	; (84268 <board_init+0x2b4>)
   841e2:	4798      	blx	r3
	
    /* Configure SPI0 pins */
    ioport_set_pin_mode(SPI0_MISO, IOPORT_MODE_MUX_A);
   841e4:	2100      	movs	r1, #0
   841e6:	2019      	movs	r0, #25
   841e8:	4b1e      	ldr	r3, [pc, #120]	; (84264 <board_init+0x2b0>)
   841ea:	4798      	blx	r3
    ioport_disable_pin(SPI0_MISO);
   841ec:	2019      	movs	r0, #25
   841ee:	4b1e      	ldr	r3, [pc, #120]	; (84268 <board_init+0x2b4>)
   841f0:	4798      	blx	r3
    ioport_set_pin_mode(SPI0_MOSI, IOPORT_MODE_MUX_A);
   841f2:	2100      	movs	r1, #0
   841f4:	201a      	movs	r0, #26
   841f6:	4b1b      	ldr	r3, [pc, #108]	; (84264 <board_init+0x2b0>)
   841f8:	4798      	blx	r3
    ioport_disable_pin(SPI0_MOSI);
   841fa:	201a      	movs	r0, #26
   841fc:	4b1a      	ldr	r3, [pc, #104]	; (84268 <board_init+0x2b4>)
   841fe:	4798      	blx	r3
    ioport_set_pin_mode(SPI0_SPCK, IOPORT_MODE_MUX_A);
   84200:	2100      	movs	r1, #0
   84202:	201b      	movs	r0, #27
   84204:	4b17      	ldr	r3, [pc, #92]	; (84264 <board_init+0x2b0>)
   84206:	4798      	blx	r3
    ioport_disable_pin(SPI0_SPCK);
   84208:	201b      	movs	r0, #27
   8420a:	4b17      	ldr	r3, [pc, #92]	; (84268 <board_init+0x2b4>)
   8420c:	4798      	blx	r3
    ioport_set_pin_mode(SPI0_NPCS0, IOPORT_MODE_MUX_A);
   8420e:	2100      	movs	r1, #0
   84210:	201c      	movs	r0, #28
   84212:	4b14      	ldr	r3, [pc, #80]	; (84264 <board_init+0x2b0>)
   84214:	4798      	blx	r3
    ioport_disable_pin(SPI0_NPCS0);
   84216:	201c      	movs	r0, #28
   84218:	4b13      	ldr	r3, [pc, #76]	; (84268 <board_init+0x2b4>)
   8421a:	4798      	blx	r3

	/* Configure SPI1 pins */
	ioport_set_pin_mode(SPI1_MISO, IOPORT_MODE_MUX_A);
   8421c:	2100      	movs	r1, #0
   8421e:	200c      	movs	r0, #12
   84220:	4b10      	ldr	r3, [pc, #64]	; (84264 <board_init+0x2b0>)
   84222:	4798      	blx	r3
	ioport_disable_pin(SPI1_MISO);
   84224:	200c      	movs	r0, #12
   84226:	4b10      	ldr	r3, [pc, #64]	; (84268 <board_init+0x2b4>)
   84228:	4798      	blx	r3
	ioport_set_pin_mode(SPI1_MOSI, IOPORT_MODE_MUX_A);
   8422a:	2100      	movs	r1, #0
   8422c:	200d      	movs	r0, #13
   8422e:	4b0d      	ldr	r3, [pc, #52]	; (84264 <board_init+0x2b0>)
   84230:	4798      	blx	r3
	ioport_disable_pin(SPI1_MOSI);
   84232:	200d      	movs	r0, #13
   84234:	4b0c      	ldr	r3, [pc, #48]	; (84268 <board_init+0x2b4>)
   84236:	4798      	blx	r3
	ioport_set_pin_mode(SPI1_SPCK, IOPORT_MODE_MUX_A);
   84238:	2100      	movs	r1, #0
   8423a:	2010      	movs	r0, #16
   8423c:	4b09      	ldr	r3, [pc, #36]	; (84264 <board_init+0x2b0>)
   8423e:	4798      	blx	r3
	ioport_disable_pin(SPI1_SPCK);
   84240:	2010      	movs	r0, #16
   84242:	4b09      	ldr	r3, [pc, #36]	; (84268 <board_init+0x2b4>)
   84244:	4798      	blx	r3
	ioport_set_pin_mode(SPI1_NPCS0, IOPORT_MODE_MUX_A);
   84246:	2100      	movs	r1, #0
   84248:	200e      	movs	r0, #14
   8424a:	4b06      	ldr	r3, [pc, #24]	; (84264 <board_init+0x2b0>)
   8424c:	4798      	blx	r3
	ioport_disable_pin(SPI1_NPCS0);
   8424e:	200e      	movs	r0, #14
   84250:	e00c      	b.n	8426c <board_init+0x2b8>
   84252:	bf00      	nop
   84254:	400e1a50 	.word	0x400e1a50
   84258:	00083d81 	.word	0x00083d81
   8425c:	00083ec5 	.word	0x00083ec5
   84260:	00083f4b 	.word	0x00083f4b
   84264:	00083ded 	.word	0x00083ded
   84268:	00083da5 	.word	0x00083da5
   8426c:	4b25      	ldr	r3, [pc, #148]	; (84304 <board_init+0x350>)
   8426e:	4798      	blx	r3

    /* Configure micro SD Card pins */
    ioport_set_pin_mode(MSD_CMD, IOPORT_MODE_MUX_A);
   84270:	2100      	movs	r1, #0
   84272:	2014      	movs	r0, #20
   84274:	4b24      	ldr	r3, [pc, #144]	; (84308 <board_init+0x354>)
   84276:	4798      	blx	r3
	ioport_disable_pin(MSD_CMD);
   84278:	2014      	movs	r0, #20
   8427a:	4b22      	ldr	r3, [pc, #136]	; (84304 <board_init+0x350>)
   8427c:	4798      	blx	r3
    ioport_set_pin_mode(MSD_CLK, IOPORT_MODE_MUX_A);
   8427e:	2100      	movs	r1, #0
   84280:	2013      	movs	r0, #19
   84282:	4b21      	ldr	r3, [pc, #132]	; (84308 <board_init+0x354>)
   84284:	4798      	blx	r3
	ioport_disable_pin(MSD_CLK);
   84286:	2013      	movs	r0, #19
   84288:	4b1e      	ldr	r3, [pc, #120]	; (84304 <board_init+0x350>)
   8428a:	4798      	blx	r3
    ioport_set_pin_mode(MSD_DATA0, IOPORT_MODE_MUX_A);
   8428c:	2100      	movs	r1, #0
   8428e:	2015      	movs	r0, #21
   84290:	4b1d      	ldr	r3, [pc, #116]	; (84308 <board_init+0x354>)
   84292:	4798      	blx	r3
	ioport_disable_pin(MSD_DATA0);
   84294:	2015      	movs	r0, #21
   84296:	4b1b      	ldr	r3, [pc, #108]	; (84304 <board_init+0x350>)
   84298:	4798      	blx	r3
    ioport_set_pin_mode(MSD_DATA1, IOPORT_MODE_MUX_A);
   8429a:	2100      	movs	r1, #0
   8429c:	2016      	movs	r0, #22
   8429e:	4b1a      	ldr	r3, [pc, #104]	; (84308 <board_init+0x354>)
   842a0:	4798      	blx	r3
	ioport_disable_pin(MSD_DATA1);
   842a2:	2016      	movs	r0, #22
   842a4:	4b17      	ldr	r3, [pc, #92]	; (84304 <board_init+0x350>)
   842a6:	4798      	blx	r3
    ioport_set_pin_mode(MSD_DATA2, IOPORT_MODE_MUX_A);
   842a8:	2100      	movs	r1, #0
   842aa:	2017      	movs	r0, #23
   842ac:	4b16      	ldr	r3, [pc, #88]	; (84308 <board_init+0x354>)
   842ae:	4798      	blx	r3
	ioport_disable_pin(MSD_DATA2);
   842b0:	2017      	movs	r0, #23
   842b2:	4b14      	ldr	r3, [pc, #80]	; (84304 <board_init+0x350>)
   842b4:	4798      	blx	r3
    ioport_set_pin_mode(MSD_DATA3, IOPORT_MODE_MUX_A);
   842b6:	2100      	movs	r1, #0
   842b8:	2018      	movs	r0, #24
   842ba:	4b13      	ldr	r3, [pc, #76]	; (84308 <board_init+0x354>)
   842bc:	4798      	blx	r3
	ioport_disable_pin(MSD_DATA3);
   842be:	2018      	movs	r0, #24
   842c0:	4b10      	ldr	r3, [pc, #64]	; (84304 <board_init+0x350>)
   842c2:	4798      	blx	r3


    /* Init PWM */
    pmc_enable_periph_clk(ID_PWM);
   842c4:	2024      	movs	r0, #36	; 0x24
   842c6:	4b11      	ldr	r3, [pc, #68]	; (8430c <board_init+0x358>)
   842c8:	4798      	blx	r3
    pwm_channel_disable(PWM, MOTOR_LEFT);
   842ca:	2100      	movs	r1, #0
   842cc:	4810      	ldr	r0, [pc, #64]	; (84310 <board_init+0x35c>)
   842ce:	4b11      	ldr	r3, [pc, #68]	; (84314 <board_init+0x360>)
   842d0:	4798      	blx	r3
    pwm_channel_disable(PWM, MOTOR_RIGHT);
   842d2:	2101      	movs	r1, #1
   842d4:	480e      	ldr	r0, [pc, #56]	; (84310 <board_init+0x35c>)
   842d6:	4b0f      	ldr	r3, [pc, #60]	; (84314 <board_init+0x360>)
   842d8:	4798      	blx	r3
    pwm_channel_disable(PWM, MOTOR_REAR);
   842da:	2102      	movs	r1, #2
   842dc:	480c      	ldr	r0, [pc, #48]	; (84310 <board_init+0x35c>)
   842de:	4b0d      	ldr	r3, [pc, #52]	; (84314 <board_init+0x360>)
   842e0:	4798      	blx	r3
    pwm_clock_t clock_setting =
   842e2:	4b0d      	ldr	r3, [pc, #52]	; (84318 <board_init+0x364>)
   842e4:	607b      	str	r3, [r7, #4]
   842e6:	2300      	movs	r3, #0
   842e8:	60bb      	str	r3, [r7, #8]
    {
        .ul_clka = PWM_FREQUENCY * PERIOD_VALUE,
        .ul_clkb = 0,
        .ul_mck = sysclk_get_cpu_hz()
   842ea:	4b0c      	ldr	r3, [pc, #48]	; (8431c <board_init+0x368>)
   842ec:	4798      	blx	r3
   842ee:	4603      	mov	r3, r0
    pwm_clock_t clock_setting =
   842f0:	60fb      	str	r3, [r7, #12]
    };
    pwm_init(PWM, &clock_setting);
   842f2:	1d3b      	adds	r3, r7, #4
   842f4:	4619      	mov	r1, r3
   842f6:	4806      	ldr	r0, [pc, #24]	; (84310 <board_init+0x35c>)
   842f8:	4b09      	ldr	r3, [pc, #36]	; (84320 <board_init+0x36c>)
   842fa:	4798      	blx	r3
}
   842fc:	bf00      	nop
   842fe:	3710      	adds	r7, #16
   84300:	46bd      	mov	sp, r7
   84302:	bd80      	pop	{r7, pc}
   84304:	00083da5 	.word	0x00083da5
   84308:	00083ded 	.word	0x00083ded
   8430c:	00083c41 	.word	0x00083c41
   84310:	40094000 	.word	0x40094000
   84314:	00080615 	.word	0x00080615
   84318:	01312d00 	.word	0x01312d00
   8431c:	00083d51 	.word	0x00083d51
   84320:	000802e9 	.word	0x000802e9

00084324 <Dummy_Handler>:

/**
 * \brief Default interrupt handler for unused IRQs.
 */
void Dummy_Handler(void)
{
   84324:	b480      	push	{r7}
   84326:	af00      	add	r7, sp, #0
	while (1) {
   84328:	e7fe      	b.n	84328 <Dummy_Handler+0x4>
	...

0008432c <Reset_Handler>:
/**
 * \brief This is the code that gets called on processor reset.
 * To initialize the device, and call the main() routine.
 */
void Reset_Handler(void)
{
   8432c:	b580      	push	{r7, lr}
   8432e:	b082      	sub	sp, #8
   84330:	af00      	add	r7, sp, #0
	uint32_t *pSrc, *pDest;

	/* Initialize the relocate segment */
	pSrc = &_etext;
   84332:	4b1e      	ldr	r3, [pc, #120]	; (843ac <Reset_Handler+0x80>)
   84334:	607b      	str	r3, [r7, #4]
	pDest = &_srelocate;
   84336:	4b1e      	ldr	r3, [pc, #120]	; (843b0 <Reset_Handler+0x84>)
   84338:	603b      	str	r3, [r7, #0]

	if (pSrc != pDest) {
   8433a:	687a      	ldr	r2, [r7, #4]
   8433c:	683b      	ldr	r3, [r7, #0]
   8433e:	429a      	cmp	r2, r3
   84340:	d00c      	beq.n	8435c <Reset_Handler+0x30>
		for (; pDest < &_erelocate;) {
   84342:	e007      	b.n	84354 <Reset_Handler+0x28>
			*pDest++ = *pSrc++;
   84344:	683b      	ldr	r3, [r7, #0]
   84346:	1d1a      	adds	r2, r3, #4
   84348:	603a      	str	r2, [r7, #0]
   8434a:	687a      	ldr	r2, [r7, #4]
   8434c:	1d11      	adds	r1, r2, #4
   8434e:	6079      	str	r1, [r7, #4]
   84350:	6812      	ldr	r2, [r2, #0]
   84352:	601a      	str	r2, [r3, #0]
		for (; pDest < &_erelocate;) {
   84354:	683b      	ldr	r3, [r7, #0]
   84356:	4a17      	ldr	r2, [pc, #92]	; (843b4 <Reset_Handler+0x88>)
   84358:	4293      	cmp	r3, r2
   8435a:	d3f3      	bcc.n	84344 <Reset_Handler+0x18>
		}
	}

	/* Clear the zero segment */
	for (pDest = &_szero; pDest < &_ezero;) {
   8435c:	4b16      	ldr	r3, [pc, #88]	; (843b8 <Reset_Handler+0x8c>)
   8435e:	603b      	str	r3, [r7, #0]
   84360:	e004      	b.n	8436c <Reset_Handler+0x40>
		*pDest++ = 0;
   84362:	683b      	ldr	r3, [r7, #0]
   84364:	1d1a      	adds	r2, r3, #4
   84366:	603a      	str	r2, [r7, #0]
   84368:	2200      	movs	r2, #0
   8436a:	601a      	str	r2, [r3, #0]
	for (pDest = &_szero; pDest < &_ezero;) {
   8436c:	683b      	ldr	r3, [r7, #0]
   8436e:	4a13      	ldr	r2, [pc, #76]	; (843bc <Reset_Handler+0x90>)
   84370:	4293      	cmp	r3, r2
   84372:	d3f6      	bcc.n	84362 <Reset_Handler+0x36>
	}

	/* Set the vector table base address */
	pSrc = (uint32_t *) & _sfixed;
   84374:	4b12      	ldr	r3, [pc, #72]	; (843c0 <Reset_Handler+0x94>)
   84376:	607b      	str	r3, [r7, #4]
	SCB->VTOR = ((uint32_t) pSrc & SCB_VTOR_TBLOFF_Msk);
   84378:	4a12      	ldr	r2, [pc, #72]	; (843c4 <Reset_Handler+0x98>)
   8437a:	687b      	ldr	r3, [r7, #4]
   8437c:	f023 4360 	bic.w	r3, r3, #3758096384	; 0xe0000000
   84380:	f023 037f 	bic.w	r3, r3, #127	; 0x7f
   84384:	6093      	str	r3, [r2, #8]

	if (((uint32_t) pSrc >= IRAM0_ADDR) && ((uint32_t) pSrc < NFC_RAM_ADDR)) {
   84386:	687b      	ldr	r3, [r7, #4]
   84388:	f1b3 5f00 	cmp.w	r3, #536870912	; 0x20000000
   8438c:	d309      	bcc.n	843a2 <Reset_Handler+0x76>
   8438e:	687b      	ldr	r3, [r7, #4]
   84390:	4a0d      	ldr	r2, [pc, #52]	; (843c8 <Reset_Handler+0x9c>)
   84392:	4293      	cmp	r3, r2
   84394:	d805      	bhi.n	843a2 <Reset_Handler+0x76>
		SCB->VTOR |= 1 << SCB_VTOR_TBLBASE_Pos;
   84396:	4a0b      	ldr	r2, [pc, #44]	; (843c4 <Reset_Handler+0x98>)
   84398:	4b0a      	ldr	r3, [pc, #40]	; (843c4 <Reset_Handler+0x98>)
   8439a:	689b      	ldr	r3, [r3, #8]
   8439c:	f043 5300 	orr.w	r3, r3, #536870912	; 0x20000000
   843a0:	6093      	str	r3, [r2, #8]
	}

	/* Initialize the C library */
	__libc_init_array();
   843a2:	4b0a      	ldr	r3, [pc, #40]	; (843cc <Reset_Handler+0xa0>)
   843a4:	4798      	blx	r3

	/* Branch to main function */
	main();
   843a6:	4b0a      	ldr	r3, [pc, #40]	; (843d0 <Reset_Handler+0xa4>)
   843a8:	4798      	blx	r3

	/* Infinite loop */
	while (1);
   843aa:	e7fe      	b.n	843aa <Reset_Handler+0x7e>
   843ac:	00089cec 	.word	0x00089cec
   843b0:	20070000 	.word	0x20070000
   843b4:	20070b50 	.word	0x20070b50
   843b8:	20070b50 	.word	0x20070b50
   843bc:	20070ff8 	.word	0x20070ff8
   843c0:	00080000 	.word	0x00080000
   843c4:	e000ed00 	.word	0xe000ed00
   843c8:	200fffff 	.word	0x200fffff
   843cc:	000857dd 	.word	0x000857dd
   843d0:	000847a5 	.word	0x000847a5

000843d4 <SystemCoreClockUpdate>:

	SystemCoreClock = CHIP_FREQ_CPU_MAX;
}

void SystemCoreClockUpdate(void)
{
   843d4:	b480      	push	{r7}
   843d6:	af00      	add	r7, sp, #0
	/* Determine clock frequency according to clock register values */
	switch (PMC->PMC_MCKR & PMC_MCKR_CSS_Msk) {
   843d8:	4b57      	ldr	r3, [pc, #348]	; (84538 <SystemCoreClockUpdate+0x164>)
   843da:	6b1b      	ldr	r3, [r3, #48]	; 0x30
   843dc:	f003 0303 	and.w	r3, r3, #3
   843e0:	2b03      	cmp	r3, #3
   843e2:	f200 808a 	bhi.w	844fa <SystemCoreClockUpdate+0x126>
   843e6:	a201      	add	r2, pc, #4	; (adr r2, 843ec <SystemCoreClockUpdate+0x18>)
   843e8:	f852 f023 	ldr.w	pc, [r2, r3, lsl #2]
   843ec:	000843fd 	.word	0x000843fd
   843f0:	0008441d 	.word	0x0008441d
   843f4:	0008446d 	.word	0x0008446d
   843f8:	0008446d 	.word	0x0008446d
	case PMC_MCKR_CSS_SLOW_CLK:	/* Slow clock */
		if (SUPC->SUPC_SR & SUPC_SR_OSCSEL) {
   843fc:	4b4f      	ldr	r3, [pc, #316]	; (8453c <SystemCoreClockUpdate+0x168>)
   843fe:	695b      	ldr	r3, [r3, #20]
   84400:	f003 0380 	and.w	r3, r3, #128	; 0x80
   84404:	2b00      	cmp	r3, #0
   84406:	d004      	beq.n	84412 <SystemCoreClockUpdate+0x3e>
			SystemCoreClock = CHIP_FREQ_XTAL_32K;
   84408:	4b4d      	ldr	r3, [pc, #308]	; (84540 <SystemCoreClockUpdate+0x16c>)
   8440a:	f44f 4200 	mov.w	r2, #32768	; 0x8000
   8440e:	601a      	str	r2, [r3, #0]
		} else {
			SystemCoreClock = CHIP_FREQ_SLCK_RC;
		}
		break;
   84410:	e073      	b.n	844fa <SystemCoreClockUpdate+0x126>
			SystemCoreClock = CHIP_FREQ_SLCK_RC;
   84412:	4b4b      	ldr	r3, [pc, #300]	; (84540 <SystemCoreClockUpdate+0x16c>)
   84414:	f44f 42fa 	mov.w	r2, #32000	; 0x7d00
   84418:	601a      	str	r2, [r3, #0]
		break;
   8441a:	e06e      	b.n	844fa <SystemCoreClockUpdate+0x126>
	case PMC_MCKR_CSS_MAIN_CLK:	/* Main clock */
		if (PMC->CKGR_MOR & CKGR_MOR_MOSCSEL) {
   8441c:	4b46      	ldr	r3, [pc, #280]	; (84538 <SystemCoreClockUpdate+0x164>)
   8441e:	6a1b      	ldr	r3, [r3, #32]
   84420:	f003 7380 	and.w	r3, r3, #16777216	; 0x1000000
   84424:	2b00      	cmp	r3, #0
   84426:	d003      	beq.n	84430 <SystemCoreClockUpdate+0x5c>
			SystemCoreClock = CHIP_FREQ_XTAL_12M;
   84428:	4b45      	ldr	r3, [pc, #276]	; (84540 <SystemCoreClockUpdate+0x16c>)
   8442a:	4a46      	ldr	r2, [pc, #280]	; (84544 <SystemCoreClockUpdate+0x170>)
   8442c:	601a      	str	r2, [r3, #0]
				break;
			default:
				break;
			}
		}
		break;
   8442e:	e064      	b.n	844fa <SystemCoreClockUpdate+0x126>
			SystemCoreClock = CHIP_FREQ_MAINCK_RC_4MHZ;
   84430:	4b43      	ldr	r3, [pc, #268]	; (84540 <SystemCoreClockUpdate+0x16c>)
   84432:	4a45      	ldr	r2, [pc, #276]	; (84548 <SystemCoreClockUpdate+0x174>)
   84434:	601a      	str	r2, [r3, #0]
			switch (PMC->CKGR_MOR & CKGR_MOR_MOSCRCF_Msk) {
   84436:	4b40      	ldr	r3, [pc, #256]	; (84538 <SystemCoreClockUpdate+0x164>)
   84438:	6a1b      	ldr	r3, [r3, #32]
   8443a:	f003 0370 	and.w	r3, r3, #112	; 0x70
   8443e:	2b10      	cmp	r3, #16
   84440:	d004      	beq.n	8444c <SystemCoreClockUpdate+0x78>
   84442:	2b20      	cmp	r3, #32
   84444:	d008      	beq.n	84458 <SystemCoreClockUpdate+0x84>
   84446:	2b00      	cmp	r3, #0
   84448:	d00e      	beq.n	84468 <SystemCoreClockUpdate+0x94>
				break;
   8444a:	e00e      	b.n	8446a <SystemCoreClockUpdate+0x96>
				SystemCoreClock *= 2U;
   8444c:	4b3c      	ldr	r3, [pc, #240]	; (84540 <SystemCoreClockUpdate+0x16c>)
   8444e:	681b      	ldr	r3, [r3, #0]
   84450:	005b      	lsls	r3, r3, #1
   84452:	4a3b      	ldr	r2, [pc, #236]	; (84540 <SystemCoreClockUpdate+0x16c>)
   84454:	6013      	str	r3, [r2, #0]
				break;
   84456:	e008      	b.n	8446a <SystemCoreClockUpdate+0x96>
				SystemCoreClock *= 3U;
   84458:	4b39      	ldr	r3, [pc, #228]	; (84540 <SystemCoreClockUpdate+0x16c>)
   8445a:	681a      	ldr	r2, [r3, #0]
   8445c:	4613      	mov	r3, r2
   8445e:	005b      	lsls	r3, r3, #1
   84460:	4413      	add	r3, r2
   84462:	4a37      	ldr	r2, [pc, #220]	; (84540 <SystemCoreClockUpdate+0x16c>)
   84464:	6013      	str	r3, [r2, #0]
				break;
   84466:	e000      	b.n	8446a <SystemCoreClockUpdate+0x96>
				break;
   84468:	bf00      	nop
		break;
   8446a:	e046      	b.n	844fa <SystemCoreClockUpdate+0x126>
	case PMC_MCKR_CSS_PLLA_CLK:	/* PLLA clock */
	case PMC_MCKR_CSS_UPLL_CLK:	/* UPLL clock */
		if (PMC->CKGR_MOR & CKGR_MOR_MOSCSEL) {
   8446c:	4b32      	ldr	r3, [pc, #200]	; (84538 <SystemCoreClockUpdate+0x164>)
   8446e:	6a1b      	ldr	r3, [r3, #32]
   84470:	f003 7380 	and.w	r3, r3, #16777216	; 0x1000000
   84474:	2b00      	cmp	r3, #0
   84476:	d003      	beq.n	84480 <SystemCoreClockUpdate+0xac>
			SystemCoreClock = CHIP_FREQ_XTAL_12M;
   84478:	4b31      	ldr	r3, [pc, #196]	; (84540 <SystemCoreClockUpdate+0x16c>)
   8447a:	4a32      	ldr	r2, [pc, #200]	; (84544 <SystemCoreClockUpdate+0x170>)
   8447c:	601a      	str	r2, [r3, #0]
   8447e:	e01c      	b.n	844ba <SystemCoreClockUpdate+0xe6>
		} else {
			SystemCoreClock = CHIP_FREQ_MAINCK_RC_4MHZ;
   84480:	4b2f      	ldr	r3, [pc, #188]	; (84540 <SystemCoreClockUpdate+0x16c>)
   84482:	4a31      	ldr	r2, [pc, #196]	; (84548 <SystemCoreClockUpdate+0x174>)
   84484:	601a      	str	r2, [r3, #0]

			switch (PMC->CKGR_MOR & CKGR_MOR_MOSCRCF_Msk) {
   84486:	4b2c      	ldr	r3, [pc, #176]	; (84538 <SystemCoreClockUpdate+0x164>)
   84488:	6a1b      	ldr	r3, [r3, #32]
   8448a:	f003 0370 	and.w	r3, r3, #112	; 0x70
   8448e:	2b10      	cmp	r3, #16
   84490:	d004      	beq.n	8449c <SystemCoreClockUpdate+0xc8>
   84492:	2b20      	cmp	r3, #32
   84494:	d008      	beq.n	844a8 <SystemCoreClockUpdate+0xd4>
   84496:	2b00      	cmp	r3, #0
   84498:	d00e      	beq.n	844b8 <SystemCoreClockUpdate+0xe4>
				break;
			case CKGR_MOR_MOSCRCF_12_MHz:
				SystemCoreClock *= 3U;
				break;
			default:
				break;
   8449a:	e00e      	b.n	844ba <SystemCoreClockUpdate+0xe6>
				SystemCoreClock *= 2U;
   8449c:	4b28      	ldr	r3, [pc, #160]	; (84540 <SystemCoreClockUpdate+0x16c>)
   8449e:	681b      	ldr	r3, [r3, #0]
   844a0:	005b      	lsls	r3, r3, #1
   844a2:	4a27      	ldr	r2, [pc, #156]	; (84540 <SystemCoreClockUpdate+0x16c>)
   844a4:	6013      	str	r3, [r2, #0]
				break;
   844a6:	e008      	b.n	844ba <SystemCoreClockUpdate+0xe6>
				SystemCoreClock *= 3U;
   844a8:	4b25      	ldr	r3, [pc, #148]	; (84540 <SystemCoreClockUpdate+0x16c>)
   844aa:	681a      	ldr	r2, [r3, #0]
   844ac:	4613      	mov	r3, r2
   844ae:	005b      	lsls	r3, r3, #1
   844b0:	4413      	add	r3, r2
   844b2:	4a23      	ldr	r2, [pc, #140]	; (84540 <SystemCoreClockUpdate+0x16c>)
   844b4:	6013      	str	r3, [r2, #0]
				break;
   844b6:	e000      	b.n	844ba <SystemCoreClockUpdate+0xe6>
				break;
   844b8:	bf00      	nop
			}
		}
		if ((PMC->PMC_MCKR & PMC_MCKR_CSS_Msk) == PMC_MCKR_CSS_PLLA_CLK) {
   844ba:	4b1f      	ldr	r3, [pc, #124]	; (84538 <SystemCoreClockUpdate+0x164>)
   844bc:	6b1b      	ldr	r3, [r3, #48]	; 0x30
   844be:	f003 0303 	and.w	r3, r3, #3
   844c2:	2b02      	cmp	r3, #2
   844c4:	d115      	bne.n	844f2 <SystemCoreClockUpdate+0x11e>
			SystemCoreClock *= ((((PMC->CKGR_PLLAR) & CKGR_PLLAR_MULA_Msk) >> 
   844c6:	4b1c      	ldr	r3, [pc, #112]	; (84538 <SystemCoreClockUpdate+0x164>)
   844c8:	6a9b      	ldr	r3, [r3, #40]	; 0x28
   844ca:	0c1b      	lsrs	r3, r3, #16
   844cc:	f3c3 030a 	ubfx	r3, r3, #0, #11
				                            CKGR_PLLAR_MULA_Pos) + 1U);
   844d0:	3301      	adds	r3, #1
			SystemCoreClock *= ((((PMC->CKGR_PLLAR) & CKGR_PLLAR_MULA_Msk) >> 
   844d2:	4a1b      	ldr	r2, [pc, #108]	; (84540 <SystemCoreClockUpdate+0x16c>)
   844d4:	6812      	ldr	r2, [r2, #0]
   844d6:	fb02 f303 	mul.w	r3, r2, r3
   844da:	4a19      	ldr	r2, [pc, #100]	; (84540 <SystemCoreClockUpdate+0x16c>)
   844dc:	6013      	str	r3, [r2, #0]
			SystemCoreClock /= ((((PMC->CKGR_PLLAR) & CKGR_PLLAR_DIVA_Msk) >> 
   844de:	4b16      	ldr	r3, [pc, #88]	; (84538 <SystemCoreClockUpdate+0x164>)
   844e0:	6a9b      	ldr	r3, [r3, #40]	; 0x28
   844e2:	b2db      	uxtb	r3, r3
   844e4:	4a16      	ldr	r2, [pc, #88]	; (84540 <SystemCoreClockUpdate+0x16c>)
   844e6:	6812      	ldr	r2, [r2, #0]
   844e8:	fbb2 f3f3 	udiv	r3, r2, r3
   844ec:	4a14      	ldr	r2, [pc, #80]	; (84540 <SystemCoreClockUpdate+0x16c>)
   844ee:	6013      	str	r3, [r2, #0]
				                             CKGR_PLLAR_DIVA_Pos));
		} else {
			SystemCoreClock = SYS_UTMIPLL / 2U;
		}
		break;
   844f0:	e002      	b.n	844f8 <SystemCoreClockUpdate+0x124>
			SystemCoreClock = SYS_UTMIPLL / 2U;
   844f2:	4b13      	ldr	r3, [pc, #76]	; (84540 <SystemCoreClockUpdate+0x16c>)
   844f4:	4a15      	ldr	r2, [pc, #84]	; (8454c <SystemCoreClockUpdate+0x178>)
   844f6:	601a      	str	r2, [r3, #0]
		break;
   844f8:	bf00      	nop
	}

	if ((PMC->PMC_MCKR & PMC_MCKR_PRES_Msk) == PMC_MCKR_PRES_CLK_3) {
   844fa:	4b0f      	ldr	r3, [pc, #60]	; (84538 <SystemCoreClockUpdate+0x164>)
   844fc:	6b1b      	ldr	r3, [r3, #48]	; 0x30
   844fe:	f003 0370 	and.w	r3, r3, #112	; 0x70
   84502:	2b70      	cmp	r3, #112	; 0x70
   84504:	d108      	bne.n	84518 <SystemCoreClockUpdate+0x144>
		SystemCoreClock /= 3U;
   84506:	4b0e      	ldr	r3, [pc, #56]	; (84540 <SystemCoreClockUpdate+0x16c>)
   84508:	681b      	ldr	r3, [r3, #0]
   8450a:	4a11      	ldr	r2, [pc, #68]	; (84550 <SystemCoreClockUpdate+0x17c>)
   8450c:	fba2 2303 	umull	r2, r3, r2, r3
   84510:	085b      	lsrs	r3, r3, #1
   84512:	4a0b      	ldr	r2, [pc, #44]	; (84540 <SystemCoreClockUpdate+0x16c>)
   84514:	6013      	str	r3, [r2, #0]
	} else {
		SystemCoreClock >>= ((PMC->PMC_MCKR & PMC_MCKR_PRES_Msk) >> 
			                          PMC_MCKR_PRES_Pos);
	}
}
   84516:	e00a      	b.n	8452e <SystemCoreClockUpdate+0x15a>
		SystemCoreClock >>= ((PMC->PMC_MCKR & PMC_MCKR_PRES_Msk) >> 
   84518:	4b07      	ldr	r3, [pc, #28]	; (84538 <SystemCoreClockUpdate+0x164>)
   8451a:	6b1b      	ldr	r3, [r3, #48]	; 0x30
   8451c:	091b      	lsrs	r3, r3, #4
   8451e:	f003 0307 	and.w	r3, r3, #7
   84522:	4a07      	ldr	r2, [pc, #28]	; (84540 <SystemCoreClockUpdate+0x16c>)
   84524:	6812      	ldr	r2, [r2, #0]
   84526:	fa22 f303 	lsr.w	r3, r2, r3
   8452a:	4a05      	ldr	r2, [pc, #20]	; (84540 <SystemCoreClockUpdate+0x16c>)
   8452c:	6013      	str	r3, [r2, #0]
}
   8452e:	bf00      	nop
   84530:	46bd      	mov	sp, r7
   84532:	bc80      	pop	{r7}
   84534:	4770      	bx	lr
   84536:	bf00      	nop
   84538:	400e0600 	.word	0x400e0600
   8453c:	400e1a10 	.word	0x400e1a10
   84540:	2007019c 	.word	0x2007019c
   84544:	00b71b00 	.word	0x00b71b00
   84548:	003d0900 	.word	0x003d0900
   8454c:	0e4e1c00 	.word	0x0e4e1c00
   84550:	aaaaaaab 	.word	0xaaaaaaab

00084554 <_sbrk>:
extern void _exit(int status);
extern void _kill(int pid, int sig);
extern int _getpid(void);

extern caddr_t _sbrk(int incr)
{
   84554:	b480      	push	{r7}
   84556:	b085      	sub	sp, #20
   84558:	af00      	add	r7, sp, #0
   8455a:	6078      	str	r0, [r7, #4]
	static unsigned char *heap = NULL;
	unsigned char *prev_heap;
	int ramend = (int)&__ram_end__;
   8455c:	4b10      	ldr	r3, [pc, #64]	; (845a0 <_sbrk+0x4c>)
   8455e:	60fb      	str	r3, [r7, #12]

	if (heap == NULL) {
   84560:	4b10      	ldr	r3, [pc, #64]	; (845a4 <_sbrk+0x50>)
   84562:	681b      	ldr	r3, [r3, #0]
   84564:	2b00      	cmp	r3, #0
   84566:	d102      	bne.n	8456e <_sbrk+0x1a>
		heap = (unsigned char *)&_end;
   84568:	4b0e      	ldr	r3, [pc, #56]	; (845a4 <_sbrk+0x50>)
   8456a:	4a0f      	ldr	r2, [pc, #60]	; (845a8 <_sbrk+0x54>)
   8456c:	601a      	str	r2, [r3, #0]
	}
	prev_heap = heap;
   8456e:	4b0d      	ldr	r3, [pc, #52]	; (845a4 <_sbrk+0x50>)
   84570:	681b      	ldr	r3, [r3, #0]
   84572:	60bb      	str	r3, [r7, #8]

	if (((int)prev_heap + incr) > ramend) {
   84574:	68ba      	ldr	r2, [r7, #8]
   84576:	687b      	ldr	r3, [r7, #4]
   84578:	441a      	add	r2, r3
   8457a:	68fb      	ldr	r3, [r7, #12]
   8457c:	429a      	cmp	r2, r3
   8457e:	dd02      	ble.n	84586 <_sbrk+0x32>
		return (caddr_t) -1;	
   84580:	f04f 33ff 	mov.w	r3, #4294967295
   84584:	e006      	b.n	84594 <_sbrk+0x40>
	}

	heap += incr;
   84586:	4b07      	ldr	r3, [pc, #28]	; (845a4 <_sbrk+0x50>)
   84588:	681a      	ldr	r2, [r3, #0]
   8458a:	687b      	ldr	r3, [r7, #4]
   8458c:	4413      	add	r3, r2
   8458e:	4a05      	ldr	r2, [pc, #20]	; (845a4 <_sbrk+0x50>)
   84590:	6013      	str	r3, [r2, #0]

	return (caddr_t) prev_heap;
   84592:	68bb      	ldr	r3, [r7, #8]
}
   84594:	4618      	mov	r0, r3
   84596:	3714      	adds	r7, #20
   84598:	46bd      	mov	sp, r7
   8459a:	bc80      	pop	{r7}
   8459c:	4770      	bx	lr
   8459e:	bf00      	nop
   845a0:	20087ffc 	.word	0x20087ffc
   845a4:	20070dd0 	.word	0x20070dd0
   845a8:	20072ff8 	.word	0x20072ff8

000845ac <NVIC_SetPriority>:
{
   845ac:	b480      	push	{r7}
   845ae:	b083      	sub	sp, #12
   845b0:	af00      	add	r7, sp, #0
   845b2:	4603      	mov	r3, r0
   845b4:	6039      	str	r1, [r7, #0]
   845b6:	71fb      	strb	r3, [r7, #7]
  if(IRQn < 0) {
   845b8:	f997 3007 	ldrsb.w	r3, [r7, #7]
   845bc:	2b00      	cmp	r3, #0
   845be:	da0b      	bge.n	845d8 <NVIC_SetPriority+0x2c>
    SCB->SHP[((uint32_t)(IRQn) & 0xF)-4] = ((priority << (8 - __NVIC_PRIO_BITS)) & 0xff); } /* set Priority for Cortex-M  System Interrupts */
   845c0:	490d      	ldr	r1, [pc, #52]	; (845f8 <NVIC_SetPriority+0x4c>)
   845c2:	79fb      	ldrb	r3, [r7, #7]
   845c4:	f003 030f 	and.w	r3, r3, #15
   845c8:	3b04      	subs	r3, #4
   845ca:	683a      	ldr	r2, [r7, #0]
   845cc:	b2d2      	uxtb	r2, r2
   845ce:	0112      	lsls	r2, r2, #4
   845d0:	b2d2      	uxtb	r2, r2
   845d2:	440b      	add	r3, r1
   845d4:	761a      	strb	r2, [r3, #24]
}
   845d6:	e009      	b.n	845ec <NVIC_SetPriority+0x40>
    NVIC->IP[(uint32_t)(IRQn)] = ((priority << (8 - __NVIC_PRIO_BITS)) & 0xff);    }        /* set Priority for device specific Interrupts  */
   845d8:	4908      	ldr	r1, [pc, #32]	; (845fc <NVIC_SetPriority+0x50>)
   845da:	f997 3007 	ldrsb.w	r3, [r7, #7]
   845de:	683a      	ldr	r2, [r7, #0]
   845e0:	b2d2      	uxtb	r2, r2
   845e2:	0112      	lsls	r2, r2, #4
   845e4:	b2d2      	uxtb	r2, r2
   845e6:	440b      	add	r3, r1
   845e8:	f883 2300 	strb.w	r2, [r3, #768]	; 0x300
}
   845ec:	bf00      	nop
   845ee:	370c      	adds	r7, #12
   845f0:	46bd      	mov	sp, r7
   845f2:	bc80      	pop	{r7}
   845f4:	4770      	bx	lr
   845f6:	bf00      	nop
   845f8:	e000ed00 	.word	0xe000ed00
   845fc:	e000e100 	.word	0xe000e100

00084600 <SysTick_Config>:
    function <b>SysTick_Config</b> is not included. In this case, the file <b><i>device</i>.h</b>
    must contain a vendor-specific implementation of this function.

 */
__STATIC_INLINE uint32_t SysTick_Config(uint32_t ticks)
{
   84600:	b580      	push	{r7, lr}
   84602:	b082      	sub	sp, #8
   84604:	af00      	add	r7, sp, #0
   84606:	6078      	str	r0, [r7, #4]
  if ((ticks - 1) > SysTick_LOAD_RELOAD_Msk)  return (1);      /* Reload value impossible */
   84608:	687b      	ldr	r3, [r7, #4]
   8460a:	3b01      	subs	r3, #1
   8460c:	f1b3 7f80 	cmp.w	r3, #16777216	; 0x1000000
   84610:	d301      	bcc.n	84616 <SysTick_Config+0x16>
   84612:	2301      	movs	r3, #1
   84614:	e00f      	b.n	84636 <SysTick_Config+0x36>

  SysTick->LOAD  = ticks - 1;                                  /* set reload register */
   84616:	4a0a      	ldr	r2, [pc, #40]	; (84640 <SysTick_Config+0x40>)
   84618:	687b      	ldr	r3, [r7, #4]
   8461a:	3b01      	subs	r3, #1
   8461c:	6053      	str	r3, [r2, #4]
  NVIC_SetPriority (SysTick_IRQn, (1<<__NVIC_PRIO_BITS) - 1);  /* set Priority for Systick Interrupt */
   8461e:	210f      	movs	r1, #15
   84620:	f04f 30ff 	mov.w	r0, #4294967295
   84624:	4b07      	ldr	r3, [pc, #28]	; (84644 <SysTick_Config+0x44>)
   84626:	4798      	blx	r3
  SysTick->VAL   = 0;                                          /* Load the SysTick Counter Value */
   84628:	4b05      	ldr	r3, [pc, #20]	; (84640 <SysTick_Config+0x40>)
   8462a:	2200      	movs	r2, #0
   8462c:	609a      	str	r2, [r3, #8]
  SysTick->CTRL  = SysTick_CTRL_CLKSOURCE_Msk |
   8462e:	4b04      	ldr	r3, [pc, #16]	; (84640 <SysTick_Config+0x40>)
   84630:	2207      	movs	r2, #7
   84632:	601a      	str	r2, [r3, #0]
                   SysTick_CTRL_TICKINT_Msk   |
                   SysTick_CTRL_ENABLE_Msk;                    /* Enable SysTick IRQ and SysTick Timer */
  return (0);                                                  /* Function successful */
   84634:	2300      	movs	r3, #0
}
   84636:	4618      	mov	r0, r3
   84638:	3708      	adds	r7, #8
   8463a:	46bd      	mov	sp, r7
   8463c:	bd80      	pop	{r7, pc}
   8463e:	bf00      	nop
   84640:	e000e010 	.word	0xe000e010
   84644:	000845ad 	.word	0x000845ad

00084648 <osc_get_rate>:
{
   84648:	b480      	push	{r7}
   8464a:	b083      	sub	sp, #12
   8464c:	af00      	add	r7, sp, #0
   8464e:	6078      	str	r0, [r7, #4]
	switch (ul_id) {
   84650:	687b      	ldr	r3, [r7, #4]
   84652:	2b07      	cmp	r3, #7
   84654:	d825      	bhi.n	846a2 <osc_get_rate+0x5a>
   84656:	a201      	add	r2, pc, #4	; (adr r2, 8465c <osc_get_rate+0x14>)
   84658:	f852 f023 	ldr.w	pc, [r2, r3, lsl #2]
   8465c:	0008467d 	.word	0x0008467d
   84660:	00084683 	.word	0x00084683
   84664:	00084689 	.word	0x00084689
   84668:	0008468f 	.word	0x0008468f
   8466c:	00084693 	.word	0x00084693
   84670:	00084697 	.word	0x00084697
   84674:	0008469b 	.word	0x0008469b
   84678:	0008469f 	.word	0x0008469f
		return OSC_SLCK_32K_RC_HZ;
   8467c:	f44f 43fa 	mov.w	r3, #32000	; 0x7d00
   84680:	e010      	b.n	846a4 <osc_get_rate+0x5c>
		return BOARD_FREQ_SLCK_XTAL;
   84682:	f44f 4300 	mov.w	r3, #32768	; 0x8000
   84686:	e00d      	b.n	846a4 <osc_get_rate+0x5c>
		return BOARD_FREQ_SLCK_BYPASS;
   84688:	f44f 4300 	mov.w	r3, #32768	; 0x8000
   8468c:	e00a      	b.n	846a4 <osc_get_rate+0x5c>
		return OSC_MAINCK_4M_RC_HZ;
   8468e:	4b08      	ldr	r3, [pc, #32]	; (846b0 <osc_get_rate+0x68>)
   84690:	e008      	b.n	846a4 <osc_get_rate+0x5c>
		return OSC_MAINCK_8M_RC_HZ;
   84692:	4b08      	ldr	r3, [pc, #32]	; (846b4 <osc_get_rate+0x6c>)
   84694:	e006      	b.n	846a4 <osc_get_rate+0x5c>
		return OSC_MAINCK_12M_RC_HZ;
   84696:	4b08      	ldr	r3, [pc, #32]	; (846b8 <osc_get_rate+0x70>)
   84698:	e004      	b.n	846a4 <osc_get_rate+0x5c>
		return BOARD_FREQ_MAINCK_XTAL;
   8469a:	4b07      	ldr	r3, [pc, #28]	; (846b8 <osc_get_rate+0x70>)
   8469c:	e002      	b.n	846a4 <osc_get_rate+0x5c>
		return BOARD_FREQ_MAINCK_BYPASS;
   8469e:	4b06      	ldr	r3, [pc, #24]	; (846b8 <osc_get_rate+0x70>)
   846a0:	e000      	b.n	846a4 <osc_get_rate+0x5c>
	return 0;
   846a2:	2300      	movs	r3, #0
}
   846a4:	4618      	mov	r0, r3
   846a6:	370c      	adds	r7, #12
   846a8:	46bd      	mov	sp, r7
   846aa:	bc80      	pop	{r7}
   846ac:	4770      	bx	lr
   846ae:	bf00      	nop
   846b0:	003d0900 	.word	0x003d0900
   846b4:	007a1200 	.word	0x007a1200
   846b8:	00b71b00 	.word	0x00b71b00

000846bc <sysclk_get_main_hz>:
{
   846bc:	b580      	push	{r7, lr}
   846be:	af00      	add	r7, sp, #0
		return pll_get_default_rate(0);
   846c0:	2006      	movs	r0, #6
   846c2:	4b04      	ldr	r3, [pc, #16]	; (846d4 <sysclk_get_main_hz+0x18>)
   846c4:	4798      	blx	r3
   846c6:	4602      	mov	r2, r0
   846c8:	4613      	mov	r3, r2
   846ca:	00db      	lsls	r3, r3, #3
   846cc:	1a9b      	subs	r3, r3, r2
   846ce:	005b      	lsls	r3, r3, #1
}
   846d0:	4618      	mov	r0, r3
   846d2:	bd80      	pop	{r7, pc}
   846d4:	00084649 	.word	0x00084649

000846d8 <sysclk_get_cpu_hz>:
{
   846d8:	b580      	push	{r7, lr}
   846da:	af00      	add	r7, sp, #0
	return sysclk_get_main_hz() /
   846dc:	4b02      	ldr	r3, [pc, #8]	; (846e8 <sysclk_get_cpu_hz+0x10>)
   846de:	4798      	blx	r3
   846e0:	4603      	mov	r3, r0
   846e2:	085b      	lsrs	r3, r3, #1
}
   846e4:	4618      	mov	r0, r3
   846e6:	bd80      	pop	{r7, pc}
   846e8:	000846bd 	.word	0x000846bd

000846ec <ioport_set_pin_level>:
{
   846ec:	b480      	push	{r7}
   846ee:	b08b      	sub	sp, #44	; 0x2c
   846f0:	af00      	add	r7, sp, #0
   846f2:	6078      	str	r0, [r7, #4]
   846f4:	460b      	mov	r3, r1
   846f6:	70fb      	strb	r3, [r7, #3]
   846f8:	687b      	ldr	r3, [r7, #4]
   846fa:	627b      	str	r3, [r7, #36]	; 0x24
   846fc:	78fb      	ldrb	r3, [r7, #3]
   846fe:	f887 3023 	strb.w	r3, [r7, #35]	; 0x23
   84702:	6a7b      	ldr	r3, [r7, #36]	; 0x24
   84704:	61fb      	str	r3, [r7, #28]
   84706:	69fb      	ldr	r3, [r7, #28]
   84708:	61bb      	str	r3, [r7, #24]
	return pin >> 5;
   8470a:	69bb      	ldr	r3, [r7, #24]
   8470c:	095b      	lsrs	r3, r3, #5
   8470e:	617b      	str	r3, [r7, #20]
	return (Pio *)((uintptr_t)IOPORT_BASE_ADDRESS +
   84710:	697b      	ldr	r3, [r7, #20]
   84712:	f503 1300 	add.w	r3, r3, #2097152	; 0x200000
   84716:	f203 7307 	addw	r3, r3, #1799	; 0x707
   8471a:	025b      	lsls	r3, r3, #9
	Pio *base = arch_ioport_pin_to_base(pin);
   8471c:	613b      	str	r3, [r7, #16]
	if (level) {
   8471e:	f897 3023 	ldrb.w	r3, [r7, #35]	; 0x23
   84722:	2b00      	cmp	r3, #0
   84724:	d009      	beq.n	8473a <ioport_set_pin_level+0x4e>
   84726:	6a7b      	ldr	r3, [r7, #36]	; 0x24
   84728:	60fb      	str	r3, [r7, #12]
	return 1U << (pin & 0x1F);
   8472a:	68fb      	ldr	r3, [r7, #12]
   8472c:	f003 031f 	and.w	r3, r3, #31
   84730:	2201      	movs	r2, #1
   84732:	409a      	lsls	r2, r3
		base->PIO_SODR = arch_ioport_pin_to_mask(pin);
   84734:	693b      	ldr	r3, [r7, #16]
   84736:	631a      	str	r2, [r3, #48]	; 0x30
}
   84738:	e008      	b.n	8474c <ioport_set_pin_level+0x60>
   8473a:	6a7b      	ldr	r3, [r7, #36]	; 0x24
   8473c:	60bb      	str	r3, [r7, #8]
	return 1U << (pin & 0x1F);
   8473e:	68bb      	ldr	r3, [r7, #8]
   84740:	f003 031f 	and.w	r3, r3, #31
   84744:	2201      	movs	r2, #1
   84746:	409a      	lsls	r2, r3
		base->PIO_CODR = arch_ioport_pin_to_mask(pin);
   84748:	693b      	ldr	r3, [r7, #16]
   8474a:	635a      	str	r2, [r3, #52]	; 0x34
   8474c:	bf00      	nop
   8474e:	372c      	adds	r7, #44	; 0x2c
   84750:	46bd      	mov	sp, r7
   84752:	bc80      	pop	{r7}
   84754:	4770      	bx	lr

00084756 <ioport_get_pin_level>:
{
   84756:	b480      	push	{r7}
   84758:	b089      	sub	sp, #36	; 0x24
   8475a:	af00      	add	r7, sp, #0
   8475c:	6078      	str	r0, [r7, #4]
   8475e:	687b      	ldr	r3, [r7, #4]
   84760:	61fb      	str	r3, [r7, #28]
   84762:	69fb      	ldr	r3, [r7, #28]
   84764:	61bb      	str	r3, [r7, #24]
   84766:	69bb      	ldr	r3, [r7, #24]
   84768:	617b      	str	r3, [r7, #20]
	return pin >> 5;
   8476a:	697b      	ldr	r3, [r7, #20]
   8476c:	095b      	lsrs	r3, r3, #5
   8476e:	613b      	str	r3, [r7, #16]
	return (Pio *)((uintptr_t)IOPORT_BASE_ADDRESS +
   84770:	693b      	ldr	r3, [r7, #16]
   84772:	f503 1300 	add.w	r3, r3, #2097152	; 0x200000
   84776:	f203 7307 	addw	r3, r3, #1799	; 0x707
   8477a:	025b      	lsls	r3, r3, #9
	return arch_ioport_pin_to_base(pin)->PIO_PDSR & arch_ioport_pin_to_mask(pin);
   8477c:	6bda      	ldr	r2, [r3, #60]	; 0x3c
   8477e:	69fb      	ldr	r3, [r7, #28]
   84780:	60fb      	str	r3, [r7, #12]
	return 1U << (pin & 0x1F);
   84782:	68fb      	ldr	r3, [r7, #12]
   84784:	f003 031f 	and.w	r3, r3, #31
   84788:	2101      	movs	r1, #1
   8478a:	fa01 f303 	lsl.w	r3, r1, r3
	return arch_ioport_pin_to_base(pin)->PIO_PDSR & arch_ioport_pin_to_mask(pin);
   8478e:	4013      	ands	r3, r2
   84790:	2b00      	cmp	r3, #0
   84792:	bf14      	ite	ne
   84794:	2301      	movne	r3, #1
   84796:	2300      	moveq	r3, #0
   84798:	b2db      	uxtb	r3, r3
}
   8479a:	4618      	mov	r0, r3
   8479c:	3724      	adds	r7, #36	; 0x24
   8479e:	46bd      	mov	sp, r7
   847a0:	bc80      	pop	{r7}
   847a2:	4770      	bx	lr

000847a4 <main>:

void noOS_bootup_sequence(void);
void set_led(ioport_pin_t pin, Bool level);

int main(void)
{
   847a4:	b580      	push	{r7, lr}
   847a6:	b082      	sub	sp, #8
   847a8:	af00      	add	r7, sp, #0
    event_t act_event;

    sysclk_init();
   847aa:	4b1b      	ldr	r3, [pc, #108]	; (84818 <main+0x74>)
   847ac:	4798      	blx	r3
    board_init();
   847ae:	4b1b      	ldr	r3, [pc, #108]	; (8481c <main+0x78>)
   847b0:	4798      	blx	r3
    SysTick_Config(sysclk_get_cpu_hz() / 1000);
   847b2:	4b1b      	ldr	r3, [pc, #108]	; (84820 <main+0x7c>)
   847b4:	4798      	blx	r3
   847b6:	4602      	mov	r2, r0
   847b8:	4b1a      	ldr	r3, [pc, #104]	; (84824 <main+0x80>)
   847ba:	fba3 2302 	umull	r2, r3, r3, r2
   847be:	099b      	lsrs	r3, r3, #6
   847c0:	4618      	mov	r0, r3
   847c2:	4b19      	ldr	r3, [pc, #100]	; (84828 <main+0x84>)
   847c4:	4798      	blx	r3
    
    motor_init();
   847c6:	4b19      	ldr	r3, [pc, #100]	; (8482c <main+0x88>)
   847c8:	4798      	blx	r3

    spi_init();
   847ca:	4b19      	ldr	r3, [pc, #100]	; (84830 <main+0x8c>)
   847cc:	4798      	blx	r3
    
    compass_init();
   847ce:	4b19      	ldr	r3, [pc, #100]	; (84834 <main+0x90>)
   847d0:	4798      	blx	r3
    lcd_init();
   847d2:	4b19      	ldr	r3, [pc, #100]	; (84838 <main+0x94>)
   847d4:	4798      	blx	r3
    
    noOS_bootup_sequence();
   847d6:	4b19      	ldr	r3, [pc, #100]	; (8483c <main+0x98>)
   847d8:	4798      	blx	r3

    enable_motor();
   847da:	4b19      	ldr	r3, [pc, #100]	; (84840 <main+0x9c>)
   847dc:	4798      	blx	r3

    while (1)
    {
        update_comm();
   847de:	4b19      	ldr	r3, [pc, #100]	; (84844 <main+0xa0>)
   847e0:	4798      	blx	r3
        update_heartbeat();
   847e2:	4b19      	ldr	r3, [pc, #100]	; (84848 <main+0xa4>)
   847e4:	4798      	blx	r3
        //check_battery();
        
        if (stm.ibit.heartbeat)
   847e6:	4b19      	ldr	r3, [pc, #100]	; (8484c <main+0xa8>)
   847e8:	781b      	ldrb	r3, [r3, #0]
   847ea:	f003 0301 	and.w	r3, r3, #1
   847ee:	b2db      	uxtb	r3, r3
   847f0:	2b00      	cmp	r3, #0
   847f2:	d004      	beq.n	847fe <main+0x5a>
        {
            set_led(LED_M2, 1);
   847f4:	2101      	movs	r1, #1
   847f6:	2068      	movs	r0, #104	; 0x68
   847f8:	4b15      	ldr	r3, [pc, #84]	; (84850 <main+0xac>)
   847fa:	4798      	blx	r3
   847fc:	e003      	b.n	84806 <main+0x62>
        }
        else
        {
            set_led(LED_M2, 0);
   847fe:	2100      	movs	r1, #0
   84800:	2068      	movs	r0, #104	; 0x68
   84802:	4b13      	ldr	r3, [pc, #76]	; (84850 <main+0xac>)
   84804:	4798      	blx	r3
        }

        //update_motor(1, 1, 0);

        act_event = button_events();
   84806:	4b13      	ldr	r3, [pc, #76]	; (84854 <main+0xb0>)
   84808:	4798      	blx	r3
   8480a:	4603      	mov	r3, r0
   8480c:	71fb      	strb	r3, [r7, #7]
        menu(act_event);
   8480e:	79fb      	ldrb	r3, [r7, #7]
   84810:	4618      	mov	r0, r3
   84812:	4b11      	ldr	r3, [pc, #68]	; (84858 <main+0xb4>)
   84814:	4798      	blx	r3
        update_comm();
   84816:	e7e2      	b.n	847de <main+0x3a>
   84818:	0008374d 	.word	0x0008374d
   8481c:	00083fb5 	.word	0x00083fb5
   84820:	000846d9 	.word	0x000846d9
   84824:	10624dd3 	.word	0x10624dd3
   84828:	00084601 	.word	0x00084601
   8482c:	00082c75 	.word	0x00082c75
   84830:	00080c25 	.word	0x00080c25
   84834:	0008169d 	.word	0x0008169d
   84838:	000818dd 	.word	0x000818dd
   8483c:	0008485d 	.word	0x0008485d
   84840:	00082e5d 	.word	0x00082e5d
   84844:	000832c1 	.word	0x000832c1
   84848:	000833b5 	.word	0x000833b5
   8484c:	20070e14 	.word	0x20070e14
   84850:	00084a11 	.word	0x00084a11
   84854:	000828b1 	.word	0x000828b1
   84858:	00081f21 	.word	0x00081f21

0008485c <noOS_bootup_sequence>:
    }
}

void noOS_bootup_sequence(void)
{
   8485c:	b580      	push	{r7, lr}
   8485e:	b082      	sub	sp, #8
   84860:	af00      	add	r7, sp, #0
    while (!ioport_get_pin_level(RPI2) && ioport_get_pin_level(PB_MID))
   84862:	e072      	b.n	8494a <noOS_bootup_sequence+0xee>
    {
        if (getTicks() >= (ticks_blink_update + 800))
   84864:	4b5e      	ldr	r3, [pc, #376]	; (849e0 <noOS_bootup_sequence+0x184>)
   84866:	4798      	blx	r3
   84868:	4602      	mov	r2, r0
   8486a:	4b5e      	ldr	r3, [pc, #376]	; (849e4 <noOS_bootup_sequence+0x188>)
   8486c:	681b      	ldr	r3, [r3, #0]
   8486e:	f503 7348 	add.w	r3, r3, #800	; 0x320
   84872:	429a      	cmp	r2, r3
   84874:	d31a      	bcc.n	848ac <noOS_bootup_sequence+0x50>
        {
            ticks_blink_update = getTicks();
   84876:	4b5a      	ldr	r3, [pc, #360]	; (849e0 <noOS_bootup_sequence+0x184>)
   84878:	4798      	blx	r3
   8487a:	4602      	mov	r2, r0
   8487c:	4b59      	ldr	r3, [pc, #356]	; (849e4 <noOS_bootup_sequence+0x188>)
   8487e:	601a      	str	r2, [r3, #0]
            
            if (blink_level)
   84880:	4b59      	ldr	r3, [pc, #356]	; (849e8 <noOS_bootup_sequence+0x18c>)
   84882:	781b      	ldrb	r3, [r3, #0]
   84884:	2b00      	cmp	r3, #0
   84886:	d003      	beq.n	84890 <noOS_bootup_sequence+0x34>
            {
                blink_level = 0;
   84888:	4b57      	ldr	r3, [pc, #348]	; (849e8 <noOS_bootup_sequence+0x18c>)
   8488a:	2200      	movs	r2, #0
   8488c:	701a      	strb	r2, [r3, #0]
   8488e:	e002      	b.n	84896 <noOS_bootup_sequence+0x3a>
            }
            else
            {
                blink_level = 1;
   84890:	4b55      	ldr	r3, [pc, #340]	; (849e8 <noOS_bootup_sequence+0x18c>)
   84892:	2201      	movs	r2, #1
   84894:	701a      	strb	r2, [r3, #0]
            }
            
            ioport_set_pin_level(LED_BAT, blink_level);
   84896:	4b54      	ldr	r3, [pc, #336]	; (849e8 <noOS_bootup_sequence+0x18c>)
   84898:	781b      	ldrb	r3, [r3, #0]
   8489a:	2b00      	cmp	r3, #0
   8489c:	bf14      	ite	ne
   8489e:	2301      	movne	r3, #1
   848a0:	2300      	moveq	r3, #0
   848a2:	b2db      	uxtb	r3, r3
   848a4:	4619      	mov	r1, r3
   848a6:	2066      	movs	r0, #102	; 0x66
   848a8:	4b50      	ldr	r3, [pc, #320]	; (849ec <noOS_bootup_sequence+0x190>)
   848aa:	4798      	blx	r3
        }
        
        if (getTicks() >= (ticks_dot_update + 500))
   848ac:	4b4c      	ldr	r3, [pc, #304]	; (849e0 <noOS_bootup_sequence+0x184>)
   848ae:	4798      	blx	r3
   848b0:	4602      	mov	r2, r0
   848b2:	4b4f      	ldr	r3, [pc, #316]	; (849f0 <noOS_bootup_sequence+0x194>)
   848b4:	681b      	ldr	r3, [r3, #0]
   848b6:	f503 73fa 	add.w	r3, r3, #500	; 0x1f4
   848ba:	429a      	cmp	r2, r3
   848bc:	d315      	bcc.n	848ea <noOS_bootup_sequence+0x8e>
        {
            ticks_dot_update = getTicks();
   848be:	4b48      	ldr	r3, [pc, #288]	; (849e0 <noOS_bootup_sequence+0x184>)
   848c0:	4798      	blx	r3
   848c2:	4602      	mov	r2, r0
   848c4:	4b4a      	ldr	r3, [pc, #296]	; (849f0 <noOS_bootup_sequence+0x194>)
   848c6:	601a      	str	r2, [r3, #0]
            
            if (dots < 3)
   848c8:	4b4a      	ldr	r3, [pc, #296]	; (849f4 <noOS_bootup_sequence+0x198>)
   848ca:	781b      	ldrb	r3, [r3, #0]
   848cc:	2b02      	cmp	r3, #2
   848ce:	d806      	bhi.n	848de <noOS_bootup_sequence+0x82>
            {
                dots++;
   848d0:	4b48      	ldr	r3, [pc, #288]	; (849f4 <noOS_bootup_sequence+0x198>)
   848d2:	781b      	ldrb	r3, [r3, #0]
   848d4:	3301      	adds	r3, #1
   848d6:	b2da      	uxtb	r2, r3
   848d8:	4b46      	ldr	r3, [pc, #280]	; (849f4 <noOS_bootup_sequence+0x198>)
   848da:	701a      	strb	r2, [r3, #0]
   848dc:	e002      	b.n	848e4 <noOS_bootup_sequence+0x88>
            }
            else
            {
                dots = 0;
   848de:	4b45      	ldr	r3, [pc, #276]	; (849f4 <noOS_bootup_sequence+0x198>)
   848e0:	2200      	movs	r2, #0
   848e2:	701a      	strb	r2, [r3, #0]
            }
            
            update_dots = 1;
   848e4:	4b44      	ldr	r3, [pc, #272]	; (849f8 <noOS_bootup_sequence+0x19c>)
   848e6:	2201      	movs	r2, #1
   848e8:	701a      	strb	r2, [r3, #0]
        }
        
        if (update_dots)
   848ea:	4b43      	ldr	r3, [pc, #268]	; (849f8 <noOS_bootup_sequence+0x19c>)
   848ec:	781b      	ldrb	r3, [r3, #0]
   848ee:	2b00      	cmp	r3, #0
   848f0:	d02b      	beq.n	8494a <noOS_bootup_sequence+0xee>
        {
            update_dots = 0;
   848f2:	4b41      	ldr	r3, [pc, #260]	; (849f8 <noOS_bootup_sequence+0x19c>)
   848f4:	2200      	movs	r2, #0
   848f6:	701a      	strb	r2, [r3, #0]
            
            switch (dots)
   848f8:	4b3e      	ldr	r3, [pc, #248]	; (849f4 <noOS_bootup_sequence+0x198>)
   848fa:	781b      	ldrb	r3, [r3, #0]
   848fc:	2b03      	cmp	r3, #3
   848fe:	d823      	bhi.n	84948 <noOS_bootup_sequence+0xec>
   84900:	a201      	add	r2, pc, #4	; (adr r2, 84908 <noOS_bootup_sequence+0xac>)
   84902:	f852 f023 	ldr.w	pc, [r2, r3, lsl #2]
   84906:	bf00      	nop
   84908:	00084919 	.word	0x00084919
   8490c:	00084925 	.word	0x00084925
   84910:	00084931 	.word	0x00084931
   84914:	0008493d 	.word	0x0008493d
            {
                case 0:
                lcd_print_s(2, 2, "booting noOS   ");
   84918:	4a38      	ldr	r2, [pc, #224]	; (849fc <noOS_bootup_sequence+0x1a0>)
   8491a:	2102      	movs	r1, #2
   8491c:	2002      	movs	r0, #2
   8491e:	4b38      	ldr	r3, [pc, #224]	; (84a00 <noOS_bootup_sequence+0x1a4>)
   84920:	4798      	blx	r3
                break;
   84922:	e012      	b.n	8494a <noOS_bootup_sequence+0xee>
                case 1:
                lcd_print_s(2, 14, ".");
   84924:	4a37      	ldr	r2, [pc, #220]	; (84a04 <noOS_bootup_sequence+0x1a8>)
   84926:	210e      	movs	r1, #14
   84928:	2002      	movs	r0, #2
   8492a:	4b35      	ldr	r3, [pc, #212]	; (84a00 <noOS_bootup_sequence+0x1a4>)
   8492c:	4798      	blx	r3
                break;
   8492e:	e00c      	b.n	8494a <noOS_bootup_sequence+0xee>
                case 2:
                lcd_print_s(2, 15, ".");
   84930:	4a34      	ldr	r2, [pc, #208]	; (84a04 <noOS_bootup_sequence+0x1a8>)
   84932:	210f      	movs	r1, #15
   84934:	2002      	movs	r0, #2
   84936:	4b32      	ldr	r3, [pc, #200]	; (84a00 <noOS_bootup_sequence+0x1a4>)
   84938:	4798      	blx	r3
                break;
   8493a:	e006      	b.n	8494a <noOS_bootup_sequence+0xee>
                case 3:
                lcd_print_s(2, 16, ".");
   8493c:	4a31      	ldr	r2, [pc, #196]	; (84a04 <noOS_bootup_sequence+0x1a8>)
   8493e:	2110      	movs	r1, #16
   84940:	2002      	movs	r0, #2
   84942:	4b2f      	ldr	r3, [pc, #188]	; (84a00 <noOS_bootup_sequence+0x1a4>)
   84944:	4798      	blx	r3
                break;
   84946:	e000      	b.n	8494a <noOS_bootup_sequence+0xee>
                default:
                break;
   84948:	bf00      	nop
    while (!ioport_get_pin_level(RPI2) && ioport_get_pin_level(PB_MID))
   8494a:	2008      	movs	r0, #8
   8494c:	4b2e      	ldr	r3, [pc, #184]	; (84a08 <noOS_bootup_sequence+0x1ac>)
   8494e:	4798      	blx	r3
   84950:	4603      	mov	r3, r0
   84952:	f083 0301 	eor.w	r3, r3, #1
   84956:	b2db      	uxtb	r3, r3
   84958:	2b00      	cmp	r3, #0
   8495a:	d006      	beq.n	8496a <noOS_bootup_sequence+0x10e>
   8495c:	2062      	movs	r0, #98	; 0x62
   8495e:	4b2a      	ldr	r3, [pc, #168]	; (84a08 <noOS_bootup_sequence+0x1ac>)
   84960:	4798      	blx	r3
   84962:	4603      	mov	r3, r0
   84964:	2b00      	cmp	r3, #0
   84966:	f47f af7d 	bne.w	84864 <noOS_bootup_sequence+0x8>
            }
        }
    }
    
    for(int i = 0; i< 3; i++)
   8496a:	2300      	movs	r3, #0
   8496c:	607b      	str	r3, [r7, #4]
   8496e:	e030      	b.n	849d2 <noOS_bootup_sequence+0x176>
    {
        ioport_set_pin_level(LED_ONBOARD, 1);
   84970:	2101      	movs	r1, #1
   84972:	206a      	movs	r0, #106	; 0x6a
   84974:	4b1d      	ldr	r3, [pc, #116]	; (849ec <noOS_bootup_sequence+0x190>)
   84976:	4798      	blx	r3
        ioport_set_pin_level(LED_BAT, 1);
   84978:	2101      	movs	r1, #1
   8497a:	2066      	movs	r0, #102	; 0x66
   8497c:	4b1b      	ldr	r3, [pc, #108]	; (849ec <noOS_bootup_sequence+0x190>)
   8497e:	4798      	blx	r3
        ioport_set_pin_level(LED_M1, 1);
   84980:	2101      	movs	r1, #1
   84982:	2067      	movs	r0, #103	; 0x67
   84984:	4b19      	ldr	r3, [pc, #100]	; (849ec <noOS_bootup_sequence+0x190>)
   84986:	4798      	blx	r3
        ioport_set_pin_level(LED_M2, 1);
   84988:	2101      	movs	r1, #1
   8498a:	2068      	movs	r0, #104	; 0x68
   8498c:	4b17      	ldr	r3, [pc, #92]	; (849ec <noOS_bootup_sequence+0x190>)
   8498e:	4798      	blx	r3
        ioport_set_pin_level(LED_M3, 1);
   84990:	2101      	movs	r1, #1
   84992:	2069      	movs	r0, #105	; 0x69
   84994:	4b15      	ldr	r3, [pc, #84]	; (849ec <noOS_bootup_sequence+0x190>)
   84996:	4798      	blx	r3
        mdelay(100);
   84998:	2064      	movs	r0, #100	; 0x64
   8499a:	4b1c      	ldr	r3, [pc, #112]	; (84a0c <noOS_bootup_sequence+0x1b0>)
   8499c:	4798      	blx	r3
        ioport_set_pin_level(LED_ONBOARD, 0);
   8499e:	2100      	movs	r1, #0
   849a0:	206a      	movs	r0, #106	; 0x6a
   849a2:	4b12      	ldr	r3, [pc, #72]	; (849ec <noOS_bootup_sequence+0x190>)
   849a4:	4798      	blx	r3
        ioport_set_pin_level(LED_BAT, 0);
   849a6:	2100      	movs	r1, #0
   849a8:	2066      	movs	r0, #102	; 0x66
   849aa:	4b10      	ldr	r3, [pc, #64]	; (849ec <noOS_bootup_sequence+0x190>)
   849ac:	4798      	blx	r3
        ioport_set_pin_level(LED_M1, 0);
   849ae:	2100      	movs	r1, #0
   849b0:	2067      	movs	r0, #103	; 0x67
   849b2:	4b0e      	ldr	r3, [pc, #56]	; (849ec <noOS_bootup_sequence+0x190>)
   849b4:	4798      	blx	r3
        ioport_set_pin_level(LED_M2, 0);
   849b6:	2100      	movs	r1, #0
   849b8:	2068      	movs	r0, #104	; 0x68
   849ba:	4b0c      	ldr	r3, [pc, #48]	; (849ec <noOS_bootup_sequence+0x190>)
   849bc:	4798      	blx	r3
        ioport_set_pin_level(LED_M3, 0);
   849be:	2100      	movs	r1, #0
   849c0:	2069      	movs	r0, #105	; 0x69
   849c2:	4b0a      	ldr	r3, [pc, #40]	; (849ec <noOS_bootup_sequence+0x190>)
   849c4:	4798      	blx	r3
        mdelay(100);
   849c6:	2064      	movs	r0, #100	; 0x64
   849c8:	4b10      	ldr	r3, [pc, #64]	; (84a0c <noOS_bootup_sequence+0x1b0>)
   849ca:	4798      	blx	r3
    for(int i = 0; i< 3; i++)
   849cc:	687b      	ldr	r3, [r7, #4]
   849ce:	3301      	adds	r3, #1
   849d0:	607b      	str	r3, [r7, #4]
   849d2:	687b      	ldr	r3, [r7, #4]
   849d4:	2b02      	cmp	r3, #2
   849d6:	ddcb      	ble.n	84970 <noOS_bootup_sequence+0x114>
    }
}
   849d8:	bf00      	nop
   849da:	3708      	adds	r7, #8
   849dc:	46bd      	mov	sp, r7
   849de:	bd80      	pop	{r7, pc}
   849e0:	00083281 	.word	0x00083281
   849e4:	20070fc8 	.word	0x20070fc8
   849e8:	20070fc4 	.word	0x20070fc4
   849ec:	000846ed 	.word	0x000846ed
   849f0:	20070fcc 	.word	0x20070fcc
   849f4:	20070dd4 	.word	0x20070dd4
   849f8:	200701a0 	.word	0x200701a0
   849fc:	00089a24 	.word	0x00089a24
   84a00:	000819cd 	.word	0x000819cd
   84a04:	00089a34 	.word	0x00089a34
   84a08:	00084757 	.word	0x00084757
   84a0c:	00083295 	.word	0x00083295

00084a10 <set_led>:

void set_led(ioport_pin_t pin, Bool level)
{
   84a10:	b580      	push	{r7, lr}
   84a12:	b082      	sub	sp, #8
   84a14:	af00      	add	r7, sp, #0
   84a16:	6078      	str	r0, [r7, #4]
   84a18:	460b      	mov	r3, r1
   84a1a:	70fb      	strb	r3, [r7, #3]
    if (allow_leds)
   84a1c:	4b0b      	ldr	r3, [pc, #44]	; (84a4c <set_led+0x3c>)
   84a1e:	781b      	ldrb	r3, [r3, #0]
   84a20:	2b00      	cmp	r3, #0
   84a22:	d00a      	beq.n	84a3a <set_led+0x2a>
    {
        ioport_set_pin_level(pin, level);
   84a24:	78fb      	ldrb	r3, [r7, #3]
   84a26:	2b00      	cmp	r3, #0
   84a28:	bf14      	ite	ne
   84a2a:	2301      	movne	r3, #1
   84a2c:	2300      	moveq	r3, #0
   84a2e:	b2db      	uxtb	r3, r3
   84a30:	4619      	mov	r1, r3
   84a32:	6878      	ldr	r0, [r7, #4]
   84a34:	4b06      	ldr	r3, [pc, #24]	; (84a50 <set_led+0x40>)
   84a36:	4798      	blx	r3
    }
    else
    {
        ioport_set_pin_level(pin, 0);
    }
}
   84a38:	e003      	b.n	84a42 <set_led+0x32>
        ioport_set_pin_level(pin, 0);
   84a3a:	2100      	movs	r1, #0
   84a3c:	6878      	ldr	r0, [r7, #4]
   84a3e:	4b04      	ldr	r3, [pc, #16]	; (84a50 <set_led+0x40>)
   84a40:	4798      	blx	r3
}
   84a42:	bf00      	nop
   84a44:	3708      	adds	r7, #8
   84a46:	46bd      	mov	sp, r7
   84a48:	bd80      	pop	{r7, pc}
   84a4a:	bf00      	nop
   84a4c:	2007018d 	.word	0x2007018d
   84a50:	000846ed 	.word	0x000846ed

00084a54 <__aeabi_drsub>:
   84a54:	f081 4100 	eor.w	r1, r1, #2147483648	; 0x80000000
   84a58:	e002      	b.n	84a60 <__adddf3>
   84a5a:	bf00      	nop

00084a5c <__aeabi_dsub>:
   84a5c:	f083 4300 	eor.w	r3, r3, #2147483648	; 0x80000000

00084a60 <__adddf3>:
   84a60:	b530      	push	{r4, r5, lr}
   84a62:	ea4f 0441 	mov.w	r4, r1, lsl #1
   84a66:	ea4f 0543 	mov.w	r5, r3, lsl #1
   84a6a:	ea94 0f05 	teq	r4, r5
   84a6e:	bf08      	it	eq
   84a70:	ea90 0f02 	teqeq	r0, r2
   84a74:	bf1f      	itttt	ne
   84a76:	ea54 0c00 	orrsne.w	ip, r4, r0
   84a7a:	ea55 0c02 	orrsne.w	ip, r5, r2
   84a7e:	ea7f 5c64 	mvnsne.w	ip, r4, asr #21
   84a82:	ea7f 5c65 	mvnsne.w	ip, r5, asr #21
   84a86:	f000 80e2 	beq.w	84c4e <__adddf3+0x1ee>
   84a8a:	ea4f 5454 	mov.w	r4, r4, lsr #21
   84a8e:	ebd4 5555 	rsbs	r5, r4, r5, lsr #21
   84a92:	bfb8      	it	lt
   84a94:	426d      	neglt	r5, r5
   84a96:	dd0c      	ble.n	84ab2 <__adddf3+0x52>
   84a98:	442c      	add	r4, r5
   84a9a:	ea80 0202 	eor.w	r2, r0, r2
   84a9e:	ea81 0303 	eor.w	r3, r1, r3
   84aa2:	ea82 0000 	eor.w	r0, r2, r0
   84aa6:	ea83 0101 	eor.w	r1, r3, r1
   84aaa:	ea80 0202 	eor.w	r2, r0, r2
   84aae:	ea81 0303 	eor.w	r3, r1, r3
   84ab2:	2d36      	cmp	r5, #54	; 0x36
   84ab4:	bf88      	it	hi
   84ab6:	bd30      	pophi	{r4, r5, pc}
   84ab8:	f011 4f00 	tst.w	r1, #2147483648	; 0x80000000
   84abc:	ea4f 3101 	mov.w	r1, r1, lsl #12
   84ac0:	f44f 1c80 	mov.w	ip, #1048576	; 0x100000
   84ac4:	ea4c 3111 	orr.w	r1, ip, r1, lsr #12
   84ac8:	d002      	beq.n	84ad0 <__adddf3+0x70>
   84aca:	4240      	negs	r0, r0
   84acc:	eb61 0141 	sbc.w	r1, r1, r1, lsl #1
   84ad0:	f013 4f00 	tst.w	r3, #2147483648	; 0x80000000
   84ad4:	ea4f 3303 	mov.w	r3, r3, lsl #12
   84ad8:	ea4c 3313 	orr.w	r3, ip, r3, lsr #12
   84adc:	d002      	beq.n	84ae4 <__adddf3+0x84>
   84ade:	4252      	negs	r2, r2
   84ae0:	eb63 0343 	sbc.w	r3, r3, r3, lsl #1
   84ae4:	ea94 0f05 	teq	r4, r5
   84ae8:	f000 80a7 	beq.w	84c3a <__adddf3+0x1da>
   84aec:	f1a4 0401 	sub.w	r4, r4, #1
   84af0:	f1d5 0e20 	rsbs	lr, r5, #32
   84af4:	db0d      	blt.n	84b12 <__adddf3+0xb2>
   84af6:	fa02 fc0e 	lsl.w	ip, r2, lr
   84afa:	fa22 f205 	lsr.w	r2, r2, r5
   84afe:	1880      	adds	r0, r0, r2
   84b00:	f141 0100 	adc.w	r1, r1, #0
   84b04:	fa03 f20e 	lsl.w	r2, r3, lr
   84b08:	1880      	adds	r0, r0, r2
   84b0a:	fa43 f305 	asr.w	r3, r3, r5
   84b0e:	4159      	adcs	r1, r3
   84b10:	e00e      	b.n	84b30 <__adddf3+0xd0>
   84b12:	f1a5 0520 	sub.w	r5, r5, #32
   84b16:	f10e 0e20 	add.w	lr, lr, #32
   84b1a:	2a01      	cmp	r2, #1
   84b1c:	fa03 fc0e 	lsl.w	ip, r3, lr
   84b20:	bf28      	it	cs
   84b22:	f04c 0c02 	orrcs.w	ip, ip, #2
   84b26:	fa43 f305 	asr.w	r3, r3, r5
   84b2a:	18c0      	adds	r0, r0, r3
   84b2c:	eb51 71e3 	adcs.w	r1, r1, r3, asr #31
   84b30:	f001 4500 	and.w	r5, r1, #2147483648	; 0x80000000
   84b34:	d507      	bpl.n	84b46 <__adddf3+0xe6>
   84b36:	f04f 0e00 	mov.w	lr, #0
   84b3a:	f1dc 0c00 	rsbs	ip, ip, #0
   84b3e:	eb7e 0000 	sbcs.w	r0, lr, r0
   84b42:	eb6e 0101 	sbc.w	r1, lr, r1
   84b46:	f5b1 1f80 	cmp.w	r1, #1048576	; 0x100000
   84b4a:	d31b      	bcc.n	84b84 <__adddf3+0x124>
   84b4c:	f5b1 1f00 	cmp.w	r1, #2097152	; 0x200000
   84b50:	d30c      	bcc.n	84b6c <__adddf3+0x10c>
   84b52:	0849      	lsrs	r1, r1, #1
   84b54:	ea5f 0030 	movs.w	r0, r0, rrx
   84b58:	ea4f 0c3c 	mov.w	ip, ip, rrx
   84b5c:	f104 0401 	add.w	r4, r4, #1
   84b60:	ea4f 5244 	mov.w	r2, r4, lsl #21
   84b64:	f512 0f80 	cmn.w	r2, #4194304	; 0x400000
   84b68:	f080 809a 	bcs.w	84ca0 <__adddf3+0x240>
   84b6c:	f1bc 4f00 	cmp.w	ip, #2147483648	; 0x80000000
   84b70:	bf08      	it	eq
   84b72:	ea5f 0c50 	movseq.w	ip, r0, lsr #1
   84b76:	f150 0000 	adcs.w	r0, r0, #0
   84b7a:	eb41 5104 	adc.w	r1, r1, r4, lsl #20
   84b7e:	ea41 0105 	orr.w	r1, r1, r5
   84b82:	bd30      	pop	{r4, r5, pc}
   84b84:	ea5f 0c4c 	movs.w	ip, ip, lsl #1
   84b88:	4140      	adcs	r0, r0
   84b8a:	eb41 0101 	adc.w	r1, r1, r1
   84b8e:	f411 1f80 	tst.w	r1, #1048576	; 0x100000
   84b92:	f1a4 0401 	sub.w	r4, r4, #1
   84b96:	d1e9      	bne.n	84b6c <__adddf3+0x10c>
   84b98:	f091 0f00 	teq	r1, #0
   84b9c:	bf04      	itt	eq
   84b9e:	4601      	moveq	r1, r0
   84ba0:	2000      	moveq	r0, #0
   84ba2:	fab1 f381 	clz	r3, r1
   84ba6:	bf08      	it	eq
   84ba8:	3320      	addeq	r3, #32
   84baa:	f1a3 030b 	sub.w	r3, r3, #11
   84bae:	f1b3 0220 	subs.w	r2, r3, #32
   84bb2:	da0c      	bge.n	84bce <__adddf3+0x16e>
   84bb4:	320c      	adds	r2, #12
   84bb6:	dd08      	ble.n	84bca <__adddf3+0x16a>
   84bb8:	f102 0c14 	add.w	ip, r2, #20
   84bbc:	f1c2 020c 	rsb	r2, r2, #12
   84bc0:	fa01 f00c 	lsl.w	r0, r1, ip
   84bc4:	fa21 f102 	lsr.w	r1, r1, r2
   84bc8:	e00c      	b.n	84be4 <__adddf3+0x184>
   84bca:	f102 0214 	add.w	r2, r2, #20
   84bce:	bfd8      	it	le
   84bd0:	f1c2 0c20 	rsble	ip, r2, #32
   84bd4:	fa01 f102 	lsl.w	r1, r1, r2
   84bd8:	fa20 fc0c 	lsr.w	ip, r0, ip
   84bdc:	bfdc      	itt	le
   84bde:	ea41 010c 	orrle.w	r1, r1, ip
   84be2:	4090      	lslle	r0, r2
   84be4:	1ae4      	subs	r4, r4, r3
   84be6:	bfa2      	ittt	ge
   84be8:	eb01 5104 	addge.w	r1, r1, r4, lsl #20
   84bec:	4329      	orrge	r1, r5
   84bee:	bd30      	popge	{r4, r5, pc}
   84bf0:	ea6f 0404 	mvn.w	r4, r4
   84bf4:	3c1f      	subs	r4, #31
   84bf6:	da1c      	bge.n	84c32 <__adddf3+0x1d2>
   84bf8:	340c      	adds	r4, #12
   84bfa:	dc0e      	bgt.n	84c1a <__adddf3+0x1ba>
   84bfc:	f104 0414 	add.w	r4, r4, #20
   84c00:	f1c4 0220 	rsb	r2, r4, #32
   84c04:	fa20 f004 	lsr.w	r0, r0, r4
   84c08:	fa01 f302 	lsl.w	r3, r1, r2
   84c0c:	ea40 0003 	orr.w	r0, r0, r3
   84c10:	fa21 f304 	lsr.w	r3, r1, r4
   84c14:	ea45 0103 	orr.w	r1, r5, r3
   84c18:	bd30      	pop	{r4, r5, pc}
   84c1a:	f1c4 040c 	rsb	r4, r4, #12
   84c1e:	f1c4 0220 	rsb	r2, r4, #32
   84c22:	fa20 f002 	lsr.w	r0, r0, r2
   84c26:	fa01 f304 	lsl.w	r3, r1, r4
   84c2a:	ea40 0003 	orr.w	r0, r0, r3
   84c2e:	4629      	mov	r1, r5
   84c30:	bd30      	pop	{r4, r5, pc}
   84c32:	fa21 f004 	lsr.w	r0, r1, r4
   84c36:	4629      	mov	r1, r5
   84c38:	bd30      	pop	{r4, r5, pc}
   84c3a:	f094 0f00 	teq	r4, #0
   84c3e:	f483 1380 	eor.w	r3, r3, #1048576	; 0x100000
   84c42:	bf06      	itte	eq
   84c44:	f481 1180 	eoreq.w	r1, r1, #1048576	; 0x100000
   84c48:	3401      	addeq	r4, #1
   84c4a:	3d01      	subne	r5, #1
   84c4c:	e74e      	b.n	84aec <__adddf3+0x8c>
   84c4e:	ea7f 5c64 	mvns.w	ip, r4, asr #21
   84c52:	bf18      	it	ne
   84c54:	ea7f 5c65 	mvnsne.w	ip, r5, asr #21
   84c58:	d029      	beq.n	84cae <__adddf3+0x24e>
   84c5a:	ea94 0f05 	teq	r4, r5
   84c5e:	bf08      	it	eq
   84c60:	ea90 0f02 	teqeq	r0, r2
   84c64:	d005      	beq.n	84c72 <__adddf3+0x212>
   84c66:	ea54 0c00 	orrs.w	ip, r4, r0
   84c6a:	bf04      	itt	eq
   84c6c:	4619      	moveq	r1, r3
   84c6e:	4610      	moveq	r0, r2
   84c70:	bd30      	pop	{r4, r5, pc}
   84c72:	ea91 0f03 	teq	r1, r3
   84c76:	bf1e      	ittt	ne
   84c78:	2100      	movne	r1, #0
   84c7a:	2000      	movne	r0, #0
   84c7c:	bd30      	popne	{r4, r5, pc}
   84c7e:	ea5f 5c54 	movs.w	ip, r4, lsr #21
   84c82:	d105      	bne.n	84c90 <__adddf3+0x230>
   84c84:	0040      	lsls	r0, r0, #1
   84c86:	4149      	adcs	r1, r1
   84c88:	bf28      	it	cs
   84c8a:	f041 4100 	orrcs.w	r1, r1, #2147483648	; 0x80000000
   84c8e:	bd30      	pop	{r4, r5, pc}
   84c90:	f514 0480 	adds.w	r4, r4, #4194304	; 0x400000
   84c94:	bf3c      	itt	cc
   84c96:	f501 1180 	addcc.w	r1, r1, #1048576	; 0x100000
   84c9a:	bd30      	popcc	{r4, r5, pc}
   84c9c:	f001 4500 	and.w	r5, r1, #2147483648	; 0x80000000
   84ca0:	f045 41fe 	orr.w	r1, r5, #2130706432	; 0x7f000000
   84ca4:	f441 0170 	orr.w	r1, r1, #15728640	; 0xf00000
   84ca8:	f04f 0000 	mov.w	r0, #0
   84cac:	bd30      	pop	{r4, r5, pc}
   84cae:	ea7f 5c64 	mvns.w	ip, r4, asr #21
   84cb2:	bf1a      	itte	ne
   84cb4:	4619      	movne	r1, r3
   84cb6:	4610      	movne	r0, r2
   84cb8:	ea7f 5c65 	mvnseq.w	ip, r5, asr #21
   84cbc:	bf1c      	itt	ne
   84cbe:	460b      	movne	r3, r1
   84cc0:	4602      	movne	r2, r0
   84cc2:	ea50 3401 	orrs.w	r4, r0, r1, lsl #12
   84cc6:	bf06      	itte	eq
   84cc8:	ea52 3503 	orrseq.w	r5, r2, r3, lsl #12
   84ccc:	ea91 0f03 	teqeq	r1, r3
   84cd0:	f441 2100 	orrne.w	r1, r1, #524288	; 0x80000
   84cd4:	bd30      	pop	{r4, r5, pc}
   84cd6:	bf00      	nop

00084cd8 <__aeabi_ui2d>:
   84cd8:	f090 0f00 	teq	r0, #0
   84cdc:	bf04      	itt	eq
   84cde:	2100      	moveq	r1, #0
   84ce0:	4770      	bxeq	lr
   84ce2:	b530      	push	{r4, r5, lr}
   84ce4:	f44f 6480 	mov.w	r4, #1024	; 0x400
   84ce8:	f104 0432 	add.w	r4, r4, #50	; 0x32
   84cec:	f04f 0500 	mov.w	r5, #0
   84cf0:	f04f 0100 	mov.w	r1, #0
   84cf4:	e750      	b.n	84b98 <__adddf3+0x138>
   84cf6:	bf00      	nop

00084cf8 <__aeabi_i2d>:
   84cf8:	f090 0f00 	teq	r0, #0
   84cfc:	bf04      	itt	eq
   84cfe:	2100      	moveq	r1, #0
   84d00:	4770      	bxeq	lr
   84d02:	b530      	push	{r4, r5, lr}
   84d04:	f44f 6480 	mov.w	r4, #1024	; 0x400
   84d08:	f104 0432 	add.w	r4, r4, #50	; 0x32
   84d0c:	f010 4500 	ands.w	r5, r0, #2147483648	; 0x80000000
   84d10:	bf48      	it	mi
   84d12:	4240      	negmi	r0, r0
   84d14:	f04f 0100 	mov.w	r1, #0
   84d18:	e73e      	b.n	84b98 <__adddf3+0x138>
   84d1a:	bf00      	nop

00084d1c <__aeabi_f2d>:
   84d1c:	0042      	lsls	r2, r0, #1
   84d1e:	ea4f 01e2 	mov.w	r1, r2, asr #3
   84d22:	ea4f 0131 	mov.w	r1, r1, rrx
   84d26:	ea4f 7002 	mov.w	r0, r2, lsl #28
   84d2a:	bf1f      	itttt	ne
   84d2c:	f012 437f 	andsne.w	r3, r2, #4278190080	; 0xff000000
   84d30:	f093 4f7f 	teqne	r3, #4278190080	; 0xff000000
   84d34:	f081 5160 	eorne.w	r1, r1, #939524096	; 0x38000000
   84d38:	4770      	bxne	lr
   84d3a:	f092 0f00 	teq	r2, #0
   84d3e:	bf14      	ite	ne
   84d40:	f093 4f7f 	teqne	r3, #4278190080	; 0xff000000
   84d44:	4770      	bxeq	lr
   84d46:	b530      	push	{r4, r5, lr}
   84d48:	f44f 7460 	mov.w	r4, #896	; 0x380
   84d4c:	f001 4500 	and.w	r5, r1, #2147483648	; 0x80000000
   84d50:	f021 4100 	bic.w	r1, r1, #2147483648	; 0x80000000
   84d54:	e720      	b.n	84b98 <__adddf3+0x138>
   84d56:	bf00      	nop

00084d58 <__aeabi_ul2d>:
   84d58:	ea50 0201 	orrs.w	r2, r0, r1
   84d5c:	bf08      	it	eq
   84d5e:	4770      	bxeq	lr
   84d60:	b530      	push	{r4, r5, lr}
   84d62:	f04f 0500 	mov.w	r5, #0
   84d66:	e00a      	b.n	84d7e <__aeabi_l2d+0x16>

00084d68 <__aeabi_l2d>:
   84d68:	ea50 0201 	orrs.w	r2, r0, r1
   84d6c:	bf08      	it	eq
   84d6e:	4770      	bxeq	lr
   84d70:	b530      	push	{r4, r5, lr}
   84d72:	f011 4500 	ands.w	r5, r1, #2147483648	; 0x80000000
   84d76:	d502      	bpl.n	84d7e <__aeabi_l2d+0x16>
   84d78:	4240      	negs	r0, r0
   84d7a:	eb61 0141 	sbc.w	r1, r1, r1, lsl #1
   84d7e:	f44f 6480 	mov.w	r4, #1024	; 0x400
   84d82:	f104 0432 	add.w	r4, r4, #50	; 0x32
   84d86:	ea5f 5c91 	movs.w	ip, r1, lsr #22
   84d8a:	f43f aedc 	beq.w	84b46 <__adddf3+0xe6>
   84d8e:	f04f 0203 	mov.w	r2, #3
   84d92:	ea5f 0cdc 	movs.w	ip, ip, lsr #3
   84d96:	bf18      	it	ne
   84d98:	3203      	addne	r2, #3
   84d9a:	ea5f 0cdc 	movs.w	ip, ip, lsr #3
   84d9e:	bf18      	it	ne
   84da0:	3203      	addne	r2, #3
   84da2:	eb02 02dc 	add.w	r2, r2, ip, lsr #3
   84da6:	f1c2 0320 	rsb	r3, r2, #32
   84daa:	fa00 fc03 	lsl.w	ip, r0, r3
   84dae:	fa20 f002 	lsr.w	r0, r0, r2
   84db2:	fa01 fe03 	lsl.w	lr, r1, r3
   84db6:	ea40 000e 	orr.w	r0, r0, lr
   84dba:	fa21 f102 	lsr.w	r1, r1, r2
   84dbe:	4414      	add	r4, r2
   84dc0:	e6c1      	b.n	84b46 <__adddf3+0xe6>
   84dc2:	bf00      	nop

00084dc4 <__aeabi_dmul>:
   84dc4:	b570      	push	{r4, r5, r6, lr}
   84dc6:	f04f 0cff 	mov.w	ip, #255	; 0xff
   84dca:	f44c 6ce0 	orr.w	ip, ip, #1792	; 0x700
   84dce:	ea1c 5411 	ands.w	r4, ip, r1, lsr #20
   84dd2:	bf1d      	ittte	ne
   84dd4:	ea1c 5513 	andsne.w	r5, ip, r3, lsr #20
   84dd8:	ea94 0f0c 	teqne	r4, ip
   84ddc:	ea95 0f0c 	teqne	r5, ip
   84de0:	f000 f8de 	bleq	84fa0 <__aeabi_dmul+0x1dc>
   84de4:	442c      	add	r4, r5
   84de6:	ea81 0603 	eor.w	r6, r1, r3
   84dea:	ea21 514c 	bic.w	r1, r1, ip, lsl #21
   84dee:	ea23 534c 	bic.w	r3, r3, ip, lsl #21
   84df2:	ea50 3501 	orrs.w	r5, r0, r1, lsl #12
   84df6:	bf18      	it	ne
   84df8:	ea52 3503 	orrsne.w	r5, r2, r3, lsl #12
   84dfc:	f441 1180 	orr.w	r1, r1, #1048576	; 0x100000
   84e00:	f443 1380 	orr.w	r3, r3, #1048576	; 0x100000
   84e04:	d038      	beq.n	84e78 <__aeabi_dmul+0xb4>
   84e06:	fba0 ce02 	umull	ip, lr, r0, r2
   84e0a:	f04f 0500 	mov.w	r5, #0
   84e0e:	fbe1 e502 	umlal	lr, r5, r1, r2
   84e12:	f006 4200 	and.w	r2, r6, #2147483648	; 0x80000000
   84e16:	fbe0 e503 	umlal	lr, r5, r0, r3
   84e1a:	f04f 0600 	mov.w	r6, #0
   84e1e:	fbe1 5603 	umlal	r5, r6, r1, r3
   84e22:	f09c 0f00 	teq	ip, #0
   84e26:	bf18      	it	ne
   84e28:	f04e 0e01 	orrne.w	lr, lr, #1
   84e2c:	f1a4 04ff 	sub.w	r4, r4, #255	; 0xff
   84e30:	f5b6 7f00 	cmp.w	r6, #512	; 0x200
   84e34:	f564 7440 	sbc.w	r4, r4, #768	; 0x300
   84e38:	d204      	bcs.n	84e44 <__aeabi_dmul+0x80>
   84e3a:	ea5f 0e4e 	movs.w	lr, lr, lsl #1
   84e3e:	416d      	adcs	r5, r5
   84e40:	eb46 0606 	adc.w	r6, r6, r6
   84e44:	ea42 21c6 	orr.w	r1, r2, r6, lsl #11
   84e48:	ea41 5155 	orr.w	r1, r1, r5, lsr #21
   84e4c:	ea4f 20c5 	mov.w	r0, r5, lsl #11
   84e50:	ea40 505e 	orr.w	r0, r0, lr, lsr #21
   84e54:	ea4f 2ece 	mov.w	lr, lr, lsl #11
   84e58:	f1b4 0cfd 	subs.w	ip, r4, #253	; 0xfd
   84e5c:	bf88      	it	hi
   84e5e:	f5bc 6fe0 	cmphi.w	ip, #1792	; 0x700
   84e62:	d81e      	bhi.n	84ea2 <__aeabi_dmul+0xde>
   84e64:	f1be 4f00 	cmp.w	lr, #2147483648	; 0x80000000
   84e68:	bf08      	it	eq
   84e6a:	ea5f 0e50 	movseq.w	lr, r0, lsr #1
   84e6e:	f150 0000 	adcs.w	r0, r0, #0
   84e72:	eb41 5104 	adc.w	r1, r1, r4, lsl #20
   84e76:	bd70      	pop	{r4, r5, r6, pc}
   84e78:	f006 4600 	and.w	r6, r6, #2147483648	; 0x80000000
   84e7c:	ea46 0101 	orr.w	r1, r6, r1
   84e80:	ea40 0002 	orr.w	r0, r0, r2
   84e84:	ea81 0103 	eor.w	r1, r1, r3
   84e88:	ebb4 045c 	subs.w	r4, r4, ip, lsr #1
   84e8c:	bfc2      	ittt	gt
   84e8e:	ebd4 050c 	rsbsgt	r5, r4, ip
   84e92:	ea41 5104 	orrgt.w	r1, r1, r4, lsl #20
   84e96:	bd70      	popgt	{r4, r5, r6, pc}
   84e98:	f441 1180 	orr.w	r1, r1, #1048576	; 0x100000
   84e9c:	f04f 0e00 	mov.w	lr, #0
   84ea0:	3c01      	subs	r4, #1
   84ea2:	f300 80ab 	bgt.w	84ffc <__aeabi_dmul+0x238>
   84ea6:	f114 0f36 	cmn.w	r4, #54	; 0x36
   84eaa:	bfde      	ittt	le
   84eac:	2000      	movle	r0, #0
   84eae:	f001 4100 	andle.w	r1, r1, #2147483648	; 0x80000000
   84eb2:	bd70      	pople	{r4, r5, r6, pc}
   84eb4:	f1c4 0400 	rsb	r4, r4, #0
   84eb8:	3c20      	subs	r4, #32
   84eba:	da35      	bge.n	84f28 <__aeabi_dmul+0x164>
   84ebc:	340c      	adds	r4, #12
   84ebe:	dc1b      	bgt.n	84ef8 <__aeabi_dmul+0x134>
   84ec0:	f104 0414 	add.w	r4, r4, #20
   84ec4:	f1c4 0520 	rsb	r5, r4, #32
   84ec8:	fa00 f305 	lsl.w	r3, r0, r5
   84ecc:	fa20 f004 	lsr.w	r0, r0, r4
   84ed0:	fa01 f205 	lsl.w	r2, r1, r5
   84ed4:	ea40 0002 	orr.w	r0, r0, r2
   84ed8:	f001 4200 	and.w	r2, r1, #2147483648	; 0x80000000
   84edc:	f021 4100 	bic.w	r1, r1, #2147483648	; 0x80000000
   84ee0:	eb10 70d3 	adds.w	r0, r0, r3, lsr #31
   84ee4:	fa21 f604 	lsr.w	r6, r1, r4
   84ee8:	eb42 0106 	adc.w	r1, r2, r6
   84eec:	ea5e 0e43 	orrs.w	lr, lr, r3, lsl #1
   84ef0:	bf08      	it	eq
   84ef2:	ea20 70d3 	biceq.w	r0, r0, r3, lsr #31
   84ef6:	bd70      	pop	{r4, r5, r6, pc}
   84ef8:	f1c4 040c 	rsb	r4, r4, #12
   84efc:	f1c4 0520 	rsb	r5, r4, #32
   84f00:	fa00 f304 	lsl.w	r3, r0, r4
   84f04:	fa20 f005 	lsr.w	r0, r0, r5
   84f08:	fa01 f204 	lsl.w	r2, r1, r4
   84f0c:	ea40 0002 	orr.w	r0, r0, r2
   84f10:	f001 4100 	and.w	r1, r1, #2147483648	; 0x80000000
   84f14:	eb10 70d3 	adds.w	r0, r0, r3, lsr #31
   84f18:	f141 0100 	adc.w	r1, r1, #0
   84f1c:	ea5e 0e43 	orrs.w	lr, lr, r3, lsl #1
   84f20:	bf08      	it	eq
   84f22:	ea20 70d3 	biceq.w	r0, r0, r3, lsr #31
   84f26:	bd70      	pop	{r4, r5, r6, pc}
   84f28:	f1c4 0520 	rsb	r5, r4, #32
   84f2c:	fa00 f205 	lsl.w	r2, r0, r5
   84f30:	ea4e 0e02 	orr.w	lr, lr, r2
   84f34:	fa20 f304 	lsr.w	r3, r0, r4
   84f38:	fa01 f205 	lsl.w	r2, r1, r5
   84f3c:	ea43 0302 	orr.w	r3, r3, r2
   84f40:	fa21 f004 	lsr.w	r0, r1, r4
   84f44:	f001 4100 	and.w	r1, r1, #2147483648	; 0x80000000
   84f48:	fa21 f204 	lsr.w	r2, r1, r4
   84f4c:	ea20 0002 	bic.w	r0, r0, r2
   84f50:	eb00 70d3 	add.w	r0, r0, r3, lsr #31
   84f54:	ea5e 0e43 	orrs.w	lr, lr, r3, lsl #1
   84f58:	bf08      	it	eq
   84f5a:	ea20 70d3 	biceq.w	r0, r0, r3, lsr #31
   84f5e:	bd70      	pop	{r4, r5, r6, pc}
   84f60:	f094 0f00 	teq	r4, #0
   84f64:	d10f      	bne.n	84f86 <__aeabi_dmul+0x1c2>
   84f66:	f001 4600 	and.w	r6, r1, #2147483648	; 0x80000000
   84f6a:	0040      	lsls	r0, r0, #1
   84f6c:	eb41 0101 	adc.w	r1, r1, r1
   84f70:	f411 1f80 	tst.w	r1, #1048576	; 0x100000
   84f74:	bf08      	it	eq
   84f76:	3c01      	subeq	r4, #1
   84f78:	d0f7      	beq.n	84f6a <__aeabi_dmul+0x1a6>
   84f7a:	ea41 0106 	orr.w	r1, r1, r6
   84f7e:	f095 0f00 	teq	r5, #0
   84f82:	bf18      	it	ne
   84f84:	4770      	bxne	lr
   84f86:	f003 4600 	and.w	r6, r3, #2147483648	; 0x80000000
   84f8a:	0052      	lsls	r2, r2, #1
   84f8c:	eb43 0303 	adc.w	r3, r3, r3
   84f90:	f413 1f80 	tst.w	r3, #1048576	; 0x100000
   84f94:	bf08      	it	eq
   84f96:	3d01      	subeq	r5, #1
   84f98:	d0f7      	beq.n	84f8a <__aeabi_dmul+0x1c6>
   84f9a:	ea43 0306 	orr.w	r3, r3, r6
   84f9e:	4770      	bx	lr
   84fa0:	ea94 0f0c 	teq	r4, ip
   84fa4:	ea0c 5513 	and.w	r5, ip, r3, lsr #20
   84fa8:	bf18      	it	ne
   84faa:	ea95 0f0c 	teqne	r5, ip
   84fae:	d00c      	beq.n	84fca <__aeabi_dmul+0x206>
   84fb0:	ea50 0641 	orrs.w	r6, r0, r1, lsl #1
   84fb4:	bf18      	it	ne
   84fb6:	ea52 0643 	orrsne.w	r6, r2, r3, lsl #1
   84fba:	d1d1      	bne.n	84f60 <__aeabi_dmul+0x19c>
   84fbc:	ea81 0103 	eor.w	r1, r1, r3
   84fc0:	f001 4100 	and.w	r1, r1, #2147483648	; 0x80000000
   84fc4:	f04f 0000 	mov.w	r0, #0
   84fc8:	bd70      	pop	{r4, r5, r6, pc}
   84fca:	ea50 0641 	orrs.w	r6, r0, r1, lsl #1
   84fce:	bf06      	itte	eq
   84fd0:	4610      	moveq	r0, r2
   84fd2:	4619      	moveq	r1, r3
   84fd4:	ea52 0643 	orrsne.w	r6, r2, r3, lsl #1
   84fd8:	d019      	beq.n	8500e <__aeabi_dmul+0x24a>
   84fda:	ea94 0f0c 	teq	r4, ip
   84fde:	d102      	bne.n	84fe6 <__aeabi_dmul+0x222>
   84fe0:	ea50 3601 	orrs.w	r6, r0, r1, lsl #12
   84fe4:	d113      	bne.n	8500e <__aeabi_dmul+0x24a>
   84fe6:	ea95 0f0c 	teq	r5, ip
   84fea:	d105      	bne.n	84ff8 <__aeabi_dmul+0x234>
   84fec:	ea52 3603 	orrs.w	r6, r2, r3, lsl #12
   84ff0:	bf1c      	itt	ne
   84ff2:	4610      	movne	r0, r2
   84ff4:	4619      	movne	r1, r3
   84ff6:	d10a      	bne.n	8500e <__aeabi_dmul+0x24a>
   84ff8:	ea81 0103 	eor.w	r1, r1, r3
   84ffc:	f001 4100 	and.w	r1, r1, #2147483648	; 0x80000000
   85000:	f041 41fe 	orr.w	r1, r1, #2130706432	; 0x7f000000
   85004:	f441 0170 	orr.w	r1, r1, #15728640	; 0xf00000
   85008:	f04f 0000 	mov.w	r0, #0
   8500c:	bd70      	pop	{r4, r5, r6, pc}
   8500e:	f041 41fe 	orr.w	r1, r1, #2130706432	; 0x7f000000
   85012:	f441 0178 	orr.w	r1, r1, #16252928	; 0xf80000
   85016:	bd70      	pop	{r4, r5, r6, pc}

00085018 <__aeabi_ddiv>:
   85018:	b570      	push	{r4, r5, r6, lr}
   8501a:	f04f 0cff 	mov.w	ip, #255	; 0xff
   8501e:	f44c 6ce0 	orr.w	ip, ip, #1792	; 0x700
   85022:	ea1c 5411 	ands.w	r4, ip, r1, lsr #20
   85026:	bf1d      	ittte	ne
   85028:	ea1c 5513 	andsne.w	r5, ip, r3, lsr #20
   8502c:	ea94 0f0c 	teqne	r4, ip
   85030:	ea95 0f0c 	teqne	r5, ip
   85034:	f000 f8a7 	bleq	85186 <__aeabi_ddiv+0x16e>
   85038:	eba4 0405 	sub.w	r4, r4, r5
   8503c:	ea81 0e03 	eor.w	lr, r1, r3
   85040:	ea52 3503 	orrs.w	r5, r2, r3, lsl #12
   85044:	ea4f 3101 	mov.w	r1, r1, lsl #12
   85048:	f000 8088 	beq.w	8515c <__aeabi_ddiv+0x144>
   8504c:	ea4f 3303 	mov.w	r3, r3, lsl #12
   85050:	f04f 5580 	mov.w	r5, #268435456	; 0x10000000
   85054:	ea45 1313 	orr.w	r3, r5, r3, lsr #4
   85058:	ea43 6312 	orr.w	r3, r3, r2, lsr #24
   8505c:	ea4f 2202 	mov.w	r2, r2, lsl #8
   85060:	ea45 1511 	orr.w	r5, r5, r1, lsr #4
   85064:	ea45 6510 	orr.w	r5, r5, r0, lsr #24
   85068:	ea4f 2600 	mov.w	r6, r0, lsl #8
   8506c:	f00e 4100 	and.w	r1, lr, #2147483648	; 0x80000000
   85070:	429d      	cmp	r5, r3
   85072:	bf08      	it	eq
   85074:	4296      	cmpeq	r6, r2
   85076:	f144 04fd 	adc.w	r4, r4, #253	; 0xfd
   8507a:	f504 7440 	add.w	r4, r4, #768	; 0x300
   8507e:	d202      	bcs.n	85086 <__aeabi_ddiv+0x6e>
   85080:	085b      	lsrs	r3, r3, #1
   85082:	ea4f 0232 	mov.w	r2, r2, rrx
   85086:	1ab6      	subs	r6, r6, r2
   85088:	eb65 0503 	sbc.w	r5, r5, r3
   8508c:	085b      	lsrs	r3, r3, #1
   8508e:	ea4f 0232 	mov.w	r2, r2, rrx
   85092:	f44f 1080 	mov.w	r0, #1048576	; 0x100000
   85096:	f44f 2c00 	mov.w	ip, #524288	; 0x80000
   8509a:	ebb6 0e02 	subs.w	lr, r6, r2
   8509e:	eb75 0e03 	sbcs.w	lr, r5, r3
   850a2:	bf22      	ittt	cs
   850a4:	1ab6      	subcs	r6, r6, r2
   850a6:	4675      	movcs	r5, lr
   850a8:	ea40 000c 	orrcs.w	r0, r0, ip
   850ac:	085b      	lsrs	r3, r3, #1
   850ae:	ea4f 0232 	mov.w	r2, r2, rrx
   850b2:	ebb6 0e02 	subs.w	lr, r6, r2
   850b6:	eb75 0e03 	sbcs.w	lr, r5, r3
   850ba:	bf22      	ittt	cs
   850bc:	1ab6      	subcs	r6, r6, r2
   850be:	4675      	movcs	r5, lr
   850c0:	ea40 005c 	orrcs.w	r0, r0, ip, lsr #1
   850c4:	085b      	lsrs	r3, r3, #1
   850c6:	ea4f 0232 	mov.w	r2, r2, rrx
   850ca:	ebb6 0e02 	subs.w	lr, r6, r2
   850ce:	eb75 0e03 	sbcs.w	lr, r5, r3
   850d2:	bf22      	ittt	cs
   850d4:	1ab6      	subcs	r6, r6, r2
   850d6:	4675      	movcs	r5, lr
   850d8:	ea40 009c 	orrcs.w	r0, r0, ip, lsr #2
   850dc:	085b      	lsrs	r3, r3, #1
   850de:	ea4f 0232 	mov.w	r2, r2, rrx
   850e2:	ebb6 0e02 	subs.w	lr, r6, r2
   850e6:	eb75 0e03 	sbcs.w	lr, r5, r3
   850ea:	bf22      	ittt	cs
   850ec:	1ab6      	subcs	r6, r6, r2
   850ee:	4675      	movcs	r5, lr
   850f0:	ea40 00dc 	orrcs.w	r0, r0, ip, lsr #3
   850f4:	ea55 0e06 	orrs.w	lr, r5, r6
   850f8:	d018      	beq.n	8512c <__aeabi_ddiv+0x114>
   850fa:	ea4f 1505 	mov.w	r5, r5, lsl #4
   850fe:	ea45 7516 	orr.w	r5, r5, r6, lsr #28
   85102:	ea4f 1606 	mov.w	r6, r6, lsl #4
   85106:	ea4f 03c3 	mov.w	r3, r3, lsl #3
   8510a:	ea43 7352 	orr.w	r3, r3, r2, lsr #29
   8510e:	ea4f 02c2 	mov.w	r2, r2, lsl #3
   85112:	ea5f 1c1c 	movs.w	ip, ip, lsr #4
   85116:	d1c0      	bne.n	8509a <__aeabi_ddiv+0x82>
   85118:	f411 1f80 	tst.w	r1, #1048576	; 0x100000
   8511c:	d10b      	bne.n	85136 <__aeabi_ddiv+0x11e>
   8511e:	ea41 0100 	orr.w	r1, r1, r0
   85122:	f04f 0000 	mov.w	r0, #0
   85126:	f04f 4c00 	mov.w	ip, #2147483648	; 0x80000000
   8512a:	e7b6      	b.n	8509a <__aeabi_ddiv+0x82>
   8512c:	f411 1f80 	tst.w	r1, #1048576	; 0x100000
   85130:	bf04      	itt	eq
   85132:	4301      	orreq	r1, r0
   85134:	2000      	moveq	r0, #0
   85136:	f1b4 0cfd 	subs.w	ip, r4, #253	; 0xfd
   8513a:	bf88      	it	hi
   8513c:	f5bc 6fe0 	cmphi.w	ip, #1792	; 0x700
   85140:	f63f aeaf 	bhi.w	84ea2 <__aeabi_dmul+0xde>
   85144:	ebb5 0c03 	subs.w	ip, r5, r3
   85148:	bf04      	itt	eq
   8514a:	ebb6 0c02 	subseq.w	ip, r6, r2
   8514e:	ea5f 0c50 	movseq.w	ip, r0, lsr #1
   85152:	f150 0000 	adcs.w	r0, r0, #0
   85156:	eb41 5104 	adc.w	r1, r1, r4, lsl #20
   8515a:	bd70      	pop	{r4, r5, r6, pc}
   8515c:	f00e 4e00 	and.w	lr, lr, #2147483648	; 0x80000000
   85160:	ea4e 3111 	orr.w	r1, lr, r1, lsr #12
   85164:	eb14 045c 	adds.w	r4, r4, ip, lsr #1
   85168:	bfc2      	ittt	gt
   8516a:	ebd4 050c 	rsbsgt	r5, r4, ip
   8516e:	ea41 5104 	orrgt.w	r1, r1, r4, lsl #20
   85172:	bd70      	popgt	{r4, r5, r6, pc}
   85174:	f441 1180 	orr.w	r1, r1, #1048576	; 0x100000
   85178:	f04f 0e00 	mov.w	lr, #0
   8517c:	3c01      	subs	r4, #1
   8517e:	e690      	b.n	84ea2 <__aeabi_dmul+0xde>
   85180:	ea45 0e06 	orr.w	lr, r5, r6
   85184:	e68d      	b.n	84ea2 <__aeabi_dmul+0xde>
   85186:	ea0c 5513 	and.w	r5, ip, r3, lsr #20
   8518a:	ea94 0f0c 	teq	r4, ip
   8518e:	bf08      	it	eq
   85190:	ea95 0f0c 	teqeq	r5, ip
   85194:	f43f af3b 	beq.w	8500e <__aeabi_dmul+0x24a>
   85198:	ea94 0f0c 	teq	r4, ip
   8519c:	d10a      	bne.n	851b4 <__aeabi_ddiv+0x19c>
   8519e:	ea50 3401 	orrs.w	r4, r0, r1, lsl #12
   851a2:	f47f af34 	bne.w	8500e <__aeabi_dmul+0x24a>
   851a6:	ea95 0f0c 	teq	r5, ip
   851aa:	f47f af25 	bne.w	84ff8 <__aeabi_dmul+0x234>
   851ae:	4610      	mov	r0, r2
   851b0:	4619      	mov	r1, r3
   851b2:	e72c      	b.n	8500e <__aeabi_dmul+0x24a>
   851b4:	ea95 0f0c 	teq	r5, ip
   851b8:	d106      	bne.n	851c8 <__aeabi_ddiv+0x1b0>
   851ba:	ea52 3503 	orrs.w	r5, r2, r3, lsl #12
   851be:	f43f aefd 	beq.w	84fbc <__aeabi_dmul+0x1f8>
   851c2:	4610      	mov	r0, r2
   851c4:	4619      	mov	r1, r3
   851c6:	e722      	b.n	8500e <__aeabi_dmul+0x24a>
   851c8:	ea50 0641 	orrs.w	r6, r0, r1, lsl #1
   851cc:	bf18      	it	ne
   851ce:	ea52 0643 	orrsne.w	r6, r2, r3, lsl #1
   851d2:	f47f aec5 	bne.w	84f60 <__aeabi_dmul+0x19c>
   851d6:	ea50 0441 	orrs.w	r4, r0, r1, lsl #1
   851da:	f47f af0d 	bne.w	84ff8 <__aeabi_dmul+0x234>
   851de:	ea52 0543 	orrs.w	r5, r2, r3, lsl #1
   851e2:	f47f aeeb 	bne.w	84fbc <__aeabi_dmul+0x1f8>
   851e6:	e712      	b.n	8500e <__aeabi_dmul+0x24a>

000851e8 <__aeabi_frsub>:
   851e8:	f080 4000 	eor.w	r0, r0, #2147483648	; 0x80000000
   851ec:	e002      	b.n	851f4 <__addsf3>
   851ee:	bf00      	nop

000851f0 <__aeabi_fsub>:
   851f0:	f081 4100 	eor.w	r1, r1, #2147483648	; 0x80000000

000851f4 <__addsf3>:
   851f4:	0042      	lsls	r2, r0, #1
   851f6:	bf1f      	itttt	ne
   851f8:	ea5f 0341 	movsne.w	r3, r1, lsl #1
   851fc:	ea92 0f03 	teqne	r2, r3
   85200:	ea7f 6c22 	mvnsne.w	ip, r2, asr #24
   85204:	ea7f 6c23 	mvnsne.w	ip, r3, asr #24
   85208:	d06a      	beq.n	852e0 <__addsf3+0xec>
   8520a:	ea4f 6212 	mov.w	r2, r2, lsr #24
   8520e:	ebd2 6313 	rsbs	r3, r2, r3, lsr #24
   85212:	bfc1      	itttt	gt
   85214:	18d2      	addgt	r2, r2, r3
   85216:	4041      	eorgt	r1, r0
   85218:	4048      	eorgt	r0, r1
   8521a:	4041      	eorgt	r1, r0
   8521c:	bfb8      	it	lt
   8521e:	425b      	neglt	r3, r3
   85220:	2b19      	cmp	r3, #25
   85222:	bf88      	it	hi
   85224:	4770      	bxhi	lr
   85226:	f010 4f00 	tst.w	r0, #2147483648	; 0x80000000
   8522a:	f440 0000 	orr.w	r0, r0, #8388608	; 0x800000
   8522e:	f020 407f 	bic.w	r0, r0, #4278190080	; 0xff000000
   85232:	bf18      	it	ne
   85234:	4240      	negne	r0, r0
   85236:	f011 4f00 	tst.w	r1, #2147483648	; 0x80000000
   8523a:	f441 0100 	orr.w	r1, r1, #8388608	; 0x800000
   8523e:	f021 417f 	bic.w	r1, r1, #4278190080	; 0xff000000
   85242:	bf18      	it	ne
   85244:	4249      	negne	r1, r1
   85246:	ea92 0f03 	teq	r2, r3
   8524a:	d03f      	beq.n	852cc <__addsf3+0xd8>
   8524c:	f1a2 0201 	sub.w	r2, r2, #1
   85250:	fa41 fc03 	asr.w	ip, r1, r3
   85254:	eb10 000c 	adds.w	r0, r0, ip
   85258:	f1c3 0320 	rsb	r3, r3, #32
   8525c:	fa01 f103 	lsl.w	r1, r1, r3
   85260:	f000 4300 	and.w	r3, r0, #2147483648	; 0x80000000
   85264:	d502      	bpl.n	8526c <__addsf3+0x78>
   85266:	4249      	negs	r1, r1
   85268:	eb60 0040 	sbc.w	r0, r0, r0, lsl #1
   8526c:	f5b0 0f00 	cmp.w	r0, #8388608	; 0x800000
   85270:	d313      	bcc.n	8529a <__addsf3+0xa6>
   85272:	f1b0 7f80 	cmp.w	r0, #16777216	; 0x1000000
   85276:	d306      	bcc.n	85286 <__addsf3+0x92>
   85278:	0840      	lsrs	r0, r0, #1
   8527a:	ea4f 0131 	mov.w	r1, r1, rrx
   8527e:	f102 0201 	add.w	r2, r2, #1
   85282:	2afe      	cmp	r2, #254	; 0xfe
   85284:	d251      	bcs.n	8532a <__addsf3+0x136>
   85286:	f1b1 4f00 	cmp.w	r1, #2147483648	; 0x80000000
   8528a:	eb40 50c2 	adc.w	r0, r0, r2, lsl #23
   8528e:	bf08      	it	eq
   85290:	f020 0001 	biceq.w	r0, r0, #1
   85294:	ea40 0003 	orr.w	r0, r0, r3
   85298:	4770      	bx	lr
   8529a:	0049      	lsls	r1, r1, #1
   8529c:	eb40 0000 	adc.w	r0, r0, r0
   852a0:	f410 0f00 	tst.w	r0, #8388608	; 0x800000
   852a4:	f1a2 0201 	sub.w	r2, r2, #1
   852a8:	d1ed      	bne.n	85286 <__addsf3+0x92>
   852aa:	fab0 fc80 	clz	ip, r0
   852ae:	f1ac 0c08 	sub.w	ip, ip, #8
   852b2:	ebb2 020c 	subs.w	r2, r2, ip
   852b6:	fa00 f00c 	lsl.w	r0, r0, ip
   852ba:	bfaa      	itet	ge
   852bc:	eb00 50c2 	addge.w	r0, r0, r2, lsl #23
   852c0:	4252      	neglt	r2, r2
   852c2:	4318      	orrge	r0, r3
   852c4:	bfbc      	itt	lt
   852c6:	40d0      	lsrlt	r0, r2
   852c8:	4318      	orrlt	r0, r3
   852ca:	4770      	bx	lr
   852cc:	f092 0f00 	teq	r2, #0
   852d0:	f481 0100 	eor.w	r1, r1, #8388608	; 0x800000
   852d4:	bf06      	itte	eq
   852d6:	f480 0000 	eoreq.w	r0, r0, #8388608	; 0x800000
   852da:	3201      	addeq	r2, #1
   852dc:	3b01      	subne	r3, #1
   852de:	e7b5      	b.n	8524c <__addsf3+0x58>
   852e0:	ea4f 0341 	mov.w	r3, r1, lsl #1
   852e4:	ea7f 6c22 	mvns.w	ip, r2, asr #24
   852e8:	bf18      	it	ne
   852ea:	ea7f 6c23 	mvnsne.w	ip, r3, asr #24
   852ee:	d021      	beq.n	85334 <__addsf3+0x140>
   852f0:	ea92 0f03 	teq	r2, r3
   852f4:	d004      	beq.n	85300 <__addsf3+0x10c>
   852f6:	f092 0f00 	teq	r2, #0
   852fa:	bf08      	it	eq
   852fc:	4608      	moveq	r0, r1
   852fe:	4770      	bx	lr
   85300:	ea90 0f01 	teq	r0, r1
   85304:	bf1c      	itt	ne
   85306:	2000      	movne	r0, #0
   85308:	4770      	bxne	lr
   8530a:	f012 4f7f 	tst.w	r2, #4278190080	; 0xff000000
   8530e:	d104      	bne.n	8531a <__addsf3+0x126>
   85310:	0040      	lsls	r0, r0, #1
   85312:	bf28      	it	cs
   85314:	f040 4000 	orrcs.w	r0, r0, #2147483648	; 0x80000000
   85318:	4770      	bx	lr
   8531a:	f112 7200 	adds.w	r2, r2, #33554432	; 0x2000000
   8531e:	bf3c      	itt	cc
   85320:	f500 0000 	addcc.w	r0, r0, #8388608	; 0x800000
   85324:	4770      	bxcc	lr
   85326:	f000 4300 	and.w	r3, r0, #2147483648	; 0x80000000
   8532a:	f043 40fe 	orr.w	r0, r3, #2130706432	; 0x7f000000
   8532e:	f440 0000 	orr.w	r0, r0, #8388608	; 0x800000
   85332:	4770      	bx	lr
   85334:	ea7f 6222 	mvns.w	r2, r2, asr #24
   85338:	bf16      	itet	ne
   8533a:	4608      	movne	r0, r1
   8533c:	ea7f 6323 	mvnseq.w	r3, r3, asr #24
   85340:	4601      	movne	r1, r0
   85342:	0242      	lsls	r2, r0, #9
   85344:	bf06      	itte	eq
   85346:	ea5f 2341 	movseq.w	r3, r1, lsl #9
   8534a:	ea90 0f01 	teqeq	r0, r1
   8534e:	f440 0080 	orrne.w	r0, r0, #4194304	; 0x400000
   85352:	4770      	bx	lr

00085354 <__aeabi_ui2f>:
   85354:	f04f 0300 	mov.w	r3, #0
   85358:	e004      	b.n	85364 <__aeabi_i2f+0x8>
   8535a:	bf00      	nop

0008535c <__aeabi_i2f>:
   8535c:	f010 4300 	ands.w	r3, r0, #2147483648	; 0x80000000
   85360:	bf48      	it	mi
   85362:	4240      	negmi	r0, r0
   85364:	ea5f 0c00 	movs.w	ip, r0
   85368:	bf08      	it	eq
   8536a:	4770      	bxeq	lr
   8536c:	f043 4396 	orr.w	r3, r3, #1258291200	; 0x4b000000
   85370:	4601      	mov	r1, r0
   85372:	f04f 0000 	mov.w	r0, #0
   85376:	e01c      	b.n	853b2 <__aeabi_l2f+0x2a>

00085378 <__aeabi_ul2f>:
   85378:	ea50 0201 	orrs.w	r2, r0, r1
   8537c:	bf08      	it	eq
   8537e:	4770      	bxeq	lr
   85380:	f04f 0300 	mov.w	r3, #0
   85384:	e00a      	b.n	8539c <__aeabi_l2f+0x14>
   85386:	bf00      	nop

00085388 <__aeabi_l2f>:
   85388:	ea50 0201 	orrs.w	r2, r0, r1
   8538c:	bf08      	it	eq
   8538e:	4770      	bxeq	lr
   85390:	f011 4300 	ands.w	r3, r1, #2147483648	; 0x80000000
   85394:	d502      	bpl.n	8539c <__aeabi_l2f+0x14>
   85396:	4240      	negs	r0, r0
   85398:	eb61 0141 	sbc.w	r1, r1, r1, lsl #1
   8539c:	ea5f 0c01 	movs.w	ip, r1
   853a0:	bf02      	ittt	eq
   853a2:	4684      	moveq	ip, r0
   853a4:	4601      	moveq	r1, r0
   853a6:	2000      	moveq	r0, #0
   853a8:	f043 43b6 	orr.w	r3, r3, #1526726656	; 0x5b000000
   853ac:	bf08      	it	eq
   853ae:	f1a3 5380 	subeq.w	r3, r3, #268435456	; 0x10000000
   853b2:	f5a3 0300 	sub.w	r3, r3, #8388608	; 0x800000
   853b6:	fabc f28c 	clz	r2, ip
   853ba:	3a08      	subs	r2, #8
   853bc:	eba3 53c2 	sub.w	r3, r3, r2, lsl #23
   853c0:	db10      	blt.n	853e4 <__aeabi_l2f+0x5c>
   853c2:	fa01 fc02 	lsl.w	ip, r1, r2
   853c6:	4463      	add	r3, ip
   853c8:	fa00 fc02 	lsl.w	ip, r0, r2
   853cc:	f1c2 0220 	rsb	r2, r2, #32
   853d0:	f1bc 4f00 	cmp.w	ip, #2147483648	; 0x80000000
   853d4:	fa20 f202 	lsr.w	r2, r0, r2
   853d8:	eb43 0002 	adc.w	r0, r3, r2
   853dc:	bf08      	it	eq
   853de:	f020 0001 	biceq.w	r0, r0, #1
   853e2:	4770      	bx	lr
   853e4:	f102 0220 	add.w	r2, r2, #32
   853e8:	fa01 fc02 	lsl.w	ip, r1, r2
   853ec:	f1c2 0220 	rsb	r2, r2, #32
   853f0:	ea50 004c 	orrs.w	r0, r0, ip, lsl #1
   853f4:	fa21 f202 	lsr.w	r2, r1, r2
   853f8:	eb43 0002 	adc.w	r0, r3, r2
   853fc:	bf08      	it	eq
   853fe:	ea20 70dc 	biceq.w	r0, r0, ip, lsr #31
   85402:	4770      	bx	lr

00085404 <__aeabi_fmul>:
   85404:	f04f 0cff 	mov.w	ip, #255	; 0xff
   85408:	ea1c 52d0 	ands.w	r2, ip, r0, lsr #23
   8540c:	bf1e      	ittt	ne
   8540e:	ea1c 53d1 	andsne.w	r3, ip, r1, lsr #23
   85412:	ea92 0f0c 	teqne	r2, ip
   85416:	ea93 0f0c 	teqne	r3, ip
   8541a:	d06f      	beq.n	854fc <__aeabi_fmul+0xf8>
   8541c:	441a      	add	r2, r3
   8541e:	ea80 0c01 	eor.w	ip, r0, r1
   85422:	0240      	lsls	r0, r0, #9
   85424:	bf18      	it	ne
   85426:	ea5f 2141 	movsne.w	r1, r1, lsl #9
   8542a:	d01e      	beq.n	8546a <__aeabi_fmul+0x66>
   8542c:	f04f 6300 	mov.w	r3, #134217728	; 0x8000000
   85430:	ea43 1050 	orr.w	r0, r3, r0, lsr #5
   85434:	ea43 1151 	orr.w	r1, r3, r1, lsr #5
   85438:	fba0 3101 	umull	r3, r1, r0, r1
   8543c:	f00c 4000 	and.w	r0, ip, #2147483648	; 0x80000000
   85440:	f5b1 0f00 	cmp.w	r1, #8388608	; 0x800000
   85444:	bf3e      	ittt	cc
   85446:	0049      	lslcc	r1, r1, #1
   85448:	ea41 71d3 	orrcc.w	r1, r1, r3, lsr #31
   8544c:	005b      	lslcc	r3, r3, #1
   8544e:	ea40 0001 	orr.w	r0, r0, r1
   85452:	f162 027f 	sbc.w	r2, r2, #127	; 0x7f
   85456:	2afd      	cmp	r2, #253	; 0xfd
   85458:	d81d      	bhi.n	85496 <__aeabi_fmul+0x92>
   8545a:	f1b3 4f00 	cmp.w	r3, #2147483648	; 0x80000000
   8545e:	eb40 50c2 	adc.w	r0, r0, r2, lsl #23
   85462:	bf08      	it	eq
   85464:	f020 0001 	biceq.w	r0, r0, #1
   85468:	4770      	bx	lr
   8546a:	f090 0f00 	teq	r0, #0
   8546e:	f00c 4c00 	and.w	ip, ip, #2147483648	; 0x80000000
   85472:	bf08      	it	eq
   85474:	0249      	lsleq	r1, r1, #9
   85476:	ea4c 2050 	orr.w	r0, ip, r0, lsr #9
   8547a:	ea40 2051 	orr.w	r0, r0, r1, lsr #9
   8547e:	3a7f      	subs	r2, #127	; 0x7f
   85480:	bfc2      	ittt	gt
   85482:	f1d2 03ff 	rsbsgt	r3, r2, #255	; 0xff
   85486:	ea40 50c2 	orrgt.w	r0, r0, r2, lsl #23
   8548a:	4770      	bxgt	lr
   8548c:	f440 0000 	orr.w	r0, r0, #8388608	; 0x800000
   85490:	f04f 0300 	mov.w	r3, #0
   85494:	3a01      	subs	r2, #1
   85496:	dc5d      	bgt.n	85554 <__aeabi_fmul+0x150>
   85498:	f112 0f19 	cmn.w	r2, #25
   8549c:	bfdc      	itt	le
   8549e:	f000 4000 	andle.w	r0, r0, #2147483648	; 0x80000000
   854a2:	4770      	bxle	lr
   854a4:	f1c2 0200 	rsb	r2, r2, #0
   854a8:	0041      	lsls	r1, r0, #1
   854aa:	fa21 f102 	lsr.w	r1, r1, r2
   854ae:	f1c2 0220 	rsb	r2, r2, #32
   854b2:	fa00 fc02 	lsl.w	ip, r0, r2
   854b6:	ea5f 0031 	movs.w	r0, r1, rrx
   854ba:	f140 0000 	adc.w	r0, r0, #0
   854be:	ea53 034c 	orrs.w	r3, r3, ip, lsl #1
   854c2:	bf08      	it	eq
   854c4:	ea20 70dc 	biceq.w	r0, r0, ip, lsr #31
   854c8:	4770      	bx	lr
   854ca:	f092 0f00 	teq	r2, #0
   854ce:	f000 4c00 	and.w	ip, r0, #2147483648	; 0x80000000
   854d2:	bf02      	ittt	eq
   854d4:	0040      	lsleq	r0, r0, #1
   854d6:	f410 0f00 	tsteq.w	r0, #8388608	; 0x800000
   854da:	3a01      	subeq	r2, #1
   854dc:	d0f9      	beq.n	854d2 <__aeabi_fmul+0xce>
   854de:	ea40 000c 	orr.w	r0, r0, ip
   854e2:	f093 0f00 	teq	r3, #0
   854e6:	f001 4c00 	and.w	ip, r1, #2147483648	; 0x80000000
   854ea:	bf02      	ittt	eq
   854ec:	0049      	lsleq	r1, r1, #1
   854ee:	f411 0f00 	tsteq.w	r1, #8388608	; 0x800000
   854f2:	3b01      	subeq	r3, #1
   854f4:	d0f9      	beq.n	854ea <__aeabi_fmul+0xe6>
   854f6:	ea41 010c 	orr.w	r1, r1, ip
   854fa:	e78f      	b.n	8541c <__aeabi_fmul+0x18>
   854fc:	ea0c 53d1 	and.w	r3, ip, r1, lsr #23
   85500:	ea92 0f0c 	teq	r2, ip
   85504:	bf18      	it	ne
   85506:	ea93 0f0c 	teqne	r3, ip
   8550a:	d00a      	beq.n	85522 <__aeabi_fmul+0x11e>
   8550c:	f030 4c00 	bics.w	ip, r0, #2147483648	; 0x80000000
   85510:	bf18      	it	ne
   85512:	f031 4c00 	bicsne.w	ip, r1, #2147483648	; 0x80000000
   85516:	d1d8      	bne.n	854ca <__aeabi_fmul+0xc6>
   85518:	ea80 0001 	eor.w	r0, r0, r1
   8551c:	f000 4000 	and.w	r0, r0, #2147483648	; 0x80000000
   85520:	4770      	bx	lr
   85522:	f090 0f00 	teq	r0, #0
   85526:	bf17      	itett	ne
   85528:	f090 4f00 	teqne	r0, #2147483648	; 0x80000000
   8552c:	4608      	moveq	r0, r1
   8552e:	f091 0f00 	teqne	r1, #0
   85532:	f091 4f00 	teqne	r1, #2147483648	; 0x80000000
   85536:	d014      	beq.n	85562 <__aeabi_fmul+0x15e>
   85538:	ea92 0f0c 	teq	r2, ip
   8553c:	d101      	bne.n	85542 <__aeabi_fmul+0x13e>
   8553e:	0242      	lsls	r2, r0, #9
   85540:	d10f      	bne.n	85562 <__aeabi_fmul+0x15e>
   85542:	ea93 0f0c 	teq	r3, ip
   85546:	d103      	bne.n	85550 <__aeabi_fmul+0x14c>
   85548:	024b      	lsls	r3, r1, #9
   8554a:	bf18      	it	ne
   8554c:	4608      	movne	r0, r1
   8554e:	d108      	bne.n	85562 <__aeabi_fmul+0x15e>
   85550:	ea80 0001 	eor.w	r0, r0, r1
   85554:	f000 4000 	and.w	r0, r0, #2147483648	; 0x80000000
   85558:	f040 40fe 	orr.w	r0, r0, #2130706432	; 0x7f000000
   8555c:	f440 0000 	orr.w	r0, r0, #8388608	; 0x800000
   85560:	4770      	bx	lr
   85562:	f040 40fe 	orr.w	r0, r0, #2130706432	; 0x7f000000
   85566:	f440 0040 	orr.w	r0, r0, #12582912	; 0xc00000
   8556a:	4770      	bx	lr

0008556c <__aeabi_fdiv>:
   8556c:	f04f 0cff 	mov.w	ip, #255	; 0xff
   85570:	ea1c 52d0 	ands.w	r2, ip, r0, lsr #23
   85574:	bf1e      	ittt	ne
   85576:	ea1c 53d1 	andsne.w	r3, ip, r1, lsr #23
   8557a:	ea92 0f0c 	teqne	r2, ip
   8557e:	ea93 0f0c 	teqne	r3, ip
   85582:	d069      	beq.n	85658 <__aeabi_fdiv+0xec>
   85584:	eba2 0203 	sub.w	r2, r2, r3
   85588:	ea80 0c01 	eor.w	ip, r0, r1
   8558c:	0249      	lsls	r1, r1, #9
   8558e:	ea4f 2040 	mov.w	r0, r0, lsl #9
   85592:	d037      	beq.n	85604 <__aeabi_fdiv+0x98>
   85594:	f04f 5380 	mov.w	r3, #268435456	; 0x10000000
   85598:	ea43 1111 	orr.w	r1, r3, r1, lsr #4
   8559c:	ea43 1310 	orr.w	r3, r3, r0, lsr #4
   855a0:	f00c 4000 	and.w	r0, ip, #2147483648	; 0x80000000
   855a4:	428b      	cmp	r3, r1
   855a6:	bf38      	it	cc
   855a8:	005b      	lslcc	r3, r3, #1
   855aa:	f142 027d 	adc.w	r2, r2, #125	; 0x7d
   855ae:	f44f 0c00 	mov.w	ip, #8388608	; 0x800000
   855b2:	428b      	cmp	r3, r1
   855b4:	bf24      	itt	cs
   855b6:	1a5b      	subcs	r3, r3, r1
   855b8:	ea40 000c 	orrcs.w	r0, r0, ip
   855bc:	ebb3 0f51 	cmp.w	r3, r1, lsr #1
   855c0:	bf24      	itt	cs
   855c2:	eba3 0351 	subcs.w	r3, r3, r1, lsr #1
   855c6:	ea40 005c 	orrcs.w	r0, r0, ip, lsr #1
   855ca:	ebb3 0f91 	cmp.w	r3, r1, lsr #2
   855ce:	bf24      	itt	cs
   855d0:	eba3 0391 	subcs.w	r3, r3, r1, lsr #2
   855d4:	ea40 009c 	orrcs.w	r0, r0, ip, lsr #2
   855d8:	ebb3 0fd1 	cmp.w	r3, r1, lsr #3
   855dc:	bf24      	itt	cs
   855de:	eba3 03d1 	subcs.w	r3, r3, r1, lsr #3
   855e2:	ea40 00dc 	orrcs.w	r0, r0, ip, lsr #3
   855e6:	011b      	lsls	r3, r3, #4
   855e8:	bf18      	it	ne
   855ea:	ea5f 1c1c 	movsne.w	ip, ip, lsr #4
   855ee:	d1e0      	bne.n	855b2 <__aeabi_fdiv+0x46>
   855f0:	2afd      	cmp	r2, #253	; 0xfd
   855f2:	f63f af50 	bhi.w	85496 <__aeabi_fmul+0x92>
   855f6:	428b      	cmp	r3, r1
   855f8:	eb40 50c2 	adc.w	r0, r0, r2, lsl #23
   855fc:	bf08      	it	eq
   855fe:	f020 0001 	biceq.w	r0, r0, #1
   85602:	4770      	bx	lr
   85604:	f00c 4c00 	and.w	ip, ip, #2147483648	; 0x80000000
   85608:	ea4c 2050 	orr.w	r0, ip, r0, lsr #9
   8560c:	327f      	adds	r2, #127	; 0x7f
   8560e:	bfc2      	ittt	gt
   85610:	f1d2 03ff 	rsbsgt	r3, r2, #255	; 0xff
   85614:	ea40 50c2 	orrgt.w	r0, r0, r2, lsl #23
   85618:	4770      	bxgt	lr
   8561a:	f440 0000 	orr.w	r0, r0, #8388608	; 0x800000
   8561e:	f04f 0300 	mov.w	r3, #0
   85622:	3a01      	subs	r2, #1
   85624:	e737      	b.n	85496 <__aeabi_fmul+0x92>
   85626:	f092 0f00 	teq	r2, #0
   8562a:	f000 4c00 	and.w	ip, r0, #2147483648	; 0x80000000
   8562e:	bf02      	ittt	eq
   85630:	0040      	lsleq	r0, r0, #1
   85632:	f410 0f00 	tsteq.w	r0, #8388608	; 0x800000
   85636:	3a01      	subeq	r2, #1
   85638:	d0f9      	beq.n	8562e <__aeabi_fdiv+0xc2>
   8563a:	ea40 000c 	orr.w	r0, r0, ip
   8563e:	f093 0f00 	teq	r3, #0
   85642:	f001 4c00 	and.w	ip, r1, #2147483648	; 0x80000000
   85646:	bf02      	ittt	eq
   85648:	0049      	lsleq	r1, r1, #1
   8564a:	f411 0f00 	tsteq.w	r1, #8388608	; 0x800000
   8564e:	3b01      	subeq	r3, #1
   85650:	d0f9      	beq.n	85646 <__aeabi_fdiv+0xda>
   85652:	ea41 010c 	orr.w	r1, r1, ip
   85656:	e795      	b.n	85584 <__aeabi_fdiv+0x18>
   85658:	ea0c 53d1 	and.w	r3, ip, r1, lsr #23
   8565c:	ea92 0f0c 	teq	r2, ip
   85660:	d108      	bne.n	85674 <__aeabi_fdiv+0x108>
   85662:	0242      	lsls	r2, r0, #9
   85664:	f47f af7d 	bne.w	85562 <__aeabi_fmul+0x15e>
   85668:	ea93 0f0c 	teq	r3, ip
   8566c:	f47f af70 	bne.w	85550 <__aeabi_fmul+0x14c>
   85670:	4608      	mov	r0, r1
   85672:	e776      	b.n	85562 <__aeabi_fmul+0x15e>
   85674:	ea93 0f0c 	teq	r3, ip
   85678:	d104      	bne.n	85684 <__aeabi_fdiv+0x118>
   8567a:	024b      	lsls	r3, r1, #9
   8567c:	f43f af4c 	beq.w	85518 <__aeabi_fmul+0x114>
   85680:	4608      	mov	r0, r1
   85682:	e76e      	b.n	85562 <__aeabi_fmul+0x15e>
   85684:	f030 4c00 	bics.w	ip, r0, #2147483648	; 0x80000000
   85688:	bf18      	it	ne
   8568a:	f031 4c00 	bicsne.w	ip, r1, #2147483648	; 0x80000000
   8568e:	d1ca      	bne.n	85626 <__aeabi_fdiv+0xba>
   85690:	f030 4200 	bics.w	r2, r0, #2147483648	; 0x80000000
   85694:	f47f af5c 	bne.w	85550 <__aeabi_fmul+0x14c>
   85698:	f031 4300 	bics.w	r3, r1, #2147483648	; 0x80000000
   8569c:	f47f af3c 	bne.w	85518 <__aeabi_fmul+0x114>
   856a0:	e75f      	b.n	85562 <__aeabi_fmul+0x15e>
   856a2:	bf00      	nop

000856a4 <__gesf2>:
   856a4:	f04f 3cff 	mov.w	ip, #4294967295
   856a8:	e006      	b.n	856b8 <__cmpsf2+0x4>
   856aa:	bf00      	nop

000856ac <__lesf2>:
   856ac:	f04f 0c01 	mov.w	ip, #1
   856b0:	e002      	b.n	856b8 <__cmpsf2+0x4>
   856b2:	bf00      	nop

000856b4 <__cmpsf2>:
   856b4:	f04f 0c01 	mov.w	ip, #1
   856b8:	f84d cd04 	str.w	ip, [sp, #-4]!
   856bc:	ea4f 0240 	mov.w	r2, r0, lsl #1
   856c0:	ea4f 0341 	mov.w	r3, r1, lsl #1
   856c4:	ea7f 6c22 	mvns.w	ip, r2, asr #24
   856c8:	bf18      	it	ne
   856ca:	ea7f 6c23 	mvnsne.w	ip, r3, asr #24
   856ce:	d011      	beq.n	856f4 <__cmpsf2+0x40>
   856d0:	b001      	add	sp, #4
   856d2:	ea52 0c53 	orrs.w	ip, r2, r3, lsr #1
   856d6:	bf18      	it	ne
   856d8:	ea90 0f01 	teqne	r0, r1
   856dc:	bf58      	it	pl
   856de:	ebb2 0003 	subspl.w	r0, r2, r3
   856e2:	bf88      	it	hi
   856e4:	17c8      	asrhi	r0, r1, #31
   856e6:	bf38      	it	cc
   856e8:	ea6f 70e1 	mvncc.w	r0, r1, asr #31
   856ec:	bf18      	it	ne
   856ee:	f040 0001 	orrne.w	r0, r0, #1
   856f2:	4770      	bx	lr
   856f4:	ea7f 6c22 	mvns.w	ip, r2, asr #24
   856f8:	d102      	bne.n	85700 <__cmpsf2+0x4c>
   856fa:	ea5f 2c40 	movs.w	ip, r0, lsl #9
   856fe:	d105      	bne.n	8570c <__cmpsf2+0x58>
   85700:	ea7f 6c23 	mvns.w	ip, r3, asr #24
   85704:	d1e4      	bne.n	856d0 <__cmpsf2+0x1c>
   85706:	ea5f 2c41 	movs.w	ip, r1, lsl #9
   8570a:	d0e1      	beq.n	856d0 <__cmpsf2+0x1c>
   8570c:	f85d 0b04 	ldr.w	r0, [sp], #4
   85710:	4770      	bx	lr
   85712:	bf00      	nop

00085714 <__aeabi_cfrcmple>:
   85714:	4684      	mov	ip, r0
   85716:	4608      	mov	r0, r1
   85718:	4661      	mov	r1, ip
   8571a:	e7ff      	b.n	8571c <__aeabi_cfcmpeq>

0008571c <__aeabi_cfcmpeq>:
   8571c:	b50f      	push	{r0, r1, r2, r3, lr}
   8571e:	f7ff ffc9 	bl	856b4 <__cmpsf2>
   85722:	2800      	cmp	r0, #0
   85724:	bf48      	it	mi
   85726:	f110 0f00 	cmnmi.w	r0, #0
   8572a:	bd0f      	pop	{r0, r1, r2, r3, pc}

0008572c <__aeabi_fcmpeq>:
   8572c:	f84d ed08 	str.w	lr, [sp, #-8]!
   85730:	f7ff fff4 	bl	8571c <__aeabi_cfcmpeq>
   85734:	bf0c      	ite	eq
   85736:	2001      	moveq	r0, #1
   85738:	2000      	movne	r0, #0
   8573a:	f85d fb08 	ldr.w	pc, [sp], #8
   8573e:	bf00      	nop

00085740 <__aeabi_fcmplt>:
   85740:	f84d ed08 	str.w	lr, [sp, #-8]!
   85744:	f7ff ffea 	bl	8571c <__aeabi_cfcmpeq>
   85748:	bf34      	ite	cc
   8574a:	2001      	movcc	r0, #1
   8574c:	2000      	movcs	r0, #0
   8574e:	f85d fb08 	ldr.w	pc, [sp], #8
   85752:	bf00      	nop

00085754 <__aeabi_fcmple>:
   85754:	f84d ed08 	str.w	lr, [sp, #-8]!
   85758:	f7ff ffe0 	bl	8571c <__aeabi_cfcmpeq>
   8575c:	bf94      	ite	ls
   8575e:	2001      	movls	r0, #1
   85760:	2000      	movhi	r0, #0
   85762:	f85d fb08 	ldr.w	pc, [sp], #8
   85766:	bf00      	nop

00085768 <__aeabi_fcmpge>:
   85768:	f84d ed08 	str.w	lr, [sp, #-8]!
   8576c:	f7ff ffd2 	bl	85714 <__aeabi_cfrcmple>
   85770:	bf94      	ite	ls
   85772:	2001      	movls	r0, #1
   85774:	2000      	movhi	r0, #0
   85776:	f85d fb08 	ldr.w	pc, [sp], #8
   8577a:	bf00      	nop

0008577c <__aeabi_fcmpgt>:
   8577c:	f84d ed08 	str.w	lr, [sp, #-8]!
   85780:	f7ff ffc8 	bl	85714 <__aeabi_cfrcmple>
   85784:	bf34      	ite	cc
   85786:	2001      	movcc	r0, #1
   85788:	2000      	movcs	r0, #0
   8578a:	f85d fb08 	ldr.w	pc, [sp], #8
   8578e:	bf00      	nop

00085790 <__aeabi_f2iz>:
   85790:	ea4f 0240 	mov.w	r2, r0, lsl #1
   85794:	f1b2 4ffe 	cmp.w	r2, #2130706432	; 0x7f000000
   85798:	d30f      	bcc.n	857ba <__aeabi_f2iz+0x2a>
   8579a:	f04f 039e 	mov.w	r3, #158	; 0x9e
   8579e:	ebb3 6212 	subs.w	r2, r3, r2, lsr #24
   857a2:	d90d      	bls.n	857c0 <__aeabi_f2iz+0x30>
   857a4:	ea4f 2300 	mov.w	r3, r0, lsl #8
   857a8:	f043 4300 	orr.w	r3, r3, #2147483648	; 0x80000000
   857ac:	f010 4f00 	tst.w	r0, #2147483648	; 0x80000000
   857b0:	fa23 f002 	lsr.w	r0, r3, r2
   857b4:	bf18      	it	ne
   857b6:	4240      	negne	r0, r0
   857b8:	4770      	bx	lr
   857ba:	f04f 0000 	mov.w	r0, #0
   857be:	4770      	bx	lr
   857c0:	f112 0f61 	cmn.w	r2, #97	; 0x61
   857c4:	d101      	bne.n	857ca <__aeabi_f2iz+0x3a>
   857c6:	0242      	lsls	r2, r0, #9
   857c8:	d105      	bne.n	857d6 <__aeabi_f2iz+0x46>
   857ca:	f010 4000 	ands.w	r0, r0, #2147483648	; 0x80000000
   857ce:	bf08      	it	eq
   857d0:	f06f 4000 	mvneq.w	r0, #2147483648	; 0x80000000
   857d4:	4770      	bx	lr
   857d6:	f04f 0000 	mov.w	r0, #0
   857da:	4770      	bx	lr

000857dc <__libc_init_array>:
   857dc:	b570      	push	{r4, r5, r6, lr}
   857de:	4e0f      	ldr	r6, [pc, #60]	; (8581c <__libc_init_array+0x40>)
   857e0:	4d0f      	ldr	r5, [pc, #60]	; (85820 <__libc_init_array+0x44>)
   857e2:	1b76      	subs	r6, r6, r5
   857e4:	10b6      	asrs	r6, r6, #2
   857e6:	bf18      	it	ne
   857e8:	2400      	movne	r4, #0
   857ea:	d005      	beq.n	857f8 <__libc_init_array+0x1c>
   857ec:	3401      	adds	r4, #1
   857ee:	f855 3b04 	ldr.w	r3, [r5], #4
   857f2:	4798      	blx	r3
   857f4:	42a6      	cmp	r6, r4
   857f6:	d1f9      	bne.n	857ec <__libc_init_array+0x10>
   857f8:	4e0a      	ldr	r6, [pc, #40]	; (85824 <__libc_init_array+0x48>)
   857fa:	4d0b      	ldr	r5, [pc, #44]	; (85828 <__libc_init_array+0x4c>)
   857fc:	f004 fa60 	bl	89cc0 <_init>
   85800:	1b76      	subs	r6, r6, r5
   85802:	10b6      	asrs	r6, r6, #2
   85804:	bf18      	it	ne
   85806:	2400      	movne	r4, #0
   85808:	d006      	beq.n	85818 <__libc_init_array+0x3c>
   8580a:	3401      	adds	r4, #1
   8580c:	f855 3b04 	ldr.w	r3, [r5], #4
   85810:	4798      	blx	r3
   85812:	42a6      	cmp	r6, r4
   85814:	d1f9      	bne.n	8580a <__libc_init_array+0x2e>
   85816:	bd70      	pop	{r4, r5, r6, pc}
   85818:	bd70      	pop	{r4, r5, r6, pc}
   8581a:	bf00      	nop
   8581c:	00089ccc 	.word	0x00089ccc
   85820:	00089ccc 	.word	0x00089ccc
   85824:	00089cd4 	.word	0x00089cd4
   85828:	00089ccc 	.word	0x00089ccc

0008582c <memset>:
   8582c:	b470      	push	{r4, r5, r6}
   8582e:	0786      	lsls	r6, r0, #30
   85830:	d046      	beq.n	858c0 <memset+0x94>
   85832:	1e54      	subs	r4, r2, #1
   85834:	2a00      	cmp	r2, #0
   85836:	d041      	beq.n	858bc <memset+0x90>
   85838:	b2ca      	uxtb	r2, r1
   8583a:	4603      	mov	r3, r0
   8583c:	e002      	b.n	85844 <memset+0x18>
   8583e:	f114 34ff 	adds.w	r4, r4, #4294967295
   85842:	d33b      	bcc.n	858bc <memset+0x90>
   85844:	f803 2b01 	strb.w	r2, [r3], #1
   85848:	079d      	lsls	r5, r3, #30
   8584a:	d1f8      	bne.n	8583e <memset+0x12>
   8584c:	2c03      	cmp	r4, #3
   8584e:	d92e      	bls.n	858ae <memset+0x82>
   85850:	b2cd      	uxtb	r5, r1
   85852:	ea45 2505 	orr.w	r5, r5, r5, lsl #8
   85856:	2c0f      	cmp	r4, #15
   85858:	ea45 4505 	orr.w	r5, r5, r5, lsl #16
   8585c:	d919      	bls.n	85892 <memset+0x66>
   8585e:	4626      	mov	r6, r4
   85860:	f103 0210 	add.w	r2, r3, #16
   85864:	3e10      	subs	r6, #16
   85866:	2e0f      	cmp	r6, #15
   85868:	f842 5c10 	str.w	r5, [r2, #-16]
   8586c:	f842 5c0c 	str.w	r5, [r2, #-12]
   85870:	f842 5c08 	str.w	r5, [r2, #-8]
   85874:	f842 5c04 	str.w	r5, [r2, #-4]
   85878:	f102 0210 	add.w	r2, r2, #16
   8587c:	d8f2      	bhi.n	85864 <memset+0x38>
   8587e:	f1a4 0210 	sub.w	r2, r4, #16
   85882:	f022 020f 	bic.w	r2, r2, #15
   85886:	f004 040f 	and.w	r4, r4, #15
   8588a:	3210      	adds	r2, #16
   8588c:	2c03      	cmp	r4, #3
   8588e:	4413      	add	r3, r2
   85890:	d90d      	bls.n	858ae <memset+0x82>
   85892:	461e      	mov	r6, r3
   85894:	4622      	mov	r2, r4
   85896:	3a04      	subs	r2, #4
   85898:	2a03      	cmp	r2, #3
   8589a:	f846 5b04 	str.w	r5, [r6], #4
   8589e:	d8fa      	bhi.n	85896 <memset+0x6a>
   858a0:	1f22      	subs	r2, r4, #4
   858a2:	f022 0203 	bic.w	r2, r2, #3
   858a6:	3204      	adds	r2, #4
   858a8:	4413      	add	r3, r2
   858aa:	f004 0403 	and.w	r4, r4, #3
   858ae:	b12c      	cbz	r4, 858bc <memset+0x90>
   858b0:	b2c9      	uxtb	r1, r1
   858b2:	441c      	add	r4, r3
   858b4:	f803 1b01 	strb.w	r1, [r3], #1
   858b8:	429c      	cmp	r4, r3
   858ba:	d1fb      	bne.n	858b4 <memset+0x88>
   858bc:	bc70      	pop	{r4, r5, r6}
   858be:	4770      	bx	lr
   858c0:	4614      	mov	r4, r2
   858c2:	4603      	mov	r3, r0
   858c4:	e7c2      	b.n	8584c <memset+0x20>
   858c6:	bf00      	nop

000858c8 <sprintf>:
   858c8:	b40e      	push	{r1, r2, r3}
   858ca:	4601      	mov	r1, r0
   858cc:	b5f0      	push	{r4, r5, r6, r7, lr}
   858ce:	f06f 4500 	mvn.w	r5, #2147483648	; 0x80000000
   858d2:	f44f 7702 	mov.w	r7, #520	; 0x208
   858d6:	f64f 76ff 	movw	r6, #65535	; 0xffff
   858da:	b09c      	sub	sp, #112	; 0x70
   858dc:	ac21      	add	r4, sp, #132	; 0x84
   858de:	f854 2b04 	ldr.w	r2, [r4], #4
   858e2:	4b0b      	ldr	r3, [pc, #44]	; (85910 <sprintf+0x48>)
   858e4:	9102      	str	r1, [sp, #8]
   858e6:	9106      	str	r1, [sp, #24]
   858e8:	6818      	ldr	r0, [r3, #0]
   858ea:	a902      	add	r1, sp, #8
   858ec:	4623      	mov	r3, r4
   858ee:	9401      	str	r4, [sp, #4]
   858f0:	f8ad 7014 	strh.w	r7, [sp, #20]
   858f4:	9504      	str	r5, [sp, #16]
   858f6:	9507      	str	r5, [sp, #28]
   858f8:	f8ad 6016 	strh.w	r6, [sp, #22]
   858fc:	f000 f838 	bl	85970 <_svfprintf_r>
   85900:	2200      	movs	r2, #0
   85902:	9b02      	ldr	r3, [sp, #8]
   85904:	701a      	strb	r2, [r3, #0]
   85906:	b01c      	add	sp, #112	; 0x70
   85908:	e8bd 40f0 	ldmia.w	sp!, {r4, r5, r6, r7, lr}
   8590c:	b003      	add	sp, #12
   8590e:	4770      	bx	lr
   85910:	200701a4 	.word	0x200701a4

00085914 <strlen>:
   85914:	f020 0103 	bic.w	r1, r0, #3
   85918:	f010 0003 	ands.w	r0, r0, #3
   8591c:	f1c0 0000 	rsb	r0, r0, #0
   85920:	f851 3b04 	ldr.w	r3, [r1], #4
   85924:	f100 0c04 	add.w	ip, r0, #4
   85928:	ea4f 0ccc 	mov.w	ip, ip, lsl #3
   8592c:	f06f 0200 	mvn.w	r2, #0
   85930:	bf1c      	itt	ne
   85932:	fa22 f20c 	lsrne.w	r2, r2, ip
   85936:	4313      	orrne	r3, r2
   85938:	f04f 0c01 	mov.w	ip, #1
   8593c:	ea4c 2c0c 	orr.w	ip, ip, ip, lsl #8
   85940:	ea4c 4c0c 	orr.w	ip, ip, ip, lsl #16
   85944:	eba3 020c 	sub.w	r2, r3, ip
   85948:	ea22 0203 	bic.w	r2, r2, r3
   8594c:	ea12 12cc 	ands.w	r2, r2, ip, lsl #7
   85950:	bf04      	itt	eq
   85952:	f851 3b04 	ldreq.w	r3, [r1], #4
   85956:	3004      	addeq	r0, #4
   85958:	d0f4      	beq.n	85944 <strlen+0x30>
   8595a:	f1c2 0100 	rsb	r1, r2, #0
   8595e:	ea02 0201 	and.w	r2, r2, r1
   85962:	fab2 f282 	clz	r2, r2
   85966:	f1c2 021f 	rsb	r2, r2, #31
   8596a:	eb00 00d2 	add.w	r0, r0, r2, lsr #3
   8596e:	4770      	bx	lr

00085970 <_svfprintf_r>:
   85970:	e92d 4ff0 	stmdb	sp!, {r4, r5, r6, r7, r8, r9, sl, fp, lr}
   85974:	b0c3      	sub	sp, #268	; 0x10c
   85976:	460c      	mov	r4, r1
   85978:	910b      	str	r1, [sp, #44]	; 0x2c
   8597a:	4692      	mov	sl, r2
   8597c:	930f      	str	r3, [sp, #60]	; 0x3c
   8597e:	900c      	str	r0, [sp, #48]	; 0x30
   85980:	f002 fa56 	bl	87e30 <_localeconv_r>
   85984:	6803      	ldr	r3, [r0, #0]
   85986:	4618      	mov	r0, r3
   85988:	931a      	str	r3, [sp, #104]	; 0x68
   8598a:	f7ff ffc3 	bl	85914 <strlen>
   8598e:	89a3      	ldrh	r3, [r4, #12]
   85990:	9019      	str	r0, [sp, #100]	; 0x64
   85992:	0619      	lsls	r1, r3, #24
   85994:	d503      	bpl.n	8599e <_svfprintf_r+0x2e>
   85996:	6923      	ldr	r3, [r4, #16]
   85998:	2b00      	cmp	r3, #0
   8599a:	f001 8035 	beq.w	86a08 <_svfprintf_r+0x1098>
   8599e:	2300      	movs	r3, #0
   859a0:	f10d 09c8 	add.w	r9, sp, #200	; 0xc8
   859a4:	46c8      	mov	r8, r9
   859a6:	9315      	str	r3, [sp, #84]	; 0x54
   859a8:	9313      	str	r3, [sp, #76]	; 0x4c
   859aa:	9314      	str	r3, [sp, #80]	; 0x50
   859ac:	9318      	str	r3, [sp, #96]	; 0x60
   859ae:	931b      	str	r3, [sp, #108]	; 0x6c
   859b0:	9309      	str	r3, [sp, #36]	; 0x24
   859b2:	9316      	str	r3, [sp, #88]	; 0x58
   859b4:	9317      	str	r3, [sp, #92]	; 0x5c
   859b6:	9327      	str	r3, [sp, #156]	; 0x9c
   859b8:	9326      	str	r3, [sp, #152]	; 0x98
   859ba:	f8cd 9094 	str.w	r9, [sp, #148]	; 0x94
   859be:	f89a 3000 	ldrb.w	r3, [sl]
   859c2:	4654      	mov	r4, sl
   859c4:	b1eb      	cbz	r3, 85a02 <_svfprintf_r+0x92>
   859c6:	2b25      	cmp	r3, #37	; 0x25
   859c8:	d102      	bne.n	859d0 <_svfprintf_r+0x60>
   859ca:	e01a      	b.n	85a02 <_svfprintf_r+0x92>
   859cc:	2b25      	cmp	r3, #37	; 0x25
   859ce:	d003      	beq.n	859d8 <_svfprintf_r+0x68>
   859d0:	f814 3f01 	ldrb.w	r3, [r4, #1]!
   859d4:	2b00      	cmp	r3, #0
   859d6:	d1f9      	bne.n	859cc <_svfprintf_r+0x5c>
   859d8:	eba4 050a 	sub.w	r5, r4, sl
   859dc:	b18d      	cbz	r5, 85a02 <_svfprintf_r+0x92>
   859de:	9b26      	ldr	r3, [sp, #152]	; 0x98
   859e0:	9a27      	ldr	r2, [sp, #156]	; 0x9c
   859e2:	3301      	adds	r3, #1
   859e4:	442a      	add	r2, r5
   859e6:	2b07      	cmp	r3, #7
   859e8:	f8c8 a000 	str.w	sl, [r8]
   859ec:	f8c8 5004 	str.w	r5, [r8, #4]
   859f0:	9227      	str	r2, [sp, #156]	; 0x9c
   859f2:	9326      	str	r3, [sp, #152]	; 0x98
   859f4:	f300 808a 	bgt.w	85b0c <_svfprintf_r+0x19c>
   859f8:	f108 0808 	add.w	r8, r8, #8
   859fc:	9b09      	ldr	r3, [sp, #36]	; 0x24
   859fe:	442b      	add	r3, r5
   85a00:	9309      	str	r3, [sp, #36]	; 0x24
   85a02:	7823      	ldrb	r3, [r4, #0]
   85a04:	2b00      	cmp	r3, #0
   85a06:	f000 8089 	beq.w	85b1c <_svfprintf_r+0x1ac>
   85a0a:	2300      	movs	r3, #0
   85a0c:	f04f 30ff 	mov.w	r0, #4294967295
   85a10:	461a      	mov	r2, r3
   85a12:	f88d 3077 	strb.w	r3, [sp, #119]	; 0x77
   85a16:	4619      	mov	r1, r3
   85a18:	930d      	str	r3, [sp, #52]	; 0x34
   85a1a:	469b      	mov	fp, r3
   85a1c:	7863      	ldrb	r3, [r4, #1]
   85a1e:	f104 0a01 	add.w	sl, r4, #1
   85a22:	900a      	str	r0, [sp, #40]	; 0x28
   85a24:	f10a 0a01 	add.w	sl, sl, #1
   85a28:	f1a3 0020 	sub.w	r0, r3, #32
   85a2c:	2858      	cmp	r0, #88	; 0x58
   85a2e:	f200 83b7 	bhi.w	861a0 <_svfprintf_r+0x830>
   85a32:	e8df f010 	tbh	[pc, r0, lsl #1]
   85a36:	034c      	.short	0x034c
   85a38:	03b503b5 	.word	0x03b503b5
   85a3c:	03b50354 	.word	0x03b50354
   85a40:	03b503b5 	.word	0x03b503b5
   85a44:	03b503b5 	.word	0x03b503b5
   85a48:	005903b5 	.word	0x005903b5
   85a4c:	03b50359 	.word	0x03b50359
   85a50:	02140066 	.word	0x02140066
   85a54:	022f03b5 	.word	0x022f03b5
   85a58:	03a503a5 	.word	0x03a503a5
   85a5c:	03a503a5 	.word	0x03a503a5
   85a60:	03a503a5 	.word	0x03a503a5
   85a64:	03a503a5 	.word	0x03a503a5
   85a68:	03b503a5 	.word	0x03b503a5
   85a6c:	03b503b5 	.word	0x03b503b5
   85a70:	03b503b5 	.word	0x03b503b5
   85a74:	03b503b5 	.word	0x03b503b5
   85a78:	03b503b5 	.word	0x03b503b5
   85a7c:	028b03b5 	.word	0x028b03b5
   85a80:	03b502d3 	.word	0x03b502d3
   85a84:	03b502d3 	.word	0x03b502d3
   85a88:	03b503b5 	.word	0x03b503b5
   85a8c:	031b03b5 	.word	0x031b03b5
   85a90:	03b503b5 	.word	0x03b503b5
   85a94:	03b50320 	.word	0x03b50320
   85a98:	03b503b5 	.word	0x03b503b5
   85a9c:	03b503b5 	.word	0x03b503b5
   85aa0:	03b50234 	.word	0x03b50234
   85aa4:	024b03b5 	.word	0x024b03b5
   85aa8:	03b503b5 	.word	0x03b503b5
   85aac:	03b503b5 	.word	0x03b503b5
   85ab0:	03b503b5 	.word	0x03b503b5
   85ab4:	03b503b5 	.word	0x03b503b5
   85ab8:	03b503b5 	.word	0x03b503b5
   85abc:	039e0276 	.word	0x039e0276
   85ac0:	02d302d3 	.word	0x02d302d3
   85ac4:	036302d3 	.word	0x036302d3
   85ac8:	03b5039e 	.word	0x03b5039e
   85acc:	036803b5 	.word	0x036803b5
   85ad0:	037503b5 	.word	0x037503b5
   85ad4:	038c01dd 	.word	0x038c01dd
   85ad8:	03b5035e 	.word	0x03b5035e
   85adc:	03b501f2 	.word	0x03b501f2
   85ae0:	03b50087 	.word	0x03b50087
   85ae4:	033203b5 	.word	0x033203b5
   85ae8:	9c0f      	ldr	r4, [sp, #60]	; 0x3c
   85aea:	6823      	ldr	r3, [r4, #0]
   85aec:	4618      	mov	r0, r3
   85aee:	930d      	str	r3, [sp, #52]	; 0x34
   85af0:	4623      	mov	r3, r4
   85af2:	2800      	cmp	r0, #0
   85af4:	f103 0304 	add.w	r3, r3, #4
   85af8:	930f      	str	r3, [sp, #60]	; 0x3c
   85afa:	da04      	bge.n	85b06 <_svfprintf_r+0x196>
   85afc:	9b0d      	ldr	r3, [sp, #52]	; 0x34
   85afe:	425b      	negs	r3, r3
   85b00:	930d      	str	r3, [sp, #52]	; 0x34
   85b02:	f04b 0b04 	orr.w	fp, fp, #4
   85b06:	f89a 3000 	ldrb.w	r3, [sl]
   85b0a:	e78b      	b.n	85a24 <_svfprintf_r+0xb4>
   85b0c:	aa25      	add	r2, sp, #148	; 0x94
   85b0e:	990b      	ldr	r1, [sp, #44]	; 0x2c
   85b10:	980c      	ldr	r0, [sp, #48]	; 0x30
   85b12:	f003 f817 	bl	88b44 <__ssprint_r>
   85b16:	b940      	cbnz	r0, 85b2a <_svfprintf_r+0x1ba>
   85b18:	46c8      	mov	r8, r9
   85b1a:	e76f      	b.n	859fc <_svfprintf_r+0x8c>
   85b1c:	9b27      	ldr	r3, [sp, #156]	; 0x9c
   85b1e:	b123      	cbz	r3, 85b2a <_svfprintf_r+0x1ba>
   85b20:	980c      	ldr	r0, [sp, #48]	; 0x30
   85b22:	aa25      	add	r2, sp, #148	; 0x94
   85b24:	990b      	ldr	r1, [sp, #44]	; 0x2c
   85b26:	f003 f80d 	bl	88b44 <__ssprint_r>
   85b2a:	9b0b      	ldr	r3, [sp, #44]	; 0x2c
   85b2c:	899b      	ldrh	r3, [r3, #12]
   85b2e:	f013 0f40 	tst.w	r3, #64	; 0x40
   85b32:	9b09      	ldr	r3, [sp, #36]	; 0x24
   85b34:	bf18      	it	ne
   85b36:	f04f 33ff 	movne.w	r3, #4294967295
   85b3a:	9309      	str	r3, [sp, #36]	; 0x24
   85b3c:	9809      	ldr	r0, [sp, #36]	; 0x24
   85b3e:	b043      	add	sp, #268	; 0x10c
   85b40:	e8bd 8ff0 	ldmia.w	sp!, {r4, r5, r6, r7, r8, r9, sl, fp, pc}
   85b44:	f01b 0f20 	tst.w	fp, #32
   85b48:	9311      	str	r3, [sp, #68]	; 0x44
   85b4a:	f040 81af 	bne.w	85eac <_svfprintf_r+0x53c>
   85b4e:	9a0f      	ldr	r2, [sp, #60]	; 0x3c
   85b50:	f01b 0f10 	tst.w	fp, #16
   85b54:	4613      	mov	r3, r2
   85b56:	f040 859a 	bne.w	8668e <_svfprintf_r+0xd1e>
   85b5a:	f01b 0f40 	tst.w	fp, #64	; 0x40
   85b5e:	f000 8596 	beq.w	8668e <_svfprintf_r+0xd1e>
   85b62:	2500      	movs	r5, #0
   85b64:	2301      	movs	r3, #1
   85b66:	8814      	ldrh	r4, [r2, #0]
   85b68:	3204      	adds	r2, #4
   85b6a:	920f      	str	r2, [sp, #60]	; 0x3c
   85b6c:	2200      	movs	r2, #0
   85b6e:	4617      	mov	r7, r2
   85b70:	f88d 2077 	strb.w	r2, [sp, #119]	; 0x77
   85b74:	990a      	ldr	r1, [sp, #40]	; 0x28
   85b76:	1c4a      	adds	r2, r1, #1
   85b78:	f000 8210 	beq.w	85f9c <_svfprintf_r+0x62c>
   85b7c:	f02b 0280 	bic.w	r2, fp, #128	; 0x80
   85b80:	9207      	str	r2, [sp, #28]
   85b82:	ea54 0205 	orrs.w	r2, r4, r5
   85b86:	f040 820f 	bne.w	85fa8 <_svfprintf_r+0x638>
   85b8a:	2900      	cmp	r1, #0
   85b8c:	f040 8431 	bne.w	863f2 <_svfprintf_r+0xa82>
   85b90:	2b00      	cmp	r3, #0
   85b92:	f040 8539 	bne.w	86608 <_svfprintf_r+0xc98>
   85b96:	f01b 0301 	ands.w	r3, fp, #1
   85b9a:	930e      	str	r3, [sp, #56]	; 0x38
   85b9c:	f000 8662 	beq.w	86864 <_svfprintf_r+0xef4>
   85ba0:	2330      	movs	r3, #48	; 0x30
   85ba2:	ae42      	add	r6, sp, #264	; 0x108
   85ba4:	f806 3d41 	strb.w	r3, [r6, #-65]!
   85ba8:	9b0a      	ldr	r3, [sp, #40]	; 0x28
   85baa:	9a0e      	ldr	r2, [sp, #56]	; 0x38
   85bac:	4293      	cmp	r3, r2
   85bae:	bfb8      	it	lt
   85bb0:	4613      	movlt	r3, r2
   85bb2:	9308      	str	r3, [sp, #32]
   85bb4:	2300      	movs	r3, #0
   85bb6:	9312      	str	r3, [sp, #72]	; 0x48
   85bb8:	b117      	cbz	r7, 85bc0 <_svfprintf_r+0x250>
   85bba:	9b08      	ldr	r3, [sp, #32]
   85bbc:	3301      	adds	r3, #1
   85bbe:	9308      	str	r3, [sp, #32]
   85bc0:	9b07      	ldr	r3, [sp, #28]
   85bc2:	f013 0302 	ands.w	r3, r3, #2
   85bc6:	9310      	str	r3, [sp, #64]	; 0x40
   85bc8:	d002      	beq.n	85bd0 <_svfprintf_r+0x260>
   85bca:	9b08      	ldr	r3, [sp, #32]
   85bcc:	3302      	adds	r3, #2
   85bce:	9308      	str	r3, [sp, #32]
   85bd0:	9b07      	ldr	r3, [sp, #28]
   85bd2:	f013 0584 	ands.w	r5, r3, #132	; 0x84
   85bd6:	f040 8310 	bne.w	861fa <_svfprintf_r+0x88a>
   85bda:	9b0d      	ldr	r3, [sp, #52]	; 0x34
   85bdc:	9a08      	ldr	r2, [sp, #32]
   85bde:	eba3 0b02 	sub.w	fp, r3, r2
   85be2:	f1bb 0f00 	cmp.w	fp, #0
   85be6:	f340 8308 	ble.w	861fa <_svfprintf_r+0x88a>
   85bea:	f1bb 0f10 	cmp.w	fp, #16
   85bee:	f340 87b2 	ble.w	86b56 <_svfprintf_r+0x11e6>
   85bf2:	9c27      	ldr	r4, [sp, #156]	; 0x9c
   85bf4:	4643      	mov	r3, r8
   85bf6:	4621      	mov	r1, r4
   85bf8:	46a8      	mov	r8, r5
   85bfa:	2710      	movs	r7, #16
   85bfc:	9a26      	ldr	r2, [sp, #152]	; 0x98
   85bfe:	9c0c      	ldr	r4, [sp, #48]	; 0x30
   85c00:	9d0b      	ldr	r5, [sp, #44]	; 0x2c
   85c02:	e006      	b.n	85c12 <_svfprintf_r+0x2a2>
   85c04:	f1ab 0b10 	sub.w	fp, fp, #16
   85c08:	f1bb 0f10 	cmp.w	fp, #16
   85c0c:	f103 0308 	add.w	r3, r3, #8
   85c10:	dd18      	ble.n	85c44 <_svfprintf_r+0x2d4>
   85c12:	3201      	adds	r2, #1
   85c14:	48ab      	ldr	r0, [pc, #684]	; (85ec4 <_svfprintf_r+0x554>)
   85c16:	3110      	adds	r1, #16
   85c18:	2a07      	cmp	r2, #7
   85c1a:	9127      	str	r1, [sp, #156]	; 0x9c
   85c1c:	9226      	str	r2, [sp, #152]	; 0x98
   85c1e:	e883 0081 	stmia.w	r3, {r0, r7}
   85c22:	ddef      	ble.n	85c04 <_svfprintf_r+0x294>
   85c24:	aa25      	add	r2, sp, #148	; 0x94
   85c26:	4629      	mov	r1, r5
   85c28:	4620      	mov	r0, r4
   85c2a:	f002 ff8b 	bl	88b44 <__ssprint_r>
   85c2e:	2800      	cmp	r0, #0
   85c30:	f47f af7b 	bne.w	85b2a <_svfprintf_r+0x1ba>
   85c34:	f1ab 0b10 	sub.w	fp, fp, #16
   85c38:	f1bb 0f10 	cmp.w	fp, #16
   85c3c:	464b      	mov	r3, r9
   85c3e:	9927      	ldr	r1, [sp, #156]	; 0x9c
   85c40:	9a26      	ldr	r2, [sp, #152]	; 0x98
   85c42:	dce6      	bgt.n	85c12 <_svfprintf_r+0x2a2>
   85c44:	4645      	mov	r5, r8
   85c46:	460c      	mov	r4, r1
   85c48:	4698      	mov	r8, r3
   85c4a:	3201      	adds	r2, #1
   85c4c:	4b9d      	ldr	r3, [pc, #628]	; (85ec4 <_svfprintf_r+0x554>)
   85c4e:	445c      	add	r4, fp
   85c50:	2a07      	cmp	r2, #7
   85c52:	9427      	str	r4, [sp, #156]	; 0x9c
   85c54:	9226      	str	r2, [sp, #152]	; 0x98
   85c56:	e888 0808 	stmia.w	r8, {r3, fp}
   85c5a:	f300 82c3 	bgt.w	861e4 <_svfprintf_r+0x874>
   85c5e:	f89d 7077 	ldrb.w	r7, [sp, #119]	; 0x77
   85c62:	f108 0808 	add.w	r8, r8, #8
   85c66:	b187      	cbz	r7, 85c8a <_svfprintf_r+0x31a>
   85c68:	2101      	movs	r1, #1
   85c6a:	9b26      	ldr	r3, [sp, #152]	; 0x98
   85c6c:	440c      	add	r4, r1
   85c6e:	440b      	add	r3, r1
   85c70:	f10d 0277 	add.w	r2, sp, #119	; 0x77
   85c74:	2b07      	cmp	r3, #7
   85c76:	9427      	str	r4, [sp, #156]	; 0x9c
   85c78:	9326      	str	r3, [sp, #152]	; 0x98
   85c7a:	f8c8 1004 	str.w	r1, [r8, #4]
   85c7e:	f8c8 2000 	str.w	r2, [r8]
   85c82:	f300 83cd 	bgt.w	86420 <_svfprintf_r+0xab0>
   85c86:	f108 0808 	add.w	r8, r8, #8
   85c8a:	9b10      	ldr	r3, [sp, #64]	; 0x40
   85c8c:	b17b      	cbz	r3, 85cae <_svfprintf_r+0x33e>
   85c8e:	2102      	movs	r1, #2
   85c90:	9b26      	ldr	r3, [sp, #152]	; 0x98
   85c92:	440c      	add	r4, r1
   85c94:	3301      	adds	r3, #1
   85c96:	aa1e      	add	r2, sp, #120	; 0x78
   85c98:	2b07      	cmp	r3, #7
   85c9a:	9427      	str	r4, [sp, #156]	; 0x9c
   85c9c:	9326      	str	r3, [sp, #152]	; 0x98
   85c9e:	f8c8 1004 	str.w	r1, [r8, #4]
   85ca2:	f8c8 2000 	str.w	r2, [r8]
   85ca6:	f300 8411 	bgt.w	864cc <_svfprintf_r+0xb5c>
   85caa:	f108 0808 	add.w	r8, r8, #8
   85cae:	2d80      	cmp	r5, #128	; 0x80
   85cb0:	f000 8304 	beq.w	862bc <_svfprintf_r+0x94c>
   85cb4:	9b0a      	ldr	r3, [sp, #40]	; 0x28
   85cb6:	9a0e      	ldr	r2, [sp, #56]	; 0x38
   85cb8:	1a9f      	subs	r7, r3, r2
   85cba:	2f00      	cmp	r7, #0
   85cbc:	dd37      	ble.n	85d2e <_svfprintf_r+0x3be>
   85cbe:	2f10      	cmp	r7, #16
   85cc0:	f340 8679 	ble.w	869b6 <_svfprintf_r+0x1046>
   85cc4:	4d80      	ldr	r5, [pc, #512]	; (85ec8 <_svfprintf_r+0x558>)
   85cc6:	4642      	mov	r2, r8
   85cc8:	4621      	mov	r1, r4
   85cca:	46b0      	mov	r8, r6
   85ccc:	f04f 0b10 	mov.w	fp, #16
   85cd0:	462e      	mov	r6, r5
   85cd2:	9b26      	ldr	r3, [sp, #152]	; 0x98
   85cd4:	9c0c      	ldr	r4, [sp, #48]	; 0x30
   85cd6:	9d0b      	ldr	r5, [sp, #44]	; 0x2c
   85cd8:	e004      	b.n	85ce4 <_svfprintf_r+0x374>
   85cda:	3f10      	subs	r7, #16
   85cdc:	2f10      	cmp	r7, #16
   85cde:	f102 0208 	add.w	r2, r2, #8
   85ce2:	dd15      	ble.n	85d10 <_svfprintf_r+0x3a0>
   85ce4:	3301      	adds	r3, #1
   85ce6:	3110      	adds	r1, #16
   85ce8:	2b07      	cmp	r3, #7
   85cea:	9127      	str	r1, [sp, #156]	; 0x9c
   85cec:	9326      	str	r3, [sp, #152]	; 0x98
   85cee:	e882 0840 	stmia.w	r2, {r6, fp}
   85cf2:	ddf2      	ble.n	85cda <_svfprintf_r+0x36a>
   85cf4:	aa25      	add	r2, sp, #148	; 0x94
   85cf6:	4629      	mov	r1, r5
   85cf8:	4620      	mov	r0, r4
   85cfa:	f002 ff23 	bl	88b44 <__ssprint_r>
   85cfe:	2800      	cmp	r0, #0
   85d00:	f47f af13 	bne.w	85b2a <_svfprintf_r+0x1ba>
   85d04:	3f10      	subs	r7, #16
   85d06:	2f10      	cmp	r7, #16
   85d08:	464a      	mov	r2, r9
   85d0a:	9927      	ldr	r1, [sp, #156]	; 0x9c
   85d0c:	9b26      	ldr	r3, [sp, #152]	; 0x98
   85d0e:	dce9      	bgt.n	85ce4 <_svfprintf_r+0x374>
   85d10:	4635      	mov	r5, r6
   85d12:	460c      	mov	r4, r1
   85d14:	4646      	mov	r6, r8
   85d16:	4690      	mov	r8, r2
   85d18:	3301      	adds	r3, #1
   85d1a:	443c      	add	r4, r7
   85d1c:	2b07      	cmp	r3, #7
   85d1e:	9427      	str	r4, [sp, #156]	; 0x9c
   85d20:	9326      	str	r3, [sp, #152]	; 0x98
   85d22:	e888 00a0 	stmia.w	r8, {r5, r7}
   85d26:	f300 8370 	bgt.w	8640a <_svfprintf_r+0xa9a>
   85d2a:	f108 0808 	add.w	r8, r8, #8
   85d2e:	9b07      	ldr	r3, [sp, #28]
   85d30:	05df      	lsls	r7, r3, #23
   85d32:	f100 8264 	bmi.w	861fe <_svfprintf_r+0x88e>
   85d36:	9b26      	ldr	r3, [sp, #152]	; 0x98
   85d38:	990e      	ldr	r1, [sp, #56]	; 0x38
   85d3a:	3301      	adds	r3, #1
   85d3c:	440c      	add	r4, r1
   85d3e:	2b07      	cmp	r3, #7
   85d40:	9427      	str	r4, [sp, #156]	; 0x9c
   85d42:	f8c8 6000 	str.w	r6, [r8]
   85d46:	f8c8 1004 	str.w	r1, [r8, #4]
   85d4a:	9326      	str	r3, [sp, #152]	; 0x98
   85d4c:	f300 83b3 	bgt.w	864b6 <_svfprintf_r+0xb46>
   85d50:	f108 0808 	add.w	r8, r8, #8
   85d54:	9b07      	ldr	r3, [sp, #28]
   85d56:	075b      	lsls	r3, r3, #29
   85d58:	d53b      	bpl.n	85dd2 <_svfprintf_r+0x462>
   85d5a:	9b0d      	ldr	r3, [sp, #52]	; 0x34
   85d5c:	9a08      	ldr	r2, [sp, #32]
   85d5e:	1a9d      	subs	r5, r3, r2
   85d60:	2d00      	cmp	r5, #0
   85d62:	dd36      	ble.n	85dd2 <_svfprintf_r+0x462>
   85d64:	2d10      	cmp	r5, #16
   85d66:	f340 8721 	ble.w	86bac <_svfprintf_r+0x123c>
   85d6a:	2610      	movs	r6, #16
   85d6c:	9b26      	ldr	r3, [sp, #152]	; 0x98
   85d6e:	9f0c      	ldr	r7, [sp, #48]	; 0x30
   85d70:	f8dd b02c 	ldr.w	fp, [sp, #44]	; 0x2c
   85d74:	e004      	b.n	85d80 <_svfprintf_r+0x410>
   85d76:	3d10      	subs	r5, #16
   85d78:	2d10      	cmp	r5, #16
   85d7a:	f108 0808 	add.w	r8, r8, #8
   85d7e:	dd16      	ble.n	85dae <_svfprintf_r+0x43e>
   85d80:	3301      	adds	r3, #1
   85d82:	4a50      	ldr	r2, [pc, #320]	; (85ec4 <_svfprintf_r+0x554>)
   85d84:	3410      	adds	r4, #16
   85d86:	2b07      	cmp	r3, #7
   85d88:	9427      	str	r4, [sp, #156]	; 0x9c
   85d8a:	9326      	str	r3, [sp, #152]	; 0x98
   85d8c:	e888 0044 	stmia.w	r8, {r2, r6}
   85d90:	ddf1      	ble.n	85d76 <_svfprintf_r+0x406>
   85d92:	aa25      	add	r2, sp, #148	; 0x94
   85d94:	4659      	mov	r1, fp
   85d96:	4638      	mov	r0, r7
   85d98:	f002 fed4 	bl	88b44 <__ssprint_r>
   85d9c:	2800      	cmp	r0, #0
   85d9e:	f47f aec4 	bne.w	85b2a <_svfprintf_r+0x1ba>
   85da2:	3d10      	subs	r5, #16
   85da4:	2d10      	cmp	r5, #16
   85da6:	46c8      	mov	r8, r9
   85da8:	9c27      	ldr	r4, [sp, #156]	; 0x9c
   85daa:	9b26      	ldr	r3, [sp, #152]	; 0x98
   85dac:	dce8      	bgt.n	85d80 <_svfprintf_r+0x410>
   85dae:	3301      	adds	r3, #1
   85db0:	4a44      	ldr	r2, [pc, #272]	; (85ec4 <_svfprintf_r+0x554>)
   85db2:	442c      	add	r4, r5
   85db4:	2b07      	cmp	r3, #7
   85db6:	9427      	str	r4, [sp, #156]	; 0x9c
   85db8:	9326      	str	r3, [sp, #152]	; 0x98
   85dba:	e888 0024 	stmia.w	r8, {r2, r5}
   85dbe:	dd08      	ble.n	85dd2 <_svfprintf_r+0x462>
   85dc0:	aa25      	add	r2, sp, #148	; 0x94
   85dc2:	990b      	ldr	r1, [sp, #44]	; 0x2c
   85dc4:	980c      	ldr	r0, [sp, #48]	; 0x30
   85dc6:	f002 febd 	bl	88b44 <__ssprint_r>
   85dca:	2800      	cmp	r0, #0
   85dcc:	f47f aead 	bne.w	85b2a <_svfprintf_r+0x1ba>
   85dd0:	9c27      	ldr	r4, [sp, #156]	; 0x9c
   85dd2:	9b09      	ldr	r3, [sp, #36]	; 0x24
   85dd4:	9a0d      	ldr	r2, [sp, #52]	; 0x34
   85dd6:	9908      	ldr	r1, [sp, #32]
   85dd8:	428a      	cmp	r2, r1
   85dda:	bfac      	ite	ge
   85ddc:	189b      	addge	r3, r3, r2
   85dde:	185b      	addlt	r3, r3, r1
   85de0:	9309      	str	r3, [sp, #36]	; 0x24
   85de2:	2c00      	cmp	r4, #0
   85de4:	f040 82fb 	bne.w	863de <_svfprintf_r+0xa6e>
   85de8:	2300      	movs	r3, #0
   85dea:	46c8      	mov	r8, r9
   85dec:	9326      	str	r3, [sp, #152]	; 0x98
   85dee:	e5e6      	b.n	859be <_svfprintf_r+0x4e>
   85df0:	9311      	str	r3, [sp, #68]	; 0x44
   85df2:	f01b 0320 	ands.w	r3, fp, #32
   85df6:	f040 8145 	bne.w	86084 <_svfprintf_r+0x714>
   85dfa:	f01b 0210 	ands.w	r2, fp, #16
   85dfe:	f040 8466 	bne.w	866ce <_svfprintf_r+0xd5e>
   85e02:	f01b 0340 	ands.w	r3, fp, #64	; 0x40
   85e06:	f000 8462 	beq.w	866ce <_svfprintf_r+0xd5e>
   85e0a:	990f      	ldr	r1, [sp, #60]	; 0x3c
   85e0c:	4613      	mov	r3, r2
   85e0e:	460a      	mov	r2, r1
   85e10:	3204      	adds	r2, #4
   85e12:	880c      	ldrh	r4, [r1, #0]
   85e14:	2500      	movs	r5, #0
   85e16:	920f      	str	r2, [sp, #60]	; 0x3c
   85e18:	e6a8      	b.n	85b6c <_svfprintf_r+0x1fc>
   85e1a:	2500      	movs	r5, #0
   85e1c:	9a0f      	ldr	r2, [sp, #60]	; 0x3c
   85e1e:	9311      	str	r3, [sp, #68]	; 0x44
   85e20:	6816      	ldr	r6, [r2, #0]
   85e22:	f88d 5077 	strb.w	r5, [sp, #119]	; 0x77
   85e26:	1d14      	adds	r4, r2, #4
   85e28:	2e00      	cmp	r6, #0
   85e2a:	f000 86cd 	beq.w	86bc8 <_svfprintf_r+0x1258>
   85e2e:	9a0a      	ldr	r2, [sp, #40]	; 0x28
   85e30:	1c53      	adds	r3, r2, #1
   85e32:	f000 861b 	beq.w	86a6c <_svfprintf_r+0x10fc>
   85e36:	4629      	mov	r1, r5
   85e38:	4630      	mov	r0, r6
   85e3a:	f002 faad 	bl	88398 <memchr>
   85e3e:	2800      	cmp	r0, #0
   85e40:	f000 870d 	beq.w	86c5e <_svfprintf_r+0x12ee>
   85e44:	1b83      	subs	r3, r0, r6
   85e46:	950a      	str	r5, [sp, #40]	; 0x28
   85e48:	930e      	str	r3, [sp, #56]	; 0x38
   85e4a:	940f      	str	r4, [sp, #60]	; 0x3c
   85e4c:	f8cd b01c 	str.w	fp, [sp, #28]
   85e50:	ea23 73e3 	bic.w	r3, r3, r3, asr #31
   85e54:	9308      	str	r3, [sp, #32]
   85e56:	9512      	str	r5, [sp, #72]	; 0x48
   85e58:	f89d 7077 	ldrb.w	r7, [sp, #119]	; 0x77
   85e5c:	e6ac      	b.n	85bb8 <_svfprintf_r+0x248>
   85e5e:	f89a 3000 	ldrb.w	r3, [sl]
   85e62:	f10a 0401 	add.w	r4, sl, #1
   85e66:	2b2a      	cmp	r3, #42	; 0x2a
   85e68:	f000 87c2 	beq.w	86df0 <_svfprintf_r+0x1480>
   85e6c:	f1a3 0030 	sub.w	r0, r3, #48	; 0x30
   85e70:	2809      	cmp	r0, #9
   85e72:	46a2      	mov	sl, r4
   85e74:	f200 8718 	bhi.w	86ca8 <_svfprintf_r+0x1338>
   85e78:	2300      	movs	r3, #0
   85e7a:	461c      	mov	r4, r3
   85e7c:	f81a 3b01 	ldrb.w	r3, [sl], #1
   85e80:	eb04 0484 	add.w	r4, r4, r4, lsl #2
   85e84:	eb00 0444 	add.w	r4, r0, r4, lsl #1
   85e88:	f1a3 0030 	sub.w	r0, r3, #48	; 0x30
   85e8c:	2809      	cmp	r0, #9
   85e8e:	d9f5      	bls.n	85e7c <_svfprintf_r+0x50c>
   85e90:	940a      	str	r4, [sp, #40]	; 0x28
   85e92:	e5c9      	b.n	85a28 <_svfprintf_r+0xb8>
   85e94:	f04b 0b80 	orr.w	fp, fp, #128	; 0x80
   85e98:	f89a 3000 	ldrb.w	r3, [sl]
   85e9c:	e5c2      	b.n	85a24 <_svfprintf_r+0xb4>
   85e9e:	f04b 0b10 	orr.w	fp, fp, #16
   85ea2:	f01b 0f20 	tst.w	fp, #32
   85ea6:	9311      	str	r3, [sp, #68]	; 0x44
   85ea8:	f43f ae51 	beq.w	85b4e <_svfprintf_r+0x1de>
   85eac:	9c0f      	ldr	r4, [sp, #60]	; 0x3c
   85eae:	3407      	adds	r4, #7
   85eb0:	f024 0307 	bic.w	r3, r4, #7
   85eb4:	f103 0208 	add.w	r2, r3, #8
   85eb8:	e9d3 4500 	ldrd	r4, r5, [r3]
   85ebc:	920f      	str	r2, [sp, #60]	; 0x3c
   85ebe:	2301      	movs	r3, #1
   85ec0:	e654      	b.n	85b6c <_svfprintf_r+0x1fc>
   85ec2:	bf00      	nop
   85ec4:	00089a80 	.word	0x00089a80
   85ec8:	00089a90 	.word	0x00089a90
   85ecc:	9311      	str	r3, [sp, #68]	; 0x44
   85ece:	2a00      	cmp	r2, #0
   85ed0:	f040 87ad 	bne.w	86e2e <_svfprintf_r+0x14be>
   85ed4:	4bbe      	ldr	r3, [pc, #760]	; (861d0 <_svfprintf_r+0x860>)
   85ed6:	f01b 0f20 	tst.w	fp, #32
   85eda:	9318      	str	r3, [sp, #96]	; 0x60
   85edc:	f040 80e7 	bne.w	860ae <_svfprintf_r+0x73e>
   85ee0:	9a0f      	ldr	r2, [sp, #60]	; 0x3c
   85ee2:	f01b 0f10 	tst.w	fp, #16
   85ee6:	4613      	mov	r3, r2
   85ee8:	f040 83d8 	bne.w	8669c <_svfprintf_r+0xd2c>
   85eec:	f01b 0f40 	tst.w	fp, #64	; 0x40
   85ef0:	f000 83d4 	beq.w	8669c <_svfprintf_r+0xd2c>
   85ef4:	2500      	movs	r5, #0
   85ef6:	3304      	adds	r3, #4
   85ef8:	8814      	ldrh	r4, [r2, #0]
   85efa:	930f      	str	r3, [sp, #60]	; 0x3c
   85efc:	f01b 0f01 	tst.w	fp, #1
   85f00:	f000 80e3 	beq.w	860ca <_svfprintf_r+0x75a>
   85f04:	ea54 0305 	orrs.w	r3, r4, r5
   85f08:	f000 80df 	beq.w	860ca <_svfprintf_r+0x75a>
   85f0c:	2330      	movs	r3, #48	; 0x30
   85f0e:	f89d 2044 	ldrb.w	r2, [sp, #68]	; 0x44
   85f12:	f88d 3078 	strb.w	r3, [sp, #120]	; 0x78
   85f16:	f88d 2079 	strb.w	r2, [sp, #121]	; 0x79
   85f1a:	f04b 0b02 	orr.w	fp, fp, #2
   85f1e:	2302      	movs	r3, #2
   85f20:	e624      	b.n	85b6c <_svfprintf_r+0x1fc>
   85f22:	2201      	movs	r2, #1
   85f24:	9311      	str	r3, [sp, #68]	; 0x44
   85f26:	2300      	movs	r3, #0
   85f28:	4611      	mov	r1, r2
   85f2a:	980f      	ldr	r0, [sp, #60]	; 0x3c
   85f2c:	9208      	str	r2, [sp, #32]
   85f2e:	6802      	ldr	r2, [r0, #0]
   85f30:	461f      	mov	r7, r3
   85f32:	f88d 3077 	strb.w	r3, [sp, #119]	; 0x77
   85f36:	930a      	str	r3, [sp, #40]	; 0x28
   85f38:	9312      	str	r3, [sp, #72]	; 0x48
   85f3a:	1d03      	adds	r3, r0, #4
   85f3c:	f8cd b01c 	str.w	fp, [sp, #28]
   85f40:	910e      	str	r1, [sp, #56]	; 0x38
   85f42:	f88d 20a0 	strb.w	r2, [sp, #160]	; 0xa0
   85f46:	930f      	str	r3, [sp, #60]	; 0x3c
   85f48:	ae28      	add	r6, sp, #160	; 0xa0
   85f4a:	e639      	b.n	85bc0 <_svfprintf_r+0x250>
   85f4c:	9311      	str	r3, [sp, #68]	; 0x44
   85f4e:	2a00      	cmp	r2, #0
   85f50:	f040 8784 	bne.w	86e5c <_svfprintf_r+0x14ec>
   85f54:	f04b 0b10 	orr.w	fp, fp, #16
   85f58:	f01b 0f20 	tst.w	fp, #32
   85f5c:	f040 8475 	bne.w	8684a <_svfprintf_r+0xeda>
   85f60:	9a0f      	ldr	r2, [sp, #60]	; 0x3c
   85f62:	f01b 0f10 	tst.w	fp, #16
   85f66:	4613      	mov	r3, r2
   85f68:	f040 839d 	bne.w	866a6 <_svfprintf_r+0xd36>
   85f6c:	f01b 0f40 	tst.w	fp, #64	; 0x40
   85f70:	f000 8399 	beq.w	866a6 <_svfprintf_r+0xd36>
   85f74:	f9b2 4000 	ldrsh.w	r4, [r2]
   85f78:	3304      	adds	r3, #4
   85f7a:	17e5      	asrs	r5, r4, #31
   85f7c:	930f      	str	r3, [sp, #60]	; 0x3c
   85f7e:	4622      	mov	r2, r4
   85f80:	462b      	mov	r3, r5
   85f82:	2a00      	cmp	r2, #0
   85f84:	f173 0300 	sbcs.w	r3, r3, #0
   85f88:	f2c0 8398 	blt.w	866bc <_svfprintf_r+0xd4c>
   85f8c:	990a      	ldr	r1, [sp, #40]	; 0x28
   85f8e:	f89d 7077 	ldrb.w	r7, [sp, #119]	; 0x77
   85f92:	1c4a      	adds	r2, r1, #1
   85f94:	f04f 0301 	mov.w	r3, #1
   85f98:	f47f adf0 	bne.w	85b7c <_svfprintf_r+0x20c>
   85f9c:	ea54 0205 	orrs.w	r2, r4, r5
   85fa0:	f000 8229 	beq.w	863f6 <_svfprintf_r+0xa86>
   85fa4:	f8cd b01c 	str.w	fp, [sp, #28]
   85fa8:	2b01      	cmp	r3, #1
   85faa:	f000 830e 	beq.w	865ca <_svfprintf_r+0xc5a>
   85fae:	2b02      	cmp	r3, #2
   85fb0:	f040 829c 	bne.w	864ec <_svfprintf_r+0xb7c>
   85fb4:	464e      	mov	r6, r9
   85fb6:	9818      	ldr	r0, [sp, #96]	; 0x60
   85fb8:	0923      	lsrs	r3, r4, #4
   85fba:	ea43 7305 	orr.w	r3, r3, r5, lsl #28
   85fbe:	0929      	lsrs	r1, r5, #4
   85fc0:	f004 020f 	and.w	r2, r4, #15
   85fc4:	460d      	mov	r5, r1
   85fc6:	461c      	mov	r4, r3
   85fc8:	5c83      	ldrb	r3, [r0, r2]
   85fca:	f806 3d01 	strb.w	r3, [r6, #-1]!
   85fce:	ea54 0305 	orrs.w	r3, r4, r5
   85fd2:	d1f1      	bne.n	85fb8 <_svfprintf_r+0x648>
   85fd4:	eba9 0306 	sub.w	r3, r9, r6
   85fd8:	930e      	str	r3, [sp, #56]	; 0x38
   85fda:	e5e5      	b.n	85ba8 <_svfprintf_r+0x238>
   85fdc:	9311      	str	r3, [sp, #68]	; 0x44
   85fde:	2a00      	cmp	r2, #0
   85fe0:	f040 8738 	bne.w	86e54 <_svfprintf_r+0x14e4>
   85fe4:	9c0f      	ldr	r4, [sp, #60]	; 0x3c
   85fe6:	f01b 0f08 	tst.w	fp, #8
   85fea:	f104 0407 	add.w	r4, r4, #7
   85fee:	f000 84cf 	beq.w	86990 <_svfprintf_r+0x1020>
   85ff2:	f024 0307 	bic.w	r3, r4, #7
   85ff6:	f103 0208 	add.w	r2, r3, #8
   85ffa:	920f      	str	r2, [sp, #60]	; 0x3c
   85ffc:	681a      	ldr	r2, [r3, #0]
   85ffe:	685b      	ldr	r3, [r3, #4]
   86000:	9215      	str	r2, [sp, #84]	; 0x54
   86002:	9314      	str	r3, [sp, #80]	; 0x50
   86004:	9b14      	ldr	r3, [sp, #80]	; 0x50
   86006:	9d15      	ldr	r5, [sp, #84]	; 0x54
   86008:	f023 4400 	bic.w	r4, r3, #2147483648	; 0x80000000
   8600c:	4628      	mov	r0, r5
   8600e:	4621      	mov	r1, r4
   86010:	f04f 32ff 	mov.w	r2, #4294967295
   86014:	4b6f      	ldr	r3, [pc, #444]	; (861d4 <_svfprintf_r+0x864>)
   86016:	f003 fa9f 	bl	89558 <__aeabi_dcmpun>
   8601a:	2800      	cmp	r0, #0
   8601c:	f040 8434 	bne.w	86888 <_svfprintf_r+0xf18>
   86020:	4628      	mov	r0, r5
   86022:	4621      	mov	r1, r4
   86024:	f04f 32ff 	mov.w	r2, #4294967295
   86028:	4b6a      	ldr	r3, [pc, #424]	; (861d4 <_svfprintf_r+0x864>)
   8602a:	f003 fa77 	bl	8951c <__aeabi_dcmple>
   8602e:	2800      	cmp	r0, #0
   86030:	f040 842a 	bne.w	86888 <_svfprintf_r+0xf18>
   86034:	a815      	add	r0, sp, #84	; 0x54
   86036:	c80d      	ldmia	r0, {r0, r2, r3}
   86038:	9914      	ldr	r1, [sp, #80]	; 0x50
   8603a:	f003 fa65 	bl	89508 <__aeabi_dcmplt>
   8603e:	2800      	cmp	r0, #0
   86040:	f040 85d4 	bne.w	86bec <_svfprintf_r+0x127c>
   86044:	f89d 7077 	ldrb.w	r7, [sp, #119]	; 0x77
   86048:	2303      	movs	r3, #3
   8604a:	461a      	mov	r2, r3
   8604c:	9308      	str	r3, [sp, #32]
   8604e:	2300      	movs	r3, #0
   86050:	4e61      	ldr	r6, [pc, #388]	; (861d8 <_svfprintf_r+0x868>)
   86052:	4619      	mov	r1, r3
   86054:	930a      	str	r3, [sp, #40]	; 0x28
   86056:	4b61      	ldr	r3, [pc, #388]	; (861dc <_svfprintf_r+0x86c>)
   86058:	920e      	str	r2, [sp, #56]	; 0x38
   8605a:	9a11      	ldr	r2, [sp, #68]	; 0x44
   8605c:	f02b 0080 	bic.w	r0, fp, #128	; 0x80
   86060:	9007      	str	r0, [sp, #28]
   86062:	9112      	str	r1, [sp, #72]	; 0x48
   86064:	2a47      	cmp	r2, #71	; 0x47
   86066:	bfd8      	it	le
   86068:	461e      	movle	r6, r3
   8606a:	e5a5      	b.n	85bb8 <_svfprintf_r+0x248>
   8606c:	f04b 0b08 	orr.w	fp, fp, #8
   86070:	f89a 3000 	ldrb.w	r3, [sl]
   86074:	e4d6      	b.n	85a24 <_svfprintf_r+0xb4>
   86076:	f04b 0b10 	orr.w	fp, fp, #16
   8607a:	9311      	str	r3, [sp, #68]	; 0x44
   8607c:	f01b 0320 	ands.w	r3, fp, #32
   86080:	f43f aebb 	beq.w	85dfa <_svfprintf_r+0x48a>
   86084:	9c0f      	ldr	r4, [sp, #60]	; 0x3c
   86086:	3407      	adds	r4, #7
   86088:	f024 0307 	bic.w	r3, r4, #7
   8608c:	f103 0208 	add.w	r2, r3, #8
   86090:	e9d3 4500 	ldrd	r4, r5, [r3]
   86094:	920f      	str	r2, [sp, #60]	; 0x3c
   86096:	2300      	movs	r3, #0
   86098:	e568      	b.n	85b6c <_svfprintf_r+0x1fc>
   8609a:	9311      	str	r3, [sp, #68]	; 0x44
   8609c:	2a00      	cmp	r2, #0
   8609e:	f040 86c2 	bne.w	86e26 <_svfprintf_r+0x14b6>
   860a2:	4b4f      	ldr	r3, [pc, #316]	; (861e0 <_svfprintf_r+0x870>)
   860a4:	f01b 0f20 	tst.w	fp, #32
   860a8:	9318      	str	r3, [sp, #96]	; 0x60
   860aa:	f43f af19 	beq.w	85ee0 <_svfprintf_r+0x570>
   860ae:	9c0f      	ldr	r4, [sp, #60]	; 0x3c
   860b0:	f01b 0f01 	tst.w	fp, #1
   860b4:	f104 0407 	add.w	r4, r4, #7
   860b8:	f024 0307 	bic.w	r3, r4, #7
   860bc:	f103 0208 	add.w	r2, r3, #8
   860c0:	920f      	str	r2, [sp, #60]	; 0x3c
   860c2:	e9d3 4500 	ldrd	r4, r5, [r3]
   860c6:	f47f af1d 	bne.w	85f04 <_svfprintf_r+0x594>
   860ca:	2302      	movs	r3, #2
   860cc:	e54e      	b.n	85b6c <_svfprintf_r+0x1fc>
   860ce:	f89a 3000 	ldrb.w	r3, [sl]
   860d2:	2900      	cmp	r1, #0
   860d4:	f47f aca6 	bne.w	85a24 <_svfprintf_r+0xb4>
   860d8:	2201      	movs	r2, #1
   860da:	2120      	movs	r1, #32
   860dc:	e4a2      	b.n	85a24 <_svfprintf_r+0xb4>
   860de:	f04b 0b01 	orr.w	fp, fp, #1
   860e2:	f89a 3000 	ldrb.w	r3, [sl]
   860e6:	e49d      	b.n	85a24 <_svfprintf_r+0xb4>
   860e8:	f89a 3000 	ldrb.w	r3, [sl]
   860ec:	2201      	movs	r2, #1
   860ee:	212b      	movs	r1, #43	; 0x2b
   860f0:	e498      	b.n	85a24 <_svfprintf_r+0xb4>
   860f2:	f04b 0b20 	orr.w	fp, fp, #32
   860f6:	f89a 3000 	ldrb.w	r3, [sl]
   860fa:	e493      	b.n	85a24 <_svfprintf_r+0xb4>
   860fc:	f04b 0b40 	orr.w	fp, fp, #64	; 0x40
   86100:	f89a 3000 	ldrb.w	r3, [sl]
   86104:	e48e      	b.n	85a24 <_svfprintf_r+0xb4>
   86106:	f89a 3000 	ldrb.w	r3, [sl]
   8610a:	2b6c      	cmp	r3, #108	; 0x6c
   8610c:	bf03      	ittte	eq
   8610e:	f89a 3001 	ldrbeq.w	r3, [sl, #1]
   86112:	f04b 0b20 	orreq.w	fp, fp, #32
   86116:	f10a 0a01 	addeq.w	sl, sl, #1
   8611a:	f04b 0b10 	orrne.w	fp, fp, #16
   8611e:	e481      	b.n	85a24 <_svfprintf_r+0xb4>
   86120:	2a00      	cmp	r2, #0
   86122:	f040 867c 	bne.w	86e1e <_svfprintf_r+0x14ae>
   86126:	f01b 0f20 	tst.w	fp, #32
   8612a:	f040 8452 	bne.w	869d2 <_svfprintf_r+0x1062>
   8612e:	f01b 0f10 	tst.w	fp, #16
   86132:	f040 8438 	bne.w	869a6 <_svfprintf_r+0x1036>
   86136:	f01b 0f40 	tst.w	fp, #64	; 0x40
   8613a:	f000 8434 	beq.w	869a6 <_svfprintf_r+0x1036>
   8613e:	9a0f      	ldr	r2, [sp, #60]	; 0x3c
   86140:	6813      	ldr	r3, [r2, #0]
   86142:	3204      	adds	r2, #4
   86144:	920f      	str	r2, [sp, #60]	; 0x3c
   86146:	f8bd 2024 	ldrh.w	r2, [sp, #36]	; 0x24
   8614a:	801a      	strh	r2, [r3, #0]
   8614c:	e437      	b.n	859be <_svfprintf_r+0x4e>
   8614e:	2378      	movs	r3, #120	; 0x78
   86150:	2230      	movs	r2, #48	; 0x30
   86152:	980f      	ldr	r0, [sp, #60]	; 0x3c
   86154:	f88d 3079 	strb.w	r3, [sp, #121]	; 0x79
   86158:	9311      	str	r3, [sp, #68]	; 0x44
   8615a:	1d03      	adds	r3, r0, #4
   8615c:	930f      	str	r3, [sp, #60]	; 0x3c
   8615e:	4b20      	ldr	r3, [pc, #128]	; (861e0 <_svfprintf_r+0x870>)
   86160:	6804      	ldr	r4, [r0, #0]
   86162:	9318      	str	r3, [sp, #96]	; 0x60
   86164:	f04b 0b02 	orr.w	fp, fp, #2
   86168:	f88d 2078 	strb.w	r2, [sp, #120]	; 0x78
   8616c:	2500      	movs	r5, #0
   8616e:	2302      	movs	r3, #2
   86170:	e4fc      	b.n	85b6c <_svfprintf_r+0x1fc>
   86172:	9311      	str	r3, [sp, #68]	; 0x44
   86174:	2a00      	cmp	r2, #0
   86176:	f43f aeef 	beq.w	85f58 <_svfprintf_r+0x5e8>
   8617a:	f88d 1077 	strb.w	r1, [sp, #119]	; 0x77
   8617e:	e6eb      	b.n	85f58 <_svfprintf_r+0x5e8>
   86180:	2000      	movs	r0, #0
   86182:	4604      	mov	r4, r0
   86184:	f1a3 0030 	sub.w	r0, r3, #48	; 0x30
   86188:	f81a 3b01 	ldrb.w	r3, [sl], #1
   8618c:	eb04 0484 	add.w	r4, r4, r4, lsl #2
   86190:	eb00 0444 	add.w	r4, r0, r4, lsl #1
   86194:	f1a3 0030 	sub.w	r0, r3, #48	; 0x30
   86198:	2809      	cmp	r0, #9
   8619a:	d9f5      	bls.n	86188 <_svfprintf_r+0x818>
   8619c:	940d      	str	r4, [sp, #52]	; 0x34
   8619e:	e443      	b.n	85a28 <_svfprintf_r+0xb8>
   861a0:	9311      	str	r3, [sp, #68]	; 0x44
   861a2:	2a00      	cmp	r2, #0
   861a4:	f040 864a 	bne.w	86e3c <_svfprintf_r+0x14cc>
   861a8:	9a11      	ldr	r2, [sp, #68]	; 0x44
   861aa:	2a00      	cmp	r2, #0
   861ac:	f43f acb6 	beq.w	85b1c <_svfprintf_r+0x1ac>
   861b0:	2300      	movs	r3, #0
   861b2:	2101      	movs	r1, #1
   861b4:	461f      	mov	r7, r3
   861b6:	9108      	str	r1, [sp, #32]
   861b8:	f88d 20a0 	strb.w	r2, [sp, #160]	; 0xa0
   861bc:	f8cd b01c 	str.w	fp, [sp, #28]
   861c0:	f88d 3077 	strb.w	r3, [sp, #119]	; 0x77
   861c4:	930a      	str	r3, [sp, #40]	; 0x28
   861c6:	9312      	str	r3, [sp, #72]	; 0x48
   861c8:	910e      	str	r1, [sp, #56]	; 0x38
   861ca:	ae28      	add	r6, sp, #160	; 0xa0
   861cc:	e4f8      	b.n	85bc0 <_svfprintf_r+0x250>
   861ce:	bf00      	nop
   861d0:	00089a4c 	.word	0x00089a4c
   861d4:	7fefffff 	.word	0x7fefffff
   861d8:	00089a40 	.word	0x00089a40
   861dc:	00089a3c 	.word	0x00089a3c
   861e0:	00089a60 	.word	0x00089a60
   861e4:	aa25      	add	r2, sp, #148	; 0x94
   861e6:	990b      	ldr	r1, [sp, #44]	; 0x2c
   861e8:	980c      	ldr	r0, [sp, #48]	; 0x30
   861ea:	f002 fcab 	bl	88b44 <__ssprint_r>
   861ee:	2800      	cmp	r0, #0
   861f0:	f47f ac9b 	bne.w	85b2a <_svfprintf_r+0x1ba>
   861f4:	46c8      	mov	r8, r9
   861f6:	f89d 7077 	ldrb.w	r7, [sp, #119]	; 0x77
   861fa:	9c27      	ldr	r4, [sp, #156]	; 0x9c
   861fc:	e533      	b.n	85c66 <_svfprintf_r+0x2f6>
   861fe:	9b11      	ldr	r3, [sp, #68]	; 0x44
   86200:	2b65      	cmp	r3, #101	; 0x65
   86202:	f340 809a 	ble.w	8633a <_svfprintf_r+0x9ca>
   86206:	a815      	add	r0, sp, #84	; 0x54
   86208:	c80d      	ldmia	r0, {r0, r2, r3}
   8620a:	9914      	ldr	r1, [sp, #80]	; 0x50
   8620c:	f003 f972 	bl	894f4 <__aeabi_dcmpeq>
   86210:	2800      	cmp	r0, #0
   86212:	f000 8193 	beq.w	8653c <_svfprintf_r+0xbcc>
   86216:	2101      	movs	r1, #1
   86218:	9b26      	ldr	r3, [sp, #152]	; 0x98
   8621a:	4ab5      	ldr	r2, [pc, #724]	; (864f0 <_svfprintf_r+0xb80>)
   8621c:	440b      	add	r3, r1
   8621e:	440c      	add	r4, r1
   86220:	2b07      	cmp	r3, #7
   86222:	9427      	str	r4, [sp, #156]	; 0x9c
   86224:	9326      	str	r3, [sp, #152]	; 0x98
   86226:	f8c8 1004 	str.w	r1, [r8, #4]
   8622a:	f8c8 2000 	str.w	r2, [r8]
   8622e:	f300 83c6 	bgt.w	869be <_svfprintf_r+0x104e>
   86232:	f108 0808 	add.w	r8, r8, #8
   86236:	9b1f      	ldr	r3, [sp, #124]	; 0x7c
   86238:	9a13      	ldr	r2, [sp, #76]	; 0x4c
   8623a:	9c27      	ldr	r4, [sp, #156]	; 0x9c
   8623c:	4293      	cmp	r3, r2
   8623e:	db03      	blt.n	86248 <_svfprintf_r+0x8d8>
   86240:	9b07      	ldr	r3, [sp, #28]
   86242:	07dd      	lsls	r5, r3, #31
   86244:	f57f ad86 	bpl.w	85d54 <_svfprintf_r+0x3e4>
   86248:	9b26      	ldr	r3, [sp, #152]	; 0x98
   8624a:	9919      	ldr	r1, [sp, #100]	; 0x64
   8624c:	3301      	adds	r3, #1
   8624e:	9a1a      	ldr	r2, [sp, #104]	; 0x68
   86250:	440c      	add	r4, r1
   86252:	2b07      	cmp	r3, #7
   86254:	f8c8 2000 	str.w	r2, [r8]
   86258:	f8c8 1004 	str.w	r1, [r8, #4]
   8625c:	9427      	str	r4, [sp, #156]	; 0x9c
   8625e:	9326      	str	r3, [sp, #152]	; 0x98
   86260:	f300 83c4 	bgt.w	869ec <_svfprintf_r+0x107c>
   86264:	f108 0808 	add.w	r8, r8, #8
   86268:	9b13      	ldr	r3, [sp, #76]	; 0x4c
   8626a:	1e5e      	subs	r6, r3, #1
   8626c:	2e00      	cmp	r6, #0
   8626e:	f77f ad71 	ble.w	85d54 <_svfprintf_r+0x3e4>
   86272:	2e10      	cmp	r6, #16
   86274:	f340 8575 	ble.w	86d62 <_svfprintf_r+0x13f2>
   86278:	4622      	mov	r2, r4
   8627a:	2710      	movs	r7, #16
   8627c:	9b26      	ldr	r3, [sp, #152]	; 0x98
   8627e:	4d9d      	ldr	r5, [pc, #628]	; (864f4 <_svfprintf_r+0xb84>)
   86280:	f8dd b030 	ldr.w	fp, [sp, #48]	; 0x30
   86284:	9c0b      	ldr	r4, [sp, #44]	; 0x2c
   86286:	e005      	b.n	86294 <_svfprintf_r+0x924>
   86288:	f108 0808 	add.w	r8, r8, #8
   8628c:	3e10      	subs	r6, #16
   8628e:	2e10      	cmp	r6, #16
   86290:	f340 8225 	ble.w	866de <_svfprintf_r+0xd6e>
   86294:	3301      	adds	r3, #1
   86296:	3210      	adds	r2, #16
   86298:	2b07      	cmp	r3, #7
   8629a:	9227      	str	r2, [sp, #156]	; 0x9c
   8629c:	9326      	str	r3, [sp, #152]	; 0x98
   8629e:	e888 00a0 	stmia.w	r8, {r5, r7}
   862a2:	ddf1      	ble.n	86288 <_svfprintf_r+0x918>
   862a4:	aa25      	add	r2, sp, #148	; 0x94
   862a6:	4621      	mov	r1, r4
   862a8:	4658      	mov	r0, fp
   862aa:	f002 fc4b 	bl	88b44 <__ssprint_r>
   862ae:	2800      	cmp	r0, #0
   862b0:	f47f ac3b 	bne.w	85b2a <_svfprintf_r+0x1ba>
   862b4:	46c8      	mov	r8, r9
   862b6:	9a27      	ldr	r2, [sp, #156]	; 0x9c
   862b8:	9b26      	ldr	r3, [sp, #152]	; 0x98
   862ba:	e7e7      	b.n	8628c <_svfprintf_r+0x91c>
   862bc:	9b0d      	ldr	r3, [sp, #52]	; 0x34
   862be:	9a08      	ldr	r2, [sp, #32]
   862c0:	1a9f      	subs	r7, r3, r2
   862c2:	2f00      	cmp	r7, #0
   862c4:	f77f acf6 	ble.w	85cb4 <_svfprintf_r+0x344>
   862c8:	2f10      	cmp	r7, #16
   862ca:	f340 84a8 	ble.w	86c1e <_svfprintf_r+0x12ae>
   862ce:	4d89      	ldr	r5, [pc, #548]	; (864f4 <_svfprintf_r+0xb84>)
   862d0:	4642      	mov	r2, r8
   862d2:	4621      	mov	r1, r4
   862d4:	46b0      	mov	r8, r6
   862d6:	f04f 0b10 	mov.w	fp, #16
   862da:	462e      	mov	r6, r5
   862dc:	9b26      	ldr	r3, [sp, #152]	; 0x98
   862de:	9c0c      	ldr	r4, [sp, #48]	; 0x30
   862e0:	9d0b      	ldr	r5, [sp, #44]	; 0x2c
   862e2:	e004      	b.n	862ee <_svfprintf_r+0x97e>
   862e4:	3f10      	subs	r7, #16
   862e6:	2f10      	cmp	r7, #16
   862e8:	f102 0208 	add.w	r2, r2, #8
   862ec:	dd15      	ble.n	8631a <_svfprintf_r+0x9aa>
   862ee:	3301      	adds	r3, #1
   862f0:	3110      	adds	r1, #16
   862f2:	2b07      	cmp	r3, #7
   862f4:	9127      	str	r1, [sp, #156]	; 0x9c
   862f6:	9326      	str	r3, [sp, #152]	; 0x98
   862f8:	e882 0840 	stmia.w	r2, {r6, fp}
   862fc:	ddf2      	ble.n	862e4 <_svfprintf_r+0x974>
   862fe:	aa25      	add	r2, sp, #148	; 0x94
   86300:	4629      	mov	r1, r5
   86302:	4620      	mov	r0, r4
   86304:	f002 fc1e 	bl	88b44 <__ssprint_r>
   86308:	2800      	cmp	r0, #0
   8630a:	f47f ac0e 	bne.w	85b2a <_svfprintf_r+0x1ba>
   8630e:	3f10      	subs	r7, #16
   86310:	2f10      	cmp	r7, #16
   86312:	464a      	mov	r2, r9
   86314:	9927      	ldr	r1, [sp, #156]	; 0x9c
   86316:	9b26      	ldr	r3, [sp, #152]	; 0x98
   86318:	dce9      	bgt.n	862ee <_svfprintf_r+0x97e>
   8631a:	4635      	mov	r5, r6
   8631c:	460c      	mov	r4, r1
   8631e:	4646      	mov	r6, r8
   86320:	4690      	mov	r8, r2
   86322:	3301      	adds	r3, #1
   86324:	443c      	add	r4, r7
   86326:	2b07      	cmp	r3, #7
   86328:	9427      	str	r4, [sp, #156]	; 0x9c
   8632a:	9326      	str	r3, [sp, #152]	; 0x98
   8632c:	e888 00a0 	stmia.w	r8, {r5, r7}
   86330:	f300 829e 	bgt.w	86870 <_svfprintf_r+0xf00>
   86334:	f108 0808 	add.w	r8, r8, #8
   86338:	e4bc      	b.n	85cb4 <_svfprintf_r+0x344>
   8633a:	9b13      	ldr	r3, [sp, #76]	; 0x4c
   8633c:	2b01      	cmp	r3, #1
   8633e:	f340 824f 	ble.w	867e0 <_svfprintf_r+0xe70>
   86342:	2301      	movs	r3, #1
   86344:	9f26      	ldr	r7, [sp, #152]	; 0x98
   86346:	441c      	add	r4, r3
   86348:	441f      	add	r7, r3
   8634a:	2f07      	cmp	r7, #7
   8634c:	9427      	str	r4, [sp, #156]	; 0x9c
   8634e:	f8c8 6000 	str.w	r6, [r8]
   86352:	9726      	str	r7, [sp, #152]	; 0x98
   86354:	f8c8 3004 	str.w	r3, [r8, #4]
   86358:	f300 825f 	bgt.w	8681a <_svfprintf_r+0xeaa>
   8635c:	f108 0808 	add.w	r8, r8, #8
   86360:	9a19      	ldr	r2, [sp, #100]	; 0x64
   86362:	3701      	adds	r7, #1
   86364:	9b1a      	ldr	r3, [sp, #104]	; 0x68
   86366:	4414      	add	r4, r2
   86368:	2f07      	cmp	r7, #7
   8636a:	9427      	str	r4, [sp, #156]	; 0x9c
   8636c:	9726      	str	r7, [sp, #152]	; 0x98
   8636e:	f8c8 3000 	str.w	r3, [r8]
   86372:	f8c8 2004 	str.w	r2, [r8, #4]
   86376:	f300 825c 	bgt.w	86832 <_svfprintf_r+0xec2>
   8637a:	f108 0808 	add.w	r8, r8, #8
   8637e:	a815      	add	r0, sp, #84	; 0x54
   86380:	c80d      	ldmia	r0, {r0, r2, r3}
   86382:	9914      	ldr	r1, [sp, #80]	; 0x50
   86384:	f003 f8b6 	bl	894f4 <__aeabi_dcmpeq>
   86388:	9b13      	ldr	r3, [sp, #76]	; 0x4c
   8638a:	2800      	cmp	r0, #0
   8638c:	f040 8141 	bne.w	86612 <_svfprintf_r+0xca2>
   86390:	3b01      	subs	r3, #1
   86392:	3701      	adds	r7, #1
   86394:	3601      	adds	r6, #1
   86396:	441c      	add	r4, r3
   86398:	2f07      	cmp	r7, #7
   8639a:	f8c8 6000 	str.w	r6, [r8]
   8639e:	9726      	str	r7, [sp, #152]	; 0x98
   863a0:	9427      	str	r4, [sp, #156]	; 0x9c
   863a2:	f8c8 3004 	str.w	r3, [r8, #4]
   863a6:	f300 8166 	bgt.w	86676 <_svfprintf_r+0xd06>
   863aa:	f108 0808 	add.w	r8, r8, #8
   863ae:	9a1b      	ldr	r2, [sp, #108]	; 0x6c
   863b0:	3701      	adds	r7, #1
   863b2:	4414      	add	r4, r2
   863b4:	ab21      	add	r3, sp, #132	; 0x84
   863b6:	2f07      	cmp	r7, #7
   863b8:	9427      	str	r4, [sp, #156]	; 0x9c
   863ba:	9726      	str	r7, [sp, #152]	; 0x98
   863bc:	f8c8 2004 	str.w	r2, [r8, #4]
   863c0:	f8c8 3000 	str.w	r3, [r8]
   863c4:	f77f acc4 	ble.w	85d50 <_svfprintf_r+0x3e0>
   863c8:	aa25      	add	r2, sp, #148	; 0x94
   863ca:	990b      	ldr	r1, [sp, #44]	; 0x2c
   863cc:	980c      	ldr	r0, [sp, #48]	; 0x30
   863ce:	f002 fbb9 	bl	88b44 <__ssprint_r>
   863d2:	2800      	cmp	r0, #0
   863d4:	f47f aba9 	bne.w	85b2a <_svfprintf_r+0x1ba>
   863d8:	46c8      	mov	r8, r9
   863da:	9c27      	ldr	r4, [sp, #156]	; 0x9c
   863dc:	e4ba      	b.n	85d54 <_svfprintf_r+0x3e4>
   863de:	aa25      	add	r2, sp, #148	; 0x94
   863e0:	990b      	ldr	r1, [sp, #44]	; 0x2c
   863e2:	980c      	ldr	r0, [sp, #48]	; 0x30
   863e4:	f002 fbae 	bl	88b44 <__ssprint_r>
   863e8:	2800      	cmp	r0, #0
   863ea:	f43f acfd 	beq.w	85de8 <_svfprintf_r+0x478>
   863ee:	f7ff bb9c 	b.w	85b2a <_svfprintf_r+0x1ba>
   863f2:	f8dd b01c 	ldr.w	fp, [sp, #28]
   863f6:	2b01      	cmp	r3, #1
   863f8:	f000 817e 	beq.w	866f8 <_svfprintf_r+0xd88>
   863fc:	2b02      	cmp	r3, #2
   863fe:	d171      	bne.n	864e4 <_svfprintf_r+0xb74>
   86400:	f8cd b01c 	str.w	fp, [sp, #28]
   86404:	2400      	movs	r4, #0
   86406:	2500      	movs	r5, #0
   86408:	e5d4      	b.n	85fb4 <_svfprintf_r+0x644>
   8640a:	aa25      	add	r2, sp, #148	; 0x94
   8640c:	990b      	ldr	r1, [sp, #44]	; 0x2c
   8640e:	980c      	ldr	r0, [sp, #48]	; 0x30
   86410:	f002 fb98 	bl	88b44 <__ssprint_r>
   86414:	2800      	cmp	r0, #0
   86416:	f47f ab88 	bne.w	85b2a <_svfprintf_r+0x1ba>
   8641a:	46c8      	mov	r8, r9
   8641c:	9c27      	ldr	r4, [sp, #156]	; 0x9c
   8641e:	e486      	b.n	85d2e <_svfprintf_r+0x3be>
   86420:	aa25      	add	r2, sp, #148	; 0x94
   86422:	990b      	ldr	r1, [sp, #44]	; 0x2c
   86424:	980c      	ldr	r0, [sp, #48]	; 0x30
   86426:	f002 fb8d 	bl	88b44 <__ssprint_r>
   8642a:	2800      	cmp	r0, #0
   8642c:	f47f ab7d 	bne.w	85b2a <_svfprintf_r+0x1ba>
   86430:	46c8      	mov	r8, r9
   86432:	9c27      	ldr	r4, [sp, #156]	; 0x9c
   86434:	e429      	b.n	85c8a <_svfprintf_r+0x31a>
   86436:	2001      	movs	r0, #1
   86438:	9b26      	ldr	r3, [sp, #152]	; 0x98
   8643a:	4a2d      	ldr	r2, [pc, #180]	; (864f0 <_svfprintf_r+0xb80>)
   8643c:	4403      	add	r3, r0
   8643e:	4404      	add	r4, r0
   86440:	2b07      	cmp	r3, #7
   86442:	9427      	str	r4, [sp, #156]	; 0x9c
   86444:	9326      	str	r3, [sp, #152]	; 0x98
   86446:	f8c8 0004 	str.w	r0, [r8, #4]
   8644a:	f8c8 2000 	str.w	r2, [r8]
   8644e:	f340 82d8 	ble.w	86a02 <_svfprintf_r+0x1092>
   86452:	aa25      	add	r2, sp, #148	; 0x94
   86454:	990b      	ldr	r1, [sp, #44]	; 0x2c
   86456:	980c      	ldr	r0, [sp, #48]	; 0x30
   86458:	f002 fb74 	bl	88b44 <__ssprint_r>
   8645c:	2800      	cmp	r0, #0
   8645e:	f47f ab64 	bne.w	85b2a <_svfprintf_r+0x1ba>
   86462:	46c8      	mov	r8, r9
   86464:	991f      	ldr	r1, [sp, #124]	; 0x7c
   86466:	9c27      	ldr	r4, [sp, #156]	; 0x9c
   86468:	b929      	cbnz	r1, 86476 <_svfprintf_r+0xb06>
   8646a:	9b13      	ldr	r3, [sp, #76]	; 0x4c
   8646c:	b91b      	cbnz	r3, 86476 <_svfprintf_r+0xb06>
   8646e:	9b07      	ldr	r3, [sp, #28]
   86470:	07d8      	lsls	r0, r3, #31
   86472:	f57f ac6f 	bpl.w	85d54 <_svfprintf_r+0x3e4>
   86476:	9819      	ldr	r0, [sp, #100]	; 0x64
   86478:	9b26      	ldr	r3, [sp, #152]	; 0x98
   8647a:	4602      	mov	r2, r0
   8647c:	3301      	adds	r3, #1
   8647e:	4422      	add	r2, r4
   86480:	9c1a      	ldr	r4, [sp, #104]	; 0x68
   86482:	2b07      	cmp	r3, #7
   86484:	9227      	str	r2, [sp, #156]	; 0x9c
   86486:	f8c8 4000 	str.w	r4, [r8]
   8648a:	f8c8 0004 	str.w	r0, [r8, #4]
   8648e:	9326      	str	r3, [sp, #152]	; 0x98
   86490:	f300 8431 	bgt.w	86cf6 <_svfprintf_r+0x1386>
   86494:	f108 0808 	add.w	r8, r8, #8
   86498:	2900      	cmp	r1, #0
   8649a:	f2c0 8409 	blt.w	86cb0 <_svfprintf_r+0x1340>
   8649e:	9913      	ldr	r1, [sp, #76]	; 0x4c
   864a0:	3301      	adds	r3, #1
   864a2:	188c      	adds	r4, r1, r2
   864a4:	2b07      	cmp	r3, #7
   864a6:	9427      	str	r4, [sp, #156]	; 0x9c
   864a8:	9326      	str	r3, [sp, #152]	; 0x98
   864aa:	f8c8 6000 	str.w	r6, [r8]
   864ae:	f8c8 1004 	str.w	r1, [r8, #4]
   864b2:	f77f ac4d 	ble.w	85d50 <_svfprintf_r+0x3e0>
   864b6:	aa25      	add	r2, sp, #148	; 0x94
   864b8:	990b      	ldr	r1, [sp, #44]	; 0x2c
   864ba:	980c      	ldr	r0, [sp, #48]	; 0x30
   864bc:	f002 fb42 	bl	88b44 <__ssprint_r>
   864c0:	2800      	cmp	r0, #0
   864c2:	f47f ab32 	bne.w	85b2a <_svfprintf_r+0x1ba>
   864c6:	9c27      	ldr	r4, [sp, #156]	; 0x9c
   864c8:	46c8      	mov	r8, r9
   864ca:	e443      	b.n	85d54 <_svfprintf_r+0x3e4>
   864cc:	aa25      	add	r2, sp, #148	; 0x94
   864ce:	990b      	ldr	r1, [sp, #44]	; 0x2c
   864d0:	980c      	ldr	r0, [sp, #48]	; 0x30
   864d2:	f002 fb37 	bl	88b44 <__ssprint_r>
   864d6:	2800      	cmp	r0, #0
   864d8:	f47f ab27 	bne.w	85b2a <_svfprintf_r+0x1ba>
   864dc:	46c8      	mov	r8, r9
   864de:	9c27      	ldr	r4, [sp, #156]	; 0x9c
   864e0:	f7ff bbe5 	b.w	85cae <_svfprintf_r+0x33e>
   864e4:	2400      	movs	r4, #0
   864e6:	2500      	movs	r5, #0
   864e8:	f8cd b01c 	str.w	fp, [sp, #28]
   864ec:	4649      	mov	r1, r9
   864ee:	e004      	b.n	864fa <_svfprintf_r+0xb8a>
   864f0:	00089a7c 	.word	0x00089a7c
   864f4:	00089a90 	.word	0x00089a90
   864f8:	4631      	mov	r1, r6
   864fa:	08e2      	lsrs	r2, r4, #3
   864fc:	ea42 7245 	orr.w	r2, r2, r5, lsl #29
   86500:	08e8      	lsrs	r0, r5, #3
   86502:	f004 0307 	and.w	r3, r4, #7
   86506:	4605      	mov	r5, r0
   86508:	4614      	mov	r4, r2
   8650a:	3330      	adds	r3, #48	; 0x30
   8650c:	ea54 0205 	orrs.w	r2, r4, r5
   86510:	f801 3c01 	strb.w	r3, [r1, #-1]
   86514:	f101 36ff 	add.w	r6, r1, #4294967295
   86518:	d1ee      	bne.n	864f8 <_svfprintf_r+0xb88>
   8651a:	9a07      	ldr	r2, [sp, #28]
   8651c:	07d2      	lsls	r2, r2, #31
   8651e:	f57f ad59 	bpl.w	85fd4 <_svfprintf_r+0x664>
   86522:	2b30      	cmp	r3, #48	; 0x30
   86524:	f43f ad56 	beq.w	85fd4 <_svfprintf_r+0x664>
   86528:	2330      	movs	r3, #48	; 0x30
   8652a:	3902      	subs	r1, #2
   8652c:	f806 3c01 	strb.w	r3, [r6, #-1]
   86530:	eba9 0301 	sub.w	r3, r9, r1
   86534:	930e      	str	r3, [sp, #56]	; 0x38
   86536:	460e      	mov	r6, r1
   86538:	f7ff bb36 	b.w	85ba8 <_svfprintf_r+0x238>
   8653c:	991f      	ldr	r1, [sp, #124]	; 0x7c
   8653e:	2900      	cmp	r1, #0
   86540:	f77f af79 	ble.w	86436 <_svfprintf_r+0xac6>
   86544:	9b12      	ldr	r3, [sp, #72]	; 0x48
   86546:	9a13      	ldr	r2, [sp, #76]	; 0x4c
   86548:	4293      	cmp	r3, r2
   8654a:	bfa8      	it	ge
   8654c:	4613      	movge	r3, r2
   8654e:	2b00      	cmp	r3, #0
   86550:	461f      	mov	r7, r3
   86552:	dd0b      	ble.n	8656c <_svfprintf_r+0xbfc>
   86554:	9b26      	ldr	r3, [sp, #152]	; 0x98
   86556:	443c      	add	r4, r7
   86558:	3301      	adds	r3, #1
   8655a:	2b07      	cmp	r3, #7
   8655c:	9427      	str	r4, [sp, #156]	; 0x9c
   8655e:	e888 00c0 	stmia.w	r8, {r6, r7}
   86562:	9326      	str	r3, [sp, #152]	; 0x98
   86564:	f300 82fb 	bgt.w	86b5e <_svfprintf_r+0x11ee>
   86568:	f108 0808 	add.w	r8, r8, #8
   8656c:	9b12      	ldr	r3, [sp, #72]	; 0x48
   8656e:	2f00      	cmp	r7, #0
   86570:	bfa8      	it	ge
   86572:	1bdb      	subge	r3, r3, r7
   86574:	2b00      	cmp	r3, #0
   86576:	461f      	mov	r7, r3
   86578:	f340 80d7 	ble.w	8672a <_svfprintf_r+0xdba>
   8657c:	2b10      	cmp	r3, #16
   8657e:	f340 8434 	ble.w	86dea <_svfprintf_r+0x147a>
   86582:	4dba      	ldr	r5, [pc, #744]	; (8686c <_svfprintf_r+0xefc>)
   86584:	4642      	mov	r2, r8
   86586:	4621      	mov	r1, r4
   86588:	46b0      	mov	r8, r6
   8658a:	f04f 0b10 	mov.w	fp, #16
   8658e:	462e      	mov	r6, r5
   86590:	9b26      	ldr	r3, [sp, #152]	; 0x98
   86592:	9c0c      	ldr	r4, [sp, #48]	; 0x30
   86594:	9d0b      	ldr	r5, [sp, #44]	; 0x2c
   86596:	e004      	b.n	865a2 <_svfprintf_r+0xc32>
   86598:	3208      	adds	r2, #8
   8659a:	3f10      	subs	r7, #16
   8659c:	2f10      	cmp	r7, #16
   8659e:	f340 80b5 	ble.w	8670c <_svfprintf_r+0xd9c>
   865a2:	3301      	adds	r3, #1
   865a4:	3110      	adds	r1, #16
   865a6:	2b07      	cmp	r3, #7
   865a8:	9127      	str	r1, [sp, #156]	; 0x9c
   865aa:	9326      	str	r3, [sp, #152]	; 0x98
   865ac:	e882 0840 	stmia.w	r2, {r6, fp}
   865b0:	ddf2      	ble.n	86598 <_svfprintf_r+0xc28>
   865b2:	aa25      	add	r2, sp, #148	; 0x94
   865b4:	4629      	mov	r1, r5
   865b6:	4620      	mov	r0, r4
   865b8:	f002 fac4 	bl	88b44 <__ssprint_r>
   865bc:	2800      	cmp	r0, #0
   865be:	f47f aab4 	bne.w	85b2a <_svfprintf_r+0x1ba>
   865c2:	464a      	mov	r2, r9
   865c4:	9927      	ldr	r1, [sp, #156]	; 0x9c
   865c6:	9b26      	ldr	r3, [sp, #152]	; 0x98
   865c8:	e7e7      	b.n	8659a <_svfprintf_r+0xc2a>
   865ca:	2d00      	cmp	r5, #0
   865cc:	bf08      	it	eq
   865ce:	2c0a      	cmpeq	r4, #10
   865d0:	f0c0 8090 	bcc.w	866f4 <_svfprintf_r+0xd84>
   865d4:	464e      	mov	r6, r9
   865d6:	4620      	mov	r0, r4
   865d8:	4629      	mov	r1, r5
   865da:	220a      	movs	r2, #10
   865dc:	2300      	movs	r3, #0
   865de:	f002 fff9 	bl	895d4 <__aeabi_uldivmod>
   865e2:	3230      	adds	r2, #48	; 0x30
   865e4:	f806 2d01 	strb.w	r2, [r6, #-1]!
   865e8:	4620      	mov	r0, r4
   865ea:	4629      	mov	r1, r5
   865ec:	2300      	movs	r3, #0
   865ee:	220a      	movs	r2, #10
   865f0:	f002 fff0 	bl	895d4 <__aeabi_uldivmod>
   865f4:	4604      	mov	r4, r0
   865f6:	460d      	mov	r5, r1
   865f8:	ea54 0305 	orrs.w	r3, r4, r5
   865fc:	d1eb      	bne.n	865d6 <_svfprintf_r+0xc66>
   865fe:	eba9 0306 	sub.w	r3, r9, r6
   86602:	930e      	str	r3, [sp, #56]	; 0x38
   86604:	f7ff bad0 	b.w	85ba8 <_svfprintf_r+0x238>
   86608:	9b0a      	ldr	r3, [sp, #40]	; 0x28
   8660a:	464e      	mov	r6, r9
   8660c:	930e      	str	r3, [sp, #56]	; 0x38
   8660e:	f7ff bacb 	b.w	85ba8 <_svfprintf_r+0x238>
   86612:	1e5e      	subs	r6, r3, #1
   86614:	2e00      	cmp	r6, #0
   86616:	f77f aeca 	ble.w	863ae <_svfprintf_r+0xa3e>
   8661a:	2e10      	cmp	r6, #16
   8661c:	f340 83e3 	ble.w	86de6 <_svfprintf_r+0x1476>
   86620:	4622      	mov	r2, r4
   86622:	f04f 0b10 	mov.w	fp, #16
   86626:	4d91      	ldr	r5, [pc, #580]	; (8686c <_svfprintf_r+0xefc>)
   86628:	9c0c      	ldr	r4, [sp, #48]	; 0x30
   8662a:	e004      	b.n	86636 <_svfprintf_r+0xcc6>
   8662c:	3e10      	subs	r6, #16
   8662e:	2e10      	cmp	r6, #16
   86630:	f108 0808 	add.w	r8, r8, #8
   86634:	dd15      	ble.n	86662 <_svfprintf_r+0xcf2>
   86636:	3701      	adds	r7, #1
   86638:	3210      	adds	r2, #16
   8663a:	2f07      	cmp	r7, #7
   8663c:	9227      	str	r2, [sp, #156]	; 0x9c
   8663e:	9726      	str	r7, [sp, #152]	; 0x98
   86640:	e888 0820 	stmia.w	r8, {r5, fp}
   86644:	ddf2      	ble.n	8662c <_svfprintf_r+0xcbc>
   86646:	aa25      	add	r2, sp, #148	; 0x94
   86648:	990b      	ldr	r1, [sp, #44]	; 0x2c
   8664a:	4620      	mov	r0, r4
   8664c:	f002 fa7a 	bl	88b44 <__ssprint_r>
   86650:	2800      	cmp	r0, #0
   86652:	f47f aa6a 	bne.w	85b2a <_svfprintf_r+0x1ba>
   86656:	3e10      	subs	r6, #16
   86658:	2e10      	cmp	r6, #16
   8665a:	46c8      	mov	r8, r9
   8665c:	9a27      	ldr	r2, [sp, #156]	; 0x9c
   8665e:	9f26      	ldr	r7, [sp, #152]	; 0x98
   86660:	dce9      	bgt.n	86636 <_svfprintf_r+0xcc6>
   86662:	4614      	mov	r4, r2
   86664:	3701      	adds	r7, #1
   86666:	4434      	add	r4, r6
   86668:	2f07      	cmp	r7, #7
   8666a:	9427      	str	r4, [sp, #156]	; 0x9c
   8666c:	9726      	str	r7, [sp, #152]	; 0x98
   8666e:	e888 0060 	stmia.w	r8, {r5, r6}
   86672:	f77f ae9a 	ble.w	863aa <_svfprintf_r+0xa3a>
   86676:	aa25      	add	r2, sp, #148	; 0x94
   86678:	990b      	ldr	r1, [sp, #44]	; 0x2c
   8667a:	980c      	ldr	r0, [sp, #48]	; 0x30
   8667c:	f002 fa62 	bl	88b44 <__ssprint_r>
   86680:	2800      	cmp	r0, #0
   86682:	f47f aa52 	bne.w	85b2a <_svfprintf_r+0x1ba>
   86686:	9c27      	ldr	r4, [sp, #156]	; 0x9c
   86688:	9f26      	ldr	r7, [sp, #152]	; 0x98
   8668a:	46c8      	mov	r8, r9
   8668c:	e68f      	b.n	863ae <_svfprintf_r+0xa3e>
   8668e:	3204      	adds	r2, #4
   86690:	681c      	ldr	r4, [r3, #0]
   86692:	2500      	movs	r5, #0
   86694:	2301      	movs	r3, #1
   86696:	920f      	str	r2, [sp, #60]	; 0x3c
   86698:	f7ff ba68 	b.w	85b6c <_svfprintf_r+0x1fc>
   8669c:	681c      	ldr	r4, [r3, #0]
   8669e:	3304      	adds	r3, #4
   866a0:	930f      	str	r3, [sp, #60]	; 0x3c
   866a2:	2500      	movs	r5, #0
   866a4:	e42a      	b.n	85efc <_svfprintf_r+0x58c>
   866a6:	681c      	ldr	r4, [r3, #0]
   866a8:	3304      	adds	r3, #4
   866aa:	17e5      	asrs	r5, r4, #31
   866ac:	4622      	mov	r2, r4
   866ae:	930f      	str	r3, [sp, #60]	; 0x3c
   866b0:	462b      	mov	r3, r5
   866b2:	2a00      	cmp	r2, #0
   866b4:	f173 0300 	sbcs.w	r3, r3, #0
   866b8:	f6bf ac68 	bge.w	85f8c <_svfprintf_r+0x61c>
   866bc:	272d      	movs	r7, #45	; 0x2d
   866be:	4264      	negs	r4, r4
   866c0:	eb65 0545 	sbc.w	r5, r5, r5, lsl #1
   866c4:	f88d 7077 	strb.w	r7, [sp, #119]	; 0x77
   866c8:	2301      	movs	r3, #1
   866ca:	f7ff ba53 	b.w	85b74 <_svfprintf_r+0x204>
   866ce:	990f      	ldr	r1, [sp, #60]	; 0x3c
   866d0:	2500      	movs	r5, #0
   866d2:	460a      	mov	r2, r1
   866d4:	3204      	adds	r2, #4
   866d6:	680c      	ldr	r4, [r1, #0]
   866d8:	920f      	str	r2, [sp, #60]	; 0x3c
   866da:	f7ff ba47 	b.w	85b6c <_svfprintf_r+0x1fc>
   866de:	4614      	mov	r4, r2
   866e0:	3301      	adds	r3, #1
   866e2:	4434      	add	r4, r6
   866e4:	2b07      	cmp	r3, #7
   866e6:	9427      	str	r4, [sp, #156]	; 0x9c
   866e8:	9326      	str	r3, [sp, #152]	; 0x98
   866ea:	e888 0060 	stmia.w	r8, {r5, r6}
   866ee:	f77f ab2f 	ble.w	85d50 <_svfprintf_r+0x3e0>
   866f2:	e6e0      	b.n	864b6 <_svfprintf_r+0xb46>
   866f4:	f8dd b01c 	ldr.w	fp, [sp, #28]
   866f8:	2301      	movs	r3, #1
   866fa:	ae42      	add	r6, sp, #264	; 0x108
   866fc:	3430      	adds	r4, #48	; 0x30
   866fe:	f8cd b01c 	str.w	fp, [sp, #28]
   86702:	f806 4d41 	strb.w	r4, [r6, #-65]!
   86706:	930e      	str	r3, [sp, #56]	; 0x38
   86708:	f7ff ba4e 	b.w	85ba8 <_svfprintf_r+0x238>
   8670c:	4635      	mov	r5, r6
   8670e:	460c      	mov	r4, r1
   86710:	4646      	mov	r6, r8
   86712:	4690      	mov	r8, r2
   86714:	3301      	adds	r3, #1
   86716:	443c      	add	r4, r7
   86718:	2b07      	cmp	r3, #7
   8671a:	9427      	str	r4, [sp, #156]	; 0x9c
   8671c:	9326      	str	r3, [sp, #152]	; 0x98
   8671e:	e888 00a0 	stmia.w	r8, {r5, r7}
   86722:	f300 8246 	bgt.w	86bb2 <_svfprintf_r+0x1242>
   86726:	f108 0808 	add.w	r8, r8, #8
   8672a:	9a1f      	ldr	r2, [sp, #124]	; 0x7c
   8672c:	9b13      	ldr	r3, [sp, #76]	; 0x4c
   8672e:	429a      	cmp	r2, r3
   86730:	db45      	blt.n	867be <_svfprintf_r+0xe4e>
   86732:	9b07      	ldr	r3, [sp, #28]
   86734:	07d9      	lsls	r1, r3, #31
   86736:	d442      	bmi.n	867be <_svfprintf_r+0xe4e>
   86738:	9b13      	ldr	r3, [sp, #76]	; 0x4c
   8673a:	9812      	ldr	r0, [sp, #72]	; 0x48
   8673c:	1a9a      	subs	r2, r3, r2
   8673e:	1a1d      	subs	r5, r3, r0
   86740:	4295      	cmp	r5, r2
   86742:	bfa8      	it	ge
   86744:	4615      	movge	r5, r2
   86746:	2d00      	cmp	r5, #0
   86748:	dd0e      	ble.n	86768 <_svfprintf_r+0xdf8>
   8674a:	9926      	ldr	r1, [sp, #152]	; 0x98
   8674c:	4406      	add	r6, r0
   8674e:	3101      	adds	r1, #1
   86750:	442c      	add	r4, r5
   86752:	2907      	cmp	r1, #7
   86754:	f8c8 6000 	str.w	r6, [r8]
   86758:	9427      	str	r4, [sp, #156]	; 0x9c
   8675a:	f8c8 5004 	str.w	r5, [r8, #4]
   8675e:	9126      	str	r1, [sp, #152]	; 0x98
   86760:	f300 8216 	bgt.w	86b90 <_svfprintf_r+0x1220>
   86764:	f108 0808 	add.w	r8, r8, #8
   86768:	2d00      	cmp	r5, #0
   8676a:	bfb4      	ite	lt
   8676c:	4616      	movlt	r6, r2
   8676e:	1b56      	subge	r6, r2, r5
   86770:	2e00      	cmp	r6, #0
   86772:	f77f aaef 	ble.w	85d54 <_svfprintf_r+0x3e4>
   86776:	2e10      	cmp	r6, #16
   86778:	f340 82f3 	ble.w	86d62 <_svfprintf_r+0x13f2>
   8677c:	4622      	mov	r2, r4
   8677e:	2710      	movs	r7, #16
   86780:	9b26      	ldr	r3, [sp, #152]	; 0x98
   86782:	4d3a      	ldr	r5, [pc, #232]	; (8686c <_svfprintf_r+0xefc>)
   86784:	f8dd b030 	ldr.w	fp, [sp, #48]	; 0x30
   86788:	9c0b      	ldr	r4, [sp, #44]	; 0x2c
   8678a:	e004      	b.n	86796 <_svfprintf_r+0xe26>
   8678c:	f108 0808 	add.w	r8, r8, #8
   86790:	3e10      	subs	r6, #16
   86792:	2e10      	cmp	r6, #16
   86794:	dda3      	ble.n	866de <_svfprintf_r+0xd6e>
   86796:	3301      	adds	r3, #1
   86798:	3210      	adds	r2, #16
   8679a:	2b07      	cmp	r3, #7
   8679c:	9227      	str	r2, [sp, #156]	; 0x9c
   8679e:	9326      	str	r3, [sp, #152]	; 0x98
   867a0:	e888 00a0 	stmia.w	r8, {r5, r7}
   867a4:	ddf2      	ble.n	8678c <_svfprintf_r+0xe1c>
   867a6:	aa25      	add	r2, sp, #148	; 0x94
   867a8:	4621      	mov	r1, r4
   867aa:	4658      	mov	r0, fp
   867ac:	f002 f9ca 	bl	88b44 <__ssprint_r>
   867b0:	2800      	cmp	r0, #0
   867b2:	f47f a9ba 	bne.w	85b2a <_svfprintf_r+0x1ba>
   867b6:	46c8      	mov	r8, r9
   867b8:	9a27      	ldr	r2, [sp, #156]	; 0x9c
   867ba:	9b26      	ldr	r3, [sp, #152]	; 0x98
   867bc:	e7e8      	b.n	86790 <_svfprintf_r+0xe20>
   867be:	9b26      	ldr	r3, [sp, #152]	; 0x98
   867c0:	9819      	ldr	r0, [sp, #100]	; 0x64
   867c2:	3301      	adds	r3, #1
   867c4:	991a      	ldr	r1, [sp, #104]	; 0x68
   867c6:	4404      	add	r4, r0
   867c8:	2b07      	cmp	r3, #7
   867ca:	9427      	str	r4, [sp, #156]	; 0x9c
   867cc:	f8c8 1000 	str.w	r1, [r8]
   867d0:	f8c8 0004 	str.w	r0, [r8, #4]
   867d4:	9326      	str	r3, [sp, #152]	; 0x98
   867d6:	f300 81cf 	bgt.w	86b78 <_svfprintf_r+0x1208>
   867da:	f108 0808 	add.w	r8, r8, #8
   867de:	e7ab      	b.n	86738 <_svfprintf_r+0xdc8>
   867e0:	9b07      	ldr	r3, [sp, #28]
   867e2:	07da      	lsls	r2, r3, #31
   867e4:	f53f adad 	bmi.w	86342 <_svfprintf_r+0x9d2>
   867e8:	2301      	movs	r3, #1
   867ea:	9f26      	ldr	r7, [sp, #152]	; 0x98
   867ec:	441c      	add	r4, r3
   867ee:	441f      	add	r7, r3
   867f0:	2f07      	cmp	r7, #7
   867f2:	9427      	str	r4, [sp, #156]	; 0x9c
   867f4:	f8c8 6000 	str.w	r6, [r8]
   867f8:	9726      	str	r7, [sp, #152]	; 0x98
   867fa:	f8c8 3004 	str.w	r3, [r8, #4]
   867fe:	f77f add4 	ble.w	863aa <_svfprintf_r+0xa3a>
   86802:	aa25      	add	r2, sp, #148	; 0x94
   86804:	990b      	ldr	r1, [sp, #44]	; 0x2c
   86806:	980c      	ldr	r0, [sp, #48]	; 0x30
   86808:	f002 f99c 	bl	88b44 <__ssprint_r>
   8680c:	2800      	cmp	r0, #0
   8680e:	f47f a98c 	bne.w	85b2a <_svfprintf_r+0x1ba>
   86812:	46c8      	mov	r8, r9
   86814:	9c27      	ldr	r4, [sp, #156]	; 0x9c
   86816:	9f26      	ldr	r7, [sp, #152]	; 0x98
   86818:	e5c9      	b.n	863ae <_svfprintf_r+0xa3e>
   8681a:	aa25      	add	r2, sp, #148	; 0x94
   8681c:	990b      	ldr	r1, [sp, #44]	; 0x2c
   8681e:	980c      	ldr	r0, [sp, #48]	; 0x30
   86820:	f002 f990 	bl	88b44 <__ssprint_r>
   86824:	2800      	cmp	r0, #0
   86826:	f47f a980 	bne.w	85b2a <_svfprintf_r+0x1ba>
   8682a:	46c8      	mov	r8, r9
   8682c:	9c27      	ldr	r4, [sp, #156]	; 0x9c
   8682e:	9f26      	ldr	r7, [sp, #152]	; 0x98
   86830:	e596      	b.n	86360 <_svfprintf_r+0x9f0>
   86832:	aa25      	add	r2, sp, #148	; 0x94
   86834:	990b      	ldr	r1, [sp, #44]	; 0x2c
   86836:	980c      	ldr	r0, [sp, #48]	; 0x30
   86838:	f002 f984 	bl	88b44 <__ssprint_r>
   8683c:	2800      	cmp	r0, #0
   8683e:	f47f a974 	bne.w	85b2a <_svfprintf_r+0x1ba>
   86842:	46c8      	mov	r8, r9
   86844:	9c27      	ldr	r4, [sp, #156]	; 0x9c
   86846:	9f26      	ldr	r7, [sp, #152]	; 0x98
   86848:	e599      	b.n	8637e <_svfprintf_r+0xa0e>
   8684a:	9c0f      	ldr	r4, [sp, #60]	; 0x3c
   8684c:	3407      	adds	r4, #7
   8684e:	f024 0407 	bic.w	r4, r4, #7
   86852:	f104 0108 	add.w	r1, r4, #8
   86856:	e9d4 2300 	ldrd	r2, r3, [r4]
   8685a:	910f      	str	r1, [sp, #60]	; 0x3c
   8685c:	4614      	mov	r4, r2
   8685e:	461d      	mov	r5, r3
   86860:	f7ff bb8f 	b.w	85f82 <_svfprintf_r+0x612>
   86864:	464e      	mov	r6, r9
   86866:	f7ff b99f 	b.w	85ba8 <_svfprintf_r+0x238>
   8686a:	bf00      	nop
   8686c:	00089a90 	.word	0x00089a90
   86870:	aa25      	add	r2, sp, #148	; 0x94
   86872:	990b      	ldr	r1, [sp, #44]	; 0x2c
   86874:	980c      	ldr	r0, [sp, #48]	; 0x30
   86876:	f002 f965 	bl	88b44 <__ssprint_r>
   8687a:	2800      	cmp	r0, #0
   8687c:	f47f a955 	bne.w	85b2a <_svfprintf_r+0x1ba>
   86880:	46c8      	mov	r8, r9
   86882:	9c27      	ldr	r4, [sp, #156]	; 0x9c
   86884:	f7ff ba16 	b.w	85cb4 <_svfprintf_r+0x344>
   86888:	9c15      	ldr	r4, [sp, #84]	; 0x54
   8688a:	4622      	mov	r2, r4
   8688c:	4620      	mov	r0, r4
   8688e:	9c14      	ldr	r4, [sp, #80]	; 0x50
   86890:	4623      	mov	r3, r4
   86892:	4621      	mov	r1, r4
   86894:	f002 fe60 	bl	89558 <__aeabi_dcmpun>
   86898:	2800      	cmp	r0, #0
   8689a:	f040 8273 	bne.w	86d84 <_svfprintf_r+0x1414>
   8689e:	9b0a      	ldr	r3, [sp, #40]	; 0x28
   868a0:	3301      	adds	r3, #1
   868a2:	9b11      	ldr	r3, [sp, #68]	; 0x44
   868a4:	f023 0320 	bic.w	r3, r3, #32
   868a8:	930e      	str	r3, [sp, #56]	; 0x38
   868aa:	f000 819c 	beq.w	86be6 <_svfprintf_r+0x1276>
   868ae:	2b47      	cmp	r3, #71	; 0x47
   868b0:	f000 80d6 	beq.w	86a60 <_svfprintf_r+0x10f0>
   868b4:	f44b 7380 	orr.w	r3, fp, #256	; 0x100
   868b8:	9307      	str	r3, [sp, #28]
   868ba:	9b14      	ldr	r3, [sp, #80]	; 0x50
   868bc:	1e1f      	subs	r7, r3, #0
   868be:	9b15      	ldr	r3, [sp, #84]	; 0x54
   868c0:	9308      	str	r3, [sp, #32]
   868c2:	bfb7      	itett	lt
   868c4:	463b      	movlt	r3, r7
   868c6:	2300      	movge	r3, #0
   868c8:	f103 4700 	addlt.w	r7, r3, #2147483648	; 0x80000000
   868cc:	232d      	movlt	r3, #45	; 0x2d
   868ce:	9310      	str	r3, [sp, #64]	; 0x40
   868d0:	9b11      	ldr	r3, [sp, #68]	; 0x44
   868d2:	2b66      	cmp	r3, #102	; 0x66
   868d4:	f000 8190 	beq.w	86bf8 <_svfprintf_r+0x1288>
   868d8:	2b46      	cmp	r3, #70	; 0x46
   868da:	f000 80a4 	beq.w	86a26 <_svfprintf_r+0x10b6>
   868de:	2002      	movs	r0, #2
   868e0:	9b0e      	ldr	r3, [sp, #56]	; 0x38
   868e2:	a923      	add	r1, sp, #140	; 0x8c
   868e4:	2b45      	cmp	r3, #69	; 0x45
   868e6:	bf0a      	itet	eq
   868e8:	9b0a      	ldreq	r3, [sp, #40]	; 0x28
   868ea:	9d0a      	ldrne	r5, [sp, #40]	; 0x28
   868ec:	1c5d      	addeq	r5, r3, #1
   868ee:	e88d 0021 	stmia.w	sp, {r0, r5}
   868f2:	9104      	str	r1, [sp, #16]
   868f4:	a820      	add	r0, sp, #128	; 0x80
   868f6:	a91f      	add	r1, sp, #124	; 0x7c
   868f8:	463b      	mov	r3, r7
   868fa:	9003      	str	r0, [sp, #12]
   868fc:	9a08      	ldr	r2, [sp, #32]
   868fe:	9102      	str	r1, [sp, #8]
   86900:	980c      	ldr	r0, [sp, #48]	; 0x30
   86902:	f000 fb59 	bl	86fb8 <_dtoa_r>
   86906:	9b11      	ldr	r3, [sp, #68]	; 0x44
   86908:	4606      	mov	r6, r0
   8690a:	2b67      	cmp	r3, #103	; 0x67
   8690c:	f040 81ba 	bne.w	86c84 <_svfprintf_r+0x1314>
   86910:	f01b 0f01 	tst.w	fp, #1
   86914:	f000 8223 	beq.w	86d5e <_svfprintf_r+0x13ee>
   86918:	1974      	adds	r4, r6, r5
   8691a:	9a16      	ldr	r2, [sp, #88]	; 0x58
   8691c:	9808      	ldr	r0, [sp, #32]
   8691e:	9b17      	ldr	r3, [sp, #92]	; 0x5c
   86920:	4639      	mov	r1, r7
   86922:	f002 fde7 	bl	894f4 <__aeabi_dcmpeq>
   86926:	2800      	cmp	r0, #0
   86928:	f040 8124 	bne.w	86b74 <_svfprintf_r+0x1204>
   8692c:	9b23      	ldr	r3, [sp, #140]	; 0x8c
   8692e:	42a3      	cmp	r3, r4
   86930:	d206      	bcs.n	86940 <_svfprintf_r+0xfd0>
   86932:	2130      	movs	r1, #48	; 0x30
   86934:	1c5a      	adds	r2, r3, #1
   86936:	9223      	str	r2, [sp, #140]	; 0x8c
   86938:	7019      	strb	r1, [r3, #0]
   8693a:	9b23      	ldr	r3, [sp, #140]	; 0x8c
   8693c:	429c      	cmp	r4, r3
   8693e:	d8f9      	bhi.n	86934 <_svfprintf_r+0xfc4>
   86940:	1b9b      	subs	r3, r3, r6
   86942:	9313      	str	r3, [sp, #76]	; 0x4c
   86944:	9b0e      	ldr	r3, [sp, #56]	; 0x38
   86946:	2b47      	cmp	r3, #71	; 0x47
   86948:	f000 80a2 	beq.w	86a90 <_svfprintf_r+0x1120>
   8694c:	9b11      	ldr	r3, [sp, #68]	; 0x44
   8694e:	2b65      	cmp	r3, #101	; 0x65
   86950:	f340 81a7 	ble.w	86ca2 <_svfprintf_r+0x1332>
   86954:	9b11      	ldr	r3, [sp, #68]	; 0x44
   86956:	2b66      	cmp	r3, #102	; 0x66
   86958:	9b1f      	ldr	r3, [sp, #124]	; 0x7c
   8695a:	9312      	str	r3, [sp, #72]	; 0x48
   8695c:	f000 8171 	beq.w	86c42 <_svfprintf_r+0x12d2>
   86960:	9b13      	ldr	r3, [sp, #76]	; 0x4c
   86962:	9a12      	ldr	r2, [sp, #72]	; 0x48
   86964:	4619      	mov	r1, r3
   86966:	4291      	cmp	r1, r2
   86968:	f300 815d 	bgt.w	86c26 <_svfprintf_r+0x12b6>
   8696c:	f01b 0f01 	tst.w	fp, #1
   86970:	f040 81f0 	bne.w	86d54 <_svfprintf_r+0x13e4>
   86974:	ea22 73e2 	bic.w	r3, r2, r2, asr #31
   86978:	9308      	str	r3, [sp, #32]
   8697a:	2367      	movs	r3, #103	; 0x67
   8697c:	920e      	str	r2, [sp, #56]	; 0x38
   8697e:	9311      	str	r3, [sp, #68]	; 0x44
   86980:	9b10      	ldr	r3, [sp, #64]	; 0x40
   86982:	2b00      	cmp	r3, #0
   86984:	d17d      	bne.n	86a82 <_svfprintf_r+0x1112>
   86986:	930a      	str	r3, [sp, #40]	; 0x28
   86988:	f89d 7077 	ldrb.w	r7, [sp, #119]	; 0x77
   8698c:	f7ff b914 	b.w	85bb8 <_svfprintf_r+0x248>
   86990:	f024 0407 	bic.w	r4, r4, #7
   86994:	6823      	ldr	r3, [r4, #0]
   86996:	9315      	str	r3, [sp, #84]	; 0x54
   86998:	6863      	ldr	r3, [r4, #4]
   8699a:	9314      	str	r3, [sp, #80]	; 0x50
   8699c:	f104 0308 	add.w	r3, r4, #8
   869a0:	930f      	str	r3, [sp, #60]	; 0x3c
   869a2:	f7ff bb2f 	b.w	86004 <_svfprintf_r+0x694>
   869a6:	9a0f      	ldr	r2, [sp, #60]	; 0x3c
   869a8:	6813      	ldr	r3, [r2, #0]
   869aa:	3204      	adds	r2, #4
   869ac:	920f      	str	r2, [sp, #60]	; 0x3c
   869ae:	9a09      	ldr	r2, [sp, #36]	; 0x24
   869b0:	601a      	str	r2, [r3, #0]
   869b2:	f7ff b804 	b.w	859be <_svfprintf_r+0x4e>
   869b6:	9b26      	ldr	r3, [sp, #152]	; 0x98
   869b8:	4daf      	ldr	r5, [pc, #700]	; (86c78 <_svfprintf_r+0x1308>)
   869ba:	f7ff b9ad 	b.w	85d18 <_svfprintf_r+0x3a8>
   869be:	aa25      	add	r2, sp, #148	; 0x94
   869c0:	990b      	ldr	r1, [sp, #44]	; 0x2c
   869c2:	980c      	ldr	r0, [sp, #48]	; 0x30
   869c4:	f002 f8be 	bl	88b44 <__ssprint_r>
   869c8:	2800      	cmp	r0, #0
   869ca:	f47f a8ae 	bne.w	85b2a <_svfprintf_r+0x1ba>
   869ce:	46c8      	mov	r8, r9
   869d0:	e431      	b.n	86236 <_svfprintf_r+0x8c6>
   869d2:	9a0f      	ldr	r2, [sp, #60]	; 0x3c
   869d4:	4613      	mov	r3, r2
   869d6:	3304      	adds	r3, #4
   869d8:	930f      	str	r3, [sp, #60]	; 0x3c
   869da:	9b09      	ldr	r3, [sp, #36]	; 0x24
   869dc:	6811      	ldr	r1, [r2, #0]
   869de:	17dd      	asrs	r5, r3, #31
   869e0:	461a      	mov	r2, r3
   869e2:	462b      	mov	r3, r5
   869e4:	e9c1 2300 	strd	r2, r3, [r1]
   869e8:	f7fe bfe9 	b.w	859be <_svfprintf_r+0x4e>
   869ec:	aa25      	add	r2, sp, #148	; 0x94
   869ee:	990b      	ldr	r1, [sp, #44]	; 0x2c
   869f0:	980c      	ldr	r0, [sp, #48]	; 0x30
   869f2:	f002 f8a7 	bl	88b44 <__ssprint_r>
   869f6:	2800      	cmp	r0, #0
   869f8:	f47f a897 	bne.w	85b2a <_svfprintf_r+0x1ba>
   869fc:	46c8      	mov	r8, r9
   869fe:	9c27      	ldr	r4, [sp, #156]	; 0x9c
   86a00:	e432      	b.n	86268 <_svfprintf_r+0x8f8>
   86a02:	f108 0808 	add.w	r8, r8, #8
   86a06:	e52f      	b.n	86468 <_svfprintf_r+0xaf8>
   86a08:	2140      	movs	r1, #64	; 0x40
   86a0a:	980c      	ldr	r0, [sp, #48]	; 0x30
   86a0c:	f001 fa22 	bl	87e54 <_malloc_r>
   86a10:	9a0b      	ldr	r2, [sp, #44]	; 0x2c
   86a12:	6010      	str	r0, [r2, #0]
   86a14:	6110      	str	r0, [r2, #16]
   86a16:	2800      	cmp	r0, #0
   86a18:	f000 8214 	beq.w	86e44 <_svfprintf_r+0x14d4>
   86a1c:	2340      	movs	r3, #64	; 0x40
   86a1e:	9a0b      	ldr	r2, [sp, #44]	; 0x2c
   86a20:	6153      	str	r3, [r2, #20]
   86a22:	f7fe bfbc 	b.w	8599e <_svfprintf_r+0x2e>
   86a26:	2003      	movs	r0, #3
   86a28:	9c0a      	ldr	r4, [sp, #40]	; 0x28
   86a2a:	a923      	add	r1, sp, #140	; 0x8c
   86a2c:	e88d 0011 	stmia.w	sp, {r0, r4}
   86a30:	9104      	str	r1, [sp, #16]
   86a32:	a820      	add	r0, sp, #128	; 0x80
   86a34:	a91f      	add	r1, sp, #124	; 0x7c
   86a36:	9003      	str	r0, [sp, #12]
   86a38:	9a08      	ldr	r2, [sp, #32]
   86a3a:	463b      	mov	r3, r7
   86a3c:	9102      	str	r1, [sp, #8]
   86a3e:	980c      	ldr	r0, [sp, #48]	; 0x30
   86a40:	f000 faba 	bl	86fb8 <_dtoa_r>
   86a44:	4625      	mov	r5, r4
   86a46:	4606      	mov	r6, r0
   86a48:	9b11      	ldr	r3, [sp, #68]	; 0x44
   86a4a:	1974      	adds	r4, r6, r5
   86a4c:	2b46      	cmp	r3, #70	; 0x46
   86a4e:	f47f af64 	bne.w	8691a <_svfprintf_r+0xfaa>
   86a52:	7833      	ldrb	r3, [r6, #0]
   86a54:	2b30      	cmp	r3, #48	; 0x30
   86a56:	f000 8187 	beq.w	86d68 <_svfprintf_r+0x13f8>
   86a5a:	9d1f      	ldr	r5, [sp, #124]	; 0x7c
   86a5c:	442c      	add	r4, r5
   86a5e:	e75c      	b.n	8691a <_svfprintf_r+0xfaa>
   86a60:	9b0a      	ldr	r3, [sp, #40]	; 0x28
   86a62:	2b00      	cmp	r3, #0
   86a64:	bf08      	it	eq
   86a66:	2301      	moveq	r3, #1
   86a68:	930a      	str	r3, [sp, #40]	; 0x28
   86a6a:	e723      	b.n	868b4 <_svfprintf_r+0xf44>
   86a6c:	4630      	mov	r0, r6
   86a6e:	950a      	str	r5, [sp, #40]	; 0x28
   86a70:	f7fe ff50 	bl	85914 <strlen>
   86a74:	940f      	str	r4, [sp, #60]	; 0x3c
   86a76:	900e      	str	r0, [sp, #56]	; 0x38
   86a78:	f8cd b01c 	str.w	fp, [sp, #28]
   86a7c:	4603      	mov	r3, r0
   86a7e:	f7ff b9e7 	b.w	85e50 <_svfprintf_r+0x4e0>
   86a82:	272d      	movs	r7, #45	; 0x2d
   86a84:	2300      	movs	r3, #0
   86a86:	f88d 7077 	strb.w	r7, [sp, #119]	; 0x77
   86a8a:	930a      	str	r3, [sp, #40]	; 0x28
   86a8c:	f7ff b895 	b.w	85bba <_svfprintf_r+0x24a>
   86a90:	9b1f      	ldr	r3, [sp, #124]	; 0x7c
   86a92:	461a      	mov	r2, r3
   86a94:	9312      	str	r3, [sp, #72]	; 0x48
   86a96:	3303      	adds	r3, #3
   86a98:	db04      	blt.n	86aa4 <_svfprintf_r+0x1134>
   86a9a:	9b0a      	ldr	r3, [sp, #40]	; 0x28
   86a9c:	4619      	mov	r1, r3
   86a9e:	4291      	cmp	r1, r2
   86aa0:	f6bf af5e 	bge.w	86960 <_svfprintf_r+0xff0>
   86aa4:	9b11      	ldr	r3, [sp, #68]	; 0x44
   86aa6:	3b02      	subs	r3, #2
   86aa8:	9311      	str	r3, [sp, #68]	; 0x44
   86aaa:	9b12      	ldr	r3, [sp, #72]	; 0x48
   86aac:	f89d 2044 	ldrb.w	r2, [sp, #68]	; 0x44
   86ab0:	3b01      	subs	r3, #1
   86ab2:	2b00      	cmp	r3, #0
   86ab4:	f88d 2084 	strb.w	r2, [sp, #132]	; 0x84
   86ab8:	bfb4      	ite	lt
   86aba:	222d      	movlt	r2, #45	; 0x2d
   86abc:	222b      	movge	r2, #43	; 0x2b
   86abe:	931f      	str	r3, [sp, #124]	; 0x7c
   86ac0:	bfb8      	it	lt
   86ac2:	9b12      	ldrlt	r3, [sp, #72]	; 0x48
   86ac4:	f88d 2085 	strb.w	r2, [sp, #133]	; 0x85
   86ac8:	bfb8      	it	lt
   86aca:	f1c3 0301 	rsblt	r3, r3, #1
   86ace:	2b09      	cmp	r3, #9
   86ad0:	f340 811f 	ble.w	86d12 <_svfprintf_r+0x13a2>
   86ad4:	f10d 0093 	add.w	r0, sp, #147	; 0x93
   86ad8:	4601      	mov	r1, r0
   86ada:	4c68      	ldr	r4, [pc, #416]	; (86c7c <_svfprintf_r+0x130c>)
   86adc:	e000      	b.n	86ae0 <_svfprintf_r+0x1170>
   86ade:	4611      	mov	r1, r2
   86ae0:	fb84 5203 	smull	r5, r2, r4, r3
   86ae4:	17dd      	asrs	r5, r3, #31
   86ae6:	ebc5 05a2 	rsb	r5, r5, r2, asr #2
   86aea:	eb05 0285 	add.w	r2, r5, r5, lsl #2
   86aee:	eba3 0242 	sub.w	r2, r3, r2, lsl #1
   86af2:	3230      	adds	r2, #48	; 0x30
   86af4:	2d09      	cmp	r5, #9
   86af6:	f801 2c01 	strb.w	r2, [r1, #-1]
   86afa:	462b      	mov	r3, r5
   86afc:	f101 32ff 	add.w	r2, r1, #4294967295
   86b00:	dced      	bgt.n	86ade <_svfprintf_r+0x116e>
   86b02:	3330      	adds	r3, #48	; 0x30
   86b04:	3902      	subs	r1, #2
   86b06:	b2dc      	uxtb	r4, r3
   86b08:	4288      	cmp	r0, r1
   86b0a:	f802 4c01 	strb.w	r4, [r2, #-1]
   86b0e:	f240 8192 	bls.w	86e36 <_svfprintf_r+0x14c6>
   86b12:	f10d 0186 	add.w	r1, sp, #134	; 0x86
   86b16:	4613      	mov	r3, r2
   86b18:	e001      	b.n	86b1e <_svfprintf_r+0x11ae>
   86b1a:	f813 4b01 	ldrb.w	r4, [r3], #1
   86b1e:	4283      	cmp	r3, r0
   86b20:	f801 4b01 	strb.w	r4, [r1], #1
   86b24:	d1f9      	bne.n	86b1a <_svfprintf_r+0x11aa>
   86b26:	3301      	adds	r3, #1
   86b28:	1a9b      	subs	r3, r3, r2
   86b2a:	f10d 0286 	add.w	r2, sp, #134	; 0x86
   86b2e:	4413      	add	r3, r2
   86b30:	aa21      	add	r2, sp, #132	; 0x84
   86b32:	1a9b      	subs	r3, r3, r2
   86b34:	9a13      	ldr	r2, [sp, #76]	; 0x4c
   86b36:	931b      	str	r3, [sp, #108]	; 0x6c
   86b38:	2a01      	cmp	r2, #1
   86b3a:	4413      	add	r3, r2
   86b3c:	930e      	str	r3, [sp, #56]	; 0x38
   86b3e:	f340 8148 	ble.w	86dd2 <_svfprintf_r+0x1462>
   86b42:	9b0e      	ldr	r3, [sp, #56]	; 0x38
   86b44:	9a19      	ldr	r2, [sp, #100]	; 0x64
   86b46:	4413      	add	r3, r2
   86b48:	930e      	str	r3, [sp, #56]	; 0x38
   86b4a:	ea23 73e3 	bic.w	r3, r3, r3, asr #31
   86b4e:	9308      	str	r3, [sp, #32]
   86b50:	2300      	movs	r3, #0
   86b52:	9312      	str	r3, [sp, #72]	; 0x48
   86b54:	e714      	b.n	86980 <_svfprintf_r+0x1010>
   86b56:	9c27      	ldr	r4, [sp, #156]	; 0x9c
   86b58:	9a26      	ldr	r2, [sp, #152]	; 0x98
   86b5a:	f7ff b876 	b.w	85c4a <_svfprintf_r+0x2da>
   86b5e:	aa25      	add	r2, sp, #148	; 0x94
   86b60:	990b      	ldr	r1, [sp, #44]	; 0x2c
   86b62:	980c      	ldr	r0, [sp, #48]	; 0x30
   86b64:	f001 ffee 	bl	88b44 <__ssprint_r>
   86b68:	2800      	cmp	r0, #0
   86b6a:	f47e afde 	bne.w	85b2a <_svfprintf_r+0x1ba>
   86b6e:	46c8      	mov	r8, r9
   86b70:	9c27      	ldr	r4, [sp, #156]	; 0x9c
   86b72:	e4fb      	b.n	8656c <_svfprintf_r+0xbfc>
   86b74:	4623      	mov	r3, r4
   86b76:	e6e3      	b.n	86940 <_svfprintf_r+0xfd0>
   86b78:	aa25      	add	r2, sp, #148	; 0x94
   86b7a:	990b      	ldr	r1, [sp, #44]	; 0x2c
   86b7c:	980c      	ldr	r0, [sp, #48]	; 0x30
   86b7e:	f001 ffe1 	bl	88b44 <__ssprint_r>
   86b82:	2800      	cmp	r0, #0
   86b84:	f47e afd1 	bne.w	85b2a <_svfprintf_r+0x1ba>
   86b88:	46c8      	mov	r8, r9
   86b8a:	9a1f      	ldr	r2, [sp, #124]	; 0x7c
   86b8c:	9c27      	ldr	r4, [sp, #156]	; 0x9c
   86b8e:	e5d3      	b.n	86738 <_svfprintf_r+0xdc8>
   86b90:	aa25      	add	r2, sp, #148	; 0x94
   86b92:	990b      	ldr	r1, [sp, #44]	; 0x2c
   86b94:	980c      	ldr	r0, [sp, #48]	; 0x30
   86b96:	f001 ffd5 	bl	88b44 <__ssprint_r>
   86b9a:	2800      	cmp	r0, #0
   86b9c:	f47e afc5 	bne.w	85b2a <_svfprintf_r+0x1ba>
   86ba0:	9a1f      	ldr	r2, [sp, #124]	; 0x7c
   86ba2:	9b13      	ldr	r3, [sp, #76]	; 0x4c
   86ba4:	46c8      	mov	r8, r9
   86ba6:	9c27      	ldr	r4, [sp, #156]	; 0x9c
   86ba8:	1a9a      	subs	r2, r3, r2
   86baa:	e5dd      	b.n	86768 <_svfprintf_r+0xdf8>
   86bac:	9b26      	ldr	r3, [sp, #152]	; 0x98
   86bae:	f7ff b8fe 	b.w	85dae <_svfprintf_r+0x43e>
   86bb2:	aa25      	add	r2, sp, #148	; 0x94
   86bb4:	990b      	ldr	r1, [sp, #44]	; 0x2c
   86bb6:	980c      	ldr	r0, [sp, #48]	; 0x30
   86bb8:	f001 ffc4 	bl	88b44 <__ssprint_r>
   86bbc:	2800      	cmp	r0, #0
   86bbe:	f47e afb4 	bne.w	85b2a <_svfprintf_r+0x1ba>
   86bc2:	46c8      	mov	r8, r9
   86bc4:	9c27      	ldr	r4, [sp, #156]	; 0x9c
   86bc6:	e5b0      	b.n	8672a <_svfprintf_r+0xdba>
   86bc8:	9b0a      	ldr	r3, [sp, #40]	; 0x28
   86bca:	4637      	mov	r7, r6
   86bcc:	2b06      	cmp	r3, #6
   86bce:	bf28      	it	cs
   86bd0:	2306      	movcs	r3, #6
   86bd2:	960a      	str	r6, [sp, #40]	; 0x28
   86bd4:	9612      	str	r6, [sp, #72]	; 0x48
   86bd6:	9308      	str	r3, [sp, #32]
   86bd8:	940f      	str	r4, [sp, #60]	; 0x3c
   86bda:	f8cd b01c 	str.w	fp, [sp, #28]
   86bde:	930e      	str	r3, [sp, #56]	; 0x38
   86be0:	4e27      	ldr	r6, [pc, #156]	; (86c80 <_svfprintf_r+0x1310>)
   86be2:	f7fe bfe9 	b.w	85bb8 <_svfprintf_r+0x248>
   86be6:	2306      	movs	r3, #6
   86be8:	930a      	str	r3, [sp, #40]	; 0x28
   86bea:	e663      	b.n	868b4 <_svfprintf_r+0xf44>
   86bec:	232d      	movs	r3, #45	; 0x2d
   86bee:	461f      	mov	r7, r3
   86bf0:	f88d 3077 	strb.w	r3, [sp, #119]	; 0x77
   86bf4:	f7ff ba28 	b.w	86048 <_svfprintf_r+0x6d8>
   86bf8:	2003      	movs	r0, #3
   86bfa:	9c0a      	ldr	r4, [sp, #40]	; 0x28
   86bfc:	a923      	add	r1, sp, #140	; 0x8c
   86bfe:	e88d 0011 	stmia.w	sp, {r0, r4}
   86c02:	9104      	str	r1, [sp, #16]
   86c04:	a820      	add	r0, sp, #128	; 0x80
   86c06:	a91f      	add	r1, sp, #124	; 0x7c
   86c08:	9003      	str	r0, [sp, #12]
   86c0a:	9a08      	ldr	r2, [sp, #32]
   86c0c:	463b      	mov	r3, r7
   86c0e:	9102      	str	r1, [sp, #8]
   86c10:	980c      	ldr	r0, [sp, #48]	; 0x30
   86c12:	f000 f9d1 	bl	86fb8 <_dtoa_r>
   86c16:	4625      	mov	r5, r4
   86c18:	4606      	mov	r6, r0
   86c1a:	1904      	adds	r4, r0, r4
   86c1c:	e719      	b.n	86a52 <_svfprintf_r+0x10e2>
   86c1e:	9b26      	ldr	r3, [sp, #152]	; 0x98
   86c20:	4d15      	ldr	r5, [pc, #84]	; (86c78 <_svfprintf_r+0x1308>)
   86c22:	f7ff bb7e 	b.w	86322 <_svfprintf_r+0x9b2>
   86c26:	9a19      	ldr	r2, [sp, #100]	; 0x64
   86c28:	9b13      	ldr	r3, [sp, #76]	; 0x4c
   86c2a:	4413      	add	r3, r2
   86c2c:	9a12      	ldr	r2, [sp, #72]	; 0x48
   86c2e:	930e      	str	r3, [sp, #56]	; 0x38
   86c30:	2a00      	cmp	r2, #0
   86c32:	f340 80c7 	ble.w	86dc4 <_svfprintf_r+0x1454>
   86c36:	ea23 73e3 	bic.w	r3, r3, r3, asr #31
   86c3a:	9308      	str	r3, [sp, #32]
   86c3c:	2367      	movs	r3, #103	; 0x67
   86c3e:	9311      	str	r3, [sp, #68]	; 0x44
   86c40:	e69e      	b.n	86980 <_svfprintf_r+0x1010>
   86c42:	2b00      	cmp	r3, #0
   86c44:	f340 80e1 	ble.w	86e0a <_svfprintf_r+0x149a>
   86c48:	9a0a      	ldr	r2, [sp, #40]	; 0x28
   86c4a:	2a00      	cmp	r2, #0
   86c4c:	f040 80b0 	bne.w	86db0 <_svfprintf_r+0x1440>
   86c50:	f01b 0f01 	tst.w	fp, #1
   86c54:	f040 80ac 	bne.w	86db0 <_svfprintf_r+0x1440>
   86c58:	9308      	str	r3, [sp, #32]
   86c5a:	930e      	str	r3, [sp, #56]	; 0x38
   86c5c:	e690      	b.n	86980 <_svfprintf_r+0x1010>
   86c5e:	9b0a      	ldr	r3, [sp, #40]	; 0x28
   86c60:	940f      	str	r4, [sp, #60]	; 0x3c
   86c62:	9308      	str	r3, [sp, #32]
   86c64:	930e      	str	r3, [sp, #56]	; 0x38
   86c66:	900a      	str	r0, [sp, #40]	; 0x28
   86c68:	f8cd b01c 	str.w	fp, [sp, #28]
   86c6c:	9012      	str	r0, [sp, #72]	; 0x48
   86c6e:	f89d 7077 	ldrb.w	r7, [sp, #119]	; 0x77
   86c72:	f7fe bfa1 	b.w	85bb8 <_svfprintf_r+0x248>
   86c76:	bf00      	nop
   86c78:	00089a90 	.word	0x00089a90
   86c7c:	66666667 	.word	0x66666667
   86c80:	00089a74 	.word	0x00089a74
   86c84:	9b11      	ldr	r3, [sp, #68]	; 0x44
   86c86:	2b47      	cmp	r3, #71	; 0x47
   86c88:	f47f ae46 	bne.w	86918 <_svfprintf_r+0xfa8>
   86c8c:	f01b 0f01 	tst.w	fp, #1
   86c90:	f47f aeda 	bne.w	86a48 <_svfprintf_r+0x10d8>
   86c94:	9b23      	ldr	r3, [sp, #140]	; 0x8c
   86c96:	1b9b      	subs	r3, r3, r6
   86c98:	9313      	str	r3, [sp, #76]	; 0x4c
   86c9a:	9b0e      	ldr	r3, [sp, #56]	; 0x38
   86c9c:	2b47      	cmp	r3, #71	; 0x47
   86c9e:	f43f aef7 	beq.w	86a90 <_svfprintf_r+0x1120>
   86ca2:	9b1f      	ldr	r3, [sp, #124]	; 0x7c
   86ca4:	9312      	str	r3, [sp, #72]	; 0x48
   86ca6:	e700      	b.n	86aaa <_svfprintf_r+0x113a>
   86ca8:	2000      	movs	r0, #0
   86caa:	900a      	str	r0, [sp, #40]	; 0x28
   86cac:	f7fe bebc 	b.w	85a28 <_svfprintf_r+0xb8>
   86cb0:	424f      	negs	r7, r1
   86cb2:	3110      	adds	r1, #16
   86cb4:	da35      	bge.n	86d22 <_svfprintf_r+0x13b2>
   86cb6:	2410      	movs	r4, #16
   86cb8:	4d6a      	ldr	r5, [pc, #424]	; (86e64 <_svfprintf_r+0x14f4>)
   86cba:	f8dd b030 	ldr.w	fp, [sp, #48]	; 0x30
   86cbe:	e004      	b.n	86cca <_svfprintf_r+0x135a>
   86cc0:	f108 0808 	add.w	r8, r8, #8
   86cc4:	3f10      	subs	r7, #16
   86cc6:	2f10      	cmp	r7, #16
   86cc8:	dd2c      	ble.n	86d24 <_svfprintf_r+0x13b4>
   86cca:	3301      	adds	r3, #1
   86ccc:	3210      	adds	r2, #16
   86cce:	2b07      	cmp	r3, #7
   86cd0:	9227      	str	r2, [sp, #156]	; 0x9c
   86cd2:	9326      	str	r3, [sp, #152]	; 0x98
   86cd4:	f8c8 5000 	str.w	r5, [r8]
   86cd8:	f8c8 4004 	str.w	r4, [r8, #4]
   86cdc:	ddf0      	ble.n	86cc0 <_svfprintf_r+0x1350>
   86cde:	aa25      	add	r2, sp, #148	; 0x94
   86ce0:	990b      	ldr	r1, [sp, #44]	; 0x2c
   86ce2:	4658      	mov	r0, fp
   86ce4:	f001 ff2e 	bl	88b44 <__ssprint_r>
   86ce8:	2800      	cmp	r0, #0
   86cea:	f47e af1e 	bne.w	85b2a <_svfprintf_r+0x1ba>
   86cee:	46c8      	mov	r8, r9
   86cf0:	9a27      	ldr	r2, [sp, #156]	; 0x9c
   86cf2:	9b26      	ldr	r3, [sp, #152]	; 0x98
   86cf4:	e7e6      	b.n	86cc4 <_svfprintf_r+0x1354>
   86cf6:	aa25      	add	r2, sp, #148	; 0x94
   86cf8:	990b      	ldr	r1, [sp, #44]	; 0x2c
   86cfa:	980c      	ldr	r0, [sp, #48]	; 0x30
   86cfc:	f001 ff22 	bl	88b44 <__ssprint_r>
   86d00:	2800      	cmp	r0, #0
   86d02:	f47e af12 	bne.w	85b2a <_svfprintf_r+0x1ba>
   86d06:	46c8      	mov	r8, r9
   86d08:	991f      	ldr	r1, [sp, #124]	; 0x7c
   86d0a:	9a27      	ldr	r2, [sp, #156]	; 0x9c
   86d0c:	9b26      	ldr	r3, [sp, #152]	; 0x98
   86d0e:	f7ff bbc3 	b.w	86498 <_svfprintf_r+0xb28>
   86d12:	2230      	movs	r2, #48	; 0x30
   86d14:	4413      	add	r3, r2
   86d16:	f88d 3087 	strb.w	r3, [sp, #135]	; 0x87
   86d1a:	f88d 2086 	strb.w	r2, [sp, #134]	; 0x86
   86d1e:	ab22      	add	r3, sp, #136	; 0x88
   86d20:	e706      	b.n	86b30 <_svfprintf_r+0x11c0>
   86d22:	4d50      	ldr	r5, [pc, #320]	; (86e64 <_svfprintf_r+0x14f4>)
   86d24:	3301      	adds	r3, #1
   86d26:	443a      	add	r2, r7
   86d28:	2b07      	cmp	r3, #7
   86d2a:	e888 00a0 	stmia.w	r8, {r5, r7}
   86d2e:	9227      	str	r2, [sp, #156]	; 0x9c
   86d30:	9326      	str	r3, [sp, #152]	; 0x98
   86d32:	f108 0808 	add.w	r8, r8, #8
   86d36:	f77f abb2 	ble.w	8649e <_svfprintf_r+0xb2e>
   86d3a:	aa25      	add	r2, sp, #148	; 0x94
   86d3c:	990b      	ldr	r1, [sp, #44]	; 0x2c
   86d3e:	980c      	ldr	r0, [sp, #48]	; 0x30
   86d40:	f001 ff00 	bl	88b44 <__ssprint_r>
   86d44:	2800      	cmp	r0, #0
   86d46:	f47e aef0 	bne.w	85b2a <_svfprintf_r+0x1ba>
   86d4a:	46c8      	mov	r8, r9
   86d4c:	9a27      	ldr	r2, [sp, #156]	; 0x9c
   86d4e:	9b26      	ldr	r3, [sp, #152]	; 0x98
   86d50:	f7ff bba5 	b.w	8649e <_svfprintf_r+0xb2e>
   86d54:	9b12      	ldr	r3, [sp, #72]	; 0x48
   86d56:	9a19      	ldr	r2, [sp, #100]	; 0x64
   86d58:	4413      	add	r3, r2
   86d5a:	930e      	str	r3, [sp, #56]	; 0x38
   86d5c:	e76b      	b.n	86c36 <_svfprintf_r+0x12c6>
   86d5e:	9b23      	ldr	r3, [sp, #140]	; 0x8c
   86d60:	e5ee      	b.n	86940 <_svfprintf_r+0xfd0>
   86d62:	9b26      	ldr	r3, [sp, #152]	; 0x98
   86d64:	4d3f      	ldr	r5, [pc, #252]	; (86e64 <_svfprintf_r+0x14f4>)
   86d66:	e4bb      	b.n	866e0 <_svfprintf_r+0xd70>
   86d68:	9a16      	ldr	r2, [sp, #88]	; 0x58
   86d6a:	9808      	ldr	r0, [sp, #32]
   86d6c:	9b17      	ldr	r3, [sp, #92]	; 0x5c
   86d6e:	4639      	mov	r1, r7
   86d70:	f002 fbc0 	bl	894f4 <__aeabi_dcmpeq>
   86d74:	2800      	cmp	r0, #0
   86d76:	f47f ae70 	bne.w	86a5a <_svfprintf_r+0x10ea>
   86d7a:	f1c5 0501 	rsb	r5, r5, #1
   86d7e:	951f      	str	r5, [sp, #124]	; 0x7c
   86d80:	442c      	add	r4, r5
   86d82:	e5ca      	b.n	8691a <_svfprintf_r+0xfaa>
   86d84:	9b14      	ldr	r3, [sp, #80]	; 0x50
   86d86:	4e38      	ldr	r6, [pc, #224]	; (86e68 <_svfprintf_r+0x14f8>)
   86d88:	2b00      	cmp	r3, #0
   86d8a:	bfbe      	ittt	lt
   86d8c:	232d      	movlt	r3, #45	; 0x2d
   86d8e:	461f      	movlt	r7, r3
   86d90:	f88d 3077 	strblt.w	r3, [sp, #119]	; 0x77
   86d94:	f04f 0303 	mov.w	r3, #3
   86d98:	461a      	mov	r2, r3
   86d9a:	9308      	str	r3, [sp, #32]
   86d9c:	f04f 0300 	mov.w	r3, #0
   86da0:	bfa8      	it	ge
   86da2:	f89d 7077 	ldrbge.w	r7, [sp, #119]	; 0x77
   86da6:	4619      	mov	r1, r3
   86da8:	930a      	str	r3, [sp, #40]	; 0x28
   86daa:	4b30      	ldr	r3, [pc, #192]	; (86e6c <_svfprintf_r+0x14fc>)
   86dac:	f7ff b954 	b.w	86058 <_svfprintf_r+0x6e8>
   86db0:	9b12      	ldr	r3, [sp, #72]	; 0x48
   86db2:	9a19      	ldr	r2, [sp, #100]	; 0x64
   86db4:	4413      	add	r3, r2
   86db6:	9a0a      	ldr	r2, [sp, #40]	; 0x28
   86db8:	441a      	add	r2, r3
   86dba:	ea22 73e2 	bic.w	r3, r2, r2, asr #31
   86dbe:	920e      	str	r2, [sp, #56]	; 0x38
   86dc0:	9308      	str	r3, [sp, #32]
   86dc2:	e5dd      	b.n	86980 <_svfprintf_r+0x1010>
   86dc4:	9b12      	ldr	r3, [sp, #72]	; 0x48
   86dc6:	9a0e      	ldr	r2, [sp, #56]	; 0x38
   86dc8:	f1c3 0301 	rsb	r3, r3, #1
   86dcc:	441a      	add	r2, r3
   86dce:	4613      	mov	r3, r2
   86dd0:	e7c3      	b.n	86d5a <_svfprintf_r+0x13ea>
   86dd2:	f01b 0301 	ands.w	r3, fp, #1
   86dd6:	9312      	str	r3, [sp, #72]	; 0x48
   86dd8:	f47f aeb3 	bne.w	86b42 <_svfprintf_r+0x11d2>
   86ddc:	9b0e      	ldr	r3, [sp, #56]	; 0x38
   86dde:	ea23 73e3 	bic.w	r3, r3, r3, asr #31
   86de2:	9308      	str	r3, [sp, #32]
   86de4:	e5cc      	b.n	86980 <_svfprintf_r+0x1010>
   86de6:	4d1f      	ldr	r5, [pc, #124]	; (86e64 <_svfprintf_r+0x14f4>)
   86de8:	e43c      	b.n	86664 <_svfprintf_r+0xcf4>
   86dea:	9b26      	ldr	r3, [sp, #152]	; 0x98
   86dec:	4d1d      	ldr	r5, [pc, #116]	; (86e64 <_svfprintf_r+0x14f4>)
   86dee:	e491      	b.n	86714 <_svfprintf_r+0xda4>
   86df0:	9d0f      	ldr	r5, [sp, #60]	; 0x3c
   86df2:	f89a 3001 	ldrb.w	r3, [sl, #1]
   86df6:	6828      	ldr	r0, [r5, #0]
   86df8:	46a2      	mov	sl, r4
   86dfa:	ea40 70e0 	orr.w	r0, r0, r0, asr #31
   86dfe:	900a      	str	r0, [sp, #40]	; 0x28
   86e00:	4628      	mov	r0, r5
   86e02:	3004      	adds	r0, #4
   86e04:	900f      	str	r0, [sp, #60]	; 0x3c
   86e06:	f7fe be0d 	b.w	85a24 <_svfprintf_r+0xb4>
   86e0a:	9b0a      	ldr	r3, [sp, #40]	; 0x28
   86e0c:	b913      	cbnz	r3, 86e14 <_svfprintf_r+0x14a4>
   86e0e:	f01b 0f01 	tst.w	fp, #1
   86e12:	d002      	beq.n	86e1a <_svfprintf_r+0x14aa>
   86e14:	9b19      	ldr	r3, [sp, #100]	; 0x64
   86e16:	3301      	adds	r3, #1
   86e18:	e7cd      	b.n	86db6 <_svfprintf_r+0x1446>
   86e1a:	2301      	movs	r3, #1
   86e1c:	e71c      	b.n	86c58 <_svfprintf_r+0x12e8>
   86e1e:	f88d 1077 	strb.w	r1, [sp, #119]	; 0x77
   86e22:	f7ff b980 	b.w	86126 <_svfprintf_r+0x7b6>
   86e26:	f88d 1077 	strb.w	r1, [sp, #119]	; 0x77
   86e2a:	f7ff b93a 	b.w	860a2 <_svfprintf_r+0x732>
   86e2e:	f88d 1077 	strb.w	r1, [sp, #119]	; 0x77
   86e32:	f7ff b84f 	b.w	85ed4 <_svfprintf_r+0x564>
   86e36:	f10d 0386 	add.w	r3, sp, #134	; 0x86
   86e3a:	e679      	b.n	86b30 <_svfprintf_r+0x11c0>
   86e3c:	f88d 1077 	strb.w	r1, [sp, #119]	; 0x77
   86e40:	f7ff b9b2 	b.w	861a8 <_svfprintf_r+0x838>
   86e44:	f04f 32ff 	mov.w	r2, #4294967295
   86e48:	230c      	movs	r3, #12
   86e4a:	9209      	str	r2, [sp, #36]	; 0x24
   86e4c:	9a0c      	ldr	r2, [sp, #48]	; 0x30
   86e4e:	6013      	str	r3, [r2, #0]
   86e50:	f7fe be74 	b.w	85b3c <_svfprintf_r+0x1cc>
   86e54:	f88d 1077 	strb.w	r1, [sp, #119]	; 0x77
   86e58:	f7ff b8c4 	b.w	85fe4 <_svfprintf_r+0x674>
   86e5c:	f88d 1077 	strb.w	r1, [sp, #119]	; 0x77
   86e60:	f7ff b878 	b.w	85f54 <_svfprintf_r+0x5e4>
   86e64:	00089a90 	.word	0x00089a90
   86e68:	00089a48 	.word	0x00089a48
   86e6c:	00089a44 	.word	0x00089a44

00086e70 <register_fini>:
   86e70:	4b02      	ldr	r3, [pc, #8]	; (86e7c <register_fini+0xc>)
   86e72:	b113      	cbz	r3, 86e7a <register_fini+0xa>
   86e74:	4802      	ldr	r0, [pc, #8]	; (86e80 <register_fini+0x10>)
   86e76:	f000 b805 	b.w	86e84 <atexit>
   86e7a:	4770      	bx	lr
   86e7c:	00000000 	.word	0x00000000
   86e80:	00087dfd 	.word	0x00087dfd

00086e84 <atexit>:
   86e84:	2300      	movs	r3, #0
   86e86:	4601      	mov	r1, r0
   86e88:	461a      	mov	r2, r3
   86e8a:	4618      	mov	r0, r3
   86e8c:	f001 bed8 	b.w	88c40 <__register_exitproc>

00086e90 <quorem>:
   86e90:	e92d 4ff0 	stmdb	sp!, {r4, r5, r6, r7, r8, r9, sl, fp, lr}
   86e94:	6903      	ldr	r3, [r0, #16]
   86e96:	690f      	ldr	r7, [r1, #16]
   86e98:	b083      	sub	sp, #12
   86e9a:	429f      	cmp	r7, r3
   86e9c:	f300 8088 	bgt.w	86fb0 <quorem+0x120>
   86ea0:	3f01      	subs	r7, #1
   86ea2:	f101 0614 	add.w	r6, r1, #20
   86ea6:	f100 0a14 	add.w	sl, r0, #20
   86eaa:	f856 3027 	ldr.w	r3, [r6, r7, lsl #2]
   86eae:	f85a 2027 	ldr.w	r2, [sl, r7, lsl #2]
   86eb2:	3301      	adds	r3, #1
   86eb4:	fbb2 f8f3 	udiv	r8, r2, r3
   86eb8:	00bb      	lsls	r3, r7, #2
   86eba:	9300      	str	r3, [sp, #0]
   86ebc:	eb06 0903 	add.w	r9, r6, r3
   86ec0:	4453      	add	r3, sl
   86ec2:	9301      	str	r3, [sp, #4]
   86ec4:	f1b8 0f00 	cmp.w	r8, #0
   86ec8:	d03b      	beq.n	86f42 <quorem+0xb2>
   86eca:	2300      	movs	r3, #0
   86ecc:	46b4      	mov	ip, r6
   86ece:	461c      	mov	r4, r3
   86ed0:	46d6      	mov	lr, sl
   86ed2:	f85c 2b04 	ldr.w	r2, [ip], #4
   86ed6:	f8de 5000 	ldr.w	r5, [lr]
   86eda:	fa1f fb82 	uxth.w	fp, r2
   86ede:	fb08 330b 	mla	r3, r8, fp, r3
   86ee2:	0c12      	lsrs	r2, r2, #16
   86ee4:	ea4f 4b13 	mov.w	fp, r3, lsr #16
   86ee8:	fb08 bb02 	mla	fp, r8, r2, fp
   86eec:	b29a      	uxth	r2, r3
   86eee:	1aa2      	subs	r2, r4, r2
   86ef0:	b2ab      	uxth	r3, r5
   86ef2:	fa1f f48b 	uxth.w	r4, fp
   86ef6:	441a      	add	r2, r3
   86ef8:	ebc4 4415 	rsb	r4, r4, r5, lsr #16
   86efc:	eb04 4422 	add.w	r4, r4, r2, asr #16
   86f00:	b292      	uxth	r2, r2
   86f02:	ea42 4204 	orr.w	r2, r2, r4, lsl #16
   86f06:	45e1      	cmp	r9, ip
   86f08:	f84e 2b04 	str.w	r2, [lr], #4
   86f0c:	ea4f 4424 	mov.w	r4, r4, asr #16
   86f10:	ea4f 431b 	mov.w	r3, fp, lsr #16
   86f14:	d2dd      	bcs.n	86ed2 <quorem+0x42>
   86f16:	9b00      	ldr	r3, [sp, #0]
   86f18:	f85a 3003 	ldr.w	r3, [sl, r3]
   86f1c:	b98b      	cbnz	r3, 86f42 <quorem+0xb2>
   86f1e:	9c01      	ldr	r4, [sp, #4]
   86f20:	1f23      	subs	r3, r4, #4
   86f22:	459a      	cmp	sl, r3
   86f24:	d20c      	bcs.n	86f40 <quorem+0xb0>
   86f26:	f854 3c04 	ldr.w	r3, [r4, #-4]
   86f2a:	b94b      	cbnz	r3, 86f40 <quorem+0xb0>
   86f2c:	f1a4 0308 	sub.w	r3, r4, #8
   86f30:	e002      	b.n	86f38 <quorem+0xa8>
   86f32:	681a      	ldr	r2, [r3, #0]
   86f34:	3b04      	subs	r3, #4
   86f36:	b91a      	cbnz	r2, 86f40 <quorem+0xb0>
   86f38:	459a      	cmp	sl, r3
   86f3a:	f107 37ff 	add.w	r7, r7, #4294967295
   86f3e:	d3f8      	bcc.n	86f32 <quorem+0xa2>
   86f40:	6107      	str	r7, [r0, #16]
   86f42:	4604      	mov	r4, r0
   86f44:	f001 fcee 	bl	88924 <__mcmp>
   86f48:	2800      	cmp	r0, #0
   86f4a:	db2d      	blt.n	86fa8 <quorem+0x118>
   86f4c:	4655      	mov	r5, sl
   86f4e:	2300      	movs	r3, #0
   86f50:	f108 0801 	add.w	r8, r8, #1
   86f54:	f856 1b04 	ldr.w	r1, [r6], #4
   86f58:	6828      	ldr	r0, [r5, #0]
   86f5a:	b28a      	uxth	r2, r1
   86f5c:	1a9a      	subs	r2, r3, r2
   86f5e:	0c0b      	lsrs	r3, r1, #16
   86f60:	b281      	uxth	r1, r0
   86f62:	440a      	add	r2, r1
   86f64:	ebc3 4310 	rsb	r3, r3, r0, lsr #16
   86f68:	eb03 4322 	add.w	r3, r3, r2, asr #16
   86f6c:	b292      	uxth	r2, r2
   86f6e:	ea42 4203 	orr.w	r2, r2, r3, lsl #16
   86f72:	45b1      	cmp	r9, r6
   86f74:	f845 2b04 	str.w	r2, [r5], #4
   86f78:	ea4f 4323 	mov.w	r3, r3, asr #16
   86f7c:	d2ea      	bcs.n	86f54 <quorem+0xc4>
   86f7e:	f85a 2027 	ldr.w	r2, [sl, r7, lsl #2]
   86f82:	eb0a 0387 	add.w	r3, sl, r7, lsl #2
   86f86:	b97a      	cbnz	r2, 86fa8 <quorem+0x118>
   86f88:	1f1a      	subs	r2, r3, #4
   86f8a:	4592      	cmp	sl, r2
   86f8c:	d20b      	bcs.n	86fa6 <quorem+0x116>
   86f8e:	f853 2c04 	ldr.w	r2, [r3, #-4]
   86f92:	b942      	cbnz	r2, 86fa6 <quorem+0x116>
   86f94:	3b08      	subs	r3, #8
   86f96:	e002      	b.n	86f9e <quorem+0x10e>
   86f98:	681a      	ldr	r2, [r3, #0]
   86f9a:	3b04      	subs	r3, #4
   86f9c:	b91a      	cbnz	r2, 86fa6 <quorem+0x116>
   86f9e:	459a      	cmp	sl, r3
   86fa0:	f107 37ff 	add.w	r7, r7, #4294967295
   86fa4:	d3f8      	bcc.n	86f98 <quorem+0x108>
   86fa6:	6127      	str	r7, [r4, #16]
   86fa8:	4640      	mov	r0, r8
   86faa:	b003      	add	sp, #12
   86fac:	e8bd 8ff0 	ldmia.w	sp!, {r4, r5, r6, r7, r8, r9, sl, fp, pc}
   86fb0:	2000      	movs	r0, #0
   86fb2:	b003      	add	sp, #12
   86fb4:	e8bd 8ff0 	ldmia.w	sp!, {r4, r5, r6, r7, r8, r9, sl, fp, pc}

00086fb8 <_dtoa_r>:
   86fb8:	e92d 4ff0 	stmdb	sp!, {r4, r5, r6, r7, r8, r9, sl, fp, lr}
   86fbc:	6c05      	ldr	r5, [r0, #64]	; 0x40
   86fbe:	b09b      	sub	sp, #108	; 0x6c
   86fc0:	4604      	mov	r4, r0
   86fc2:	4692      	mov	sl, r2
   86fc4:	469b      	mov	fp, r3
   86fc6:	9e27      	ldr	r6, [sp, #156]	; 0x9c
   86fc8:	b14d      	cbz	r5, 86fde <_dtoa_r+0x26>
   86fca:	2301      	movs	r3, #1
   86fcc:	6c42      	ldr	r2, [r0, #68]	; 0x44
   86fce:	4629      	mov	r1, r5
   86fd0:	4093      	lsls	r3, r2
   86fd2:	60ab      	str	r3, [r5, #8]
   86fd4:	606a      	str	r2, [r5, #4]
   86fd6:	f001 facd 	bl	88574 <_Bfree>
   86fda:	2300      	movs	r3, #0
   86fdc:	6423      	str	r3, [r4, #64]	; 0x40
   86fde:	f1bb 0f00 	cmp.w	fp, #0
   86fe2:	465d      	mov	r5, fp
   86fe4:	db35      	blt.n	87052 <_dtoa_r+0x9a>
   86fe6:	2300      	movs	r3, #0
   86fe8:	6033      	str	r3, [r6, #0]
   86fea:	4b9d      	ldr	r3, [pc, #628]	; (87260 <_dtoa_r+0x2a8>)
   86fec:	43ab      	bics	r3, r5
   86fee:	d015      	beq.n	8701c <_dtoa_r+0x64>
   86ff0:	2200      	movs	r2, #0
   86ff2:	2300      	movs	r3, #0
   86ff4:	4650      	mov	r0, sl
   86ff6:	4659      	mov	r1, fp
   86ff8:	f002 fa7c 	bl	894f4 <__aeabi_dcmpeq>
   86ffc:	4680      	mov	r8, r0
   86ffe:	2800      	cmp	r0, #0
   87000:	d02d      	beq.n	8705e <_dtoa_r+0xa6>
   87002:	2301      	movs	r3, #1
   87004:	9a26      	ldr	r2, [sp, #152]	; 0x98
   87006:	6013      	str	r3, [r2, #0]
   87008:	9b28      	ldr	r3, [sp, #160]	; 0xa0
   8700a:	2b00      	cmp	r3, #0
   8700c:	f000 80bd 	beq.w	8718a <_dtoa_r+0x1d2>
   87010:	4894      	ldr	r0, [pc, #592]	; (87264 <_dtoa_r+0x2ac>)
   87012:	6018      	str	r0, [r3, #0]
   87014:	3801      	subs	r0, #1
   87016:	b01b      	add	sp, #108	; 0x6c
   87018:	e8bd 8ff0 	ldmia.w	sp!, {r4, r5, r6, r7, r8, r9, sl, fp, pc}
   8701c:	f242 730f 	movw	r3, #9999	; 0x270f
   87020:	9a26      	ldr	r2, [sp, #152]	; 0x98
   87022:	6013      	str	r3, [r2, #0]
   87024:	f1ba 0f00 	cmp.w	sl, #0
   87028:	d10d      	bne.n	87046 <_dtoa_r+0x8e>
   8702a:	f3c5 0513 	ubfx	r5, r5, #0, #20
   8702e:	b955      	cbnz	r5, 87046 <_dtoa_r+0x8e>
   87030:	9b28      	ldr	r3, [sp, #160]	; 0xa0
   87032:	488d      	ldr	r0, [pc, #564]	; (87268 <_dtoa_r+0x2b0>)
   87034:	2b00      	cmp	r3, #0
   87036:	d0ee      	beq.n	87016 <_dtoa_r+0x5e>
   87038:	f100 0308 	add.w	r3, r0, #8
   8703c:	9a28      	ldr	r2, [sp, #160]	; 0xa0
   8703e:	6013      	str	r3, [r2, #0]
   87040:	b01b      	add	sp, #108	; 0x6c
   87042:	e8bd 8ff0 	ldmia.w	sp!, {r4, r5, r6, r7, r8, r9, sl, fp, pc}
   87046:	9b28      	ldr	r3, [sp, #160]	; 0xa0
   87048:	4888      	ldr	r0, [pc, #544]	; (8726c <_dtoa_r+0x2b4>)
   8704a:	2b00      	cmp	r3, #0
   8704c:	d0e3      	beq.n	87016 <_dtoa_r+0x5e>
   8704e:	1cc3      	adds	r3, r0, #3
   87050:	e7f4      	b.n	8703c <_dtoa_r+0x84>
   87052:	2301      	movs	r3, #1
   87054:	f02b 4500 	bic.w	r5, fp, #2147483648	; 0x80000000
   87058:	6033      	str	r3, [r6, #0]
   8705a:	46ab      	mov	fp, r5
   8705c:	e7c5      	b.n	86fea <_dtoa_r+0x32>
   8705e:	aa18      	add	r2, sp, #96	; 0x60
   87060:	ab19      	add	r3, sp, #100	; 0x64
   87062:	9201      	str	r2, [sp, #4]
   87064:	9300      	str	r3, [sp, #0]
   87066:	4652      	mov	r2, sl
   87068:	465b      	mov	r3, fp
   8706a:	4620      	mov	r0, r4
   8706c:	f001 fd04 	bl	88a78 <__d2b>
   87070:	0d2b      	lsrs	r3, r5, #20
   87072:	4681      	mov	r9, r0
   87074:	d071      	beq.n	8715a <_dtoa_r+0x1a2>
   87076:	4650      	mov	r0, sl
   87078:	f3cb 0213 	ubfx	r2, fp, #0, #20
   8707c:	f042 517f 	orr.w	r1, r2, #1069547520	; 0x3fc00000
   87080:	9f18      	ldr	r7, [sp, #96]	; 0x60
   87082:	f2a3 36ff 	subw	r6, r3, #1023	; 0x3ff
   87086:	f8cd 8050 	str.w	r8, [sp, #80]	; 0x50
   8708a:	f441 1140 	orr.w	r1, r1, #3145728	; 0x300000
   8708e:	2200      	movs	r2, #0
   87090:	4b77      	ldr	r3, [pc, #476]	; (87270 <_dtoa_r+0x2b8>)
   87092:	f7fd fce3 	bl	84a5c <__aeabi_dsub>
   87096:	a36c      	add	r3, pc, #432	; (adr r3, 87248 <_dtoa_r+0x290>)
   87098:	e9d3 2300 	ldrd	r2, r3, [r3]
   8709c:	f7fd fe92 	bl	84dc4 <__aeabi_dmul>
   870a0:	a36b      	add	r3, pc, #428	; (adr r3, 87250 <_dtoa_r+0x298>)
   870a2:	e9d3 2300 	ldrd	r2, r3, [r3]
   870a6:	f7fd fcdb 	bl	84a60 <__adddf3>
   870aa:	e9cd 0102 	strd	r0, r1, [sp, #8]
   870ae:	4630      	mov	r0, r6
   870b0:	f7fd fe22 	bl	84cf8 <__aeabi_i2d>
   870b4:	a368      	add	r3, pc, #416	; (adr r3, 87258 <_dtoa_r+0x2a0>)
   870b6:	e9d3 2300 	ldrd	r2, r3, [r3]
   870ba:	f7fd fe83 	bl	84dc4 <__aeabi_dmul>
   870be:	4602      	mov	r2, r0
   870c0:	460b      	mov	r3, r1
   870c2:	e9dd 0102 	ldrd	r0, r1, [sp, #8]
   870c6:	f7fd fccb 	bl	84a60 <__adddf3>
   870ca:	e9cd 0104 	strd	r0, r1, [sp, #16]
   870ce:	f002 fa59 	bl	89584 <__aeabi_d2iz>
   870d2:	2200      	movs	r2, #0
   870d4:	9002      	str	r0, [sp, #8]
   870d6:	2300      	movs	r3, #0
   870d8:	e9dd 0104 	ldrd	r0, r1, [sp, #16]
   870dc:	f002 fa14 	bl	89508 <__aeabi_dcmplt>
   870e0:	2800      	cmp	r0, #0
   870e2:	f040 816d 	bne.w	873c0 <_dtoa_r+0x408>
   870e6:	9d02      	ldr	r5, [sp, #8]
   870e8:	2d16      	cmp	r5, #22
   870ea:	f200 8157 	bhi.w	8739c <_dtoa_r+0x3e4>
   870ee:	4961      	ldr	r1, [pc, #388]	; (87274 <_dtoa_r+0x2bc>)
   870f0:	4652      	mov	r2, sl
   870f2:	eb01 01c5 	add.w	r1, r1, r5, lsl #3
   870f6:	465b      	mov	r3, fp
   870f8:	e9d1 0100 	ldrd	r0, r1, [r1]
   870fc:	f002 fa22 	bl	89544 <__aeabi_dcmpgt>
   87100:	2800      	cmp	r0, #0
   87102:	f000 81be 	beq.w	87482 <_dtoa_r+0x4ca>
   87106:	1e6b      	subs	r3, r5, #1
   87108:	9302      	str	r3, [sp, #8]
   8710a:	2300      	movs	r3, #0
   8710c:	930e      	str	r3, [sp, #56]	; 0x38
   8710e:	1bbf      	subs	r7, r7, r6
   87110:	1e7b      	subs	r3, r7, #1
   87112:	9308      	str	r3, [sp, #32]
   87114:	f100 814e 	bmi.w	873b4 <_dtoa_r+0x3fc>
   87118:	2300      	movs	r3, #0
   8711a:	930a      	str	r3, [sp, #40]	; 0x28
   8711c:	9b02      	ldr	r3, [sp, #8]
   8711e:	2b00      	cmp	r3, #0
   87120:	f2c0 813f 	blt.w	873a2 <_dtoa_r+0x3ea>
   87124:	9a08      	ldr	r2, [sp, #32]
   87126:	930d      	str	r3, [sp, #52]	; 0x34
   87128:	4611      	mov	r1, r2
   8712a:	4419      	add	r1, r3
   8712c:	2300      	movs	r3, #0
   8712e:	9108      	str	r1, [sp, #32]
   87130:	930c      	str	r3, [sp, #48]	; 0x30
   87132:	9b24      	ldr	r3, [sp, #144]	; 0x90
   87134:	2b09      	cmp	r3, #9
   87136:	d82a      	bhi.n	8718e <_dtoa_r+0x1d6>
   87138:	2b05      	cmp	r3, #5
   8713a:	f340 8658 	ble.w	87dee <_dtoa_r+0xe36>
   8713e:	2500      	movs	r5, #0
   87140:	3b04      	subs	r3, #4
   87142:	9324      	str	r3, [sp, #144]	; 0x90
   87144:	9b24      	ldr	r3, [sp, #144]	; 0x90
   87146:	3b02      	subs	r3, #2
   87148:	2b03      	cmp	r3, #3
   8714a:	f200 863f 	bhi.w	87dcc <_dtoa_r+0xe14>
   8714e:	e8df f013 	tbh	[pc, r3, lsl #1]
   87152:	03ce      	.short	0x03ce
   87154:	03d902c3 	.word	0x03d902c3
   87158:	045b      	.short	0x045b
   8715a:	9f18      	ldr	r7, [sp, #96]	; 0x60
   8715c:	9e19      	ldr	r6, [sp, #100]	; 0x64
   8715e:	443e      	add	r6, r7
   87160:	f206 4332 	addw	r3, r6, #1074	; 0x432
   87164:	2b20      	cmp	r3, #32
   87166:	f340 8187 	ble.w	87478 <_dtoa_r+0x4c0>
   8716a:	f1c3 0340 	rsb	r3, r3, #64	; 0x40
   8716e:	f206 4012 	addw	r0, r6, #1042	; 0x412
   87172:	409d      	lsls	r5, r3
   87174:	fa2a f000 	lsr.w	r0, sl, r0
   87178:	4328      	orrs	r0, r5
   8717a:	f7fd fdad 	bl	84cd8 <__aeabi_ui2d>
   8717e:	2301      	movs	r3, #1
   87180:	3e01      	subs	r6, #1
   87182:	9314      	str	r3, [sp, #80]	; 0x50
   87184:	f1a1 71f8 	sub.w	r1, r1, #32505856	; 0x1f00000
   87188:	e781      	b.n	8708e <_dtoa_r+0xd6>
   8718a:	483b      	ldr	r0, [pc, #236]	; (87278 <_dtoa_r+0x2c0>)
   8718c:	e743      	b.n	87016 <_dtoa_r+0x5e>
   8718e:	2100      	movs	r1, #0
   87190:	4620      	mov	r0, r4
   87192:	6461      	str	r1, [r4, #68]	; 0x44
   87194:	9125      	str	r1, [sp, #148]	; 0x94
   87196:	f001 f9c7 	bl	88528 <_Balloc>
   8719a:	f04f 33ff 	mov.w	r3, #4294967295
   8719e:	9307      	str	r3, [sp, #28]
   871a0:	930f      	str	r3, [sp, #60]	; 0x3c
   871a2:	2301      	movs	r3, #1
   871a4:	9a25      	ldr	r2, [sp, #148]	; 0x94
   871a6:	9004      	str	r0, [sp, #16]
   871a8:	6420      	str	r0, [r4, #64]	; 0x40
   871aa:	9224      	str	r2, [sp, #144]	; 0x90
   871ac:	930b      	str	r3, [sp, #44]	; 0x2c
   871ae:	9b19      	ldr	r3, [sp, #100]	; 0x64
   871b0:	2b00      	cmp	r3, #0
   871b2:	f2c0 80d3 	blt.w	8735c <_dtoa_r+0x3a4>
   871b6:	9a02      	ldr	r2, [sp, #8]
   871b8:	2a0e      	cmp	r2, #14
   871ba:	f300 80cf 	bgt.w	8735c <_dtoa_r+0x3a4>
   871be:	4b2d      	ldr	r3, [pc, #180]	; (87274 <_dtoa_r+0x2bc>)
   871c0:	eb03 03c2 	add.w	r3, r3, r2, lsl #3
   871c4:	e9d3 2300 	ldrd	r2, r3, [r3]
   871c8:	e9cd 2308 	strd	r2, r3, [sp, #32]
   871cc:	9b25      	ldr	r3, [sp, #148]	; 0x94
   871ce:	2b00      	cmp	r3, #0
   871d0:	f2c0 83b4 	blt.w	8793c <_dtoa_r+0x984>
   871d4:	e9dd 5608 	ldrd	r5, r6, [sp, #32]
   871d8:	4650      	mov	r0, sl
   871da:	462a      	mov	r2, r5
   871dc:	4633      	mov	r3, r6
   871de:	4659      	mov	r1, fp
   871e0:	f7fd ff1a 	bl	85018 <__aeabi_ddiv>
   871e4:	f002 f9ce 	bl	89584 <__aeabi_d2iz>
   871e8:	4680      	mov	r8, r0
   871ea:	f7fd fd85 	bl	84cf8 <__aeabi_i2d>
   871ee:	462a      	mov	r2, r5
   871f0:	4633      	mov	r3, r6
   871f2:	f7fd fde7 	bl	84dc4 <__aeabi_dmul>
   871f6:	4602      	mov	r2, r0
   871f8:	460b      	mov	r3, r1
   871fa:	4650      	mov	r0, sl
   871fc:	4659      	mov	r1, fp
   871fe:	f7fd fc2d 	bl	84a5c <__aeabi_dsub>
   87202:	9e07      	ldr	r6, [sp, #28]
   87204:	9f04      	ldr	r7, [sp, #16]
   87206:	f108 0530 	add.w	r5, r8, #48	; 0x30
   8720a:	2e01      	cmp	r6, #1
   8720c:	703d      	strb	r5, [r7, #0]
   8720e:	4602      	mov	r2, r0
   87210:	460b      	mov	r3, r1
   87212:	f107 0501 	add.w	r5, r7, #1
   87216:	d064      	beq.n	872e2 <_dtoa_r+0x32a>
   87218:	2200      	movs	r2, #0
   8721a:	4b18      	ldr	r3, [pc, #96]	; (8727c <_dtoa_r+0x2c4>)
   8721c:	f7fd fdd2 	bl	84dc4 <__aeabi_dmul>
   87220:	2200      	movs	r2, #0
   87222:	2300      	movs	r3, #0
   87224:	4606      	mov	r6, r0
   87226:	460f      	mov	r7, r1
   87228:	f002 f964 	bl	894f4 <__aeabi_dcmpeq>
   8722c:	2800      	cmp	r0, #0
   8722e:	f040 8082 	bne.w	87336 <_dtoa_r+0x37e>
   87232:	f8cd 9028 	str.w	r9, [sp, #40]	; 0x28
   87236:	f04f 0a00 	mov.w	sl, #0
   8723a:	e9dd 8908 	ldrd	r8, r9, [sp, #32]
   8723e:	f04f 0b00 	mov.w	fp, #0
   87242:	940b      	str	r4, [sp, #44]	; 0x2c
   87244:	e029      	b.n	8729a <_dtoa_r+0x2e2>
   87246:	bf00      	nop
   87248:	636f4361 	.word	0x636f4361
   8724c:	3fd287a7 	.word	0x3fd287a7
   87250:	8b60c8b3 	.word	0x8b60c8b3
   87254:	3fc68a28 	.word	0x3fc68a28
   87258:	509f79fb 	.word	0x509f79fb
   8725c:	3fd34413 	.word	0x3fd34413
   87260:	7ff00000 	.word	0x7ff00000
   87264:	00089a7d 	.word	0x00089a7d
   87268:	00089aa0 	.word	0x00089aa0
   8726c:	00089aac 	.word	0x00089aac
   87270:	3ff80000 	.word	0x3ff80000
   87274:	00089ad8 	.word	0x00089ad8
   87278:	00089a7c 	.word	0x00089a7c
   8727c:	40240000 	.word	0x40240000
   87280:	2200      	movs	r2, #0
   87282:	4b81      	ldr	r3, [pc, #516]	; (87488 <_dtoa_r+0x4d0>)
   87284:	f7fd fd9e 	bl	84dc4 <__aeabi_dmul>
   87288:	4652      	mov	r2, sl
   8728a:	465b      	mov	r3, fp
   8728c:	4606      	mov	r6, r0
   8728e:	460f      	mov	r7, r1
   87290:	f002 f930 	bl	894f4 <__aeabi_dcmpeq>
   87294:	2800      	cmp	r0, #0
   87296:	f040 83ba 	bne.w	87a0e <_dtoa_r+0xa56>
   8729a:	4642      	mov	r2, r8
   8729c:	464b      	mov	r3, r9
   8729e:	4630      	mov	r0, r6
   872a0:	4639      	mov	r1, r7
   872a2:	f7fd feb9 	bl	85018 <__aeabi_ddiv>
   872a6:	f002 f96d 	bl	89584 <__aeabi_d2iz>
   872aa:	4604      	mov	r4, r0
   872ac:	f7fd fd24 	bl	84cf8 <__aeabi_i2d>
   872b0:	4642      	mov	r2, r8
   872b2:	464b      	mov	r3, r9
   872b4:	f7fd fd86 	bl	84dc4 <__aeabi_dmul>
   872b8:	4602      	mov	r2, r0
   872ba:	460b      	mov	r3, r1
   872bc:	4630      	mov	r0, r6
   872be:	4639      	mov	r1, r7
   872c0:	f7fd fbcc 	bl	84a5c <__aeabi_dsub>
   872c4:	f104 0630 	add.w	r6, r4, #48	; 0x30
   872c8:	f805 6b01 	strb.w	r6, [r5], #1
   872cc:	9e04      	ldr	r6, [sp, #16]
   872ce:	9f07      	ldr	r7, [sp, #28]
   872d0:	1bae      	subs	r6, r5, r6
   872d2:	42be      	cmp	r6, r7
   872d4:	4602      	mov	r2, r0
   872d6:	460b      	mov	r3, r1
   872d8:	d1d2      	bne.n	87280 <_dtoa_r+0x2c8>
   872da:	46a0      	mov	r8, r4
   872dc:	f8dd 9028 	ldr.w	r9, [sp, #40]	; 0x28
   872e0:	9c0b      	ldr	r4, [sp, #44]	; 0x2c
   872e2:	4610      	mov	r0, r2
   872e4:	4619      	mov	r1, r3
   872e6:	f7fd fbbb 	bl	84a60 <__adddf3>
   872ea:	4606      	mov	r6, r0
   872ec:	460f      	mov	r7, r1
   872ee:	4602      	mov	r2, r0
   872f0:	460b      	mov	r3, r1
   872f2:	e9dd 0108 	ldrd	r0, r1, [sp, #32]
   872f6:	f002 f907 	bl	89508 <__aeabi_dcmplt>
   872fa:	b948      	cbnz	r0, 87310 <_dtoa_r+0x358>
   872fc:	e9dd 0108 	ldrd	r0, r1, [sp, #32]
   87300:	4632      	mov	r2, r6
   87302:	463b      	mov	r3, r7
   87304:	f002 f8f6 	bl	894f4 <__aeabi_dcmpeq>
   87308:	b1a8      	cbz	r0, 87336 <_dtoa_r+0x37e>
   8730a:	f018 0f01 	tst.w	r8, #1
   8730e:	d012      	beq.n	87336 <_dtoa_r+0x37e>
   87310:	f815 8c01 	ldrb.w	r8, [r5, #-1]
   87314:	1e6b      	subs	r3, r5, #1
   87316:	9a04      	ldr	r2, [sp, #16]
   87318:	e004      	b.n	87324 <_dtoa_r+0x36c>
   8731a:	429a      	cmp	r2, r3
   8731c:	f000 8402 	beq.w	87b24 <_dtoa_r+0xb6c>
   87320:	f813 8d01 	ldrb.w	r8, [r3, #-1]!
   87324:	f1b8 0f39 	cmp.w	r8, #57	; 0x39
   87328:	f103 0501 	add.w	r5, r3, #1
   8732c:	d0f5      	beq.n	8731a <_dtoa_r+0x362>
   8732e:	f108 0801 	add.w	r8, r8, #1
   87332:	f883 8000 	strb.w	r8, [r3]
   87336:	4649      	mov	r1, r9
   87338:	4620      	mov	r0, r4
   8733a:	f001 f91b 	bl	88574 <_Bfree>
   8733e:	2200      	movs	r2, #0
   87340:	9b02      	ldr	r3, [sp, #8]
   87342:	702a      	strb	r2, [r5, #0]
   87344:	9a26      	ldr	r2, [sp, #152]	; 0x98
   87346:	3301      	adds	r3, #1
   87348:	6013      	str	r3, [r2, #0]
   8734a:	9b28      	ldr	r3, [sp, #160]	; 0xa0
   8734c:	2b00      	cmp	r3, #0
   8734e:	f000 839f 	beq.w	87a90 <_dtoa_r+0xad8>
   87352:	9804      	ldr	r0, [sp, #16]
   87354:	601d      	str	r5, [r3, #0]
   87356:	b01b      	add	sp, #108	; 0x6c
   87358:	e8bd 8ff0 	ldmia.w	sp!, {r4, r5, r6, r7, r8, r9, sl, fp, pc}
   8735c:	9a0b      	ldr	r2, [sp, #44]	; 0x2c
   8735e:	2a00      	cmp	r2, #0
   87360:	d03e      	beq.n	873e0 <_dtoa_r+0x428>
   87362:	9a24      	ldr	r2, [sp, #144]	; 0x90
   87364:	2a01      	cmp	r2, #1
   87366:	f340 8311 	ble.w	8798c <_dtoa_r+0x9d4>
   8736a:	9b07      	ldr	r3, [sp, #28]
   8736c:	9a0c      	ldr	r2, [sp, #48]	; 0x30
   8736e:	1e5f      	subs	r7, r3, #1
   87370:	42ba      	cmp	r2, r7
   87372:	f2c0 8390 	blt.w	87a96 <_dtoa_r+0xade>
   87376:	1bd7      	subs	r7, r2, r7
   87378:	9b07      	ldr	r3, [sp, #28]
   8737a:	2b00      	cmp	r3, #0
   8737c:	f2c0 848c 	blt.w	87c98 <_dtoa_r+0xce0>
   87380:	9d0a      	ldr	r5, [sp, #40]	; 0x28
   87382:	9b07      	ldr	r3, [sp, #28]
   87384:	9a0a      	ldr	r2, [sp, #40]	; 0x28
   87386:	2101      	movs	r1, #1
   87388:	441a      	add	r2, r3
   8738a:	920a      	str	r2, [sp, #40]	; 0x28
   8738c:	9a08      	ldr	r2, [sp, #32]
   8738e:	4620      	mov	r0, r4
   87390:	441a      	add	r2, r3
   87392:	9208      	str	r2, [sp, #32]
   87394:	f001 f98a 	bl	886ac <__i2b>
   87398:	4606      	mov	r6, r0
   8739a:	e023      	b.n	873e4 <_dtoa_r+0x42c>
   8739c:	2301      	movs	r3, #1
   8739e:	930e      	str	r3, [sp, #56]	; 0x38
   873a0:	e6b5      	b.n	8710e <_dtoa_r+0x156>
   873a2:	2300      	movs	r3, #0
   873a4:	9a0a      	ldr	r2, [sp, #40]	; 0x28
   873a6:	930d      	str	r3, [sp, #52]	; 0x34
   873a8:	9b02      	ldr	r3, [sp, #8]
   873aa:	1ad2      	subs	r2, r2, r3
   873ac:	425b      	negs	r3, r3
   873ae:	920a      	str	r2, [sp, #40]	; 0x28
   873b0:	930c      	str	r3, [sp, #48]	; 0x30
   873b2:	e6be      	b.n	87132 <_dtoa_r+0x17a>
   873b4:	f1c7 0301 	rsb	r3, r7, #1
   873b8:	930a      	str	r3, [sp, #40]	; 0x28
   873ba:	2300      	movs	r3, #0
   873bc:	9308      	str	r3, [sp, #32]
   873be:	e6ad      	b.n	8711c <_dtoa_r+0x164>
   873c0:	9d02      	ldr	r5, [sp, #8]
   873c2:	4628      	mov	r0, r5
   873c4:	f7fd fc98 	bl	84cf8 <__aeabi_i2d>
   873c8:	4602      	mov	r2, r0
   873ca:	460b      	mov	r3, r1
   873cc:	e9dd 0104 	ldrd	r0, r1, [sp, #16]
   873d0:	f002 f890 	bl	894f4 <__aeabi_dcmpeq>
   873d4:	2800      	cmp	r0, #0
   873d6:	f47f ae86 	bne.w	870e6 <_dtoa_r+0x12e>
   873da:	1e6b      	subs	r3, r5, #1
   873dc:	9302      	str	r3, [sp, #8]
   873de:	e682      	b.n	870e6 <_dtoa_r+0x12e>
   873e0:	ad0a      	add	r5, sp, #40	; 0x28
   873e2:	cde0      	ldmia	r5, {r5, r6, r7}
   873e4:	2d00      	cmp	r5, #0
   873e6:	dd0c      	ble.n	87402 <_dtoa_r+0x44a>
   873e8:	9908      	ldr	r1, [sp, #32]
   873ea:	2900      	cmp	r1, #0
   873ec:	460b      	mov	r3, r1
   873ee:	dd08      	ble.n	87402 <_dtoa_r+0x44a>
   873f0:	42a9      	cmp	r1, r5
   873f2:	bfa8      	it	ge
   873f4:	462b      	movge	r3, r5
   873f6:	9a0a      	ldr	r2, [sp, #40]	; 0x28
   873f8:	1aed      	subs	r5, r5, r3
   873fa:	1ad2      	subs	r2, r2, r3
   873fc:	1acb      	subs	r3, r1, r3
   873fe:	920a      	str	r2, [sp, #40]	; 0x28
   87400:	9308      	str	r3, [sp, #32]
   87402:	9b0c      	ldr	r3, [sp, #48]	; 0x30
   87404:	b1d3      	cbz	r3, 8743c <_dtoa_r+0x484>
   87406:	9b0b      	ldr	r3, [sp, #44]	; 0x2c
   87408:	2b00      	cmp	r3, #0
   8740a:	f000 82b8 	beq.w	8797e <_dtoa_r+0x9c6>
   8740e:	2f00      	cmp	r7, #0
   87410:	dd10      	ble.n	87434 <_dtoa_r+0x47c>
   87412:	4631      	mov	r1, r6
   87414:	463a      	mov	r2, r7
   87416:	4620      	mov	r0, r4
   87418:	f001 f9e4 	bl	887e4 <__pow5mult>
   8741c:	464a      	mov	r2, r9
   8741e:	4601      	mov	r1, r0
   87420:	4606      	mov	r6, r0
   87422:	4620      	mov	r0, r4
   87424:	f001 f94c 	bl	886c0 <__multiply>
   87428:	4603      	mov	r3, r0
   8742a:	4649      	mov	r1, r9
   8742c:	4620      	mov	r0, r4
   8742e:	4699      	mov	r9, r3
   87430:	f001 f8a0 	bl	88574 <_Bfree>
   87434:	9b0c      	ldr	r3, [sp, #48]	; 0x30
   87436:	1bda      	subs	r2, r3, r7
   87438:	f040 82a2 	bne.w	87980 <_dtoa_r+0x9c8>
   8743c:	2101      	movs	r1, #1
   8743e:	4620      	mov	r0, r4
   87440:	f001 f934 	bl	886ac <__i2b>
   87444:	9b0d      	ldr	r3, [sp, #52]	; 0x34
   87446:	4680      	mov	r8, r0
   87448:	2b00      	cmp	r3, #0
   8744a:	dd1f      	ble.n	8748c <_dtoa_r+0x4d4>
   8744c:	4601      	mov	r1, r0
   8744e:	461a      	mov	r2, r3
   87450:	4620      	mov	r0, r4
   87452:	f001 f9c7 	bl	887e4 <__pow5mult>
   87456:	9b24      	ldr	r3, [sp, #144]	; 0x90
   87458:	4680      	mov	r8, r0
   8745a:	2b01      	cmp	r3, #1
   8745c:	f340 8255 	ble.w	8790a <_dtoa_r+0x952>
   87460:	2300      	movs	r3, #0
   87462:	930c      	str	r3, [sp, #48]	; 0x30
   87464:	f8d8 3010 	ldr.w	r3, [r8, #16]
   87468:	eb08 0383 	add.w	r3, r8, r3, lsl #2
   8746c:	6918      	ldr	r0, [r3, #16]
   8746e:	f001 f8cd 	bl	8860c <__hi0bits>
   87472:	f1c0 0020 	rsb	r0, r0, #32
   87476:	e013      	b.n	874a0 <_dtoa_r+0x4e8>
   87478:	f1c3 0520 	rsb	r5, r3, #32
   8747c:	fa0a f005 	lsl.w	r0, sl, r5
   87480:	e67b      	b.n	8717a <_dtoa_r+0x1c2>
   87482:	900e      	str	r0, [sp, #56]	; 0x38
   87484:	e643      	b.n	8710e <_dtoa_r+0x156>
   87486:	bf00      	nop
   87488:	40240000 	.word	0x40240000
   8748c:	9b24      	ldr	r3, [sp, #144]	; 0x90
   8748e:	2b01      	cmp	r3, #1
   87490:	f340 8285 	ble.w	8799e <_dtoa_r+0x9e6>
   87494:	2300      	movs	r3, #0
   87496:	930c      	str	r3, [sp, #48]	; 0x30
   87498:	9b0d      	ldr	r3, [sp, #52]	; 0x34
   8749a:	2001      	movs	r0, #1
   8749c:	2b00      	cmp	r3, #0
   8749e:	d1e1      	bne.n	87464 <_dtoa_r+0x4ac>
   874a0:	9a08      	ldr	r2, [sp, #32]
   874a2:	4410      	add	r0, r2
   874a4:	f010 001f 	ands.w	r0, r0, #31
   874a8:	f000 80a1 	beq.w	875ee <_dtoa_r+0x636>
   874ac:	f1c0 0320 	rsb	r3, r0, #32
   874b0:	2b04      	cmp	r3, #4
   874b2:	f340 8486 	ble.w	87dc2 <_dtoa_r+0xe0a>
   874b6:	9b0a      	ldr	r3, [sp, #40]	; 0x28
   874b8:	f1c0 001c 	rsb	r0, r0, #28
   874bc:	4403      	add	r3, r0
   874be:	930a      	str	r3, [sp, #40]	; 0x28
   874c0:	4613      	mov	r3, r2
   874c2:	4403      	add	r3, r0
   874c4:	4405      	add	r5, r0
   874c6:	9308      	str	r3, [sp, #32]
   874c8:	9b0a      	ldr	r3, [sp, #40]	; 0x28
   874ca:	2b00      	cmp	r3, #0
   874cc:	dd05      	ble.n	874da <_dtoa_r+0x522>
   874ce:	4649      	mov	r1, r9
   874d0:	461a      	mov	r2, r3
   874d2:	4620      	mov	r0, r4
   874d4:	f001 f9d6 	bl	88884 <__lshift>
   874d8:	4681      	mov	r9, r0
   874da:	9b08      	ldr	r3, [sp, #32]
   874dc:	2b00      	cmp	r3, #0
   874de:	dd05      	ble.n	874ec <_dtoa_r+0x534>
   874e0:	4641      	mov	r1, r8
   874e2:	461a      	mov	r2, r3
   874e4:	4620      	mov	r0, r4
   874e6:	f001 f9cd 	bl	88884 <__lshift>
   874ea:	4680      	mov	r8, r0
   874ec:	9b0e      	ldr	r3, [sp, #56]	; 0x38
   874ee:	2b00      	cmp	r3, #0
   874f0:	f040 8086 	bne.w	87600 <_dtoa_r+0x648>
   874f4:	9b07      	ldr	r3, [sp, #28]
   874f6:	2b00      	cmp	r3, #0
   874f8:	f340 8264 	ble.w	879c4 <_dtoa_r+0xa0c>
   874fc:	9b0b      	ldr	r3, [sp, #44]	; 0x2c
   874fe:	2b00      	cmp	r3, #0
   87500:	f000 8098 	beq.w	87634 <_dtoa_r+0x67c>
   87504:	2d00      	cmp	r5, #0
   87506:	dd05      	ble.n	87514 <_dtoa_r+0x55c>
   87508:	4631      	mov	r1, r6
   8750a:	462a      	mov	r2, r5
   8750c:	4620      	mov	r0, r4
   8750e:	f001 f9b9 	bl	88884 <__lshift>
   87512:	4606      	mov	r6, r0
   87514:	9b0c      	ldr	r3, [sp, #48]	; 0x30
   87516:	2b00      	cmp	r3, #0
   87518:	f040 8336 	bne.w	87b88 <_dtoa_r+0xbd0>
   8751c:	9608      	str	r6, [sp, #32]
   8751e:	9b07      	ldr	r3, [sp, #28]
   87520:	9a04      	ldr	r2, [sp, #16]
   87522:	3b01      	subs	r3, #1
   87524:	18d3      	adds	r3, r2, r3
   87526:	930b      	str	r3, [sp, #44]	; 0x2c
   87528:	4617      	mov	r7, r2
   8752a:	f00a 0301 	and.w	r3, sl, #1
   8752e:	46c2      	mov	sl, r8
   87530:	f8dd b020 	ldr.w	fp, [sp, #32]
   87534:	930c      	str	r3, [sp, #48]	; 0x30
   87536:	4651      	mov	r1, sl
   87538:	4648      	mov	r0, r9
   8753a:	f7ff fca9 	bl	86e90 <quorem>
   8753e:	4631      	mov	r1, r6
   87540:	4605      	mov	r5, r0
   87542:	4648      	mov	r0, r9
   87544:	f001 f9ee 	bl	88924 <__mcmp>
   87548:	465a      	mov	r2, fp
   8754a:	9007      	str	r0, [sp, #28]
   8754c:	4651      	mov	r1, sl
   8754e:	4620      	mov	r0, r4
   87550:	f001 fa04 	bl	8895c <__mdiff>
   87554:	68c2      	ldr	r2, [r0, #12]
   87556:	4680      	mov	r8, r0
   87558:	f105 0330 	add.w	r3, r5, #48	; 0x30
   8755c:	2a00      	cmp	r2, #0
   8755e:	f040 8229 	bne.w	879b4 <_dtoa_r+0x9fc>
   87562:	4601      	mov	r1, r0
   87564:	4648      	mov	r0, r9
   87566:	930a      	str	r3, [sp, #40]	; 0x28
   87568:	f001 f9dc 	bl	88924 <__mcmp>
   8756c:	4641      	mov	r1, r8
   8756e:	9008      	str	r0, [sp, #32]
   87570:	4620      	mov	r0, r4
   87572:	f000 ffff 	bl	88574 <_Bfree>
   87576:	9a08      	ldr	r2, [sp, #32]
   87578:	9b0a      	ldr	r3, [sp, #40]	; 0x28
   8757a:	b932      	cbnz	r2, 8758a <_dtoa_r+0x5d2>
   8757c:	9924      	ldr	r1, [sp, #144]	; 0x90
   8757e:	b921      	cbnz	r1, 8758a <_dtoa_r+0x5d2>
   87580:	9a0c      	ldr	r2, [sp, #48]	; 0x30
   87582:	2a00      	cmp	r2, #0
   87584:	f000 83ee 	beq.w	87d64 <_dtoa_r+0xdac>
   87588:	9a24      	ldr	r2, [sp, #144]	; 0x90
   8758a:	9907      	ldr	r1, [sp, #28]
   8758c:	2900      	cmp	r1, #0
   8758e:	f2c0 829f 	blt.w	87ad0 <_dtoa_r+0xb18>
   87592:	d105      	bne.n	875a0 <_dtoa_r+0x5e8>
   87594:	9924      	ldr	r1, [sp, #144]	; 0x90
   87596:	b919      	cbnz	r1, 875a0 <_dtoa_r+0x5e8>
   87598:	990c      	ldr	r1, [sp, #48]	; 0x30
   8759a:	2900      	cmp	r1, #0
   8759c:	f000 8298 	beq.w	87ad0 <_dtoa_r+0xb18>
   875a0:	2a00      	cmp	r2, #0
   875a2:	f300 8305 	bgt.w	87bb0 <_dtoa_r+0xbf8>
   875a6:	9a0b      	ldr	r2, [sp, #44]	; 0x2c
   875a8:	f107 0801 	add.w	r8, r7, #1
   875ac:	4297      	cmp	r7, r2
   875ae:	703b      	strb	r3, [r7, #0]
   875b0:	4645      	mov	r5, r8
   875b2:	f000 830b 	beq.w	87bcc <_dtoa_r+0xc14>
   875b6:	4649      	mov	r1, r9
   875b8:	2300      	movs	r3, #0
   875ba:	220a      	movs	r2, #10
   875bc:	4620      	mov	r0, r4
   875be:	f000 ffe3 	bl	88588 <__multadd>
   875c2:	455e      	cmp	r6, fp
   875c4:	4681      	mov	r9, r0
   875c6:	4631      	mov	r1, r6
   875c8:	f04f 0300 	mov.w	r3, #0
   875cc:	f04f 020a 	mov.w	r2, #10
   875d0:	4620      	mov	r0, r4
   875d2:	f000 81e9 	beq.w	879a8 <_dtoa_r+0x9f0>
   875d6:	f000 ffd7 	bl	88588 <__multadd>
   875da:	4659      	mov	r1, fp
   875dc:	4606      	mov	r6, r0
   875de:	2300      	movs	r3, #0
   875e0:	220a      	movs	r2, #10
   875e2:	4620      	mov	r0, r4
   875e4:	f000 ffd0 	bl	88588 <__multadd>
   875e8:	4647      	mov	r7, r8
   875ea:	4683      	mov	fp, r0
   875ec:	e7a3      	b.n	87536 <_dtoa_r+0x57e>
   875ee:	201c      	movs	r0, #28
   875f0:	9b0a      	ldr	r3, [sp, #40]	; 0x28
   875f2:	4405      	add	r5, r0
   875f4:	4403      	add	r3, r0
   875f6:	930a      	str	r3, [sp, #40]	; 0x28
   875f8:	9b08      	ldr	r3, [sp, #32]
   875fa:	4403      	add	r3, r0
   875fc:	9308      	str	r3, [sp, #32]
   875fe:	e763      	b.n	874c8 <_dtoa_r+0x510>
   87600:	4641      	mov	r1, r8
   87602:	4648      	mov	r0, r9
   87604:	f001 f98e 	bl	88924 <__mcmp>
   87608:	2800      	cmp	r0, #0
   8760a:	f6bf af73 	bge.w	874f4 <_dtoa_r+0x53c>
   8760e:	9f02      	ldr	r7, [sp, #8]
   87610:	4649      	mov	r1, r9
   87612:	2300      	movs	r3, #0
   87614:	220a      	movs	r2, #10
   87616:	4620      	mov	r0, r4
   87618:	3f01      	subs	r7, #1
   8761a:	9702      	str	r7, [sp, #8]
   8761c:	f000 ffb4 	bl	88588 <__multadd>
   87620:	9b0b      	ldr	r3, [sp, #44]	; 0x2c
   87622:	4681      	mov	r9, r0
   87624:	2b00      	cmp	r3, #0
   87626:	f040 83b5 	bne.w	87d94 <_dtoa_r+0xddc>
   8762a:	9b0f      	ldr	r3, [sp, #60]	; 0x3c
   8762c:	2b00      	cmp	r3, #0
   8762e:	f340 83be 	ble.w	87dae <_dtoa_r+0xdf6>
   87632:	9307      	str	r3, [sp, #28]
   87634:	f8dd a010 	ldr.w	sl, [sp, #16]
   87638:	9f07      	ldr	r7, [sp, #28]
   8763a:	4655      	mov	r5, sl
   8763c:	e006      	b.n	8764c <_dtoa_r+0x694>
   8763e:	4649      	mov	r1, r9
   87640:	2300      	movs	r3, #0
   87642:	220a      	movs	r2, #10
   87644:	4620      	mov	r0, r4
   87646:	f000 ff9f 	bl	88588 <__multadd>
   8764a:	4681      	mov	r9, r0
   8764c:	4641      	mov	r1, r8
   8764e:	4648      	mov	r0, r9
   87650:	f7ff fc1e 	bl	86e90 <quorem>
   87654:	3030      	adds	r0, #48	; 0x30
   87656:	f805 0b01 	strb.w	r0, [r5], #1
   8765a:	eba5 030a 	sub.w	r3, r5, sl
   8765e:	42bb      	cmp	r3, r7
   87660:	dbed      	blt.n	8763e <_dtoa_r+0x686>
   87662:	9b04      	ldr	r3, [sp, #16]
   87664:	9a07      	ldr	r2, [sp, #28]
   87666:	4682      	mov	sl, r0
   87668:	2a01      	cmp	r2, #1
   8766a:	bfac      	ite	ge
   8766c:	189b      	addge	r3, r3, r2
   8766e:	3301      	addlt	r3, #1
   87670:	f04f 0b00 	mov.w	fp, #0
   87674:	461d      	mov	r5, r3
   87676:	4649      	mov	r1, r9
   87678:	2201      	movs	r2, #1
   8767a:	4620      	mov	r0, r4
   8767c:	f001 f902 	bl	88884 <__lshift>
   87680:	4641      	mov	r1, r8
   87682:	4681      	mov	r9, r0
   87684:	f001 f94e 	bl	88924 <__mcmp>
   87688:	2800      	cmp	r0, #0
   8768a:	f340 823f 	ble.w	87b0c <_dtoa_r+0xb54>
   8768e:	f815 2c01 	ldrb.w	r2, [r5, #-1]
   87692:	1e6b      	subs	r3, r5, #1
   87694:	9904      	ldr	r1, [sp, #16]
   87696:	e004      	b.n	876a2 <_dtoa_r+0x6ea>
   87698:	428b      	cmp	r3, r1
   8769a:	f000 81ae 	beq.w	879fa <_dtoa_r+0xa42>
   8769e:	f813 2d01 	ldrb.w	r2, [r3, #-1]!
   876a2:	2a39      	cmp	r2, #57	; 0x39
   876a4:	f103 0501 	add.w	r5, r3, #1
   876a8:	d0f6      	beq.n	87698 <_dtoa_r+0x6e0>
   876aa:	3201      	adds	r2, #1
   876ac:	701a      	strb	r2, [r3, #0]
   876ae:	4641      	mov	r1, r8
   876b0:	4620      	mov	r0, r4
   876b2:	f000 ff5f 	bl	88574 <_Bfree>
   876b6:	2e00      	cmp	r6, #0
   876b8:	f43f ae3d 	beq.w	87336 <_dtoa_r+0x37e>
   876bc:	f1bb 0f00 	cmp.w	fp, #0
   876c0:	d005      	beq.n	876ce <_dtoa_r+0x716>
   876c2:	45b3      	cmp	fp, r6
   876c4:	d003      	beq.n	876ce <_dtoa_r+0x716>
   876c6:	4659      	mov	r1, fp
   876c8:	4620      	mov	r0, r4
   876ca:	f000 ff53 	bl	88574 <_Bfree>
   876ce:	4631      	mov	r1, r6
   876d0:	4620      	mov	r0, r4
   876d2:	f000 ff4f 	bl	88574 <_Bfree>
   876d6:	e62e      	b.n	87336 <_dtoa_r+0x37e>
   876d8:	2300      	movs	r3, #0
   876da:	930b      	str	r3, [sp, #44]	; 0x2c
   876dc:	9b02      	ldr	r3, [sp, #8]
   876de:	9a25      	ldr	r2, [sp, #148]	; 0x94
   876e0:	4413      	add	r3, r2
   876e2:	930f      	str	r3, [sp, #60]	; 0x3c
   876e4:	3301      	adds	r3, #1
   876e6:	2b01      	cmp	r3, #1
   876e8:	461f      	mov	r7, r3
   876ea:	461e      	mov	r6, r3
   876ec:	bfb8      	it	lt
   876ee:	2701      	movlt	r7, #1
   876f0:	9307      	str	r3, [sp, #28]
   876f2:	2100      	movs	r1, #0
   876f4:	2f17      	cmp	r7, #23
   876f6:	6461      	str	r1, [r4, #68]	; 0x44
   876f8:	d90a      	bls.n	87710 <_dtoa_r+0x758>
   876fa:	2201      	movs	r2, #1
   876fc:	2304      	movs	r3, #4
   876fe:	005b      	lsls	r3, r3, #1
   87700:	f103 0014 	add.w	r0, r3, #20
   87704:	4287      	cmp	r7, r0
   87706:	4611      	mov	r1, r2
   87708:	f102 0201 	add.w	r2, r2, #1
   8770c:	d2f7      	bcs.n	876fe <_dtoa_r+0x746>
   8770e:	6461      	str	r1, [r4, #68]	; 0x44
   87710:	4620      	mov	r0, r4
   87712:	f000 ff09 	bl	88528 <_Balloc>
   87716:	2e0e      	cmp	r6, #14
   87718:	9004      	str	r0, [sp, #16]
   8771a:	6420      	str	r0, [r4, #64]	; 0x40
   8771c:	f63f ad47 	bhi.w	871ae <_dtoa_r+0x1f6>
   87720:	2d00      	cmp	r5, #0
   87722:	f43f ad44 	beq.w	871ae <_dtoa_r+0x1f6>
   87726:	9902      	ldr	r1, [sp, #8]
   87728:	e9cd ab10 	strd	sl, fp, [sp, #64]	; 0x40
   8772c:	2900      	cmp	r1, #0
   8772e:	f340 8203 	ble.w	87b38 <_dtoa_r+0xb80>
   87732:	4bb9      	ldr	r3, [pc, #740]	; (87a18 <_dtoa_r+0xa60>)
   87734:	f001 020f 	and.w	r2, r1, #15
   87738:	110d      	asrs	r5, r1, #4
   8773a:	eb03 03c2 	add.w	r3, r3, r2, lsl #3
   8773e:	06e9      	lsls	r1, r5, #27
   87740:	e9d3 6700 	ldrd	r6, r7, [r3]
   87744:	f140 81af 	bpl.w	87aa6 <_dtoa_r+0xaee>
   87748:	4bb4      	ldr	r3, [pc, #720]	; (87a1c <_dtoa_r+0xa64>)
   8774a:	4650      	mov	r0, sl
   8774c:	e9d3 2308 	ldrd	r2, r3, [r3, #32]
   87750:	4659      	mov	r1, fp
   87752:	f7fd fc61 	bl	85018 <__aeabi_ddiv>
   87756:	f04f 0a03 	mov.w	sl, #3
   8775a:	e9cd 0112 	strd	r0, r1, [sp, #72]	; 0x48
   8775e:	f005 050f 	and.w	r5, r5, #15
   87762:	b18d      	cbz	r5, 87788 <_dtoa_r+0x7d0>
   87764:	f8df 82b4 	ldr.w	r8, [pc, #692]	; 87a1c <_dtoa_r+0xa64>
   87768:	07ea      	lsls	r2, r5, #31
   8776a:	d509      	bpl.n	87780 <_dtoa_r+0x7c8>
   8776c:	e9d8 2300 	ldrd	r2, r3, [r8]
   87770:	4630      	mov	r0, r6
   87772:	4639      	mov	r1, r7
   87774:	f7fd fb26 	bl	84dc4 <__aeabi_dmul>
   87778:	4606      	mov	r6, r0
   8777a:	460f      	mov	r7, r1
   8777c:	f10a 0a01 	add.w	sl, sl, #1
   87780:	106d      	asrs	r5, r5, #1
   87782:	f108 0808 	add.w	r8, r8, #8
   87786:	d1ef      	bne.n	87768 <_dtoa_r+0x7b0>
   87788:	463b      	mov	r3, r7
   8778a:	e9dd 0112 	ldrd	r0, r1, [sp, #72]	; 0x48
   8778e:	4632      	mov	r2, r6
   87790:	f7fd fc42 	bl	85018 <__aeabi_ddiv>
   87794:	4607      	mov	r7, r0
   87796:	4688      	mov	r8, r1
   87798:	9b0e      	ldr	r3, [sp, #56]	; 0x38
   8779a:	b143      	cbz	r3, 877ae <_dtoa_r+0x7f6>
   8779c:	2200      	movs	r2, #0
   8779e:	4ba0      	ldr	r3, [pc, #640]	; (87a20 <_dtoa_r+0xa68>)
   877a0:	4638      	mov	r0, r7
   877a2:	4641      	mov	r1, r8
   877a4:	f001 feb0 	bl	89508 <__aeabi_dcmplt>
   877a8:	2800      	cmp	r0, #0
   877aa:	f040 8287 	bne.w	87cbc <_dtoa_r+0xd04>
   877ae:	4650      	mov	r0, sl
   877b0:	f7fd faa2 	bl	84cf8 <__aeabi_i2d>
   877b4:	463a      	mov	r2, r7
   877b6:	4643      	mov	r3, r8
   877b8:	f7fd fb04 	bl	84dc4 <__aeabi_dmul>
   877bc:	4b99      	ldr	r3, [pc, #612]	; (87a24 <_dtoa_r+0xa6c>)
   877be:	2200      	movs	r2, #0
   877c0:	f7fd f94e 	bl	84a60 <__adddf3>
   877c4:	9b07      	ldr	r3, [sp, #28]
   877c6:	4605      	mov	r5, r0
   877c8:	f1a1 7650 	sub.w	r6, r1, #54525952	; 0x3400000
   877cc:	2b00      	cmp	r3, #0
   877ce:	f000 813f 	beq.w	87a50 <_dtoa_r+0xa98>
   877d2:	9b02      	ldr	r3, [sp, #8]
   877d4:	9315      	str	r3, [sp, #84]	; 0x54
   877d6:	9b07      	ldr	r3, [sp, #28]
   877d8:	9312      	str	r3, [sp, #72]	; 0x48
   877da:	9b0b      	ldr	r3, [sp, #44]	; 0x2c
   877dc:	2b00      	cmp	r3, #0
   877de:	f000 81fb 	beq.w	87bd8 <_dtoa_r+0xc20>
   877e2:	9a12      	ldr	r2, [sp, #72]	; 0x48
   877e4:	4b8c      	ldr	r3, [pc, #560]	; (87a18 <_dtoa_r+0xa60>)
   877e6:	2000      	movs	r0, #0
   877e8:	eb03 03c2 	add.w	r3, r3, r2, lsl #3
   877ec:	e953 2302 	ldrd	r2, r3, [r3, #-8]
   877f0:	498d      	ldr	r1, [pc, #564]	; (87a28 <_dtoa_r+0xa70>)
   877f2:	f7fd fc11 	bl	85018 <__aeabi_ddiv>
   877f6:	462a      	mov	r2, r5
   877f8:	4633      	mov	r3, r6
   877fa:	f7fd f92f 	bl	84a5c <__aeabi_dsub>
   877fe:	4682      	mov	sl, r0
   87800:	468b      	mov	fp, r1
   87802:	4638      	mov	r0, r7
   87804:	4641      	mov	r1, r8
   87806:	f001 febd 	bl	89584 <__aeabi_d2iz>
   8780a:	4605      	mov	r5, r0
   8780c:	f7fd fa74 	bl	84cf8 <__aeabi_i2d>
   87810:	4602      	mov	r2, r0
   87812:	460b      	mov	r3, r1
   87814:	4638      	mov	r0, r7
   87816:	4641      	mov	r1, r8
   87818:	f7fd f920 	bl	84a5c <__aeabi_dsub>
   8781c:	3530      	adds	r5, #48	; 0x30
   8781e:	fa5f f885 	uxtb.w	r8, r5
   87822:	9d04      	ldr	r5, [sp, #16]
   87824:	4606      	mov	r6, r0
   87826:	460f      	mov	r7, r1
   87828:	f885 8000 	strb.w	r8, [r5]
   8782c:	4602      	mov	r2, r0
   8782e:	460b      	mov	r3, r1
   87830:	4650      	mov	r0, sl
   87832:	4659      	mov	r1, fp
   87834:	3501      	adds	r5, #1
   87836:	f001 fe85 	bl	89544 <__aeabi_dcmpgt>
   8783a:	2800      	cmp	r0, #0
   8783c:	d154      	bne.n	878e8 <_dtoa_r+0x930>
   8783e:	4632      	mov	r2, r6
   87840:	463b      	mov	r3, r7
   87842:	2000      	movs	r0, #0
   87844:	4976      	ldr	r1, [pc, #472]	; (87a20 <_dtoa_r+0xa68>)
   87846:	f7fd f909 	bl	84a5c <__aeabi_dsub>
   8784a:	4602      	mov	r2, r0
   8784c:	460b      	mov	r3, r1
   8784e:	4650      	mov	r0, sl
   87850:	4659      	mov	r1, fp
   87852:	f001 fe77 	bl	89544 <__aeabi_dcmpgt>
   87856:	2800      	cmp	r0, #0
   87858:	f040 8270 	bne.w	87d3c <_dtoa_r+0xd84>
   8785c:	9a12      	ldr	r2, [sp, #72]	; 0x48
   8785e:	2a01      	cmp	r2, #1
   87860:	f000 8112 	beq.w	87a88 <_dtoa_r+0xad0>
   87864:	9b12      	ldr	r3, [sp, #72]	; 0x48
   87866:	9a04      	ldr	r2, [sp, #16]
   87868:	f8cd 9048 	str.w	r9, [sp, #72]	; 0x48
   8786c:	4413      	add	r3, r2
   8786e:	4699      	mov	r9, r3
   87870:	e00f      	b.n	87892 <_dtoa_r+0x8da>
   87872:	4632      	mov	r2, r6
   87874:	463b      	mov	r3, r7
   87876:	2000      	movs	r0, #0
   87878:	4969      	ldr	r1, [pc, #420]	; (87a20 <_dtoa_r+0xa68>)
   8787a:	f7fd f8ef 	bl	84a5c <__aeabi_dsub>
   8787e:	4652      	mov	r2, sl
   87880:	465b      	mov	r3, fp
   87882:	f001 fe41 	bl	89508 <__aeabi_dcmplt>
   87886:	2800      	cmp	r0, #0
   87888:	f040 8256 	bne.w	87d38 <_dtoa_r+0xd80>
   8788c:	454d      	cmp	r5, r9
   8788e:	f000 80f9 	beq.w	87a84 <_dtoa_r+0xacc>
   87892:	4650      	mov	r0, sl
   87894:	4659      	mov	r1, fp
   87896:	2200      	movs	r2, #0
   87898:	4b64      	ldr	r3, [pc, #400]	; (87a2c <_dtoa_r+0xa74>)
   8789a:	f7fd fa93 	bl	84dc4 <__aeabi_dmul>
   8789e:	2200      	movs	r2, #0
   878a0:	4b62      	ldr	r3, [pc, #392]	; (87a2c <_dtoa_r+0xa74>)
   878a2:	4682      	mov	sl, r0
   878a4:	468b      	mov	fp, r1
   878a6:	4630      	mov	r0, r6
   878a8:	4639      	mov	r1, r7
   878aa:	f7fd fa8b 	bl	84dc4 <__aeabi_dmul>
   878ae:	460f      	mov	r7, r1
   878b0:	4606      	mov	r6, r0
   878b2:	f001 fe67 	bl	89584 <__aeabi_d2iz>
   878b6:	4680      	mov	r8, r0
   878b8:	f7fd fa1e 	bl	84cf8 <__aeabi_i2d>
   878bc:	4602      	mov	r2, r0
   878be:	460b      	mov	r3, r1
   878c0:	4630      	mov	r0, r6
   878c2:	4639      	mov	r1, r7
   878c4:	f7fd f8ca 	bl	84a5c <__aeabi_dsub>
   878c8:	f108 0830 	add.w	r8, r8, #48	; 0x30
   878cc:	fa5f f888 	uxtb.w	r8, r8
   878d0:	f805 8b01 	strb.w	r8, [r5], #1
   878d4:	4652      	mov	r2, sl
   878d6:	465b      	mov	r3, fp
   878d8:	4606      	mov	r6, r0
   878da:	460f      	mov	r7, r1
   878dc:	f001 fe14 	bl	89508 <__aeabi_dcmplt>
   878e0:	2800      	cmp	r0, #0
   878e2:	d0c6      	beq.n	87872 <_dtoa_r+0x8ba>
   878e4:	f8dd 9048 	ldr.w	r9, [sp, #72]	; 0x48
   878e8:	9b15      	ldr	r3, [sp, #84]	; 0x54
   878ea:	9302      	str	r3, [sp, #8]
   878ec:	e523      	b.n	87336 <_dtoa_r+0x37e>
   878ee:	2300      	movs	r3, #0
   878f0:	930b      	str	r3, [sp, #44]	; 0x2c
   878f2:	9b25      	ldr	r3, [sp, #148]	; 0x94
   878f4:	2b00      	cmp	r3, #0
   878f6:	f340 80dd 	ble.w	87ab4 <_dtoa_r+0xafc>
   878fa:	461f      	mov	r7, r3
   878fc:	461e      	mov	r6, r3
   878fe:	930f      	str	r3, [sp, #60]	; 0x3c
   87900:	9307      	str	r3, [sp, #28]
   87902:	e6f6      	b.n	876f2 <_dtoa_r+0x73a>
   87904:	2301      	movs	r3, #1
   87906:	930b      	str	r3, [sp, #44]	; 0x2c
   87908:	e7f3      	b.n	878f2 <_dtoa_r+0x93a>
   8790a:	f1ba 0f00 	cmp.w	sl, #0
   8790e:	f47f ada7 	bne.w	87460 <_dtoa_r+0x4a8>
   87912:	f3cb 0313 	ubfx	r3, fp, #0, #20
   87916:	2b00      	cmp	r3, #0
   87918:	f47f adbc 	bne.w	87494 <_dtoa_r+0x4dc>
   8791c:	f02b 4700 	bic.w	r7, fp, #2147483648	; 0x80000000
   87920:	0d3f      	lsrs	r7, r7, #20
   87922:	053f      	lsls	r7, r7, #20
   87924:	2f00      	cmp	r7, #0
   87926:	f000 820d 	beq.w	87d44 <_dtoa_r+0xd8c>
   8792a:	9b0a      	ldr	r3, [sp, #40]	; 0x28
   8792c:	3301      	adds	r3, #1
   8792e:	930a      	str	r3, [sp, #40]	; 0x28
   87930:	9b08      	ldr	r3, [sp, #32]
   87932:	3301      	adds	r3, #1
   87934:	9308      	str	r3, [sp, #32]
   87936:	2301      	movs	r3, #1
   87938:	930c      	str	r3, [sp, #48]	; 0x30
   8793a:	e5ad      	b.n	87498 <_dtoa_r+0x4e0>
   8793c:	9b07      	ldr	r3, [sp, #28]
   8793e:	2b00      	cmp	r3, #0
   87940:	f73f ac48 	bgt.w	871d4 <_dtoa_r+0x21c>
   87944:	f040 8222 	bne.w	87d8c <_dtoa_r+0xdd4>
   87948:	e9dd 0108 	ldrd	r0, r1, [sp, #32]
   8794c:	2200      	movs	r2, #0
   8794e:	4b38      	ldr	r3, [pc, #224]	; (87a30 <_dtoa_r+0xa78>)
   87950:	f7fd fa38 	bl	84dc4 <__aeabi_dmul>
   87954:	4652      	mov	r2, sl
   87956:	465b      	mov	r3, fp
   87958:	f001 fdea 	bl	89530 <__aeabi_dcmpge>
   8795c:	f8dd 801c 	ldr.w	r8, [sp, #28]
   87960:	4646      	mov	r6, r8
   87962:	2800      	cmp	r0, #0
   87964:	d041      	beq.n	879ea <_dtoa_r+0xa32>
   87966:	9b25      	ldr	r3, [sp, #148]	; 0x94
   87968:	9d04      	ldr	r5, [sp, #16]
   8796a:	43db      	mvns	r3, r3
   8796c:	9302      	str	r3, [sp, #8]
   8796e:	4641      	mov	r1, r8
   87970:	4620      	mov	r0, r4
   87972:	f000 fdff 	bl	88574 <_Bfree>
   87976:	2e00      	cmp	r6, #0
   87978:	f43f acdd 	beq.w	87336 <_dtoa_r+0x37e>
   8797c:	e6a7      	b.n	876ce <_dtoa_r+0x716>
   8797e:	9a0c      	ldr	r2, [sp, #48]	; 0x30
   87980:	4649      	mov	r1, r9
   87982:	4620      	mov	r0, r4
   87984:	f000 ff2e 	bl	887e4 <__pow5mult>
   87988:	4681      	mov	r9, r0
   8798a:	e557      	b.n	8743c <_dtoa_r+0x484>
   8798c:	9a14      	ldr	r2, [sp, #80]	; 0x50
   8798e:	2a00      	cmp	r2, #0
   87990:	f000 8188 	beq.w	87ca4 <_dtoa_r+0xcec>
   87994:	f203 4333 	addw	r3, r3, #1075	; 0x433
   87998:	9f0c      	ldr	r7, [sp, #48]	; 0x30
   8799a:	9d0a      	ldr	r5, [sp, #40]	; 0x28
   8799c:	e4f2      	b.n	87384 <_dtoa_r+0x3cc>
   8799e:	f1ba 0f00 	cmp.w	sl, #0
   879a2:	f47f ad77 	bne.w	87494 <_dtoa_r+0x4dc>
   879a6:	e7b4      	b.n	87912 <_dtoa_r+0x95a>
   879a8:	f000 fdee 	bl	88588 <__multadd>
   879ac:	4647      	mov	r7, r8
   879ae:	4606      	mov	r6, r0
   879b0:	4683      	mov	fp, r0
   879b2:	e5c0      	b.n	87536 <_dtoa_r+0x57e>
   879b4:	4601      	mov	r1, r0
   879b6:	4620      	mov	r0, r4
   879b8:	9308      	str	r3, [sp, #32]
   879ba:	f000 fddb 	bl	88574 <_Bfree>
   879be:	2201      	movs	r2, #1
   879c0:	9b08      	ldr	r3, [sp, #32]
   879c2:	e5e2      	b.n	8758a <_dtoa_r+0x5d2>
   879c4:	9b24      	ldr	r3, [sp, #144]	; 0x90
   879c6:	2b02      	cmp	r3, #2
   879c8:	f77f ad98 	ble.w	874fc <_dtoa_r+0x544>
   879cc:	9b07      	ldr	r3, [sp, #28]
   879ce:	2b00      	cmp	r3, #0
   879d0:	d1c9      	bne.n	87966 <_dtoa_r+0x9ae>
   879d2:	4641      	mov	r1, r8
   879d4:	2205      	movs	r2, #5
   879d6:	4620      	mov	r0, r4
   879d8:	f000 fdd6 	bl	88588 <__multadd>
   879dc:	4601      	mov	r1, r0
   879de:	4680      	mov	r8, r0
   879e0:	4648      	mov	r0, r9
   879e2:	f000 ff9f 	bl	88924 <__mcmp>
   879e6:	2800      	cmp	r0, #0
   879e8:	ddbd      	ble.n	87966 <_dtoa_r+0x9ae>
   879ea:	2331      	movs	r3, #49	; 0x31
   879ec:	9a02      	ldr	r2, [sp, #8]
   879ee:	9904      	ldr	r1, [sp, #16]
   879f0:	3201      	adds	r2, #1
   879f2:	9202      	str	r2, [sp, #8]
   879f4:	700b      	strb	r3, [r1, #0]
   879f6:	1c4d      	adds	r5, r1, #1
   879f8:	e7b9      	b.n	8796e <_dtoa_r+0x9b6>
   879fa:	2331      	movs	r3, #49	; 0x31
   879fc:	9a02      	ldr	r2, [sp, #8]
   879fe:	3201      	adds	r2, #1
   87a00:	9202      	str	r2, [sp, #8]
   87a02:	9a04      	ldr	r2, [sp, #16]
   87a04:	7013      	strb	r3, [r2, #0]
   87a06:	e652      	b.n	876ae <_dtoa_r+0x6f6>
   87a08:	2301      	movs	r3, #1
   87a0a:	930b      	str	r3, [sp, #44]	; 0x2c
   87a0c:	e666      	b.n	876dc <_dtoa_r+0x724>
   87a0e:	f8dd 9028 	ldr.w	r9, [sp, #40]	; 0x28
   87a12:	9c0b      	ldr	r4, [sp, #44]	; 0x2c
   87a14:	e48f      	b.n	87336 <_dtoa_r+0x37e>
   87a16:	bf00      	nop
   87a18:	00089ad8 	.word	0x00089ad8
   87a1c:	00089ab0 	.word	0x00089ab0
   87a20:	3ff00000 	.word	0x3ff00000
   87a24:	401c0000 	.word	0x401c0000
   87a28:	3fe00000 	.word	0x3fe00000
   87a2c:	40240000 	.word	0x40240000
   87a30:	40140000 	.word	0x40140000
   87a34:	4650      	mov	r0, sl
   87a36:	f7fd f95f 	bl	84cf8 <__aeabi_i2d>
   87a3a:	463a      	mov	r2, r7
   87a3c:	4643      	mov	r3, r8
   87a3e:	f7fd f9c1 	bl	84dc4 <__aeabi_dmul>
   87a42:	2200      	movs	r2, #0
   87a44:	4bc1      	ldr	r3, [pc, #772]	; (87d4c <_dtoa_r+0xd94>)
   87a46:	f7fd f80b 	bl	84a60 <__adddf3>
   87a4a:	4605      	mov	r5, r0
   87a4c:	f1a1 7650 	sub.w	r6, r1, #54525952	; 0x3400000
   87a50:	4641      	mov	r1, r8
   87a52:	2200      	movs	r2, #0
   87a54:	4bbe      	ldr	r3, [pc, #760]	; (87d50 <_dtoa_r+0xd98>)
   87a56:	4638      	mov	r0, r7
   87a58:	f7fd f800 	bl	84a5c <__aeabi_dsub>
   87a5c:	462a      	mov	r2, r5
   87a5e:	4633      	mov	r3, r6
   87a60:	4682      	mov	sl, r0
   87a62:	468b      	mov	fp, r1
   87a64:	f001 fd6e 	bl	89544 <__aeabi_dcmpgt>
   87a68:	4680      	mov	r8, r0
   87a6a:	2800      	cmp	r0, #0
   87a6c:	f040 8110 	bne.w	87c90 <_dtoa_r+0xcd8>
   87a70:	462a      	mov	r2, r5
   87a72:	f106 4300 	add.w	r3, r6, #2147483648	; 0x80000000
   87a76:	4650      	mov	r0, sl
   87a78:	4659      	mov	r1, fp
   87a7a:	f001 fd45 	bl	89508 <__aeabi_dcmplt>
   87a7e:	b118      	cbz	r0, 87a88 <_dtoa_r+0xad0>
   87a80:	4646      	mov	r6, r8
   87a82:	e770      	b.n	87966 <_dtoa_r+0x9ae>
   87a84:	f8dd 9048 	ldr.w	r9, [sp, #72]	; 0x48
   87a88:	e9dd ab10 	ldrd	sl, fp, [sp, #64]	; 0x40
   87a8c:	f7ff bb8f 	b.w	871ae <_dtoa_r+0x1f6>
   87a90:	9804      	ldr	r0, [sp, #16]
   87a92:	f7ff bac0 	b.w	87016 <_dtoa_r+0x5e>
   87a96:	9b0c      	ldr	r3, [sp, #48]	; 0x30
   87a98:	9a0d      	ldr	r2, [sp, #52]	; 0x34
   87a9a:	1afb      	subs	r3, r7, r3
   87a9c:	441a      	add	r2, r3
   87a9e:	970c      	str	r7, [sp, #48]	; 0x30
   87aa0:	920d      	str	r2, [sp, #52]	; 0x34
   87aa2:	2700      	movs	r7, #0
   87aa4:	e468      	b.n	87378 <_dtoa_r+0x3c0>
   87aa6:	e9dd 2310 	ldrd	r2, r3, [sp, #64]	; 0x40
   87aaa:	f04f 0a02 	mov.w	sl, #2
   87aae:	e9cd 2312 	strd	r2, r3, [sp, #72]	; 0x48
   87ab2:	e656      	b.n	87762 <_dtoa_r+0x7aa>
   87ab4:	2100      	movs	r1, #0
   87ab6:	2301      	movs	r3, #1
   87ab8:	4620      	mov	r0, r4
   87aba:	6461      	str	r1, [r4, #68]	; 0x44
   87abc:	9325      	str	r3, [sp, #148]	; 0x94
   87abe:	f000 fd33 	bl	88528 <_Balloc>
   87ac2:	9b25      	ldr	r3, [sp, #148]	; 0x94
   87ac4:	9004      	str	r0, [sp, #16]
   87ac6:	9307      	str	r3, [sp, #28]
   87ac8:	9b25      	ldr	r3, [sp, #148]	; 0x94
   87aca:	6420      	str	r0, [r4, #64]	; 0x40
   87acc:	930f      	str	r3, [sp, #60]	; 0x3c
   87ace:	e627      	b.n	87720 <_dtoa_r+0x768>
   87ad0:	2a00      	cmp	r2, #0
   87ad2:	46d0      	mov	r8, sl
   87ad4:	f8cd b020 	str.w	fp, [sp, #32]
   87ad8:	469a      	mov	sl, r3
   87ada:	dd11      	ble.n	87b00 <_dtoa_r+0xb48>
   87adc:	4649      	mov	r1, r9
   87ade:	2201      	movs	r2, #1
   87ae0:	4620      	mov	r0, r4
   87ae2:	f000 fecf 	bl	88884 <__lshift>
   87ae6:	4641      	mov	r1, r8
   87ae8:	4681      	mov	r9, r0
   87aea:	f000 ff1b 	bl	88924 <__mcmp>
   87aee:	2800      	cmp	r0, #0
   87af0:	f340 8145 	ble.w	87d7e <_dtoa_r+0xdc6>
   87af4:	f1ba 0f39 	cmp.w	sl, #57	; 0x39
   87af8:	f000 8105 	beq.w	87d06 <_dtoa_r+0xd4e>
   87afc:	f105 0a31 	add.w	sl, r5, #49	; 0x31
   87b00:	46b3      	mov	fp, r6
   87b02:	f887 a000 	strb.w	sl, [r7]
   87b06:	1c7d      	adds	r5, r7, #1
   87b08:	9e08      	ldr	r6, [sp, #32]
   87b0a:	e5d0      	b.n	876ae <_dtoa_r+0x6f6>
   87b0c:	d104      	bne.n	87b18 <_dtoa_r+0xb60>
   87b0e:	f01a 0f01 	tst.w	sl, #1
   87b12:	d001      	beq.n	87b18 <_dtoa_r+0xb60>
   87b14:	e5bb      	b.n	8768e <_dtoa_r+0x6d6>
   87b16:	4615      	mov	r5, r2
   87b18:	f815 3c01 	ldrb.w	r3, [r5, #-1]
   87b1c:	1e6a      	subs	r2, r5, #1
   87b1e:	2b30      	cmp	r3, #48	; 0x30
   87b20:	d0f9      	beq.n	87b16 <_dtoa_r+0xb5e>
   87b22:	e5c4      	b.n	876ae <_dtoa_r+0x6f6>
   87b24:	2230      	movs	r2, #48	; 0x30
   87b26:	9904      	ldr	r1, [sp, #16]
   87b28:	700a      	strb	r2, [r1, #0]
   87b2a:	9a02      	ldr	r2, [sp, #8]
   87b2c:	f815 8c01 	ldrb.w	r8, [r5, #-1]
   87b30:	3201      	adds	r2, #1
   87b32:	9202      	str	r2, [sp, #8]
   87b34:	f7ff bbfb 	b.w	8732e <_dtoa_r+0x376>
   87b38:	f000 80bb 	beq.w	87cb2 <_dtoa_r+0xcfa>
   87b3c:	e9dd 0110 	ldrd	r0, r1, [sp, #64]	; 0x40
   87b40:	9b02      	ldr	r3, [sp, #8]
   87b42:	f04f 0a02 	mov.w	sl, #2
   87b46:	425d      	negs	r5, r3
   87b48:	4b82      	ldr	r3, [pc, #520]	; (87d54 <_dtoa_r+0xd9c>)
   87b4a:	f005 020f 	and.w	r2, r5, #15
   87b4e:	eb03 03c2 	add.w	r3, r3, r2, lsl #3
   87b52:	e9d3 2300 	ldrd	r2, r3, [r3]
   87b56:	f7fd f935 	bl	84dc4 <__aeabi_dmul>
   87b5a:	112d      	asrs	r5, r5, #4
   87b5c:	4607      	mov	r7, r0
   87b5e:	4688      	mov	r8, r1
   87b60:	f43f ae1a 	beq.w	87798 <_dtoa_r+0x7e0>
   87b64:	4e7c      	ldr	r6, [pc, #496]	; (87d58 <_dtoa_r+0xda0>)
   87b66:	07eb      	lsls	r3, r5, #31
   87b68:	d509      	bpl.n	87b7e <_dtoa_r+0xbc6>
   87b6a:	e9d6 2300 	ldrd	r2, r3, [r6]
   87b6e:	4638      	mov	r0, r7
   87b70:	4641      	mov	r1, r8
   87b72:	f7fd f927 	bl	84dc4 <__aeabi_dmul>
   87b76:	4607      	mov	r7, r0
   87b78:	4688      	mov	r8, r1
   87b7a:	f10a 0a01 	add.w	sl, sl, #1
   87b7e:	106d      	asrs	r5, r5, #1
   87b80:	f106 0608 	add.w	r6, r6, #8
   87b84:	d1ef      	bne.n	87b66 <_dtoa_r+0xbae>
   87b86:	e607      	b.n	87798 <_dtoa_r+0x7e0>
   87b88:	6871      	ldr	r1, [r6, #4]
   87b8a:	4620      	mov	r0, r4
   87b8c:	f000 fccc 	bl	88528 <_Balloc>
   87b90:	4605      	mov	r5, r0
   87b92:	6933      	ldr	r3, [r6, #16]
   87b94:	f106 010c 	add.w	r1, r6, #12
   87b98:	3302      	adds	r3, #2
   87b9a:	009a      	lsls	r2, r3, #2
   87b9c:	300c      	adds	r0, #12
   87b9e:	f000 fc41 	bl	88424 <memcpy>
   87ba2:	4629      	mov	r1, r5
   87ba4:	2201      	movs	r2, #1
   87ba6:	4620      	mov	r0, r4
   87ba8:	f000 fe6c 	bl	88884 <__lshift>
   87bac:	9008      	str	r0, [sp, #32]
   87bae:	e4b6      	b.n	8751e <_dtoa_r+0x566>
   87bb0:	2b39      	cmp	r3, #57	; 0x39
   87bb2:	f8cd b020 	str.w	fp, [sp, #32]
   87bb6:	46d0      	mov	r8, sl
   87bb8:	f000 80a5 	beq.w	87d06 <_dtoa_r+0xd4e>
   87bbc:	f103 0a01 	add.w	sl, r3, #1
   87bc0:	46b3      	mov	fp, r6
   87bc2:	f887 a000 	strb.w	sl, [r7]
   87bc6:	1c7d      	adds	r5, r7, #1
   87bc8:	9e08      	ldr	r6, [sp, #32]
   87bca:	e570      	b.n	876ae <_dtoa_r+0x6f6>
   87bcc:	465a      	mov	r2, fp
   87bce:	46d0      	mov	r8, sl
   87bd0:	46b3      	mov	fp, r6
   87bd2:	469a      	mov	sl, r3
   87bd4:	4616      	mov	r6, r2
   87bd6:	e54e      	b.n	87676 <_dtoa_r+0x6be>
   87bd8:	9812      	ldr	r0, [sp, #72]	; 0x48
   87bda:	495e      	ldr	r1, [pc, #376]	; (87d54 <_dtoa_r+0xd9c>)
   87bdc:	462a      	mov	r2, r5
   87bde:	eb01 01c0 	add.w	r1, r1, r0, lsl #3
   87be2:	4633      	mov	r3, r6
   87be4:	e951 0102 	ldrd	r0, r1, [r1, #-8]
   87be8:	f7fd f8ec 	bl	84dc4 <__aeabi_dmul>
   87bec:	e9cd 0116 	strd	r0, r1, [sp, #88]	; 0x58
   87bf0:	4638      	mov	r0, r7
   87bf2:	4641      	mov	r1, r8
   87bf4:	f001 fcc6 	bl	89584 <__aeabi_d2iz>
   87bf8:	4605      	mov	r5, r0
   87bfa:	f7fd f87d 	bl	84cf8 <__aeabi_i2d>
   87bfe:	4602      	mov	r2, r0
   87c00:	460b      	mov	r3, r1
   87c02:	4638      	mov	r0, r7
   87c04:	4641      	mov	r1, r8
   87c06:	f7fc ff29 	bl	84a5c <__aeabi_dsub>
   87c0a:	4606      	mov	r6, r0
   87c0c:	9812      	ldr	r0, [sp, #72]	; 0x48
   87c0e:	9a04      	ldr	r2, [sp, #16]
   87c10:	3530      	adds	r5, #48	; 0x30
   87c12:	2801      	cmp	r0, #1
   87c14:	7015      	strb	r5, [r2, #0]
   87c16:	460f      	mov	r7, r1
   87c18:	f102 0501 	add.w	r5, r2, #1
   87c1c:	d026      	beq.n	87c6c <_dtoa_r+0xcb4>
   87c1e:	9b12      	ldr	r3, [sp, #72]	; 0x48
   87c20:	9a04      	ldr	r2, [sp, #16]
   87c22:	f8cd 9048 	str.w	r9, [sp, #72]	; 0x48
   87c26:	4413      	add	r3, r2
   87c28:	f04f 0a00 	mov.w	sl, #0
   87c2c:	4699      	mov	r9, r3
   87c2e:	f8df b130 	ldr.w	fp, [pc, #304]	; 87d60 <_dtoa_r+0xda8>
   87c32:	4652      	mov	r2, sl
   87c34:	465b      	mov	r3, fp
   87c36:	4630      	mov	r0, r6
   87c38:	4639      	mov	r1, r7
   87c3a:	f7fd f8c3 	bl	84dc4 <__aeabi_dmul>
   87c3e:	460f      	mov	r7, r1
   87c40:	4606      	mov	r6, r0
   87c42:	f001 fc9f 	bl	89584 <__aeabi_d2iz>
   87c46:	4680      	mov	r8, r0
   87c48:	f7fd f856 	bl	84cf8 <__aeabi_i2d>
   87c4c:	4602      	mov	r2, r0
   87c4e:	460b      	mov	r3, r1
   87c50:	4630      	mov	r0, r6
   87c52:	4639      	mov	r1, r7
   87c54:	f7fc ff02 	bl	84a5c <__aeabi_dsub>
   87c58:	f108 0830 	add.w	r8, r8, #48	; 0x30
   87c5c:	f805 8b01 	strb.w	r8, [r5], #1
   87c60:	454d      	cmp	r5, r9
   87c62:	4606      	mov	r6, r0
   87c64:	460f      	mov	r7, r1
   87c66:	d1e4      	bne.n	87c32 <_dtoa_r+0xc7a>
   87c68:	f8dd 9048 	ldr.w	r9, [sp, #72]	; 0x48
   87c6c:	2200      	movs	r2, #0
   87c6e:	e9dd 0116 	ldrd	r0, r1, [sp, #88]	; 0x58
   87c72:	4b3a      	ldr	r3, [pc, #232]	; (87d5c <_dtoa_r+0xda4>)
   87c74:	f7fc fef4 	bl	84a60 <__adddf3>
   87c78:	4632      	mov	r2, r6
   87c7a:	463b      	mov	r3, r7
   87c7c:	f001 fc44 	bl	89508 <__aeabi_dcmplt>
   87c80:	2800      	cmp	r0, #0
   87c82:	d046      	beq.n	87d12 <_dtoa_r+0xd5a>
   87c84:	9b15      	ldr	r3, [sp, #84]	; 0x54
   87c86:	9302      	str	r3, [sp, #8]
   87c88:	f815 8c01 	ldrb.w	r8, [r5, #-1]
   87c8c:	f7ff bb42 	b.w	87314 <_dtoa_r+0x35c>
   87c90:	f04f 0800 	mov.w	r8, #0
   87c94:	4646      	mov	r6, r8
   87c96:	e6a8      	b.n	879ea <_dtoa_r+0xa32>
   87c98:	9b0a      	ldr	r3, [sp, #40]	; 0x28
   87c9a:	9a07      	ldr	r2, [sp, #28]
   87c9c:	1a9d      	subs	r5, r3, r2
   87c9e:	2300      	movs	r3, #0
   87ca0:	f7ff bb70 	b.w	87384 <_dtoa_r+0x3cc>
   87ca4:	9b18      	ldr	r3, [sp, #96]	; 0x60
   87ca6:	9f0c      	ldr	r7, [sp, #48]	; 0x30
   87ca8:	f1c3 0336 	rsb	r3, r3, #54	; 0x36
   87cac:	9d0a      	ldr	r5, [sp, #40]	; 0x28
   87cae:	f7ff bb69 	b.w	87384 <_dtoa_r+0x3cc>
   87cb2:	e9dd 7810 	ldrd	r7, r8, [sp, #64]	; 0x40
   87cb6:	f04f 0a02 	mov.w	sl, #2
   87cba:	e56d      	b.n	87798 <_dtoa_r+0x7e0>
   87cbc:	9b07      	ldr	r3, [sp, #28]
   87cbe:	2b00      	cmp	r3, #0
   87cc0:	f43f aeb8 	beq.w	87a34 <_dtoa_r+0xa7c>
   87cc4:	9b0f      	ldr	r3, [sp, #60]	; 0x3c
   87cc6:	2b00      	cmp	r3, #0
   87cc8:	f77f aede 	ble.w	87a88 <_dtoa_r+0xad0>
   87ccc:	2200      	movs	r2, #0
   87cce:	4b24      	ldr	r3, [pc, #144]	; (87d60 <_dtoa_r+0xda8>)
   87cd0:	4638      	mov	r0, r7
   87cd2:	4641      	mov	r1, r8
   87cd4:	f7fd f876 	bl	84dc4 <__aeabi_dmul>
   87cd8:	4607      	mov	r7, r0
   87cda:	4688      	mov	r8, r1
   87cdc:	f10a 0001 	add.w	r0, sl, #1
   87ce0:	f7fd f80a 	bl	84cf8 <__aeabi_i2d>
   87ce4:	463a      	mov	r2, r7
   87ce6:	4643      	mov	r3, r8
   87ce8:	f7fd f86c 	bl	84dc4 <__aeabi_dmul>
   87cec:	2200      	movs	r2, #0
   87cee:	4b17      	ldr	r3, [pc, #92]	; (87d4c <_dtoa_r+0xd94>)
   87cf0:	f7fc feb6 	bl	84a60 <__adddf3>
   87cf4:	9a02      	ldr	r2, [sp, #8]
   87cf6:	9b0f      	ldr	r3, [sp, #60]	; 0x3c
   87cf8:	3a01      	subs	r2, #1
   87cfa:	4605      	mov	r5, r0
   87cfc:	9215      	str	r2, [sp, #84]	; 0x54
   87cfe:	f1a1 7650 	sub.w	r6, r1, #54525952	; 0x3400000
   87d02:	9312      	str	r3, [sp, #72]	; 0x48
   87d04:	e569      	b.n	877da <_dtoa_r+0x822>
   87d06:	2239      	movs	r2, #57	; 0x39
   87d08:	46b3      	mov	fp, r6
   87d0a:	703a      	strb	r2, [r7, #0]
   87d0c:	9e08      	ldr	r6, [sp, #32]
   87d0e:	1c7d      	adds	r5, r7, #1
   87d10:	e4bf      	b.n	87692 <_dtoa_r+0x6da>
   87d12:	e9dd 2316 	ldrd	r2, r3, [sp, #88]	; 0x58
   87d16:	2000      	movs	r0, #0
   87d18:	4910      	ldr	r1, [pc, #64]	; (87d5c <_dtoa_r+0xda4>)
   87d1a:	f7fc fe9f 	bl	84a5c <__aeabi_dsub>
   87d1e:	4632      	mov	r2, r6
   87d20:	463b      	mov	r3, r7
   87d22:	f001 fc0f 	bl	89544 <__aeabi_dcmpgt>
   87d26:	b908      	cbnz	r0, 87d2c <_dtoa_r+0xd74>
   87d28:	e6ae      	b.n	87a88 <_dtoa_r+0xad0>
   87d2a:	4615      	mov	r5, r2
   87d2c:	f815 3c01 	ldrb.w	r3, [r5, #-1]
   87d30:	1e6a      	subs	r2, r5, #1
   87d32:	2b30      	cmp	r3, #48	; 0x30
   87d34:	d0f9      	beq.n	87d2a <_dtoa_r+0xd72>
   87d36:	e5d7      	b.n	878e8 <_dtoa_r+0x930>
   87d38:	f8dd 9048 	ldr.w	r9, [sp, #72]	; 0x48
   87d3c:	9b15      	ldr	r3, [sp, #84]	; 0x54
   87d3e:	9302      	str	r3, [sp, #8]
   87d40:	f7ff bae8 	b.w	87314 <_dtoa_r+0x35c>
   87d44:	970c      	str	r7, [sp, #48]	; 0x30
   87d46:	f7ff bba7 	b.w	87498 <_dtoa_r+0x4e0>
   87d4a:	bf00      	nop
   87d4c:	401c0000 	.word	0x401c0000
   87d50:	40140000 	.word	0x40140000
   87d54:	00089ad8 	.word	0x00089ad8
   87d58:	00089ab0 	.word	0x00089ab0
   87d5c:	3fe00000 	.word	0x3fe00000
   87d60:	40240000 	.word	0x40240000
   87d64:	2b39      	cmp	r3, #57	; 0x39
   87d66:	f8cd b020 	str.w	fp, [sp, #32]
   87d6a:	46d0      	mov	r8, sl
   87d6c:	f8dd b01c 	ldr.w	fp, [sp, #28]
   87d70:	469a      	mov	sl, r3
   87d72:	d0c8      	beq.n	87d06 <_dtoa_r+0xd4e>
   87d74:	f1bb 0f00 	cmp.w	fp, #0
   87d78:	f73f aec0 	bgt.w	87afc <_dtoa_r+0xb44>
   87d7c:	e6c0      	b.n	87b00 <_dtoa_r+0xb48>
   87d7e:	f47f aebf 	bne.w	87b00 <_dtoa_r+0xb48>
   87d82:	f01a 0f01 	tst.w	sl, #1
   87d86:	f43f aebb 	beq.w	87b00 <_dtoa_r+0xb48>
   87d8a:	e6b3      	b.n	87af4 <_dtoa_r+0xb3c>
   87d8c:	f04f 0800 	mov.w	r8, #0
   87d90:	4646      	mov	r6, r8
   87d92:	e5e8      	b.n	87966 <_dtoa_r+0x9ae>
   87d94:	4631      	mov	r1, r6
   87d96:	2300      	movs	r3, #0
   87d98:	220a      	movs	r2, #10
   87d9a:	4620      	mov	r0, r4
   87d9c:	f000 fbf4 	bl	88588 <__multadd>
   87da0:	9b0f      	ldr	r3, [sp, #60]	; 0x3c
   87da2:	4606      	mov	r6, r0
   87da4:	2b00      	cmp	r3, #0
   87da6:	dd07      	ble.n	87db8 <_dtoa_r+0xe00>
   87da8:	9307      	str	r3, [sp, #28]
   87daa:	f7ff bbab 	b.w	87504 <_dtoa_r+0x54c>
   87dae:	9b24      	ldr	r3, [sp, #144]	; 0x90
   87db0:	2b02      	cmp	r3, #2
   87db2:	dc1f      	bgt.n	87df4 <_dtoa_r+0xe3c>
   87db4:	9b0f      	ldr	r3, [sp, #60]	; 0x3c
   87db6:	e43c      	b.n	87632 <_dtoa_r+0x67a>
   87db8:	9b24      	ldr	r3, [sp, #144]	; 0x90
   87dba:	2b02      	cmp	r3, #2
   87dbc:	dc1a      	bgt.n	87df4 <_dtoa_r+0xe3c>
   87dbe:	9b0f      	ldr	r3, [sp, #60]	; 0x3c
   87dc0:	e7f2      	b.n	87da8 <_dtoa_r+0xdf0>
   87dc2:	f43f ab81 	beq.w	874c8 <_dtoa_r+0x510>
   87dc6:	f1c0 003c 	rsb	r0, r0, #60	; 0x3c
   87dca:	e411      	b.n	875f0 <_dtoa_r+0x638>
   87dcc:	2500      	movs	r5, #0
   87dce:	4620      	mov	r0, r4
   87dd0:	6465      	str	r5, [r4, #68]	; 0x44
   87dd2:	4629      	mov	r1, r5
   87dd4:	f000 fba8 	bl	88528 <_Balloc>
   87dd8:	f04f 33ff 	mov.w	r3, #4294967295
   87ddc:	9307      	str	r3, [sp, #28]
   87dde:	930f      	str	r3, [sp, #60]	; 0x3c
   87de0:	2301      	movs	r3, #1
   87de2:	9004      	str	r0, [sp, #16]
   87de4:	9525      	str	r5, [sp, #148]	; 0x94
   87de6:	6420      	str	r0, [r4, #64]	; 0x40
   87de8:	930b      	str	r3, [sp, #44]	; 0x2c
   87dea:	f7ff b9e0 	b.w	871ae <_dtoa_r+0x1f6>
   87dee:	2501      	movs	r5, #1
   87df0:	f7ff b9a8 	b.w	87144 <_dtoa_r+0x18c>
   87df4:	9b0f      	ldr	r3, [sp, #60]	; 0x3c
   87df6:	9307      	str	r3, [sp, #28]
   87df8:	e5e8      	b.n	879cc <_dtoa_r+0xa14>
   87dfa:	bf00      	nop

00087dfc <__libc_fini_array>:
   87dfc:	b538      	push	{r3, r4, r5, lr}
   87dfe:	4c0a      	ldr	r4, [pc, #40]	; (87e28 <__libc_fini_array+0x2c>)
   87e00:	4d0a      	ldr	r5, [pc, #40]	; (87e2c <__libc_fini_array+0x30>)
   87e02:	1b64      	subs	r4, r4, r5
   87e04:	10a4      	asrs	r4, r4, #2
   87e06:	d00a      	beq.n	87e1e <__libc_fini_array+0x22>
   87e08:	f104 4380 	add.w	r3, r4, #1073741824	; 0x40000000
   87e0c:	3b01      	subs	r3, #1
   87e0e:	eb05 0583 	add.w	r5, r5, r3, lsl #2
   87e12:	3c01      	subs	r4, #1
   87e14:	f855 3904 	ldr.w	r3, [r5], #-4
   87e18:	4798      	blx	r3
   87e1a:	2c00      	cmp	r4, #0
   87e1c:	d1f9      	bne.n	87e12 <__libc_fini_array+0x16>
   87e1e:	e8bd 4038 	ldmia.w	sp!, {r3, r4, r5, lr}
   87e22:	f001 bf57 	b.w	89cd4 <_fini>
   87e26:	bf00      	nop
   87e28:	00089ce4 	.word	0x00089ce4
   87e2c:	00089ce0 	.word	0x00089ce0

00087e30 <_localeconv_r>:
   87e30:	4a04      	ldr	r2, [pc, #16]	; (87e44 <_localeconv_r+0x14>)
   87e32:	4b05      	ldr	r3, [pc, #20]	; (87e48 <_localeconv_r+0x18>)
   87e34:	6812      	ldr	r2, [r2, #0]
   87e36:	6b50      	ldr	r0, [r2, #52]	; 0x34
   87e38:	2800      	cmp	r0, #0
   87e3a:	bf08      	it	eq
   87e3c:	4618      	moveq	r0, r3
   87e3e:	30f0      	adds	r0, #240	; 0xf0
   87e40:	4770      	bx	lr
   87e42:	bf00      	nop
   87e44:	200701a4 	.word	0x200701a4
   87e48:	200709e4 	.word	0x200709e4

00087e4c <__retarget_lock_acquire_recursive>:
   87e4c:	4770      	bx	lr
   87e4e:	bf00      	nop

00087e50 <__retarget_lock_release_recursive>:
   87e50:	4770      	bx	lr
   87e52:	bf00      	nop

00087e54 <_malloc_r>:
   87e54:	e92d 4ff0 	stmdb	sp!, {r4, r5, r6, r7, r8, r9, sl, fp, lr}
   87e58:	f101 060b 	add.w	r6, r1, #11
   87e5c:	2e16      	cmp	r6, #22
   87e5e:	b083      	sub	sp, #12
   87e60:	4605      	mov	r5, r0
   87e62:	f240 809e 	bls.w	87fa2 <_malloc_r+0x14e>
   87e66:	f036 0607 	bics.w	r6, r6, #7
   87e6a:	f100 80bd 	bmi.w	87fe8 <_malloc_r+0x194>
   87e6e:	42b1      	cmp	r1, r6
   87e70:	f200 80ba 	bhi.w	87fe8 <_malloc_r+0x194>
   87e74:	f000 fb4c 	bl	88510 <__malloc_lock>
   87e78:	f5b6 7ffc 	cmp.w	r6, #504	; 0x1f8
   87e7c:	f0c0 8285 	bcc.w	8838a <_malloc_r+0x536>
   87e80:	0a73      	lsrs	r3, r6, #9
   87e82:	f000 80b8 	beq.w	87ff6 <_malloc_r+0x1a2>
   87e86:	2b04      	cmp	r3, #4
   87e88:	f200 816c 	bhi.w	88164 <_malloc_r+0x310>
   87e8c:	09b3      	lsrs	r3, r6, #6
   87e8e:	f103 0039 	add.w	r0, r3, #57	; 0x39
   87e92:	f103 0e38 	add.w	lr, r3, #56	; 0x38
   87e96:	00c1      	lsls	r1, r0, #3
   87e98:	4fb8      	ldr	r7, [pc, #736]	; (8817c <_malloc_r+0x328>)
   87e9a:	4439      	add	r1, r7
   87e9c:	684c      	ldr	r4, [r1, #4]
   87e9e:	3908      	subs	r1, #8
   87ea0:	42a1      	cmp	r1, r4
   87ea2:	d106      	bne.n	87eb2 <_malloc_r+0x5e>
   87ea4:	e00c      	b.n	87ec0 <_malloc_r+0x6c>
   87ea6:	2a00      	cmp	r2, #0
   87ea8:	f280 80ab 	bge.w	88002 <_malloc_r+0x1ae>
   87eac:	68e4      	ldr	r4, [r4, #12]
   87eae:	42a1      	cmp	r1, r4
   87eb0:	d006      	beq.n	87ec0 <_malloc_r+0x6c>
   87eb2:	6863      	ldr	r3, [r4, #4]
   87eb4:	f023 0303 	bic.w	r3, r3, #3
   87eb8:	1b9a      	subs	r2, r3, r6
   87eba:	2a0f      	cmp	r2, #15
   87ebc:	ddf3      	ble.n	87ea6 <_malloc_r+0x52>
   87ebe:	4670      	mov	r0, lr
   87ec0:	693c      	ldr	r4, [r7, #16]
   87ec2:	f8df e2cc 	ldr.w	lr, [pc, #716]	; 88190 <_malloc_r+0x33c>
   87ec6:	4574      	cmp	r4, lr
   87ec8:	f000 819e 	beq.w	88208 <_malloc_r+0x3b4>
   87ecc:	6863      	ldr	r3, [r4, #4]
   87ece:	f023 0303 	bic.w	r3, r3, #3
   87ed2:	1b9a      	subs	r2, r3, r6
   87ed4:	2a0f      	cmp	r2, #15
   87ed6:	f300 8183 	bgt.w	881e0 <_malloc_r+0x38c>
   87eda:	2a00      	cmp	r2, #0
   87edc:	f8c7 e014 	str.w	lr, [r7, #20]
   87ee0:	f8c7 e010 	str.w	lr, [r7, #16]
   87ee4:	f280 8091 	bge.w	8800a <_malloc_r+0x1b6>
   87ee8:	f5b3 7f00 	cmp.w	r3, #512	; 0x200
   87eec:	f080 8154 	bcs.w	88198 <_malloc_r+0x344>
   87ef0:	2201      	movs	r2, #1
   87ef2:	08db      	lsrs	r3, r3, #3
   87ef4:	6879      	ldr	r1, [r7, #4]
   87ef6:	ea4f 0ca3 	mov.w	ip, r3, asr #2
   87efa:	4413      	add	r3, r2
   87efc:	f857 8033 	ldr.w	r8, [r7, r3, lsl #3]
   87f00:	fa02 f20c 	lsl.w	r2, r2, ip
   87f04:	eb07 0cc3 	add.w	ip, r7, r3, lsl #3
   87f08:	430a      	orrs	r2, r1
   87f0a:	f1ac 0108 	sub.w	r1, ip, #8
   87f0e:	60e1      	str	r1, [r4, #12]
   87f10:	f8c4 8008 	str.w	r8, [r4, #8]
   87f14:	607a      	str	r2, [r7, #4]
   87f16:	f847 4033 	str.w	r4, [r7, r3, lsl #3]
   87f1a:	f8c8 400c 	str.w	r4, [r8, #12]
   87f1e:	2401      	movs	r4, #1
   87f20:	1083      	asrs	r3, r0, #2
   87f22:	409c      	lsls	r4, r3
   87f24:	4294      	cmp	r4, r2
   87f26:	d87d      	bhi.n	88024 <_malloc_r+0x1d0>
   87f28:	4214      	tst	r4, r2
   87f2a:	d106      	bne.n	87f3a <_malloc_r+0xe6>
   87f2c:	f020 0003 	bic.w	r0, r0, #3
   87f30:	0064      	lsls	r4, r4, #1
   87f32:	4214      	tst	r4, r2
   87f34:	f100 0004 	add.w	r0, r0, #4
   87f38:	d0fa      	beq.n	87f30 <_malloc_r+0xdc>
   87f3a:	eb07 09c0 	add.w	r9, r7, r0, lsl #3
   87f3e:	46cc      	mov	ip, r9
   87f40:	4680      	mov	r8, r0
   87f42:	f8dc 300c 	ldr.w	r3, [ip, #12]
   87f46:	459c      	cmp	ip, r3
   87f48:	d107      	bne.n	87f5a <_malloc_r+0x106>
   87f4a:	e15f      	b.n	8820c <_malloc_r+0x3b8>
   87f4c:	2a00      	cmp	r2, #0
   87f4e:	f280 816d 	bge.w	8822c <_malloc_r+0x3d8>
   87f52:	68db      	ldr	r3, [r3, #12]
   87f54:	459c      	cmp	ip, r3
   87f56:	f000 8159 	beq.w	8820c <_malloc_r+0x3b8>
   87f5a:	6859      	ldr	r1, [r3, #4]
   87f5c:	f021 0103 	bic.w	r1, r1, #3
   87f60:	1b8a      	subs	r2, r1, r6
   87f62:	2a0f      	cmp	r2, #15
   87f64:	ddf2      	ble.n	87f4c <_malloc_r+0xf8>
   87f66:	68dc      	ldr	r4, [r3, #12]
   87f68:	f8d3 c008 	ldr.w	ip, [r3, #8]
   87f6c:	f046 0801 	orr.w	r8, r6, #1
   87f70:	4628      	mov	r0, r5
   87f72:	441e      	add	r6, r3
   87f74:	f042 0501 	orr.w	r5, r2, #1
   87f78:	f8c3 8004 	str.w	r8, [r3, #4]
   87f7c:	f8cc 400c 	str.w	r4, [ip, #12]
   87f80:	f8c4 c008 	str.w	ip, [r4, #8]
   87f84:	617e      	str	r6, [r7, #20]
   87f86:	613e      	str	r6, [r7, #16]
   87f88:	f8c6 e00c 	str.w	lr, [r6, #12]
   87f8c:	f8c6 e008 	str.w	lr, [r6, #8]
   87f90:	6075      	str	r5, [r6, #4]
   87f92:	505a      	str	r2, [r3, r1]
   87f94:	9300      	str	r3, [sp, #0]
   87f96:	f000 fac1 	bl	8851c <__malloc_unlock>
   87f9a:	9b00      	ldr	r3, [sp, #0]
   87f9c:	f103 0408 	add.w	r4, r3, #8
   87fa0:	e01e      	b.n	87fe0 <_malloc_r+0x18c>
   87fa2:	2910      	cmp	r1, #16
   87fa4:	d820      	bhi.n	87fe8 <_malloc_r+0x194>
   87fa6:	f000 fab3 	bl	88510 <__malloc_lock>
   87faa:	2610      	movs	r6, #16
   87fac:	2318      	movs	r3, #24
   87fae:	2002      	movs	r0, #2
   87fb0:	4f72      	ldr	r7, [pc, #456]	; (8817c <_malloc_r+0x328>)
   87fb2:	443b      	add	r3, r7
   87fb4:	685c      	ldr	r4, [r3, #4]
   87fb6:	f1a3 0208 	sub.w	r2, r3, #8
   87fba:	4294      	cmp	r4, r2
   87fbc:	f000 812f 	beq.w	8821e <_malloc_r+0x3ca>
   87fc0:	6863      	ldr	r3, [r4, #4]
   87fc2:	68e1      	ldr	r1, [r4, #12]
   87fc4:	f023 0303 	bic.w	r3, r3, #3
   87fc8:	4423      	add	r3, r4
   87fca:	685a      	ldr	r2, [r3, #4]
   87fcc:	68a6      	ldr	r6, [r4, #8]
   87fce:	f042 0201 	orr.w	r2, r2, #1
   87fd2:	60f1      	str	r1, [r6, #12]
   87fd4:	4628      	mov	r0, r5
   87fd6:	608e      	str	r6, [r1, #8]
   87fd8:	605a      	str	r2, [r3, #4]
   87fda:	f000 fa9f 	bl	8851c <__malloc_unlock>
   87fde:	3408      	adds	r4, #8
   87fe0:	4620      	mov	r0, r4
   87fe2:	b003      	add	sp, #12
   87fe4:	e8bd 8ff0 	ldmia.w	sp!, {r4, r5, r6, r7, r8, r9, sl, fp, pc}
   87fe8:	2400      	movs	r4, #0
   87fea:	230c      	movs	r3, #12
   87fec:	4620      	mov	r0, r4
   87fee:	602b      	str	r3, [r5, #0]
   87ff0:	b003      	add	sp, #12
   87ff2:	e8bd 8ff0 	ldmia.w	sp!, {r4, r5, r6, r7, r8, r9, sl, fp, pc}
   87ff6:	2040      	movs	r0, #64	; 0x40
   87ff8:	f44f 7100 	mov.w	r1, #512	; 0x200
   87ffc:	f04f 0e3f 	mov.w	lr, #63	; 0x3f
   88000:	e74a      	b.n	87e98 <_malloc_r+0x44>
   88002:	4423      	add	r3, r4
   88004:	685a      	ldr	r2, [r3, #4]
   88006:	68e1      	ldr	r1, [r4, #12]
   88008:	e7e0      	b.n	87fcc <_malloc_r+0x178>
   8800a:	4423      	add	r3, r4
   8800c:	685a      	ldr	r2, [r3, #4]
   8800e:	4628      	mov	r0, r5
   88010:	f042 0201 	orr.w	r2, r2, #1
   88014:	605a      	str	r2, [r3, #4]
   88016:	3408      	adds	r4, #8
   88018:	f000 fa80 	bl	8851c <__malloc_unlock>
   8801c:	4620      	mov	r0, r4
   8801e:	b003      	add	sp, #12
   88020:	e8bd 8ff0 	ldmia.w	sp!, {r4, r5, r6, r7, r8, r9, sl, fp, pc}
   88024:	68bc      	ldr	r4, [r7, #8]
   88026:	6863      	ldr	r3, [r4, #4]
   88028:	f023 0803 	bic.w	r8, r3, #3
   8802c:	45b0      	cmp	r8, r6
   8802e:	d304      	bcc.n	8803a <_malloc_r+0x1e6>
   88030:	eba8 0306 	sub.w	r3, r8, r6
   88034:	2b0f      	cmp	r3, #15
   88036:	f300 8085 	bgt.w	88144 <_malloc_r+0x2f0>
   8803a:	f8df 9158 	ldr.w	r9, [pc, #344]	; 88194 <_malloc_r+0x340>
   8803e:	4b50      	ldr	r3, [pc, #320]	; (88180 <_malloc_r+0x32c>)
   88040:	f8d9 2000 	ldr.w	r2, [r9]
   88044:	681b      	ldr	r3, [r3, #0]
   88046:	3201      	adds	r2, #1
   88048:	4433      	add	r3, r6
   8804a:	eb04 0a08 	add.w	sl, r4, r8
   8804e:	f000 8154 	beq.w	882fa <_malloc_r+0x4a6>
   88052:	f503 5380 	add.w	r3, r3, #4096	; 0x1000
   88056:	330f      	adds	r3, #15
   88058:	f423 6b7f 	bic.w	fp, r3, #4080	; 0xff0
   8805c:	f02b 0b0f 	bic.w	fp, fp, #15
   88060:	4659      	mov	r1, fp
   88062:	4628      	mov	r0, r5
   88064:	f000 fd5c 	bl	88b20 <_sbrk_r>
   88068:	1c41      	adds	r1, r0, #1
   8806a:	4602      	mov	r2, r0
   8806c:	f000 80fb 	beq.w	88266 <_malloc_r+0x412>
   88070:	4582      	cmp	sl, r0
   88072:	f200 80f6 	bhi.w	88262 <_malloc_r+0x40e>
   88076:	4b43      	ldr	r3, [pc, #268]	; (88184 <_malloc_r+0x330>)
   88078:	6819      	ldr	r1, [r3, #0]
   8807a:	4459      	add	r1, fp
   8807c:	6019      	str	r1, [r3, #0]
   8807e:	f000 814c 	beq.w	8831a <_malloc_r+0x4c6>
   88082:	f8d9 0000 	ldr.w	r0, [r9]
   88086:	3001      	adds	r0, #1
   88088:	bf1b      	ittet	ne
   8808a:	eba2 0a0a 	subne.w	sl, r2, sl
   8808e:	4451      	addne	r1, sl
   88090:	f8c9 2000 	streq.w	r2, [r9]
   88094:	6019      	strne	r1, [r3, #0]
   88096:	f012 0107 	ands.w	r1, r2, #7
   8809a:	f000 8114 	beq.w	882c6 <_malloc_r+0x472>
   8809e:	f1c1 0008 	rsb	r0, r1, #8
   880a2:	f5c1 5180 	rsb	r1, r1, #4096	; 0x1000
   880a6:	4402      	add	r2, r0
   880a8:	3108      	adds	r1, #8
   880aa:	eb02 090b 	add.w	r9, r2, fp
   880ae:	f3c9 090b 	ubfx	r9, r9, #0, #12
   880b2:	eba1 0909 	sub.w	r9, r1, r9
   880b6:	4649      	mov	r1, r9
   880b8:	4628      	mov	r0, r5
   880ba:	9301      	str	r3, [sp, #4]
   880bc:	9200      	str	r2, [sp, #0]
   880be:	f000 fd2f 	bl	88b20 <_sbrk_r>
   880c2:	1c43      	adds	r3, r0, #1
   880c4:	e89d 000c 	ldmia.w	sp, {r2, r3}
   880c8:	f000 8142 	beq.w	88350 <_malloc_r+0x4fc>
   880cc:	1a80      	subs	r0, r0, r2
   880ce:	4448      	add	r0, r9
   880d0:	f040 0001 	orr.w	r0, r0, #1
   880d4:	6819      	ldr	r1, [r3, #0]
   880d6:	42bc      	cmp	r4, r7
   880d8:	4449      	add	r1, r9
   880da:	60ba      	str	r2, [r7, #8]
   880dc:	6019      	str	r1, [r3, #0]
   880de:	6050      	str	r0, [r2, #4]
   880e0:	d017      	beq.n	88112 <_malloc_r+0x2be>
   880e2:	f1b8 0f0f 	cmp.w	r8, #15
   880e6:	f240 80fa 	bls.w	882de <_malloc_r+0x48a>
   880ea:	f04f 0c05 	mov.w	ip, #5
   880ee:	6862      	ldr	r2, [r4, #4]
   880f0:	f1a8 000c 	sub.w	r0, r8, #12
   880f4:	f020 0007 	bic.w	r0, r0, #7
   880f8:	f002 0201 	and.w	r2, r2, #1
   880fc:	eb04 0e00 	add.w	lr, r4, r0
   88100:	4302      	orrs	r2, r0
   88102:	280f      	cmp	r0, #15
   88104:	6062      	str	r2, [r4, #4]
   88106:	f8ce c004 	str.w	ip, [lr, #4]
   8810a:	f8ce c008 	str.w	ip, [lr, #8]
   8810e:	f200 8116 	bhi.w	8833e <_malloc_r+0x4ea>
   88112:	4b1d      	ldr	r3, [pc, #116]	; (88188 <_malloc_r+0x334>)
   88114:	68bc      	ldr	r4, [r7, #8]
   88116:	681a      	ldr	r2, [r3, #0]
   88118:	4291      	cmp	r1, r2
   8811a:	bf88      	it	hi
   8811c:	6019      	strhi	r1, [r3, #0]
   8811e:	4b1b      	ldr	r3, [pc, #108]	; (8818c <_malloc_r+0x338>)
   88120:	681a      	ldr	r2, [r3, #0]
   88122:	4291      	cmp	r1, r2
   88124:	6862      	ldr	r2, [r4, #4]
   88126:	bf88      	it	hi
   88128:	6019      	strhi	r1, [r3, #0]
   8812a:	f022 0203 	bic.w	r2, r2, #3
   8812e:	4296      	cmp	r6, r2
   88130:	eba2 0306 	sub.w	r3, r2, r6
   88134:	d801      	bhi.n	8813a <_malloc_r+0x2e6>
   88136:	2b0f      	cmp	r3, #15
   88138:	dc04      	bgt.n	88144 <_malloc_r+0x2f0>
   8813a:	4628      	mov	r0, r5
   8813c:	f000 f9ee 	bl	8851c <__malloc_unlock>
   88140:	2400      	movs	r4, #0
   88142:	e74d      	b.n	87fe0 <_malloc_r+0x18c>
   88144:	f046 0201 	orr.w	r2, r6, #1
   88148:	f043 0301 	orr.w	r3, r3, #1
   8814c:	4426      	add	r6, r4
   8814e:	6062      	str	r2, [r4, #4]
   88150:	4628      	mov	r0, r5
   88152:	60be      	str	r6, [r7, #8]
   88154:	3408      	adds	r4, #8
   88156:	6073      	str	r3, [r6, #4]
   88158:	f000 f9e0 	bl	8851c <__malloc_unlock>
   8815c:	4620      	mov	r0, r4
   8815e:	b003      	add	sp, #12
   88160:	e8bd 8ff0 	ldmia.w	sp!, {r4, r5, r6, r7, r8, r9, sl, fp, pc}
   88164:	2b14      	cmp	r3, #20
   88166:	d970      	bls.n	8824a <_malloc_r+0x3f6>
   88168:	2b54      	cmp	r3, #84	; 0x54
   8816a:	f200 80a2 	bhi.w	882b2 <_malloc_r+0x45e>
   8816e:	0b33      	lsrs	r3, r6, #12
   88170:	f103 006f 	add.w	r0, r3, #111	; 0x6f
   88174:	f103 0e6e 	add.w	lr, r3, #110	; 0x6e
   88178:	00c1      	lsls	r1, r0, #3
   8817a:	e68d      	b.n	87e98 <_malloc_r+0x44>
   8817c:	200705d4 	.word	0x200705d4
   88180:	20070e08 	.word	0x20070e08
   88184:	20070dd8 	.word	0x20070dd8
   88188:	20070e00 	.word	0x20070e00
   8818c:	20070e04 	.word	0x20070e04
   88190:	200705dc 	.word	0x200705dc
   88194:	200709dc 	.word	0x200709dc
   88198:	0a5a      	lsrs	r2, r3, #9
   8819a:	2a04      	cmp	r2, #4
   8819c:	d95b      	bls.n	88256 <_malloc_r+0x402>
   8819e:	2a14      	cmp	r2, #20
   881a0:	f200 80ae 	bhi.w	88300 <_malloc_r+0x4ac>
   881a4:	f102 015c 	add.w	r1, r2, #92	; 0x5c
   881a8:	00c9      	lsls	r1, r1, #3
   881aa:	325b      	adds	r2, #91	; 0x5b
   881ac:	eb07 0c01 	add.w	ip, r7, r1
   881b0:	5879      	ldr	r1, [r7, r1]
   881b2:	f1ac 0c08 	sub.w	ip, ip, #8
   881b6:	458c      	cmp	ip, r1
   881b8:	f000 8088 	beq.w	882cc <_malloc_r+0x478>
   881bc:	684a      	ldr	r2, [r1, #4]
   881be:	f022 0203 	bic.w	r2, r2, #3
   881c2:	4293      	cmp	r3, r2
   881c4:	d273      	bcs.n	882ae <_malloc_r+0x45a>
   881c6:	6889      	ldr	r1, [r1, #8]
   881c8:	458c      	cmp	ip, r1
   881ca:	d1f7      	bne.n	881bc <_malloc_r+0x368>
   881cc:	f8dc 300c 	ldr.w	r3, [ip, #12]
   881d0:	687a      	ldr	r2, [r7, #4]
   881d2:	60e3      	str	r3, [r4, #12]
   881d4:	f8c4 c008 	str.w	ip, [r4, #8]
   881d8:	609c      	str	r4, [r3, #8]
   881da:	f8cc 400c 	str.w	r4, [ip, #12]
   881de:	e69e      	b.n	87f1e <_malloc_r+0xca>
   881e0:	f046 0c01 	orr.w	ip, r6, #1
   881e4:	f042 0101 	orr.w	r1, r2, #1
   881e8:	4426      	add	r6, r4
   881ea:	f8c4 c004 	str.w	ip, [r4, #4]
   881ee:	4628      	mov	r0, r5
   881f0:	617e      	str	r6, [r7, #20]
   881f2:	613e      	str	r6, [r7, #16]
   881f4:	f8c6 e00c 	str.w	lr, [r6, #12]
   881f8:	f8c6 e008 	str.w	lr, [r6, #8]
   881fc:	6071      	str	r1, [r6, #4]
   881fe:	50e2      	str	r2, [r4, r3]
   88200:	f000 f98c 	bl	8851c <__malloc_unlock>
   88204:	3408      	adds	r4, #8
   88206:	e6eb      	b.n	87fe0 <_malloc_r+0x18c>
   88208:	687a      	ldr	r2, [r7, #4]
   8820a:	e688      	b.n	87f1e <_malloc_r+0xca>
   8820c:	f108 0801 	add.w	r8, r8, #1
   88210:	f018 0f03 	tst.w	r8, #3
   88214:	f10c 0c08 	add.w	ip, ip, #8
   88218:	f47f ae93 	bne.w	87f42 <_malloc_r+0xee>
   8821c:	e02d      	b.n	8827a <_malloc_r+0x426>
   8821e:	68dc      	ldr	r4, [r3, #12]
   88220:	42a3      	cmp	r3, r4
   88222:	bf08      	it	eq
   88224:	3002      	addeq	r0, #2
   88226:	f43f ae4b 	beq.w	87ec0 <_malloc_r+0x6c>
   8822a:	e6c9      	b.n	87fc0 <_malloc_r+0x16c>
   8822c:	461c      	mov	r4, r3
   8822e:	4419      	add	r1, r3
   88230:	684a      	ldr	r2, [r1, #4]
   88232:	68db      	ldr	r3, [r3, #12]
   88234:	f854 6f08 	ldr.w	r6, [r4, #8]!
   88238:	f042 0201 	orr.w	r2, r2, #1
   8823c:	604a      	str	r2, [r1, #4]
   8823e:	4628      	mov	r0, r5
   88240:	60f3      	str	r3, [r6, #12]
   88242:	609e      	str	r6, [r3, #8]
   88244:	f000 f96a 	bl	8851c <__malloc_unlock>
   88248:	e6ca      	b.n	87fe0 <_malloc_r+0x18c>
   8824a:	f103 005c 	add.w	r0, r3, #92	; 0x5c
   8824e:	f103 0e5b 	add.w	lr, r3, #91	; 0x5b
   88252:	00c1      	lsls	r1, r0, #3
   88254:	e620      	b.n	87e98 <_malloc_r+0x44>
   88256:	099a      	lsrs	r2, r3, #6
   88258:	f102 0139 	add.w	r1, r2, #57	; 0x39
   8825c:	00c9      	lsls	r1, r1, #3
   8825e:	3238      	adds	r2, #56	; 0x38
   88260:	e7a4      	b.n	881ac <_malloc_r+0x358>
   88262:	42bc      	cmp	r4, r7
   88264:	d054      	beq.n	88310 <_malloc_r+0x4bc>
   88266:	68bc      	ldr	r4, [r7, #8]
   88268:	6862      	ldr	r2, [r4, #4]
   8826a:	f022 0203 	bic.w	r2, r2, #3
   8826e:	e75e      	b.n	8812e <_malloc_r+0x2da>
   88270:	f859 3908 	ldr.w	r3, [r9], #-8
   88274:	4599      	cmp	r9, r3
   88276:	f040 8086 	bne.w	88386 <_malloc_r+0x532>
   8827a:	f010 0f03 	tst.w	r0, #3
   8827e:	f100 30ff 	add.w	r0, r0, #4294967295
   88282:	d1f5      	bne.n	88270 <_malloc_r+0x41c>
   88284:	687b      	ldr	r3, [r7, #4]
   88286:	ea23 0304 	bic.w	r3, r3, r4
   8828a:	607b      	str	r3, [r7, #4]
   8828c:	0064      	lsls	r4, r4, #1
   8828e:	429c      	cmp	r4, r3
   88290:	f63f aec8 	bhi.w	88024 <_malloc_r+0x1d0>
   88294:	2c00      	cmp	r4, #0
   88296:	f43f aec5 	beq.w	88024 <_malloc_r+0x1d0>
   8829a:	421c      	tst	r4, r3
   8829c:	4640      	mov	r0, r8
   8829e:	f47f ae4c 	bne.w	87f3a <_malloc_r+0xe6>
   882a2:	0064      	lsls	r4, r4, #1
   882a4:	421c      	tst	r4, r3
   882a6:	f100 0004 	add.w	r0, r0, #4
   882aa:	d0fa      	beq.n	882a2 <_malloc_r+0x44e>
   882ac:	e645      	b.n	87f3a <_malloc_r+0xe6>
   882ae:	468c      	mov	ip, r1
   882b0:	e78c      	b.n	881cc <_malloc_r+0x378>
   882b2:	f5b3 7faa 	cmp.w	r3, #340	; 0x154
   882b6:	d815      	bhi.n	882e4 <_malloc_r+0x490>
   882b8:	0bf3      	lsrs	r3, r6, #15
   882ba:	f103 0078 	add.w	r0, r3, #120	; 0x78
   882be:	f103 0e77 	add.w	lr, r3, #119	; 0x77
   882c2:	00c1      	lsls	r1, r0, #3
   882c4:	e5e8      	b.n	87e98 <_malloc_r+0x44>
   882c6:	f44f 5180 	mov.w	r1, #4096	; 0x1000
   882ca:	e6ee      	b.n	880aa <_malloc_r+0x256>
   882cc:	2101      	movs	r1, #1
   882ce:	687b      	ldr	r3, [r7, #4]
   882d0:	1092      	asrs	r2, r2, #2
   882d2:	fa01 f202 	lsl.w	r2, r1, r2
   882d6:	431a      	orrs	r2, r3
   882d8:	607a      	str	r2, [r7, #4]
   882da:	4663      	mov	r3, ip
   882dc:	e779      	b.n	881d2 <_malloc_r+0x37e>
   882de:	2301      	movs	r3, #1
   882e0:	6053      	str	r3, [r2, #4]
   882e2:	e72a      	b.n	8813a <_malloc_r+0x2e6>
   882e4:	f240 5254 	movw	r2, #1364	; 0x554
   882e8:	4293      	cmp	r3, r2
   882ea:	d822      	bhi.n	88332 <_malloc_r+0x4de>
   882ec:	0cb3      	lsrs	r3, r6, #18
   882ee:	f103 007d 	add.w	r0, r3, #125	; 0x7d
   882f2:	f103 0e7c 	add.w	lr, r3, #124	; 0x7c
   882f6:	00c1      	lsls	r1, r0, #3
   882f8:	e5ce      	b.n	87e98 <_malloc_r+0x44>
   882fa:	f103 0b10 	add.w	fp, r3, #16
   882fe:	e6af      	b.n	88060 <_malloc_r+0x20c>
   88300:	2a54      	cmp	r2, #84	; 0x54
   88302:	d829      	bhi.n	88358 <_malloc_r+0x504>
   88304:	0b1a      	lsrs	r2, r3, #12
   88306:	f102 016f 	add.w	r1, r2, #111	; 0x6f
   8830a:	00c9      	lsls	r1, r1, #3
   8830c:	326e      	adds	r2, #110	; 0x6e
   8830e:	e74d      	b.n	881ac <_malloc_r+0x358>
   88310:	4b20      	ldr	r3, [pc, #128]	; (88394 <_malloc_r+0x540>)
   88312:	6819      	ldr	r1, [r3, #0]
   88314:	4459      	add	r1, fp
   88316:	6019      	str	r1, [r3, #0]
   88318:	e6b3      	b.n	88082 <_malloc_r+0x22e>
   8831a:	f3ca 000b 	ubfx	r0, sl, #0, #12
   8831e:	2800      	cmp	r0, #0
   88320:	f47f aeaf 	bne.w	88082 <_malloc_r+0x22e>
   88324:	eb08 030b 	add.w	r3, r8, fp
   88328:	68ba      	ldr	r2, [r7, #8]
   8832a:	f043 0301 	orr.w	r3, r3, #1
   8832e:	6053      	str	r3, [r2, #4]
   88330:	e6ef      	b.n	88112 <_malloc_r+0x2be>
   88332:	207f      	movs	r0, #127	; 0x7f
   88334:	f44f 717e 	mov.w	r1, #1016	; 0x3f8
   88338:	f04f 0e7e 	mov.w	lr, #126	; 0x7e
   8833c:	e5ac      	b.n	87e98 <_malloc_r+0x44>
   8833e:	f104 0108 	add.w	r1, r4, #8
   88342:	4628      	mov	r0, r5
   88344:	9300      	str	r3, [sp, #0]
   88346:	f000 fd5d 	bl	88e04 <_free_r>
   8834a:	9b00      	ldr	r3, [sp, #0]
   8834c:	6819      	ldr	r1, [r3, #0]
   8834e:	e6e0      	b.n	88112 <_malloc_r+0x2be>
   88350:	2001      	movs	r0, #1
   88352:	f04f 0900 	mov.w	r9, #0
   88356:	e6bd      	b.n	880d4 <_malloc_r+0x280>
   88358:	f5b2 7faa 	cmp.w	r2, #340	; 0x154
   8835c:	d805      	bhi.n	8836a <_malloc_r+0x516>
   8835e:	0bda      	lsrs	r2, r3, #15
   88360:	f102 0178 	add.w	r1, r2, #120	; 0x78
   88364:	00c9      	lsls	r1, r1, #3
   88366:	3277      	adds	r2, #119	; 0x77
   88368:	e720      	b.n	881ac <_malloc_r+0x358>
   8836a:	f240 5154 	movw	r1, #1364	; 0x554
   8836e:	428a      	cmp	r2, r1
   88370:	d805      	bhi.n	8837e <_malloc_r+0x52a>
   88372:	0c9a      	lsrs	r2, r3, #18
   88374:	f102 017d 	add.w	r1, r2, #125	; 0x7d
   88378:	00c9      	lsls	r1, r1, #3
   8837a:	327c      	adds	r2, #124	; 0x7c
   8837c:	e716      	b.n	881ac <_malloc_r+0x358>
   8837e:	f44f 717e 	mov.w	r1, #1016	; 0x3f8
   88382:	227e      	movs	r2, #126	; 0x7e
   88384:	e712      	b.n	881ac <_malloc_r+0x358>
   88386:	687b      	ldr	r3, [r7, #4]
   88388:	e780      	b.n	8828c <_malloc_r+0x438>
   8838a:	08f0      	lsrs	r0, r6, #3
   8838c:	f106 0308 	add.w	r3, r6, #8
   88390:	e60e      	b.n	87fb0 <_malloc_r+0x15c>
   88392:	bf00      	nop
   88394:	20070dd8 	.word	0x20070dd8

00088398 <memchr>:
   88398:	0783      	lsls	r3, r0, #30
   8839a:	b470      	push	{r4, r5, r6}
   8839c:	b2cd      	uxtb	r5, r1
   8839e:	d03d      	beq.n	8841c <memchr+0x84>
   883a0:	1e54      	subs	r4, r2, #1
   883a2:	b30a      	cbz	r2, 883e8 <memchr+0x50>
   883a4:	7803      	ldrb	r3, [r0, #0]
   883a6:	42ab      	cmp	r3, r5
   883a8:	d01f      	beq.n	883ea <memchr+0x52>
   883aa:	1c43      	adds	r3, r0, #1
   883ac:	e005      	b.n	883ba <memchr+0x22>
   883ae:	f114 34ff 	adds.w	r4, r4, #4294967295
   883b2:	d319      	bcc.n	883e8 <memchr+0x50>
   883b4:	7802      	ldrb	r2, [r0, #0]
   883b6:	42aa      	cmp	r2, r5
   883b8:	d017      	beq.n	883ea <memchr+0x52>
   883ba:	f013 0f03 	tst.w	r3, #3
   883be:	4618      	mov	r0, r3
   883c0:	f103 0301 	add.w	r3, r3, #1
   883c4:	d1f3      	bne.n	883ae <memchr+0x16>
   883c6:	2c03      	cmp	r4, #3
   883c8:	d811      	bhi.n	883ee <memchr+0x56>
   883ca:	b34c      	cbz	r4, 88420 <memchr+0x88>
   883cc:	7803      	ldrb	r3, [r0, #0]
   883ce:	42ab      	cmp	r3, r5
   883d0:	d00b      	beq.n	883ea <memchr+0x52>
   883d2:	4404      	add	r4, r0
   883d4:	1c43      	adds	r3, r0, #1
   883d6:	e002      	b.n	883de <memchr+0x46>
   883d8:	7802      	ldrb	r2, [r0, #0]
   883da:	42aa      	cmp	r2, r5
   883dc:	d005      	beq.n	883ea <memchr+0x52>
   883de:	429c      	cmp	r4, r3
   883e0:	4618      	mov	r0, r3
   883e2:	f103 0301 	add.w	r3, r3, #1
   883e6:	d1f7      	bne.n	883d8 <memchr+0x40>
   883e8:	2000      	movs	r0, #0
   883ea:	bc70      	pop	{r4, r5, r6}
   883ec:	4770      	bx	lr
   883ee:	0209      	lsls	r1, r1, #8
   883f0:	b289      	uxth	r1, r1
   883f2:	4329      	orrs	r1, r5
   883f4:	ea41 4101 	orr.w	r1, r1, r1, lsl #16
   883f8:	6803      	ldr	r3, [r0, #0]
   883fa:	4606      	mov	r6, r0
   883fc:	404b      	eors	r3, r1
   883fe:	f1a3 3201 	sub.w	r2, r3, #16843009	; 0x1010101
   88402:	ea22 0303 	bic.w	r3, r2, r3
   88406:	f013 3f80 	tst.w	r3, #2155905152	; 0x80808080
   8840a:	f100 0004 	add.w	r0, r0, #4
   8840e:	d103      	bne.n	88418 <memchr+0x80>
   88410:	3c04      	subs	r4, #4
   88412:	2c03      	cmp	r4, #3
   88414:	d8f0      	bhi.n	883f8 <memchr+0x60>
   88416:	e7d8      	b.n	883ca <memchr+0x32>
   88418:	4630      	mov	r0, r6
   8841a:	e7d7      	b.n	883cc <memchr+0x34>
   8841c:	4614      	mov	r4, r2
   8841e:	e7d2      	b.n	883c6 <memchr+0x2e>
   88420:	4620      	mov	r0, r4
   88422:	e7e2      	b.n	883ea <memchr+0x52>

00088424 <memcpy>:
   88424:	4684      	mov	ip, r0
   88426:	ea41 0300 	orr.w	r3, r1, r0
   8842a:	f013 0303 	ands.w	r3, r3, #3
   8842e:	d149      	bne.n	884c4 <memcpy+0xa0>
   88430:	3a40      	subs	r2, #64	; 0x40
   88432:	d323      	bcc.n	8847c <memcpy+0x58>
   88434:	680b      	ldr	r3, [r1, #0]
   88436:	6003      	str	r3, [r0, #0]
   88438:	684b      	ldr	r3, [r1, #4]
   8843a:	6043      	str	r3, [r0, #4]
   8843c:	688b      	ldr	r3, [r1, #8]
   8843e:	6083      	str	r3, [r0, #8]
   88440:	68cb      	ldr	r3, [r1, #12]
   88442:	60c3      	str	r3, [r0, #12]
   88444:	690b      	ldr	r3, [r1, #16]
   88446:	6103      	str	r3, [r0, #16]
   88448:	694b      	ldr	r3, [r1, #20]
   8844a:	6143      	str	r3, [r0, #20]
   8844c:	698b      	ldr	r3, [r1, #24]
   8844e:	6183      	str	r3, [r0, #24]
   88450:	69cb      	ldr	r3, [r1, #28]
   88452:	61c3      	str	r3, [r0, #28]
   88454:	6a0b      	ldr	r3, [r1, #32]
   88456:	6203      	str	r3, [r0, #32]
   88458:	6a4b      	ldr	r3, [r1, #36]	; 0x24
   8845a:	6243      	str	r3, [r0, #36]	; 0x24
   8845c:	6a8b      	ldr	r3, [r1, #40]	; 0x28
   8845e:	6283      	str	r3, [r0, #40]	; 0x28
   88460:	6acb      	ldr	r3, [r1, #44]	; 0x2c
   88462:	62c3      	str	r3, [r0, #44]	; 0x2c
   88464:	6b0b      	ldr	r3, [r1, #48]	; 0x30
   88466:	6303      	str	r3, [r0, #48]	; 0x30
   88468:	6b4b      	ldr	r3, [r1, #52]	; 0x34
   8846a:	6343      	str	r3, [r0, #52]	; 0x34
   8846c:	6b8b      	ldr	r3, [r1, #56]	; 0x38
   8846e:	6383      	str	r3, [r0, #56]	; 0x38
   88470:	6bcb      	ldr	r3, [r1, #60]	; 0x3c
   88472:	63c3      	str	r3, [r0, #60]	; 0x3c
   88474:	3040      	adds	r0, #64	; 0x40
   88476:	3140      	adds	r1, #64	; 0x40
   88478:	3a40      	subs	r2, #64	; 0x40
   8847a:	d2db      	bcs.n	88434 <memcpy+0x10>
   8847c:	3230      	adds	r2, #48	; 0x30
   8847e:	d30b      	bcc.n	88498 <memcpy+0x74>
   88480:	680b      	ldr	r3, [r1, #0]
   88482:	6003      	str	r3, [r0, #0]
   88484:	684b      	ldr	r3, [r1, #4]
   88486:	6043      	str	r3, [r0, #4]
   88488:	688b      	ldr	r3, [r1, #8]
   8848a:	6083      	str	r3, [r0, #8]
   8848c:	68cb      	ldr	r3, [r1, #12]
   8848e:	60c3      	str	r3, [r0, #12]
   88490:	3010      	adds	r0, #16
   88492:	3110      	adds	r1, #16
   88494:	3a10      	subs	r2, #16
   88496:	d2f3      	bcs.n	88480 <memcpy+0x5c>
   88498:	320c      	adds	r2, #12
   8849a:	d305      	bcc.n	884a8 <memcpy+0x84>
   8849c:	f851 3b04 	ldr.w	r3, [r1], #4
   884a0:	f840 3b04 	str.w	r3, [r0], #4
   884a4:	3a04      	subs	r2, #4
   884a6:	d2f9      	bcs.n	8849c <memcpy+0x78>
   884a8:	3204      	adds	r2, #4
   884aa:	d008      	beq.n	884be <memcpy+0x9a>
   884ac:	07d2      	lsls	r2, r2, #31
   884ae:	bf1c      	itt	ne
   884b0:	f811 3b01 	ldrbne.w	r3, [r1], #1
   884b4:	f800 3b01 	strbne.w	r3, [r0], #1
   884b8:	d301      	bcc.n	884be <memcpy+0x9a>
   884ba:	880b      	ldrh	r3, [r1, #0]
   884bc:	8003      	strh	r3, [r0, #0]
   884be:	4660      	mov	r0, ip
   884c0:	4770      	bx	lr
   884c2:	bf00      	nop
   884c4:	2a08      	cmp	r2, #8
   884c6:	d313      	bcc.n	884f0 <memcpy+0xcc>
   884c8:	078b      	lsls	r3, r1, #30
   884ca:	d0b1      	beq.n	88430 <memcpy+0xc>
   884cc:	f010 0303 	ands.w	r3, r0, #3
   884d0:	d0ae      	beq.n	88430 <memcpy+0xc>
   884d2:	f1c3 0304 	rsb	r3, r3, #4
   884d6:	1ad2      	subs	r2, r2, r3
   884d8:	07db      	lsls	r3, r3, #31
   884da:	bf1c      	itt	ne
   884dc:	f811 3b01 	ldrbne.w	r3, [r1], #1
   884e0:	f800 3b01 	strbne.w	r3, [r0], #1
   884e4:	d3a4      	bcc.n	88430 <memcpy+0xc>
   884e6:	f831 3b02 	ldrh.w	r3, [r1], #2
   884ea:	f820 3b02 	strh.w	r3, [r0], #2
   884ee:	e79f      	b.n	88430 <memcpy+0xc>
   884f0:	3a04      	subs	r2, #4
   884f2:	d3d9      	bcc.n	884a8 <memcpy+0x84>
   884f4:	3a01      	subs	r2, #1
   884f6:	f811 3b01 	ldrb.w	r3, [r1], #1
   884fa:	f800 3b01 	strb.w	r3, [r0], #1
   884fe:	d2f9      	bcs.n	884f4 <memcpy+0xd0>
   88500:	780b      	ldrb	r3, [r1, #0]
   88502:	7003      	strb	r3, [r0, #0]
   88504:	784b      	ldrb	r3, [r1, #1]
   88506:	7043      	strb	r3, [r0, #1]
   88508:	788b      	ldrb	r3, [r1, #2]
   8850a:	7083      	strb	r3, [r0, #2]
   8850c:	4660      	mov	r0, ip
   8850e:	4770      	bx	lr

00088510 <__malloc_lock>:
   88510:	4801      	ldr	r0, [pc, #4]	; (88518 <__malloc_lock+0x8>)
   88512:	f7ff bc9b 	b.w	87e4c <__retarget_lock_acquire_recursive>
   88516:	bf00      	nop
   88518:	20070fe0 	.word	0x20070fe0

0008851c <__malloc_unlock>:
   8851c:	4801      	ldr	r0, [pc, #4]	; (88524 <__malloc_unlock+0x8>)
   8851e:	f7ff bc97 	b.w	87e50 <__retarget_lock_release_recursive>
   88522:	bf00      	nop
   88524:	20070fe0 	.word	0x20070fe0

00088528 <_Balloc>:
   88528:	6cc3      	ldr	r3, [r0, #76]	; 0x4c
   8852a:	b570      	push	{r4, r5, r6, lr}
   8852c:	4605      	mov	r5, r0
   8852e:	460c      	mov	r4, r1
   88530:	b14b      	cbz	r3, 88546 <_Balloc+0x1e>
   88532:	f853 0024 	ldr.w	r0, [r3, r4, lsl #2]
   88536:	b180      	cbz	r0, 8855a <_Balloc+0x32>
   88538:	6802      	ldr	r2, [r0, #0]
   8853a:	f843 2024 	str.w	r2, [r3, r4, lsl #2]
   8853e:	2300      	movs	r3, #0
   88540:	6103      	str	r3, [r0, #16]
   88542:	60c3      	str	r3, [r0, #12]
   88544:	bd70      	pop	{r4, r5, r6, pc}
   88546:	2221      	movs	r2, #33	; 0x21
   88548:	2104      	movs	r1, #4
   8854a:	f000 fbdb 	bl	88d04 <_calloc_r>
   8854e:	64e8      	str	r0, [r5, #76]	; 0x4c
   88550:	4603      	mov	r3, r0
   88552:	2800      	cmp	r0, #0
   88554:	d1ed      	bne.n	88532 <_Balloc+0xa>
   88556:	2000      	movs	r0, #0
   88558:	bd70      	pop	{r4, r5, r6, pc}
   8855a:	2101      	movs	r1, #1
   8855c:	fa01 f604 	lsl.w	r6, r1, r4
   88560:	1d72      	adds	r2, r6, #5
   88562:	4628      	mov	r0, r5
   88564:	0092      	lsls	r2, r2, #2
   88566:	f000 fbcd 	bl	88d04 <_calloc_r>
   8856a:	2800      	cmp	r0, #0
   8856c:	d0f3      	beq.n	88556 <_Balloc+0x2e>
   8856e:	6044      	str	r4, [r0, #4]
   88570:	6086      	str	r6, [r0, #8]
   88572:	e7e4      	b.n	8853e <_Balloc+0x16>

00088574 <_Bfree>:
   88574:	b131      	cbz	r1, 88584 <_Bfree+0x10>
   88576:	6cc3      	ldr	r3, [r0, #76]	; 0x4c
   88578:	684a      	ldr	r2, [r1, #4]
   8857a:	f853 0022 	ldr.w	r0, [r3, r2, lsl #2]
   8857e:	6008      	str	r0, [r1, #0]
   88580:	f843 1022 	str.w	r1, [r3, r2, lsl #2]
   88584:	4770      	bx	lr
   88586:	bf00      	nop

00088588 <__multadd>:
   88588:	b5f0      	push	{r4, r5, r6, r7, lr}
   8858a:	460c      	mov	r4, r1
   8858c:	4605      	mov	r5, r0
   8858e:	f04f 0e00 	mov.w	lr, #0
   88592:	690e      	ldr	r6, [r1, #16]
   88594:	b083      	sub	sp, #12
   88596:	f101 0714 	add.w	r7, r1, #20
   8859a:	6838      	ldr	r0, [r7, #0]
   8859c:	f10e 0e01 	add.w	lr, lr, #1
   885a0:	b281      	uxth	r1, r0
   885a2:	fb02 3301 	mla	r3, r2, r1, r3
   885a6:	0c01      	lsrs	r1, r0, #16
   885a8:	0c18      	lsrs	r0, r3, #16
   885aa:	fb02 0101 	mla	r1, r2, r1, r0
   885ae:	b29b      	uxth	r3, r3
   885b0:	eb03 4301 	add.w	r3, r3, r1, lsl #16
   885b4:	4576      	cmp	r6, lr
   885b6:	f847 3b04 	str.w	r3, [r7], #4
   885ba:	ea4f 4311 	mov.w	r3, r1, lsr #16
   885be:	dcec      	bgt.n	8859a <__multadd+0x12>
   885c0:	b13b      	cbz	r3, 885d2 <__multadd+0x4a>
   885c2:	68a2      	ldr	r2, [r4, #8]
   885c4:	4296      	cmp	r6, r2
   885c6:	da07      	bge.n	885d8 <__multadd+0x50>
   885c8:	eb04 0286 	add.w	r2, r4, r6, lsl #2
   885cc:	3601      	adds	r6, #1
   885ce:	6153      	str	r3, [r2, #20]
   885d0:	6126      	str	r6, [r4, #16]
   885d2:	4620      	mov	r0, r4
   885d4:	b003      	add	sp, #12
   885d6:	bdf0      	pop	{r4, r5, r6, r7, pc}
   885d8:	6861      	ldr	r1, [r4, #4]
   885da:	4628      	mov	r0, r5
   885dc:	3101      	adds	r1, #1
   885de:	9301      	str	r3, [sp, #4]
   885e0:	f7ff ffa2 	bl	88528 <_Balloc>
   885e4:	4607      	mov	r7, r0
   885e6:	6922      	ldr	r2, [r4, #16]
   885e8:	f104 010c 	add.w	r1, r4, #12
   885ec:	3202      	adds	r2, #2
   885ee:	0092      	lsls	r2, r2, #2
   885f0:	300c      	adds	r0, #12
   885f2:	f7ff ff17 	bl	88424 <memcpy>
   885f6:	6cea      	ldr	r2, [r5, #76]	; 0x4c
   885f8:	6861      	ldr	r1, [r4, #4]
   885fa:	9b01      	ldr	r3, [sp, #4]
   885fc:	f852 0021 	ldr.w	r0, [r2, r1, lsl #2]
   88600:	6020      	str	r0, [r4, #0]
   88602:	f842 4021 	str.w	r4, [r2, r1, lsl #2]
   88606:	463c      	mov	r4, r7
   88608:	e7de      	b.n	885c8 <__multadd+0x40>
   8860a:	bf00      	nop

0008860c <__hi0bits>:
   8860c:	0c02      	lsrs	r2, r0, #16
   8860e:	0412      	lsls	r2, r2, #16
   88610:	4603      	mov	r3, r0
   88612:	b9b2      	cbnz	r2, 88642 <__hi0bits+0x36>
   88614:	0403      	lsls	r3, r0, #16
   88616:	2010      	movs	r0, #16
   88618:	f013 4f7f 	tst.w	r3, #4278190080	; 0xff000000
   8861c:	bf04      	itt	eq
   8861e:	021b      	lsleq	r3, r3, #8
   88620:	3008      	addeq	r0, #8
   88622:	f013 4f70 	tst.w	r3, #4026531840	; 0xf0000000
   88626:	bf04      	itt	eq
   88628:	011b      	lsleq	r3, r3, #4
   8862a:	3004      	addeq	r0, #4
   8862c:	f013 4f40 	tst.w	r3, #3221225472	; 0xc0000000
   88630:	bf04      	itt	eq
   88632:	009b      	lsleq	r3, r3, #2
   88634:	3002      	addeq	r0, #2
   88636:	2b00      	cmp	r3, #0
   88638:	db02      	blt.n	88640 <__hi0bits+0x34>
   8863a:	005b      	lsls	r3, r3, #1
   8863c:	d403      	bmi.n	88646 <__hi0bits+0x3a>
   8863e:	2020      	movs	r0, #32
   88640:	4770      	bx	lr
   88642:	2000      	movs	r0, #0
   88644:	e7e8      	b.n	88618 <__hi0bits+0xc>
   88646:	3001      	adds	r0, #1
   88648:	4770      	bx	lr
   8864a:	bf00      	nop

0008864c <__lo0bits>:
   8864c:	6803      	ldr	r3, [r0, #0]
   8864e:	4601      	mov	r1, r0
   88650:	f013 0207 	ands.w	r2, r3, #7
   88654:	d007      	beq.n	88666 <__lo0bits+0x1a>
   88656:	07da      	lsls	r2, r3, #31
   88658:	d421      	bmi.n	8869e <__lo0bits+0x52>
   8865a:	0798      	lsls	r0, r3, #30
   8865c:	d421      	bmi.n	886a2 <__lo0bits+0x56>
   8865e:	089b      	lsrs	r3, r3, #2
   88660:	600b      	str	r3, [r1, #0]
   88662:	2002      	movs	r0, #2
   88664:	4770      	bx	lr
   88666:	b298      	uxth	r0, r3
   88668:	b198      	cbz	r0, 88692 <__lo0bits+0x46>
   8866a:	4610      	mov	r0, r2
   8866c:	f013 0fff 	tst.w	r3, #255	; 0xff
   88670:	bf04      	itt	eq
   88672:	0a1b      	lsreq	r3, r3, #8
   88674:	3008      	addeq	r0, #8
   88676:	071a      	lsls	r2, r3, #28
   88678:	bf04      	itt	eq
   8867a:	091b      	lsreq	r3, r3, #4
   8867c:	3004      	addeq	r0, #4
   8867e:	079a      	lsls	r2, r3, #30
   88680:	bf04      	itt	eq
   88682:	089b      	lsreq	r3, r3, #2
   88684:	3002      	addeq	r0, #2
   88686:	07da      	lsls	r2, r3, #31
   88688:	d407      	bmi.n	8869a <__lo0bits+0x4e>
   8868a:	085b      	lsrs	r3, r3, #1
   8868c:	d104      	bne.n	88698 <__lo0bits+0x4c>
   8868e:	2020      	movs	r0, #32
   88690:	4770      	bx	lr
   88692:	0c1b      	lsrs	r3, r3, #16
   88694:	2010      	movs	r0, #16
   88696:	e7e9      	b.n	8866c <__lo0bits+0x20>
   88698:	3001      	adds	r0, #1
   8869a:	600b      	str	r3, [r1, #0]
   8869c:	4770      	bx	lr
   8869e:	2000      	movs	r0, #0
   886a0:	4770      	bx	lr
   886a2:	085b      	lsrs	r3, r3, #1
   886a4:	600b      	str	r3, [r1, #0]
   886a6:	2001      	movs	r0, #1
   886a8:	4770      	bx	lr
   886aa:	bf00      	nop

000886ac <__i2b>:
   886ac:	b510      	push	{r4, lr}
   886ae:	460c      	mov	r4, r1
   886b0:	2101      	movs	r1, #1
   886b2:	f7ff ff39 	bl	88528 <_Balloc>
   886b6:	2201      	movs	r2, #1
   886b8:	6144      	str	r4, [r0, #20]
   886ba:	6102      	str	r2, [r0, #16]
   886bc:	bd10      	pop	{r4, pc}
   886be:	bf00      	nop

000886c0 <__multiply>:
   886c0:	e92d 4ff0 	stmdb	sp!, {r4, r5, r6, r7, r8, r9, sl, fp, lr}
   886c4:	690c      	ldr	r4, [r1, #16]
   886c6:	6915      	ldr	r5, [r2, #16]
   886c8:	b083      	sub	sp, #12
   886ca:	42ac      	cmp	r4, r5
   886cc:	468b      	mov	fp, r1
   886ce:	4616      	mov	r6, r2
   886d0:	da04      	bge.n	886dc <__multiply+0x1c>
   886d2:	4622      	mov	r2, r4
   886d4:	46b3      	mov	fp, r6
   886d6:	462c      	mov	r4, r5
   886d8:	460e      	mov	r6, r1
   886da:	4615      	mov	r5, r2
   886dc:	f8db 3008 	ldr.w	r3, [fp, #8]
   886e0:	eb04 0805 	add.w	r8, r4, r5
   886e4:	f8db 1004 	ldr.w	r1, [fp, #4]
   886e8:	4598      	cmp	r8, r3
   886ea:	bfc8      	it	gt
   886ec:	3101      	addgt	r1, #1
   886ee:	f7ff ff1b 	bl	88528 <_Balloc>
   886f2:	f100 0914 	add.w	r9, r0, #20
   886f6:	eb09 0a88 	add.w	sl, r9, r8, lsl #2
   886fa:	45d1      	cmp	r9, sl
   886fc:	9000      	str	r0, [sp, #0]
   886fe:	d205      	bcs.n	8870c <__multiply+0x4c>
   88700:	464b      	mov	r3, r9
   88702:	2100      	movs	r1, #0
   88704:	f843 1b04 	str.w	r1, [r3], #4
   88708:	459a      	cmp	sl, r3
   8870a:	d8fb      	bhi.n	88704 <__multiply+0x44>
   8870c:	f106 0c14 	add.w	ip, r6, #20
   88710:	eb0c 0385 	add.w	r3, ip, r5, lsl #2
   88714:	f10b 0b14 	add.w	fp, fp, #20
   88718:	459c      	cmp	ip, r3
   8871a:	eb0b 0e84 	add.w	lr, fp, r4, lsl #2
   8871e:	d24b      	bcs.n	887b8 <__multiply+0xf8>
   88720:	f8cd a004 	str.w	sl, [sp, #4]
   88724:	469a      	mov	sl, r3
   88726:	f8dc 5000 	ldr.w	r5, [ip]
   8872a:	b2af      	uxth	r7, r5
   8872c:	b1e7      	cbz	r7, 88768 <__multiply+0xa8>
   8872e:	464d      	mov	r5, r9
   88730:	465e      	mov	r6, fp
   88732:	2100      	movs	r1, #0
   88734:	f856 2b04 	ldr.w	r2, [r6], #4
   88738:	6828      	ldr	r0, [r5, #0]
   8873a:	b293      	uxth	r3, r2
   8873c:	b284      	uxth	r4, r0
   8873e:	0c12      	lsrs	r2, r2, #16
   88740:	fb07 4303 	mla	r3, r7, r3, r4
   88744:	0c00      	lsrs	r0, r0, #16
   88746:	fb07 0202 	mla	r2, r7, r2, r0
   8874a:	440b      	add	r3, r1
   8874c:	eb02 4113 	add.w	r1, r2, r3, lsr #16
   88750:	b29b      	uxth	r3, r3
   88752:	ea43 4301 	orr.w	r3, r3, r1, lsl #16
   88756:	45b6      	cmp	lr, r6
   88758:	f845 3b04 	str.w	r3, [r5], #4
   8875c:	ea4f 4111 	mov.w	r1, r1, lsr #16
   88760:	d8e8      	bhi.n	88734 <__multiply+0x74>
   88762:	6029      	str	r1, [r5, #0]
   88764:	f8dc 5000 	ldr.w	r5, [ip]
   88768:	0c2d      	lsrs	r5, r5, #16
   8876a:	d01d      	beq.n	887a8 <__multiply+0xe8>
   8876c:	f8d9 3000 	ldr.w	r3, [r9]
   88770:	4648      	mov	r0, r9
   88772:	461c      	mov	r4, r3
   88774:	4659      	mov	r1, fp
   88776:	2200      	movs	r2, #0
   88778:	880e      	ldrh	r6, [r1, #0]
   8877a:	0c24      	lsrs	r4, r4, #16
   8877c:	fb05 4406 	mla	r4, r5, r6, r4
   88780:	b29b      	uxth	r3, r3
   88782:	4422      	add	r2, r4
   88784:	ea43 4302 	orr.w	r3, r3, r2, lsl #16
   88788:	f840 3b04 	str.w	r3, [r0], #4
   8878c:	f851 3b04 	ldr.w	r3, [r1], #4
   88790:	6804      	ldr	r4, [r0, #0]
   88792:	0c1b      	lsrs	r3, r3, #16
   88794:	b2a6      	uxth	r6, r4
   88796:	fb05 6303 	mla	r3, r5, r3, r6
   8879a:	458e      	cmp	lr, r1
   8879c:	eb03 4312 	add.w	r3, r3, r2, lsr #16
   887a0:	ea4f 4213 	mov.w	r2, r3, lsr #16
   887a4:	d8e8      	bhi.n	88778 <__multiply+0xb8>
   887a6:	6003      	str	r3, [r0, #0]
   887a8:	f10c 0c04 	add.w	ip, ip, #4
   887ac:	45e2      	cmp	sl, ip
   887ae:	f109 0904 	add.w	r9, r9, #4
   887b2:	d8b8      	bhi.n	88726 <__multiply+0x66>
   887b4:	f8dd a004 	ldr.w	sl, [sp, #4]
   887b8:	f1b8 0f00 	cmp.w	r8, #0
   887bc:	dd0b      	ble.n	887d6 <__multiply+0x116>
   887be:	f85a 3c04 	ldr.w	r3, [sl, #-4]
   887c2:	f1aa 0a04 	sub.w	sl, sl, #4
   887c6:	b11b      	cbz	r3, 887d0 <__multiply+0x110>
   887c8:	e005      	b.n	887d6 <__multiply+0x116>
   887ca:	f85a 3d04 	ldr.w	r3, [sl, #-4]!
   887ce:	b913      	cbnz	r3, 887d6 <__multiply+0x116>
   887d0:	f1b8 0801 	subs.w	r8, r8, #1
   887d4:	d1f9      	bne.n	887ca <__multiply+0x10a>
   887d6:	9800      	ldr	r0, [sp, #0]
   887d8:	f8c0 8010 	str.w	r8, [r0, #16]
   887dc:	b003      	add	sp, #12
   887de:	e8bd 8ff0 	ldmia.w	sp!, {r4, r5, r6, r7, r8, r9, sl, fp, pc}
   887e2:	bf00      	nop

000887e4 <__pow5mult>:
   887e4:	f012 0303 	ands.w	r3, r2, #3
   887e8:	e92d 41f0 	stmdb	sp!, {r4, r5, r6, r7, r8, lr}
   887ec:	4614      	mov	r4, r2
   887ee:	4607      	mov	r7, r0
   887f0:	d12e      	bne.n	88850 <__pow5mult+0x6c>
   887f2:	460d      	mov	r5, r1
   887f4:	10a4      	asrs	r4, r4, #2
   887f6:	d01c      	beq.n	88832 <__pow5mult+0x4e>
   887f8:	6cbe      	ldr	r6, [r7, #72]	; 0x48
   887fa:	b396      	cbz	r6, 88862 <__pow5mult+0x7e>
   887fc:	07e3      	lsls	r3, r4, #31
   887fe:	f04f 0800 	mov.w	r8, #0
   88802:	d406      	bmi.n	88812 <__pow5mult+0x2e>
   88804:	1064      	asrs	r4, r4, #1
   88806:	d014      	beq.n	88832 <__pow5mult+0x4e>
   88808:	6830      	ldr	r0, [r6, #0]
   8880a:	b1a8      	cbz	r0, 88838 <__pow5mult+0x54>
   8880c:	4606      	mov	r6, r0
   8880e:	07e3      	lsls	r3, r4, #31
   88810:	d5f8      	bpl.n	88804 <__pow5mult+0x20>
   88812:	4632      	mov	r2, r6
   88814:	4629      	mov	r1, r5
   88816:	4638      	mov	r0, r7
   88818:	f7ff ff52 	bl	886c0 <__multiply>
   8881c:	b1b5      	cbz	r5, 8884c <__pow5mult+0x68>
   8881e:	686a      	ldr	r2, [r5, #4]
   88820:	6cfb      	ldr	r3, [r7, #76]	; 0x4c
   88822:	1064      	asrs	r4, r4, #1
   88824:	f853 1022 	ldr.w	r1, [r3, r2, lsl #2]
   88828:	6029      	str	r1, [r5, #0]
   8882a:	f843 5022 	str.w	r5, [r3, r2, lsl #2]
   8882e:	4605      	mov	r5, r0
   88830:	d1ea      	bne.n	88808 <__pow5mult+0x24>
   88832:	4628      	mov	r0, r5
   88834:	e8bd 81f0 	ldmia.w	sp!, {r4, r5, r6, r7, r8, pc}
   88838:	4632      	mov	r2, r6
   8883a:	4631      	mov	r1, r6
   8883c:	4638      	mov	r0, r7
   8883e:	f7ff ff3f 	bl	886c0 <__multiply>
   88842:	6030      	str	r0, [r6, #0]
   88844:	f8c0 8000 	str.w	r8, [r0]
   88848:	4606      	mov	r6, r0
   8884a:	e7e0      	b.n	8880e <__pow5mult+0x2a>
   8884c:	4605      	mov	r5, r0
   8884e:	e7d9      	b.n	88804 <__pow5mult+0x20>
   88850:	4a0b      	ldr	r2, [pc, #44]	; (88880 <__pow5mult+0x9c>)
   88852:	3b01      	subs	r3, #1
   88854:	f852 2023 	ldr.w	r2, [r2, r3, lsl #2]
   88858:	2300      	movs	r3, #0
   8885a:	f7ff fe95 	bl	88588 <__multadd>
   8885e:	4605      	mov	r5, r0
   88860:	e7c8      	b.n	887f4 <__pow5mult+0x10>
   88862:	2101      	movs	r1, #1
   88864:	4638      	mov	r0, r7
   88866:	f7ff fe5f 	bl	88528 <_Balloc>
   8886a:	f240 2171 	movw	r1, #625	; 0x271
   8886e:	2201      	movs	r2, #1
   88870:	2300      	movs	r3, #0
   88872:	6141      	str	r1, [r0, #20]
   88874:	6102      	str	r2, [r0, #16]
   88876:	4606      	mov	r6, r0
   88878:	64b8      	str	r0, [r7, #72]	; 0x48
   8887a:	6003      	str	r3, [r0, #0]
   8887c:	e7be      	b.n	887fc <__pow5mult+0x18>
   8887e:	bf00      	nop
   88880:	00089ba0 	.word	0x00089ba0

00088884 <__lshift>:
   88884:	e92d 43f8 	stmdb	sp!, {r3, r4, r5, r6, r7, r8, r9, lr}
   88888:	690b      	ldr	r3, [r1, #16]
   8888a:	1154      	asrs	r4, r2, #5
   8888c:	eb04 0803 	add.w	r8, r4, r3
   88890:	688b      	ldr	r3, [r1, #8]
   88892:	f108 0501 	add.w	r5, r8, #1
   88896:	429d      	cmp	r5, r3
   88898:	460e      	mov	r6, r1
   8889a:	4691      	mov	r9, r2
   8889c:	4607      	mov	r7, r0
   8889e:	6849      	ldr	r1, [r1, #4]
   888a0:	dd04      	ble.n	888ac <__lshift+0x28>
   888a2:	005b      	lsls	r3, r3, #1
   888a4:	429d      	cmp	r5, r3
   888a6:	f101 0101 	add.w	r1, r1, #1
   888aa:	dcfa      	bgt.n	888a2 <__lshift+0x1e>
   888ac:	4638      	mov	r0, r7
   888ae:	f7ff fe3b 	bl	88528 <_Balloc>
   888b2:	2c00      	cmp	r4, #0
   888b4:	f100 0314 	add.w	r3, r0, #20
   888b8:	dd06      	ble.n	888c8 <__lshift+0x44>
   888ba:	2100      	movs	r1, #0
   888bc:	eb03 0284 	add.w	r2, r3, r4, lsl #2
   888c0:	f843 1b04 	str.w	r1, [r3], #4
   888c4:	429a      	cmp	r2, r3
   888c6:	d1fb      	bne.n	888c0 <__lshift+0x3c>
   888c8:	6934      	ldr	r4, [r6, #16]
   888ca:	f106 0114 	add.w	r1, r6, #20
   888ce:	f019 091f 	ands.w	r9, r9, #31
   888d2:	eb01 0e84 	add.w	lr, r1, r4, lsl #2
   888d6:	d01d      	beq.n	88914 <__lshift+0x90>
   888d8:	2200      	movs	r2, #0
   888da:	f1c9 0c20 	rsb	ip, r9, #32
   888de:	680c      	ldr	r4, [r1, #0]
   888e0:	fa04 f409 	lsl.w	r4, r4, r9
   888e4:	4314      	orrs	r4, r2
   888e6:	f843 4b04 	str.w	r4, [r3], #4
   888ea:	f851 2b04 	ldr.w	r2, [r1], #4
   888ee:	458e      	cmp	lr, r1
   888f0:	fa22 f20c 	lsr.w	r2, r2, ip
   888f4:	d8f3      	bhi.n	888de <__lshift+0x5a>
   888f6:	601a      	str	r2, [r3, #0]
   888f8:	b10a      	cbz	r2, 888fe <__lshift+0x7a>
   888fa:	f108 0502 	add.w	r5, r8, #2
   888fe:	6cfb      	ldr	r3, [r7, #76]	; 0x4c
   88900:	6872      	ldr	r2, [r6, #4]
   88902:	3d01      	subs	r5, #1
   88904:	f853 1022 	ldr.w	r1, [r3, r2, lsl #2]
   88908:	6105      	str	r5, [r0, #16]
   8890a:	6031      	str	r1, [r6, #0]
   8890c:	f843 6022 	str.w	r6, [r3, r2, lsl #2]
   88910:	e8bd 83f8 	ldmia.w	sp!, {r3, r4, r5, r6, r7, r8, r9, pc}
   88914:	3b04      	subs	r3, #4
   88916:	f851 2b04 	ldr.w	r2, [r1], #4
   8891a:	458e      	cmp	lr, r1
   8891c:	f843 2f04 	str.w	r2, [r3, #4]!
   88920:	d8f9      	bhi.n	88916 <__lshift+0x92>
   88922:	e7ec      	b.n	888fe <__lshift+0x7a>

00088924 <__mcmp>:
   88924:	b430      	push	{r4, r5}
   88926:	690b      	ldr	r3, [r1, #16]
   88928:	4605      	mov	r5, r0
   8892a:	6900      	ldr	r0, [r0, #16]
   8892c:	1ac0      	subs	r0, r0, r3
   8892e:	d10f      	bne.n	88950 <__mcmp+0x2c>
   88930:	009b      	lsls	r3, r3, #2
   88932:	3514      	adds	r5, #20
   88934:	3114      	adds	r1, #20
   88936:	4419      	add	r1, r3
   88938:	442b      	add	r3, r5
   8893a:	e001      	b.n	88940 <__mcmp+0x1c>
   8893c:	429d      	cmp	r5, r3
   8893e:	d207      	bcs.n	88950 <__mcmp+0x2c>
   88940:	f853 4d04 	ldr.w	r4, [r3, #-4]!
   88944:	f851 2d04 	ldr.w	r2, [r1, #-4]!
   88948:	4294      	cmp	r4, r2
   8894a:	d0f7      	beq.n	8893c <__mcmp+0x18>
   8894c:	d302      	bcc.n	88954 <__mcmp+0x30>
   8894e:	2001      	movs	r0, #1
   88950:	bc30      	pop	{r4, r5}
   88952:	4770      	bx	lr
   88954:	f04f 30ff 	mov.w	r0, #4294967295
   88958:	e7fa      	b.n	88950 <__mcmp+0x2c>
   8895a:	bf00      	nop

0008895c <__mdiff>:
   8895c:	e92d 4ff8 	stmdb	sp!, {r3, r4, r5, r6, r7, r8, r9, sl, fp, lr}
   88960:	690c      	ldr	r4, [r1, #16]
   88962:	4689      	mov	r9, r1
   88964:	6911      	ldr	r1, [r2, #16]
   88966:	4692      	mov	sl, r2
   88968:	1a64      	subs	r4, r4, r1
   8896a:	2c00      	cmp	r4, #0
   8896c:	d117      	bne.n	8899e <__mdiff+0x42>
   8896e:	0089      	lsls	r1, r1, #2
   88970:	f109 0714 	add.w	r7, r9, #20
   88974:	f102 0614 	add.w	r6, r2, #20
   88978:	187b      	adds	r3, r7, r1
   8897a:	4431      	add	r1, r6
   8897c:	e001      	b.n	88982 <__mdiff+0x26>
   8897e:	429f      	cmp	r7, r3
   88980:	d265      	bcs.n	88a4e <__mdiff+0xf2>
   88982:	f853 5d04 	ldr.w	r5, [r3, #-4]!
   88986:	f851 2d04 	ldr.w	r2, [r1, #-4]!
   8898a:	4295      	cmp	r5, r2
   8898c:	d0f7      	beq.n	8897e <__mdiff+0x22>
   8898e:	d267      	bcs.n	88a60 <__mdiff+0x104>
   88990:	464b      	mov	r3, r9
   88992:	46bb      	mov	fp, r7
   88994:	46d1      	mov	r9, sl
   88996:	4637      	mov	r7, r6
   88998:	469a      	mov	sl, r3
   8899a:	2401      	movs	r4, #1
   8899c:	e005      	b.n	889aa <__mdiff+0x4e>
   8899e:	db61      	blt.n	88a64 <__mdiff+0x108>
   889a0:	2400      	movs	r4, #0
   889a2:	f109 0714 	add.w	r7, r9, #20
   889a6:	f10a 0b14 	add.w	fp, sl, #20
   889aa:	f8d9 1004 	ldr.w	r1, [r9, #4]
   889ae:	f7ff fdbb 	bl	88528 <_Balloc>
   889b2:	465d      	mov	r5, fp
   889b4:	f04f 0800 	mov.w	r8, #0
   889b8:	f8d9 e010 	ldr.w	lr, [r9, #16]
   889bc:	f8da 3010 	ldr.w	r3, [sl, #16]
   889c0:	463e      	mov	r6, r7
   889c2:	60c4      	str	r4, [r0, #12]
   889c4:	eb0b 0c83 	add.w	ip, fp, r3, lsl #2
   889c8:	eb07 078e 	add.w	r7, r7, lr, lsl #2
   889cc:	f100 0414 	add.w	r4, r0, #20
   889d0:	f856 9b04 	ldr.w	r9, [r6], #4
   889d4:	f855 2b04 	ldr.w	r2, [r5], #4
   889d8:	fa1f f389 	uxth.w	r3, r9
   889dc:	4443      	add	r3, r8
   889de:	fa1f f882 	uxth.w	r8, r2
   889e2:	0c12      	lsrs	r2, r2, #16
   889e4:	eba3 0308 	sub.w	r3, r3, r8
   889e8:	ebc2 4219 	rsb	r2, r2, r9, lsr #16
   889ec:	eb02 4223 	add.w	r2, r2, r3, asr #16
   889f0:	b29b      	uxth	r3, r3
   889f2:	ea43 4302 	orr.w	r3, r3, r2, lsl #16
   889f6:	45ac      	cmp	ip, r5
   889f8:	f844 3b04 	str.w	r3, [r4], #4
   889fc:	ea4f 4822 	mov.w	r8, r2, asr #16
   88a00:	d8e6      	bhi.n	889d0 <__mdiff+0x74>
   88a02:	42b7      	cmp	r7, r6
   88a04:	d917      	bls.n	88a36 <__mdiff+0xda>
   88a06:	46a4      	mov	ip, r4
   88a08:	4635      	mov	r5, r6
   88a0a:	f855 3b04 	ldr.w	r3, [r5], #4
   88a0e:	b299      	uxth	r1, r3
   88a10:	4441      	add	r1, r8
   88a12:	140a      	asrs	r2, r1, #16
   88a14:	eb02 4213 	add.w	r2, r2, r3, lsr #16
   88a18:	b289      	uxth	r1, r1
   88a1a:	ea41 4302 	orr.w	r3, r1, r2, lsl #16
   88a1e:	42af      	cmp	r7, r5
   88a20:	f84c 3b04 	str.w	r3, [ip], #4
   88a24:	ea4f 4822 	mov.w	r8, r2, asr #16
   88a28:	d8ef      	bhi.n	88a0a <__mdiff+0xae>
   88a2a:	43f6      	mvns	r6, r6
   88a2c:	4437      	add	r7, r6
   88a2e:	f027 0703 	bic.w	r7, r7, #3
   88a32:	3704      	adds	r7, #4
   88a34:	443c      	add	r4, r7
   88a36:	3c04      	subs	r4, #4
   88a38:	b92b      	cbnz	r3, 88a46 <__mdiff+0xea>
   88a3a:	f854 3d04 	ldr.w	r3, [r4, #-4]!
   88a3e:	f10e 3eff 	add.w	lr, lr, #4294967295
   88a42:	2b00      	cmp	r3, #0
   88a44:	d0f9      	beq.n	88a3a <__mdiff+0xde>
   88a46:	f8c0 e010 	str.w	lr, [r0, #16]
   88a4a:	e8bd 8ff8 	ldmia.w	sp!, {r3, r4, r5, r6, r7, r8, r9, sl, fp, pc}
   88a4e:	2100      	movs	r1, #0
   88a50:	f7ff fd6a 	bl	88528 <_Balloc>
   88a54:	2201      	movs	r2, #1
   88a56:	2300      	movs	r3, #0
   88a58:	6102      	str	r2, [r0, #16]
   88a5a:	6143      	str	r3, [r0, #20]
   88a5c:	e8bd 8ff8 	ldmia.w	sp!, {r3, r4, r5, r6, r7, r8, r9, sl, fp, pc}
   88a60:	46b3      	mov	fp, r6
   88a62:	e7a2      	b.n	889aa <__mdiff+0x4e>
   88a64:	464b      	mov	r3, r9
   88a66:	f109 0b14 	add.w	fp, r9, #20
   88a6a:	f102 0714 	add.w	r7, r2, #20
   88a6e:	4691      	mov	r9, r2
   88a70:	2401      	movs	r4, #1
   88a72:	469a      	mov	sl, r3
   88a74:	e799      	b.n	889aa <__mdiff+0x4e>
   88a76:	bf00      	nop

00088a78 <__d2b>:
   88a78:	b5f0      	push	{r4, r5, r6, r7, lr}
   88a7a:	2101      	movs	r1, #1
   88a7c:	b083      	sub	sp, #12
   88a7e:	461c      	mov	r4, r3
   88a80:	f3c3 550a 	ubfx	r5, r3, #20, #11
   88a84:	4616      	mov	r6, r2
   88a86:	f7ff fd4f 	bl	88528 <_Balloc>
   88a8a:	f3c4 0413 	ubfx	r4, r4, #0, #20
   88a8e:	4607      	mov	r7, r0
   88a90:	b10d      	cbz	r5, 88a96 <__d2b+0x1e>
   88a92:	f444 1480 	orr.w	r4, r4, #1048576	; 0x100000
   88a96:	9401      	str	r4, [sp, #4]
   88a98:	b306      	cbz	r6, 88adc <__d2b+0x64>
   88a9a:	a802      	add	r0, sp, #8
   88a9c:	f840 6d08 	str.w	r6, [r0, #-8]!
   88aa0:	f7ff fdd4 	bl	8864c <__lo0bits>
   88aa4:	2800      	cmp	r0, #0
   88aa6:	d130      	bne.n	88b0a <__d2b+0x92>
   88aa8:	e89d 000c 	ldmia.w	sp, {r2, r3}
   88aac:	617a      	str	r2, [r7, #20]
   88aae:	2b00      	cmp	r3, #0
   88ab0:	bf0c      	ite	eq
   88ab2:	2101      	moveq	r1, #1
   88ab4:	2102      	movne	r1, #2
   88ab6:	61bb      	str	r3, [r7, #24]
   88ab8:	6139      	str	r1, [r7, #16]
   88aba:	b9d5      	cbnz	r5, 88af2 <__d2b+0x7a>
   88abc:	9a08      	ldr	r2, [sp, #32]
   88abe:	eb07 0381 	add.w	r3, r7, r1, lsl #2
   88ac2:	f2a0 4032 	subw	r0, r0, #1074	; 0x432
   88ac6:	6010      	str	r0, [r2, #0]
   88ac8:	6918      	ldr	r0, [r3, #16]
   88aca:	f7ff fd9f 	bl	8860c <__hi0bits>
   88ace:	9b09      	ldr	r3, [sp, #36]	; 0x24
   88ad0:	ebc0 1041 	rsb	r0, r0, r1, lsl #5
   88ad4:	6018      	str	r0, [r3, #0]
   88ad6:	4638      	mov	r0, r7
   88ad8:	b003      	add	sp, #12
   88ada:	bdf0      	pop	{r4, r5, r6, r7, pc}
   88adc:	a801      	add	r0, sp, #4
   88ade:	f7ff fdb5 	bl	8864c <__lo0bits>
   88ae2:	2201      	movs	r2, #1
   88ae4:	9b01      	ldr	r3, [sp, #4]
   88ae6:	4611      	mov	r1, r2
   88ae8:	3020      	adds	r0, #32
   88aea:	613a      	str	r2, [r7, #16]
   88aec:	617b      	str	r3, [r7, #20]
   88aee:	2d00      	cmp	r5, #0
   88af0:	d0e4      	beq.n	88abc <__d2b+0x44>
   88af2:	f2a5 4333 	subw	r3, r5, #1075	; 0x433
   88af6:	9a08      	ldr	r2, [sp, #32]
   88af8:	4403      	add	r3, r0
   88afa:	6013      	str	r3, [r2, #0]
   88afc:	9b09      	ldr	r3, [sp, #36]	; 0x24
   88afe:	f1c0 0035 	rsb	r0, r0, #53	; 0x35
   88b02:	6018      	str	r0, [r3, #0]
   88b04:	4638      	mov	r0, r7
   88b06:	b003      	add	sp, #12
   88b08:	bdf0      	pop	{r4, r5, r6, r7, pc}
   88b0a:	9b01      	ldr	r3, [sp, #4]
   88b0c:	f1c0 0220 	rsb	r2, r0, #32
   88b10:	9900      	ldr	r1, [sp, #0]
   88b12:	fa03 f202 	lsl.w	r2, r3, r2
   88b16:	430a      	orrs	r2, r1
   88b18:	40c3      	lsrs	r3, r0
   88b1a:	9301      	str	r3, [sp, #4]
   88b1c:	617a      	str	r2, [r7, #20]
   88b1e:	e7c6      	b.n	88aae <__d2b+0x36>

00088b20 <_sbrk_r>:
   88b20:	b538      	push	{r3, r4, r5, lr}
   88b22:	2300      	movs	r3, #0
   88b24:	4c06      	ldr	r4, [pc, #24]	; (88b40 <_sbrk_r+0x20>)
   88b26:	4605      	mov	r5, r0
   88b28:	4608      	mov	r0, r1
   88b2a:	6023      	str	r3, [r4, #0]
   88b2c:	f7fb fd12 	bl	84554 <_sbrk>
   88b30:	1c43      	adds	r3, r0, #1
   88b32:	d000      	beq.n	88b36 <_sbrk_r+0x16>
   88b34:	bd38      	pop	{r3, r4, r5, pc}
   88b36:	6823      	ldr	r3, [r4, #0]
   88b38:	2b00      	cmp	r3, #0
   88b3a:	d0fb      	beq.n	88b34 <_sbrk_r+0x14>
   88b3c:	602b      	str	r3, [r5, #0]
   88b3e:	bd38      	pop	{r3, r4, r5, pc}
   88b40:	20070ff4 	.word	0x20070ff4

00088b44 <__ssprint_r>:
   88b44:	e92d 4ff0 	stmdb	sp!, {r4, r5, r6, r7, r8, r9, sl, fp, lr}
   88b48:	6893      	ldr	r3, [r2, #8]
   88b4a:	b083      	sub	sp, #12
   88b4c:	4690      	mov	r8, r2
   88b4e:	2b00      	cmp	r3, #0
   88b50:	d070      	beq.n	88c34 <__ssprint_r+0xf0>
   88b52:	4682      	mov	sl, r0
   88b54:	460c      	mov	r4, r1
   88b56:	6817      	ldr	r7, [r2, #0]
   88b58:	688d      	ldr	r5, [r1, #8]
   88b5a:	6808      	ldr	r0, [r1, #0]
   88b5c:	e042      	b.n	88be4 <__ssprint_r+0xa0>
   88b5e:	89a3      	ldrh	r3, [r4, #12]
   88b60:	f413 6f90 	tst.w	r3, #1152	; 0x480
   88b64:	d02e      	beq.n	88bc4 <__ssprint_r+0x80>
   88b66:	6965      	ldr	r5, [r4, #20]
   88b68:	6921      	ldr	r1, [r4, #16]
   88b6a:	eb05 0545 	add.w	r5, r5, r5, lsl #1
   88b6e:	eba0 0b01 	sub.w	fp, r0, r1
   88b72:	eb05 75d5 	add.w	r5, r5, r5, lsr #31
   88b76:	f10b 0001 	add.w	r0, fp, #1
   88b7a:	106d      	asrs	r5, r5, #1
   88b7c:	4430      	add	r0, r6
   88b7e:	42a8      	cmp	r0, r5
   88b80:	462a      	mov	r2, r5
   88b82:	bf84      	itt	hi
   88b84:	4605      	movhi	r5, r0
   88b86:	462a      	movhi	r2, r5
   88b88:	055b      	lsls	r3, r3, #21
   88b8a:	d538      	bpl.n	88bfe <__ssprint_r+0xba>
   88b8c:	4611      	mov	r1, r2
   88b8e:	4650      	mov	r0, sl
   88b90:	f7ff f960 	bl	87e54 <_malloc_r>
   88b94:	2800      	cmp	r0, #0
   88b96:	d03c      	beq.n	88c12 <__ssprint_r+0xce>
   88b98:	465a      	mov	r2, fp
   88b9a:	6921      	ldr	r1, [r4, #16]
   88b9c:	9001      	str	r0, [sp, #4]
   88b9e:	f7ff fc41 	bl	88424 <memcpy>
   88ba2:	89a2      	ldrh	r2, [r4, #12]
   88ba4:	9b01      	ldr	r3, [sp, #4]
   88ba6:	f422 6290 	bic.w	r2, r2, #1152	; 0x480
   88baa:	f042 0280 	orr.w	r2, r2, #128	; 0x80
   88bae:	81a2      	strh	r2, [r4, #12]
   88bb0:	eba5 020b 	sub.w	r2, r5, fp
   88bb4:	eb03 000b 	add.w	r0, r3, fp
   88bb8:	6165      	str	r5, [r4, #20]
   88bba:	46b3      	mov	fp, r6
   88bbc:	4635      	mov	r5, r6
   88bbe:	6123      	str	r3, [r4, #16]
   88bc0:	6020      	str	r0, [r4, #0]
   88bc2:	60a2      	str	r2, [r4, #8]
   88bc4:	465a      	mov	r2, fp
   88bc6:	4649      	mov	r1, r9
   88bc8:	f000 fa18 	bl	88ffc <memmove>
   88bcc:	f8d8 3008 	ldr.w	r3, [r8, #8]
   88bd0:	68a2      	ldr	r2, [r4, #8]
   88bd2:	6820      	ldr	r0, [r4, #0]
   88bd4:	1b55      	subs	r5, r2, r5
   88bd6:	4458      	add	r0, fp
   88bd8:	1b9e      	subs	r6, r3, r6
   88bda:	60a5      	str	r5, [r4, #8]
   88bdc:	6020      	str	r0, [r4, #0]
   88bde:	f8c8 6008 	str.w	r6, [r8, #8]
   88be2:	b33e      	cbz	r6, 88c34 <__ssprint_r+0xf0>
   88be4:	687e      	ldr	r6, [r7, #4]
   88be6:	463b      	mov	r3, r7
   88be8:	3708      	adds	r7, #8
   88bea:	2e00      	cmp	r6, #0
   88bec:	d0fa      	beq.n	88be4 <__ssprint_r+0xa0>
   88bee:	42ae      	cmp	r6, r5
   88bf0:	f8d3 9000 	ldr.w	r9, [r3]
   88bf4:	46ab      	mov	fp, r5
   88bf6:	d2b2      	bcs.n	88b5e <__ssprint_r+0x1a>
   88bf8:	4635      	mov	r5, r6
   88bfa:	46b3      	mov	fp, r6
   88bfc:	e7e2      	b.n	88bc4 <__ssprint_r+0x80>
   88bfe:	4650      	mov	r0, sl
   88c00:	f000 fa60 	bl	890c4 <_realloc_r>
   88c04:	4603      	mov	r3, r0
   88c06:	2800      	cmp	r0, #0
   88c08:	d1d2      	bne.n	88bb0 <__ssprint_r+0x6c>
   88c0a:	6921      	ldr	r1, [r4, #16]
   88c0c:	4650      	mov	r0, sl
   88c0e:	f000 f8f9 	bl	88e04 <_free_r>
   88c12:	230c      	movs	r3, #12
   88c14:	2200      	movs	r2, #0
   88c16:	f04f 30ff 	mov.w	r0, #4294967295
   88c1a:	f8ca 3000 	str.w	r3, [sl]
   88c1e:	89a3      	ldrh	r3, [r4, #12]
   88c20:	f043 0340 	orr.w	r3, r3, #64	; 0x40
   88c24:	81a3      	strh	r3, [r4, #12]
   88c26:	f8c8 2008 	str.w	r2, [r8, #8]
   88c2a:	f8c8 2004 	str.w	r2, [r8, #4]
   88c2e:	b003      	add	sp, #12
   88c30:	e8bd 8ff0 	ldmia.w	sp!, {r4, r5, r6, r7, r8, r9, sl, fp, pc}
   88c34:	2000      	movs	r0, #0
   88c36:	f8c8 0004 	str.w	r0, [r8, #4]
   88c3a:	b003      	add	sp, #12
   88c3c:	e8bd 8ff0 	ldmia.w	sp!, {r4, r5, r6, r7, r8, r9, sl, fp, pc}

00088c40 <__register_exitproc>:
   88c40:	e92d 43f8 	stmdb	sp!, {r3, r4, r5, r6, r7, r8, r9, lr}
   88c44:	4d2c      	ldr	r5, [pc, #176]	; (88cf8 <__register_exitproc+0xb8>)
   88c46:	4606      	mov	r6, r0
   88c48:	6828      	ldr	r0, [r5, #0]
   88c4a:	4698      	mov	r8, r3
   88c4c:	460f      	mov	r7, r1
   88c4e:	4691      	mov	r9, r2
   88c50:	f7ff f8fc 	bl	87e4c <__retarget_lock_acquire_recursive>
   88c54:	4b29      	ldr	r3, [pc, #164]	; (88cfc <__register_exitproc+0xbc>)
   88c56:	681c      	ldr	r4, [r3, #0]
   88c58:	f8d4 3148 	ldr.w	r3, [r4, #328]	; 0x148
   88c5c:	2b00      	cmp	r3, #0
   88c5e:	d03e      	beq.n	88cde <__register_exitproc+0x9e>
   88c60:	685a      	ldr	r2, [r3, #4]
   88c62:	2a1f      	cmp	r2, #31
   88c64:	dc1c      	bgt.n	88ca0 <__register_exitproc+0x60>
   88c66:	f102 0e01 	add.w	lr, r2, #1
   88c6a:	b176      	cbz	r6, 88c8a <__register_exitproc+0x4a>
   88c6c:	2101      	movs	r1, #1
   88c6e:	eb03 0482 	add.w	r4, r3, r2, lsl #2
   88c72:	f8c4 9088 	str.w	r9, [r4, #136]	; 0x88
   88c76:	f8d3 0188 	ldr.w	r0, [r3, #392]	; 0x188
   88c7a:	4091      	lsls	r1, r2
   88c7c:	4308      	orrs	r0, r1
   88c7e:	2e02      	cmp	r6, #2
   88c80:	f8c3 0188 	str.w	r0, [r3, #392]	; 0x188
   88c84:	f8c4 8108 	str.w	r8, [r4, #264]	; 0x108
   88c88:	d023      	beq.n	88cd2 <__register_exitproc+0x92>
   88c8a:	3202      	adds	r2, #2
   88c8c:	f8c3 e004 	str.w	lr, [r3, #4]
   88c90:	6828      	ldr	r0, [r5, #0]
   88c92:	f843 7022 	str.w	r7, [r3, r2, lsl #2]
   88c96:	f7ff f8db 	bl	87e50 <__retarget_lock_release_recursive>
   88c9a:	2000      	movs	r0, #0
   88c9c:	e8bd 83f8 	ldmia.w	sp!, {r3, r4, r5, r6, r7, r8, r9, pc}
   88ca0:	4b17      	ldr	r3, [pc, #92]	; (88d00 <__register_exitproc+0xc0>)
   88ca2:	b30b      	cbz	r3, 88ce8 <__register_exitproc+0xa8>
   88ca4:	f44f 70c8 	mov.w	r0, #400	; 0x190
   88ca8:	f3af 8000 	nop.w
   88cac:	4603      	mov	r3, r0
   88cae:	b1d8      	cbz	r0, 88ce8 <__register_exitproc+0xa8>
   88cb0:	2000      	movs	r0, #0
   88cb2:	f8d4 1148 	ldr.w	r1, [r4, #328]	; 0x148
   88cb6:	f04f 0e01 	mov.w	lr, #1
   88cba:	6058      	str	r0, [r3, #4]
   88cbc:	6019      	str	r1, [r3, #0]
   88cbe:	4602      	mov	r2, r0
   88cc0:	f8c4 3148 	str.w	r3, [r4, #328]	; 0x148
   88cc4:	f8c3 0188 	str.w	r0, [r3, #392]	; 0x188
   88cc8:	f8c3 018c 	str.w	r0, [r3, #396]	; 0x18c
   88ccc:	2e00      	cmp	r6, #0
   88cce:	d0dc      	beq.n	88c8a <__register_exitproc+0x4a>
   88cd0:	e7cc      	b.n	88c6c <__register_exitproc+0x2c>
   88cd2:	f8d3 018c 	ldr.w	r0, [r3, #396]	; 0x18c
   88cd6:	4301      	orrs	r1, r0
   88cd8:	f8c3 118c 	str.w	r1, [r3, #396]	; 0x18c
   88cdc:	e7d5      	b.n	88c8a <__register_exitproc+0x4a>
   88cde:	f504 73a6 	add.w	r3, r4, #332	; 0x14c
   88ce2:	f8c4 3148 	str.w	r3, [r4, #328]	; 0x148
   88ce6:	e7bb      	b.n	88c60 <__register_exitproc+0x20>
   88ce8:	6828      	ldr	r0, [r5, #0]
   88cea:	f7ff f8b1 	bl	87e50 <__retarget_lock_release_recursive>
   88cee:	f04f 30ff 	mov.w	r0, #4294967295
   88cf2:	e8bd 83f8 	ldmia.w	sp!, {r3, r4, r5, r6, r7, r8, r9, pc}
   88cf6:	bf00      	nop
   88cf8:	200705d0 	.word	0x200705d0
   88cfc:	00089a38 	.word	0x00089a38
   88d00:	00000000 	.word	0x00000000

00088d04 <_calloc_r>:
   88d04:	b510      	push	{r4, lr}
   88d06:	fb02 f101 	mul.w	r1, r2, r1
   88d0a:	f7ff f8a3 	bl	87e54 <_malloc_r>
   88d0e:	4604      	mov	r4, r0
   88d10:	b1d8      	cbz	r0, 88d4a <_calloc_r+0x46>
   88d12:	f850 2c04 	ldr.w	r2, [r0, #-4]
   88d16:	f022 0203 	bic.w	r2, r2, #3
   88d1a:	3a04      	subs	r2, #4
   88d1c:	2a24      	cmp	r2, #36	; 0x24
   88d1e:	d818      	bhi.n	88d52 <_calloc_r+0x4e>
   88d20:	2a13      	cmp	r2, #19
   88d22:	d914      	bls.n	88d4e <_calloc_r+0x4a>
   88d24:	2300      	movs	r3, #0
   88d26:	2a1b      	cmp	r2, #27
   88d28:	6003      	str	r3, [r0, #0]
   88d2a:	6043      	str	r3, [r0, #4]
   88d2c:	d916      	bls.n	88d5c <_calloc_r+0x58>
   88d2e:	2a24      	cmp	r2, #36	; 0x24
   88d30:	6083      	str	r3, [r0, #8]
   88d32:	60c3      	str	r3, [r0, #12]
   88d34:	bf11      	iteee	ne
   88d36:	f100 0210 	addne.w	r2, r0, #16
   88d3a:	6103      	streq	r3, [r0, #16]
   88d3c:	6143      	streq	r3, [r0, #20]
   88d3e:	f100 0218 	addeq.w	r2, r0, #24
   88d42:	2300      	movs	r3, #0
   88d44:	6013      	str	r3, [r2, #0]
   88d46:	6053      	str	r3, [r2, #4]
   88d48:	6093      	str	r3, [r2, #8]
   88d4a:	4620      	mov	r0, r4
   88d4c:	bd10      	pop	{r4, pc}
   88d4e:	4602      	mov	r2, r0
   88d50:	e7f7      	b.n	88d42 <_calloc_r+0x3e>
   88d52:	2100      	movs	r1, #0
   88d54:	f7fc fd6a 	bl	8582c <memset>
   88d58:	4620      	mov	r0, r4
   88d5a:	bd10      	pop	{r4, pc}
   88d5c:	f100 0208 	add.w	r2, r0, #8
   88d60:	e7ef      	b.n	88d42 <_calloc_r+0x3e>
   88d62:	bf00      	nop

00088d64 <_malloc_trim_r>:
   88d64:	b5f8      	push	{r3, r4, r5, r6, r7, lr}
   88d66:	460c      	mov	r4, r1
   88d68:	4f23      	ldr	r7, [pc, #140]	; (88df8 <_malloc_trim_r+0x94>)
   88d6a:	4606      	mov	r6, r0
   88d6c:	f7ff fbd0 	bl	88510 <__malloc_lock>
   88d70:	68bb      	ldr	r3, [r7, #8]
   88d72:	f5c4 617e 	rsb	r1, r4, #4064	; 0xfe0
   88d76:	685d      	ldr	r5, [r3, #4]
   88d78:	310f      	adds	r1, #15
   88d7a:	f025 0503 	bic.w	r5, r5, #3
   88d7e:	4429      	add	r1, r5
   88d80:	f421 617f 	bic.w	r1, r1, #4080	; 0xff0
   88d84:	f021 010f 	bic.w	r1, r1, #15
   88d88:	f5a1 5480 	sub.w	r4, r1, #4096	; 0x1000
   88d8c:	f5b4 5f80 	cmp.w	r4, #4096	; 0x1000
   88d90:	db07      	blt.n	88da2 <_malloc_trim_r+0x3e>
   88d92:	2100      	movs	r1, #0
   88d94:	4630      	mov	r0, r6
   88d96:	f7ff fec3 	bl	88b20 <_sbrk_r>
   88d9a:	68bb      	ldr	r3, [r7, #8]
   88d9c:	442b      	add	r3, r5
   88d9e:	4298      	cmp	r0, r3
   88da0:	d004      	beq.n	88dac <_malloc_trim_r+0x48>
   88da2:	4630      	mov	r0, r6
   88da4:	f7ff fbba 	bl	8851c <__malloc_unlock>
   88da8:	2000      	movs	r0, #0
   88daa:	bdf8      	pop	{r3, r4, r5, r6, r7, pc}
   88dac:	4261      	negs	r1, r4
   88dae:	4630      	mov	r0, r6
   88db0:	f7ff feb6 	bl	88b20 <_sbrk_r>
   88db4:	3001      	adds	r0, #1
   88db6:	d00d      	beq.n	88dd4 <_malloc_trim_r+0x70>
   88db8:	4b10      	ldr	r3, [pc, #64]	; (88dfc <_malloc_trim_r+0x98>)
   88dba:	68ba      	ldr	r2, [r7, #8]
   88dbc:	6819      	ldr	r1, [r3, #0]
   88dbe:	1b2d      	subs	r5, r5, r4
   88dc0:	f045 0501 	orr.w	r5, r5, #1
   88dc4:	4630      	mov	r0, r6
   88dc6:	1b09      	subs	r1, r1, r4
   88dc8:	6055      	str	r5, [r2, #4]
   88dca:	6019      	str	r1, [r3, #0]
   88dcc:	f7ff fba6 	bl	8851c <__malloc_unlock>
   88dd0:	2001      	movs	r0, #1
   88dd2:	bdf8      	pop	{r3, r4, r5, r6, r7, pc}
   88dd4:	2100      	movs	r1, #0
   88dd6:	4630      	mov	r0, r6
   88dd8:	f7ff fea2 	bl	88b20 <_sbrk_r>
   88ddc:	68ba      	ldr	r2, [r7, #8]
   88dde:	1a83      	subs	r3, r0, r2
   88de0:	2b0f      	cmp	r3, #15
   88de2:	ddde      	ble.n	88da2 <_malloc_trim_r+0x3e>
   88de4:	4c06      	ldr	r4, [pc, #24]	; (88e00 <_malloc_trim_r+0x9c>)
   88de6:	4905      	ldr	r1, [pc, #20]	; (88dfc <_malloc_trim_r+0x98>)
   88de8:	6824      	ldr	r4, [r4, #0]
   88dea:	f043 0301 	orr.w	r3, r3, #1
   88dee:	1b00      	subs	r0, r0, r4
   88df0:	6053      	str	r3, [r2, #4]
   88df2:	6008      	str	r0, [r1, #0]
   88df4:	e7d5      	b.n	88da2 <_malloc_trim_r+0x3e>
   88df6:	bf00      	nop
   88df8:	200705d4 	.word	0x200705d4
   88dfc:	20070dd8 	.word	0x20070dd8
   88e00:	200709dc 	.word	0x200709dc

00088e04 <_free_r>:
   88e04:	2900      	cmp	r1, #0
   88e06:	d044      	beq.n	88e92 <_free_r+0x8e>
   88e08:	e92d 41f0 	stmdb	sp!, {r4, r5, r6, r7, r8, lr}
   88e0c:	460d      	mov	r5, r1
   88e0e:	4680      	mov	r8, r0
   88e10:	f7ff fb7e 	bl	88510 <__malloc_lock>
   88e14:	f855 7c04 	ldr.w	r7, [r5, #-4]
   88e18:	4969      	ldr	r1, [pc, #420]	; (88fc0 <_free_r+0x1bc>)
   88e1a:	f1a5 0408 	sub.w	r4, r5, #8
   88e1e:	f027 0301 	bic.w	r3, r7, #1
   88e22:	18e2      	adds	r2, r4, r3
   88e24:	688e      	ldr	r6, [r1, #8]
   88e26:	6850      	ldr	r0, [r2, #4]
   88e28:	42b2      	cmp	r2, r6
   88e2a:	f020 0003 	bic.w	r0, r0, #3
   88e2e:	d05e      	beq.n	88eee <_free_r+0xea>
   88e30:	07fe      	lsls	r6, r7, #31
   88e32:	6050      	str	r0, [r2, #4]
   88e34:	d40b      	bmi.n	88e4e <_free_r+0x4a>
   88e36:	f855 7c08 	ldr.w	r7, [r5, #-8]
   88e3a:	f101 0e08 	add.w	lr, r1, #8
   88e3e:	1be4      	subs	r4, r4, r7
   88e40:	68a5      	ldr	r5, [r4, #8]
   88e42:	443b      	add	r3, r7
   88e44:	4575      	cmp	r5, lr
   88e46:	d06d      	beq.n	88f24 <_free_r+0x120>
   88e48:	68e7      	ldr	r7, [r4, #12]
   88e4a:	60ef      	str	r7, [r5, #12]
   88e4c:	60bd      	str	r5, [r7, #8]
   88e4e:	1815      	adds	r5, r2, r0
   88e50:	686d      	ldr	r5, [r5, #4]
   88e52:	07ed      	lsls	r5, r5, #31
   88e54:	d53e      	bpl.n	88ed4 <_free_r+0xd0>
   88e56:	f043 0201 	orr.w	r2, r3, #1
   88e5a:	6062      	str	r2, [r4, #4]
   88e5c:	50e3      	str	r3, [r4, r3]
   88e5e:	f5b3 7f00 	cmp.w	r3, #512	; 0x200
   88e62:	d217      	bcs.n	88e94 <_free_r+0x90>
   88e64:	2201      	movs	r2, #1
   88e66:	08db      	lsrs	r3, r3, #3
   88e68:	1098      	asrs	r0, r3, #2
   88e6a:	684d      	ldr	r5, [r1, #4]
   88e6c:	4413      	add	r3, r2
   88e6e:	f851 7033 	ldr.w	r7, [r1, r3, lsl #3]
   88e72:	4082      	lsls	r2, r0
   88e74:	eb01 00c3 	add.w	r0, r1, r3, lsl #3
   88e78:	432a      	orrs	r2, r5
   88e7a:	3808      	subs	r0, #8
   88e7c:	60e0      	str	r0, [r4, #12]
   88e7e:	60a7      	str	r7, [r4, #8]
   88e80:	604a      	str	r2, [r1, #4]
   88e82:	f841 4033 	str.w	r4, [r1, r3, lsl #3]
   88e86:	60fc      	str	r4, [r7, #12]
   88e88:	4640      	mov	r0, r8
   88e8a:	e8bd 41f0 	ldmia.w	sp!, {r4, r5, r6, r7, r8, lr}
   88e8e:	f7ff bb45 	b.w	8851c <__malloc_unlock>
   88e92:	4770      	bx	lr
   88e94:	0a5a      	lsrs	r2, r3, #9
   88e96:	2a04      	cmp	r2, #4
   88e98:	d852      	bhi.n	88f40 <_free_r+0x13c>
   88e9a:	099a      	lsrs	r2, r3, #6
   88e9c:	f102 0739 	add.w	r7, r2, #57	; 0x39
   88ea0:	00ff      	lsls	r7, r7, #3
   88ea2:	f102 0538 	add.w	r5, r2, #56	; 0x38
   88ea6:	19c8      	adds	r0, r1, r7
   88ea8:	59ca      	ldr	r2, [r1, r7]
   88eaa:	3808      	subs	r0, #8
   88eac:	4290      	cmp	r0, r2
   88eae:	d04f      	beq.n	88f50 <_free_r+0x14c>
   88eb0:	6851      	ldr	r1, [r2, #4]
   88eb2:	f021 0103 	bic.w	r1, r1, #3
   88eb6:	428b      	cmp	r3, r1
   88eb8:	d232      	bcs.n	88f20 <_free_r+0x11c>
   88eba:	6892      	ldr	r2, [r2, #8]
   88ebc:	4290      	cmp	r0, r2
   88ebe:	d1f7      	bne.n	88eb0 <_free_r+0xac>
   88ec0:	68c3      	ldr	r3, [r0, #12]
   88ec2:	60a0      	str	r0, [r4, #8]
   88ec4:	60e3      	str	r3, [r4, #12]
   88ec6:	609c      	str	r4, [r3, #8]
   88ec8:	60c4      	str	r4, [r0, #12]
   88eca:	4640      	mov	r0, r8
   88ecc:	e8bd 41f0 	ldmia.w	sp!, {r4, r5, r6, r7, r8, lr}
   88ed0:	f7ff bb24 	b.w	8851c <__malloc_unlock>
   88ed4:	6895      	ldr	r5, [r2, #8]
   88ed6:	4f3b      	ldr	r7, [pc, #236]	; (88fc4 <_free_r+0x1c0>)
   88ed8:	4403      	add	r3, r0
   88eda:	42bd      	cmp	r5, r7
   88edc:	d040      	beq.n	88f60 <_free_r+0x15c>
   88ede:	68d0      	ldr	r0, [r2, #12]
   88ee0:	f043 0201 	orr.w	r2, r3, #1
   88ee4:	60e8      	str	r0, [r5, #12]
   88ee6:	6085      	str	r5, [r0, #8]
   88ee8:	6062      	str	r2, [r4, #4]
   88eea:	50e3      	str	r3, [r4, r3]
   88eec:	e7b7      	b.n	88e5e <_free_r+0x5a>
   88eee:	07ff      	lsls	r7, r7, #31
   88ef0:	4403      	add	r3, r0
   88ef2:	d407      	bmi.n	88f04 <_free_r+0x100>
   88ef4:	f855 5c08 	ldr.w	r5, [r5, #-8]
   88ef8:	1b64      	subs	r4, r4, r5
   88efa:	68e2      	ldr	r2, [r4, #12]
   88efc:	68a0      	ldr	r0, [r4, #8]
   88efe:	442b      	add	r3, r5
   88f00:	60c2      	str	r2, [r0, #12]
   88f02:	6090      	str	r0, [r2, #8]
   88f04:	4a30      	ldr	r2, [pc, #192]	; (88fc8 <_free_r+0x1c4>)
   88f06:	f043 0001 	orr.w	r0, r3, #1
   88f0a:	6812      	ldr	r2, [r2, #0]
   88f0c:	6060      	str	r0, [r4, #4]
   88f0e:	4293      	cmp	r3, r2
   88f10:	608c      	str	r4, [r1, #8]
   88f12:	d3b9      	bcc.n	88e88 <_free_r+0x84>
   88f14:	4b2d      	ldr	r3, [pc, #180]	; (88fcc <_free_r+0x1c8>)
   88f16:	4640      	mov	r0, r8
   88f18:	6819      	ldr	r1, [r3, #0]
   88f1a:	f7ff ff23 	bl	88d64 <_malloc_trim_r>
   88f1e:	e7b3      	b.n	88e88 <_free_r+0x84>
   88f20:	4610      	mov	r0, r2
   88f22:	e7cd      	b.n	88ec0 <_free_r+0xbc>
   88f24:	1811      	adds	r1, r2, r0
   88f26:	6849      	ldr	r1, [r1, #4]
   88f28:	07c9      	lsls	r1, r1, #31
   88f2a:	d444      	bmi.n	88fb6 <_free_r+0x1b2>
   88f2c:	6891      	ldr	r1, [r2, #8]
   88f2e:	4403      	add	r3, r0
   88f30:	68d2      	ldr	r2, [r2, #12]
   88f32:	f043 0001 	orr.w	r0, r3, #1
   88f36:	60ca      	str	r2, [r1, #12]
   88f38:	6091      	str	r1, [r2, #8]
   88f3a:	6060      	str	r0, [r4, #4]
   88f3c:	50e3      	str	r3, [r4, r3]
   88f3e:	e7a3      	b.n	88e88 <_free_r+0x84>
   88f40:	2a14      	cmp	r2, #20
   88f42:	d816      	bhi.n	88f72 <_free_r+0x16e>
   88f44:	f102 075c 	add.w	r7, r2, #92	; 0x5c
   88f48:	00ff      	lsls	r7, r7, #3
   88f4a:	f102 055b 	add.w	r5, r2, #91	; 0x5b
   88f4e:	e7aa      	b.n	88ea6 <_free_r+0xa2>
   88f50:	2301      	movs	r3, #1
   88f52:	10aa      	asrs	r2, r5, #2
   88f54:	684d      	ldr	r5, [r1, #4]
   88f56:	4093      	lsls	r3, r2
   88f58:	432b      	orrs	r3, r5
   88f5a:	604b      	str	r3, [r1, #4]
   88f5c:	4603      	mov	r3, r0
   88f5e:	e7b0      	b.n	88ec2 <_free_r+0xbe>
   88f60:	f043 0201 	orr.w	r2, r3, #1
   88f64:	614c      	str	r4, [r1, #20]
   88f66:	610c      	str	r4, [r1, #16]
   88f68:	60e5      	str	r5, [r4, #12]
   88f6a:	60a5      	str	r5, [r4, #8]
   88f6c:	6062      	str	r2, [r4, #4]
   88f6e:	50e3      	str	r3, [r4, r3]
   88f70:	e78a      	b.n	88e88 <_free_r+0x84>
   88f72:	2a54      	cmp	r2, #84	; 0x54
   88f74:	d806      	bhi.n	88f84 <_free_r+0x180>
   88f76:	0b1a      	lsrs	r2, r3, #12
   88f78:	f102 076f 	add.w	r7, r2, #111	; 0x6f
   88f7c:	00ff      	lsls	r7, r7, #3
   88f7e:	f102 056e 	add.w	r5, r2, #110	; 0x6e
   88f82:	e790      	b.n	88ea6 <_free_r+0xa2>
   88f84:	f5b2 7faa 	cmp.w	r2, #340	; 0x154
   88f88:	d806      	bhi.n	88f98 <_free_r+0x194>
   88f8a:	0bda      	lsrs	r2, r3, #15
   88f8c:	f102 0778 	add.w	r7, r2, #120	; 0x78
   88f90:	00ff      	lsls	r7, r7, #3
   88f92:	f102 0577 	add.w	r5, r2, #119	; 0x77
   88f96:	e786      	b.n	88ea6 <_free_r+0xa2>
   88f98:	f240 5054 	movw	r0, #1364	; 0x554
   88f9c:	4282      	cmp	r2, r0
   88f9e:	d806      	bhi.n	88fae <_free_r+0x1aa>
   88fa0:	0c9a      	lsrs	r2, r3, #18
   88fa2:	f102 077d 	add.w	r7, r2, #125	; 0x7d
   88fa6:	00ff      	lsls	r7, r7, #3
   88fa8:	f102 057c 	add.w	r5, r2, #124	; 0x7c
   88fac:	e77b      	b.n	88ea6 <_free_r+0xa2>
   88fae:	f44f 777e 	mov.w	r7, #1016	; 0x3f8
   88fb2:	257e      	movs	r5, #126	; 0x7e
   88fb4:	e777      	b.n	88ea6 <_free_r+0xa2>
   88fb6:	f043 0101 	orr.w	r1, r3, #1
   88fba:	6061      	str	r1, [r4, #4]
   88fbc:	6013      	str	r3, [r2, #0]
   88fbe:	e763      	b.n	88e88 <_free_r+0x84>
   88fc0:	200705d4 	.word	0x200705d4
   88fc4:	200705dc 	.word	0x200705dc
   88fc8:	200709e0 	.word	0x200709e0
   88fcc:	20070e08 	.word	0x20070e08

00088fd0 <__ascii_mbtowc>:
   88fd0:	b082      	sub	sp, #8
   88fd2:	b149      	cbz	r1, 88fe8 <__ascii_mbtowc+0x18>
   88fd4:	b15a      	cbz	r2, 88fee <__ascii_mbtowc+0x1e>
   88fd6:	b16b      	cbz	r3, 88ff4 <__ascii_mbtowc+0x24>
   88fd8:	7813      	ldrb	r3, [r2, #0]
   88fda:	600b      	str	r3, [r1, #0]
   88fdc:	7812      	ldrb	r2, [r2, #0]
   88fde:	1c10      	adds	r0, r2, #0
   88fe0:	bf18      	it	ne
   88fe2:	2001      	movne	r0, #1
   88fe4:	b002      	add	sp, #8
   88fe6:	4770      	bx	lr
   88fe8:	a901      	add	r1, sp, #4
   88fea:	2a00      	cmp	r2, #0
   88fec:	d1f3      	bne.n	88fd6 <__ascii_mbtowc+0x6>
   88fee:	4610      	mov	r0, r2
   88ff0:	b002      	add	sp, #8
   88ff2:	4770      	bx	lr
   88ff4:	f06f 0001 	mvn.w	r0, #1
   88ff8:	e7f4      	b.n	88fe4 <__ascii_mbtowc+0x14>
   88ffa:	bf00      	nop

00088ffc <memmove>:
   88ffc:	4288      	cmp	r0, r1
   88ffe:	b5f0      	push	{r4, r5, r6, r7, lr}
   89000:	d90d      	bls.n	8901e <memmove+0x22>
   89002:	188b      	adds	r3, r1, r2
   89004:	4298      	cmp	r0, r3
   89006:	d20a      	bcs.n	8901e <memmove+0x22>
   89008:	1884      	adds	r4, r0, r2
   8900a:	2a00      	cmp	r2, #0
   8900c:	d051      	beq.n	890b2 <memmove+0xb6>
   8900e:	4622      	mov	r2, r4
   89010:	f813 4d01 	ldrb.w	r4, [r3, #-1]!
   89014:	4299      	cmp	r1, r3
   89016:	f802 4d01 	strb.w	r4, [r2, #-1]!
   8901a:	d1f9      	bne.n	89010 <memmove+0x14>
   8901c:	bdf0      	pop	{r4, r5, r6, r7, pc}
   8901e:	2a0f      	cmp	r2, #15
   89020:	d948      	bls.n	890b4 <memmove+0xb8>
   89022:	ea41 0300 	orr.w	r3, r1, r0
   89026:	079b      	lsls	r3, r3, #30
   89028:	d146      	bne.n	890b8 <memmove+0xbc>
   8902a:	4615      	mov	r5, r2
   8902c:	f100 0410 	add.w	r4, r0, #16
   89030:	f101 0310 	add.w	r3, r1, #16
   89034:	f853 6c10 	ldr.w	r6, [r3, #-16]
   89038:	3d10      	subs	r5, #16
   8903a:	f844 6c10 	str.w	r6, [r4, #-16]
   8903e:	f853 6c0c 	ldr.w	r6, [r3, #-12]
   89042:	2d0f      	cmp	r5, #15
   89044:	f844 6c0c 	str.w	r6, [r4, #-12]
   89048:	f853 6c08 	ldr.w	r6, [r3, #-8]
   8904c:	f104 0410 	add.w	r4, r4, #16
   89050:	f844 6c18 	str.w	r6, [r4, #-24]
   89054:	f853 6c04 	ldr.w	r6, [r3, #-4]
   89058:	f103 0310 	add.w	r3, r3, #16
   8905c:	f844 6c14 	str.w	r6, [r4, #-20]
   89060:	d8e8      	bhi.n	89034 <memmove+0x38>
   89062:	f1a2 0310 	sub.w	r3, r2, #16
   89066:	f023 030f 	bic.w	r3, r3, #15
   8906a:	f002 0e0f 	and.w	lr, r2, #15
   8906e:	3310      	adds	r3, #16
   89070:	f1be 0f03 	cmp.w	lr, #3
   89074:	4419      	add	r1, r3
   89076:	4403      	add	r3, r0
   89078:	d921      	bls.n	890be <memmove+0xc2>
   8907a:	460e      	mov	r6, r1
   8907c:	4674      	mov	r4, lr
   8907e:	1f1d      	subs	r5, r3, #4
   89080:	f856 7b04 	ldr.w	r7, [r6], #4
   89084:	3c04      	subs	r4, #4
   89086:	2c03      	cmp	r4, #3
   89088:	f845 7f04 	str.w	r7, [r5, #4]!
   8908c:	d8f8      	bhi.n	89080 <memmove+0x84>
   8908e:	f1ae 0404 	sub.w	r4, lr, #4
   89092:	f024 0403 	bic.w	r4, r4, #3
   89096:	3404      	adds	r4, #4
   89098:	4421      	add	r1, r4
   8909a:	4423      	add	r3, r4
   8909c:	f002 0203 	and.w	r2, r2, #3
   890a0:	b162      	cbz	r2, 890bc <memmove+0xc0>
   890a2:	3b01      	subs	r3, #1
   890a4:	440a      	add	r2, r1
   890a6:	f811 4b01 	ldrb.w	r4, [r1], #1
   890aa:	428a      	cmp	r2, r1
   890ac:	f803 4f01 	strb.w	r4, [r3, #1]!
   890b0:	d1f9      	bne.n	890a6 <memmove+0xaa>
   890b2:	bdf0      	pop	{r4, r5, r6, r7, pc}
   890b4:	4603      	mov	r3, r0
   890b6:	e7f3      	b.n	890a0 <memmove+0xa4>
   890b8:	4603      	mov	r3, r0
   890ba:	e7f2      	b.n	890a2 <memmove+0xa6>
   890bc:	bdf0      	pop	{r4, r5, r6, r7, pc}
   890be:	4672      	mov	r2, lr
   890c0:	e7ee      	b.n	890a0 <memmove+0xa4>
   890c2:	bf00      	nop

000890c4 <_realloc_r>:
   890c4:	2900      	cmp	r1, #0
   890c6:	f000 8094 	beq.w	891f2 <_realloc_r+0x12e>
   890ca:	e92d 4ff0 	stmdb	sp!, {r4, r5, r6, r7, r8, r9, sl, fp, lr}
   890ce:	460c      	mov	r4, r1
   890d0:	4615      	mov	r5, r2
   890d2:	b083      	sub	sp, #12
   890d4:	4680      	mov	r8, r0
   890d6:	f105 060b 	add.w	r6, r5, #11
   890da:	f7ff fa19 	bl	88510 <__malloc_lock>
   890de:	f854 ec04 	ldr.w	lr, [r4, #-4]
   890e2:	2e16      	cmp	r6, #22
   890e4:	f02e 0703 	bic.w	r7, lr, #3
   890e8:	f1a4 0908 	sub.w	r9, r4, #8
   890ec:	d83c      	bhi.n	89168 <_realloc_r+0xa4>
   890ee:	2210      	movs	r2, #16
   890f0:	4616      	mov	r6, r2
   890f2:	42b5      	cmp	r5, r6
   890f4:	d83d      	bhi.n	89172 <_realloc_r+0xae>
   890f6:	4297      	cmp	r7, r2
   890f8:	da43      	bge.n	89182 <_realloc_r+0xbe>
   890fa:	4bc6      	ldr	r3, [pc, #792]	; (89414 <_realloc_r+0x350>)
   890fc:	eb09 0007 	add.w	r0, r9, r7
   89100:	6899      	ldr	r1, [r3, #8]
   89102:	4288      	cmp	r0, r1
   89104:	f000 80c3 	beq.w	8928e <_realloc_r+0x1ca>
   89108:	6843      	ldr	r3, [r0, #4]
   8910a:	f023 0101 	bic.w	r1, r3, #1
   8910e:	4401      	add	r1, r0
   89110:	6849      	ldr	r1, [r1, #4]
   89112:	07c9      	lsls	r1, r1, #31
   89114:	d54d      	bpl.n	891b2 <_realloc_r+0xee>
   89116:	f01e 0f01 	tst.w	lr, #1
   8911a:	f000 809b 	beq.w	89254 <_realloc_r+0x190>
   8911e:	4629      	mov	r1, r5
   89120:	4640      	mov	r0, r8
   89122:	f7fe fe97 	bl	87e54 <_malloc_r>
   89126:	4605      	mov	r5, r0
   89128:	2800      	cmp	r0, #0
   8912a:	d03b      	beq.n	891a4 <_realloc_r+0xe0>
   8912c:	f854 3c04 	ldr.w	r3, [r4, #-4]
   89130:	f1a0 0208 	sub.w	r2, r0, #8
   89134:	f023 0301 	bic.w	r3, r3, #1
   89138:	444b      	add	r3, r9
   8913a:	429a      	cmp	r2, r3
   8913c:	f000 812b 	beq.w	89396 <_realloc_r+0x2d2>
   89140:	1f3a      	subs	r2, r7, #4
   89142:	2a24      	cmp	r2, #36	; 0x24
   89144:	f200 8118 	bhi.w	89378 <_realloc_r+0x2b4>
   89148:	2a13      	cmp	r2, #19
   8914a:	f200 80eb 	bhi.w	89324 <_realloc_r+0x260>
   8914e:	4603      	mov	r3, r0
   89150:	4622      	mov	r2, r4
   89152:	6811      	ldr	r1, [r2, #0]
   89154:	6019      	str	r1, [r3, #0]
   89156:	6851      	ldr	r1, [r2, #4]
   89158:	6059      	str	r1, [r3, #4]
   8915a:	6892      	ldr	r2, [r2, #8]
   8915c:	609a      	str	r2, [r3, #8]
   8915e:	4621      	mov	r1, r4
   89160:	4640      	mov	r0, r8
   89162:	f7ff fe4f 	bl	88e04 <_free_r>
   89166:	e01d      	b.n	891a4 <_realloc_r+0xe0>
   89168:	f026 0607 	bic.w	r6, r6, #7
   8916c:	2e00      	cmp	r6, #0
   8916e:	4632      	mov	r2, r6
   89170:	dabf      	bge.n	890f2 <_realloc_r+0x2e>
   89172:	2500      	movs	r5, #0
   89174:	230c      	movs	r3, #12
   89176:	4628      	mov	r0, r5
   89178:	f8c8 3000 	str.w	r3, [r8]
   8917c:	b003      	add	sp, #12
   8917e:	e8bd 8ff0 	ldmia.w	sp!, {r4, r5, r6, r7, r8, r9, sl, fp, pc}
   89182:	4625      	mov	r5, r4
   89184:	1bbb      	subs	r3, r7, r6
   89186:	2b0f      	cmp	r3, #15
   89188:	f8d9 2004 	ldr.w	r2, [r9, #4]
   8918c:	d81d      	bhi.n	891ca <_realloc_r+0x106>
   8918e:	f002 0201 	and.w	r2, r2, #1
   89192:	433a      	orrs	r2, r7
   89194:	eb09 0107 	add.w	r1, r9, r7
   89198:	f8c9 2004 	str.w	r2, [r9, #4]
   8919c:	684b      	ldr	r3, [r1, #4]
   8919e:	f043 0301 	orr.w	r3, r3, #1
   891a2:	604b      	str	r3, [r1, #4]
   891a4:	4640      	mov	r0, r8
   891a6:	f7ff f9b9 	bl	8851c <__malloc_unlock>
   891aa:	4628      	mov	r0, r5
   891ac:	b003      	add	sp, #12
   891ae:	e8bd 8ff0 	ldmia.w	sp!, {r4, r5, r6, r7, r8, r9, sl, fp, pc}
   891b2:	f023 0303 	bic.w	r3, r3, #3
   891b6:	18f9      	adds	r1, r7, r3
   891b8:	4291      	cmp	r1, r2
   891ba:	db1d      	blt.n	891f8 <_realloc_r+0x134>
   891bc:	68c3      	ldr	r3, [r0, #12]
   891be:	6882      	ldr	r2, [r0, #8]
   891c0:	4625      	mov	r5, r4
   891c2:	60d3      	str	r3, [r2, #12]
   891c4:	460f      	mov	r7, r1
   891c6:	609a      	str	r2, [r3, #8]
   891c8:	e7dc      	b.n	89184 <_realloc_r+0xc0>
   891ca:	f002 0201 	and.w	r2, r2, #1
   891ce:	eb09 0106 	add.w	r1, r9, r6
   891d2:	f043 0301 	orr.w	r3, r3, #1
   891d6:	4332      	orrs	r2, r6
   891d8:	f8c9 2004 	str.w	r2, [r9, #4]
   891dc:	444f      	add	r7, r9
   891de:	604b      	str	r3, [r1, #4]
   891e0:	687b      	ldr	r3, [r7, #4]
   891e2:	3108      	adds	r1, #8
   891e4:	f043 0301 	orr.w	r3, r3, #1
   891e8:	607b      	str	r3, [r7, #4]
   891ea:	4640      	mov	r0, r8
   891ec:	f7ff fe0a 	bl	88e04 <_free_r>
   891f0:	e7d8      	b.n	891a4 <_realloc_r+0xe0>
   891f2:	4611      	mov	r1, r2
   891f4:	f7fe be2e 	b.w	87e54 <_malloc_r>
   891f8:	f01e 0f01 	tst.w	lr, #1
   891fc:	d18f      	bne.n	8911e <_realloc_r+0x5a>
   891fe:	f854 1c08 	ldr.w	r1, [r4, #-8]
   89202:	eba9 0a01 	sub.w	sl, r9, r1
   89206:	f8da 1004 	ldr.w	r1, [sl, #4]
   8920a:	f021 0103 	bic.w	r1, r1, #3
   8920e:	440b      	add	r3, r1
   89210:	443b      	add	r3, r7
   89212:	4293      	cmp	r3, r2
   89214:	db26      	blt.n	89264 <_realloc_r+0x1a0>
   89216:	4655      	mov	r5, sl
   89218:	68c1      	ldr	r1, [r0, #12]
   8921a:	6880      	ldr	r0, [r0, #8]
   8921c:	1f3a      	subs	r2, r7, #4
   8921e:	60c1      	str	r1, [r0, #12]
   89220:	6088      	str	r0, [r1, #8]
   89222:	f855 0f08 	ldr.w	r0, [r5, #8]!
   89226:	f8da 100c 	ldr.w	r1, [sl, #12]
   8922a:	2a24      	cmp	r2, #36	; 0x24
   8922c:	60c1      	str	r1, [r0, #12]
   8922e:	6088      	str	r0, [r1, #8]
   89230:	d826      	bhi.n	89280 <_realloc_r+0x1bc>
   89232:	2a13      	cmp	r2, #19
   89234:	f240 8081 	bls.w	8933a <_realloc_r+0x276>
   89238:	6821      	ldr	r1, [r4, #0]
   8923a:	2a1b      	cmp	r2, #27
   8923c:	f8ca 1008 	str.w	r1, [sl, #8]
   89240:	6861      	ldr	r1, [r4, #4]
   89242:	f8ca 100c 	str.w	r1, [sl, #12]
   89246:	f200 80ad 	bhi.w	893a4 <_realloc_r+0x2e0>
   8924a:	f104 0008 	add.w	r0, r4, #8
   8924e:	f10a 0210 	add.w	r2, sl, #16
   89252:	e074      	b.n	8933e <_realloc_r+0x27a>
   89254:	f854 3c08 	ldr.w	r3, [r4, #-8]
   89258:	eba9 0a03 	sub.w	sl, r9, r3
   8925c:	f8da 1004 	ldr.w	r1, [sl, #4]
   89260:	f021 0103 	bic.w	r1, r1, #3
   89264:	187b      	adds	r3, r7, r1
   89266:	4293      	cmp	r3, r2
   89268:	f6ff af59 	blt.w	8911e <_realloc_r+0x5a>
   8926c:	4655      	mov	r5, sl
   8926e:	f8da 100c 	ldr.w	r1, [sl, #12]
   89272:	f855 0f08 	ldr.w	r0, [r5, #8]!
   89276:	1f3a      	subs	r2, r7, #4
   89278:	2a24      	cmp	r2, #36	; 0x24
   8927a:	60c1      	str	r1, [r0, #12]
   8927c:	6088      	str	r0, [r1, #8]
   8927e:	d9d8      	bls.n	89232 <_realloc_r+0x16e>
   89280:	4621      	mov	r1, r4
   89282:	4628      	mov	r0, r5
   89284:	461f      	mov	r7, r3
   89286:	46d1      	mov	r9, sl
   89288:	f7ff feb8 	bl	88ffc <memmove>
   8928c:	e77a      	b.n	89184 <_realloc_r+0xc0>
   8928e:	6841      	ldr	r1, [r0, #4]
   89290:	f106 0010 	add.w	r0, r6, #16
   89294:	f021 0b03 	bic.w	fp, r1, #3
   89298:	44bb      	add	fp, r7
   8929a:	4583      	cmp	fp, r0
   8929c:	da58      	bge.n	89350 <_realloc_r+0x28c>
   8929e:	f01e 0f01 	tst.w	lr, #1
   892a2:	f47f af3c 	bne.w	8911e <_realloc_r+0x5a>
   892a6:	f854 1c08 	ldr.w	r1, [r4, #-8]
   892aa:	eba9 0a01 	sub.w	sl, r9, r1
   892ae:	f8da 1004 	ldr.w	r1, [sl, #4]
   892b2:	f021 0103 	bic.w	r1, r1, #3
   892b6:	448b      	add	fp, r1
   892b8:	4558      	cmp	r0, fp
   892ba:	dcd3      	bgt.n	89264 <_realloc_r+0x1a0>
   892bc:	4655      	mov	r5, sl
   892be:	f8da 100c 	ldr.w	r1, [sl, #12]
   892c2:	f855 0f08 	ldr.w	r0, [r5, #8]!
   892c6:	1f3a      	subs	r2, r7, #4
   892c8:	2a24      	cmp	r2, #36	; 0x24
   892ca:	60c1      	str	r1, [r0, #12]
   892cc:	6088      	str	r0, [r1, #8]
   892ce:	f200 808d 	bhi.w	893ec <_realloc_r+0x328>
   892d2:	2a13      	cmp	r2, #19
   892d4:	f240 8087 	bls.w	893e6 <_realloc_r+0x322>
   892d8:	6821      	ldr	r1, [r4, #0]
   892da:	2a1b      	cmp	r2, #27
   892dc:	f8ca 1008 	str.w	r1, [sl, #8]
   892e0:	6861      	ldr	r1, [r4, #4]
   892e2:	f8ca 100c 	str.w	r1, [sl, #12]
   892e6:	f200 8088 	bhi.w	893fa <_realloc_r+0x336>
   892ea:	f104 0108 	add.w	r1, r4, #8
   892ee:	f10a 0210 	add.w	r2, sl, #16
   892f2:	6808      	ldr	r0, [r1, #0]
   892f4:	6010      	str	r0, [r2, #0]
   892f6:	6848      	ldr	r0, [r1, #4]
   892f8:	6050      	str	r0, [r2, #4]
   892fa:	6889      	ldr	r1, [r1, #8]
   892fc:	6091      	str	r1, [r2, #8]
   892fe:	ebab 0206 	sub.w	r2, fp, r6
   89302:	eb0a 0106 	add.w	r1, sl, r6
   89306:	f042 0201 	orr.w	r2, r2, #1
   8930a:	6099      	str	r1, [r3, #8]
   8930c:	604a      	str	r2, [r1, #4]
   8930e:	f8da 3004 	ldr.w	r3, [sl, #4]
   89312:	4640      	mov	r0, r8
   89314:	f003 0301 	and.w	r3, r3, #1
   89318:	431e      	orrs	r6, r3
   8931a:	f8ca 6004 	str.w	r6, [sl, #4]
   8931e:	f7ff f8fd 	bl	8851c <__malloc_unlock>
   89322:	e742      	b.n	891aa <_realloc_r+0xe6>
   89324:	6823      	ldr	r3, [r4, #0]
   89326:	2a1b      	cmp	r2, #27
   89328:	6003      	str	r3, [r0, #0]
   8932a:	6863      	ldr	r3, [r4, #4]
   8932c:	6043      	str	r3, [r0, #4]
   8932e:	d827      	bhi.n	89380 <_realloc_r+0x2bc>
   89330:	f100 0308 	add.w	r3, r0, #8
   89334:	f104 0208 	add.w	r2, r4, #8
   89338:	e70b      	b.n	89152 <_realloc_r+0x8e>
   8933a:	4620      	mov	r0, r4
   8933c:	462a      	mov	r2, r5
   8933e:	6801      	ldr	r1, [r0, #0]
   89340:	461f      	mov	r7, r3
   89342:	6011      	str	r1, [r2, #0]
   89344:	6841      	ldr	r1, [r0, #4]
   89346:	46d1      	mov	r9, sl
   89348:	6051      	str	r1, [r2, #4]
   8934a:	6883      	ldr	r3, [r0, #8]
   8934c:	6093      	str	r3, [r2, #8]
   8934e:	e719      	b.n	89184 <_realloc_r+0xc0>
   89350:	ebab 0b06 	sub.w	fp, fp, r6
   89354:	eb09 0106 	add.w	r1, r9, r6
   89358:	f04b 0201 	orr.w	r2, fp, #1
   8935c:	6099      	str	r1, [r3, #8]
   8935e:	604a      	str	r2, [r1, #4]
   89360:	f854 3c04 	ldr.w	r3, [r4, #-4]
   89364:	4640      	mov	r0, r8
   89366:	f003 0301 	and.w	r3, r3, #1
   8936a:	431e      	orrs	r6, r3
   8936c:	f844 6c04 	str.w	r6, [r4, #-4]
   89370:	f7ff f8d4 	bl	8851c <__malloc_unlock>
   89374:	4625      	mov	r5, r4
   89376:	e718      	b.n	891aa <_realloc_r+0xe6>
   89378:	4621      	mov	r1, r4
   8937a:	f7ff fe3f 	bl	88ffc <memmove>
   8937e:	e6ee      	b.n	8915e <_realloc_r+0x9a>
   89380:	68a3      	ldr	r3, [r4, #8]
   89382:	2a24      	cmp	r2, #36	; 0x24
   89384:	6083      	str	r3, [r0, #8]
   89386:	68e3      	ldr	r3, [r4, #12]
   89388:	60c3      	str	r3, [r0, #12]
   8938a:	d018      	beq.n	893be <_realloc_r+0x2fa>
   8938c:	f100 0310 	add.w	r3, r0, #16
   89390:	f104 0210 	add.w	r2, r4, #16
   89394:	e6dd      	b.n	89152 <_realloc_r+0x8e>
   89396:	f850 3c04 	ldr.w	r3, [r0, #-4]
   8939a:	4625      	mov	r5, r4
   8939c:	f023 0303 	bic.w	r3, r3, #3
   893a0:	441f      	add	r7, r3
   893a2:	e6ef      	b.n	89184 <_realloc_r+0xc0>
   893a4:	68a1      	ldr	r1, [r4, #8]
   893a6:	2a24      	cmp	r2, #36	; 0x24
   893a8:	f8ca 1010 	str.w	r1, [sl, #16]
   893ac:	68e1      	ldr	r1, [r4, #12]
   893ae:	f8ca 1014 	str.w	r1, [sl, #20]
   893b2:	d00d      	beq.n	893d0 <_realloc_r+0x30c>
   893b4:	f104 0010 	add.w	r0, r4, #16
   893b8:	f10a 0218 	add.w	r2, sl, #24
   893bc:	e7bf      	b.n	8933e <_realloc_r+0x27a>
   893be:	6922      	ldr	r2, [r4, #16]
   893c0:	f100 0318 	add.w	r3, r0, #24
   893c4:	6102      	str	r2, [r0, #16]
   893c6:	6961      	ldr	r1, [r4, #20]
   893c8:	f104 0218 	add.w	r2, r4, #24
   893cc:	6141      	str	r1, [r0, #20]
   893ce:	e6c0      	b.n	89152 <_realloc_r+0x8e>
   893d0:	6922      	ldr	r2, [r4, #16]
   893d2:	f104 0018 	add.w	r0, r4, #24
   893d6:	f8ca 2018 	str.w	r2, [sl, #24]
   893da:	6961      	ldr	r1, [r4, #20]
   893dc:	f10a 0220 	add.w	r2, sl, #32
   893e0:	f8ca 101c 	str.w	r1, [sl, #28]
   893e4:	e7ab      	b.n	8933e <_realloc_r+0x27a>
   893e6:	4621      	mov	r1, r4
   893e8:	462a      	mov	r2, r5
   893ea:	e782      	b.n	892f2 <_realloc_r+0x22e>
   893ec:	4621      	mov	r1, r4
   893ee:	4628      	mov	r0, r5
   893f0:	9301      	str	r3, [sp, #4]
   893f2:	f7ff fe03 	bl	88ffc <memmove>
   893f6:	9b01      	ldr	r3, [sp, #4]
   893f8:	e781      	b.n	892fe <_realloc_r+0x23a>
   893fa:	68a1      	ldr	r1, [r4, #8]
   893fc:	2a24      	cmp	r2, #36	; 0x24
   893fe:	f8ca 1010 	str.w	r1, [sl, #16]
   89402:	68e1      	ldr	r1, [r4, #12]
   89404:	f8ca 1014 	str.w	r1, [sl, #20]
   89408:	d006      	beq.n	89418 <_realloc_r+0x354>
   8940a:	f104 0110 	add.w	r1, r4, #16
   8940e:	f10a 0218 	add.w	r2, sl, #24
   89412:	e76e      	b.n	892f2 <_realloc_r+0x22e>
   89414:	200705d4 	.word	0x200705d4
   89418:	6922      	ldr	r2, [r4, #16]
   8941a:	f104 0118 	add.w	r1, r4, #24
   8941e:	f8ca 2018 	str.w	r2, [sl, #24]
   89422:	6960      	ldr	r0, [r4, #20]
   89424:	f10a 0220 	add.w	r2, sl, #32
   89428:	f8ca 001c 	str.w	r0, [sl, #28]
   8942c:	e761      	b.n	892f2 <_realloc_r+0x22e>
   8942e:	bf00      	nop

00089430 <__ascii_wctomb>:
   89430:	b119      	cbz	r1, 8943a <__ascii_wctomb+0xa>
   89432:	2aff      	cmp	r2, #255	; 0xff
   89434:	d803      	bhi.n	8943e <__ascii_wctomb+0xe>
   89436:	700a      	strb	r2, [r1, #0]
   89438:	2101      	movs	r1, #1
   8943a:	4608      	mov	r0, r1
   8943c:	4770      	bx	lr
   8943e:	238a      	movs	r3, #138	; 0x8a
   89440:	f04f 31ff 	mov.w	r1, #4294967295
   89444:	6003      	str	r3, [r0, #0]
   89446:	e7f8      	b.n	8943a <__ascii_wctomb+0xa>

00089448 <__gedf2>:
   89448:	f04f 3cff 	mov.w	ip, #4294967295
   8944c:	e006      	b.n	8945c <__cmpdf2+0x4>
   8944e:	bf00      	nop

00089450 <__ledf2>:
   89450:	f04f 0c01 	mov.w	ip, #1
   89454:	e002      	b.n	8945c <__cmpdf2+0x4>
   89456:	bf00      	nop

00089458 <__cmpdf2>:
   89458:	f04f 0c01 	mov.w	ip, #1
   8945c:	f84d cd04 	str.w	ip, [sp, #-4]!
   89460:	ea4f 0c41 	mov.w	ip, r1, lsl #1
   89464:	ea7f 5c6c 	mvns.w	ip, ip, asr #21
   89468:	ea4f 0c43 	mov.w	ip, r3, lsl #1
   8946c:	bf18      	it	ne
   8946e:	ea7f 5c6c 	mvnsne.w	ip, ip, asr #21
   89472:	d01b      	beq.n	894ac <__cmpdf2+0x54>
   89474:	b001      	add	sp, #4
   89476:	ea50 0c41 	orrs.w	ip, r0, r1, lsl #1
   8947a:	bf0c      	ite	eq
   8947c:	ea52 0c43 	orrseq.w	ip, r2, r3, lsl #1
   89480:	ea91 0f03 	teqne	r1, r3
   89484:	bf02      	ittt	eq
   89486:	ea90 0f02 	teqeq	r0, r2
   8948a:	2000      	moveq	r0, #0
   8948c:	4770      	bxeq	lr
   8948e:	f110 0f00 	cmn.w	r0, #0
   89492:	ea91 0f03 	teq	r1, r3
   89496:	bf58      	it	pl
   89498:	4299      	cmppl	r1, r3
   8949a:	bf08      	it	eq
   8949c:	4290      	cmpeq	r0, r2
   8949e:	bf2c      	ite	cs
   894a0:	17d8      	asrcs	r0, r3, #31
   894a2:	ea6f 70e3 	mvncc.w	r0, r3, asr #31
   894a6:	f040 0001 	orr.w	r0, r0, #1
   894aa:	4770      	bx	lr
   894ac:	ea4f 0c41 	mov.w	ip, r1, lsl #1
   894b0:	ea7f 5c6c 	mvns.w	ip, ip, asr #21
   894b4:	d102      	bne.n	894bc <__cmpdf2+0x64>
   894b6:	ea50 3c01 	orrs.w	ip, r0, r1, lsl #12
   894ba:	d107      	bne.n	894cc <__cmpdf2+0x74>
   894bc:	ea4f 0c43 	mov.w	ip, r3, lsl #1
   894c0:	ea7f 5c6c 	mvns.w	ip, ip, asr #21
   894c4:	d1d6      	bne.n	89474 <__cmpdf2+0x1c>
   894c6:	ea52 3c03 	orrs.w	ip, r2, r3, lsl #12
   894ca:	d0d3      	beq.n	89474 <__cmpdf2+0x1c>
   894cc:	f85d 0b04 	ldr.w	r0, [sp], #4
   894d0:	4770      	bx	lr
   894d2:	bf00      	nop

000894d4 <__aeabi_cdrcmple>:
   894d4:	4684      	mov	ip, r0
   894d6:	4610      	mov	r0, r2
   894d8:	4662      	mov	r2, ip
   894da:	468c      	mov	ip, r1
   894dc:	4619      	mov	r1, r3
   894de:	4663      	mov	r3, ip
   894e0:	e000      	b.n	894e4 <__aeabi_cdcmpeq>
   894e2:	bf00      	nop

000894e4 <__aeabi_cdcmpeq>:
   894e4:	b501      	push	{r0, lr}
   894e6:	f7ff ffb7 	bl	89458 <__cmpdf2>
   894ea:	2800      	cmp	r0, #0
   894ec:	bf48      	it	mi
   894ee:	f110 0f00 	cmnmi.w	r0, #0
   894f2:	bd01      	pop	{r0, pc}

000894f4 <__aeabi_dcmpeq>:
   894f4:	f84d ed08 	str.w	lr, [sp, #-8]!
   894f8:	f7ff fff4 	bl	894e4 <__aeabi_cdcmpeq>
   894fc:	bf0c      	ite	eq
   894fe:	2001      	moveq	r0, #1
   89500:	2000      	movne	r0, #0
   89502:	f85d fb08 	ldr.w	pc, [sp], #8
   89506:	bf00      	nop

00089508 <__aeabi_dcmplt>:
   89508:	f84d ed08 	str.w	lr, [sp, #-8]!
   8950c:	f7ff ffea 	bl	894e4 <__aeabi_cdcmpeq>
   89510:	bf34      	ite	cc
   89512:	2001      	movcc	r0, #1
   89514:	2000      	movcs	r0, #0
   89516:	f85d fb08 	ldr.w	pc, [sp], #8
   8951a:	bf00      	nop

0008951c <__aeabi_dcmple>:
   8951c:	f84d ed08 	str.w	lr, [sp, #-8]!
   89520:	f7ff ffe0 	bl	894e4 <__aeabi_cdcmpeq>
   89524:	bf94      	ite	ls
   89526:	2001      	movls	r0, #1
   89528:	2000      	movhi	r0, #0
   8952a:	f85d fb08 	ldr.w	pc, [sp], #8
   8952e:	bf00      	nop

00089530 <__aeabi_dcmpge>:
   89530:	f84d ed08 	str.w	lr, [sp, #-8]!
   89534:	f7ff ffce 	bl	894d4 <__aeabi_cdrcmple>
   89538:	bf94      	ite	ls
   8953a:	2001      	movls	r0, #1
   8953c:	2000      	movhi	r0, #0
   8953e:	f85d fb08 	ldr.w	pc, [sp], #8
   89542:	bf00      	nop

00089544 <__aeabi_dcmpgt>:
   89544:	f84d ed08 	str.w	lr, [sp, #-8]!
   89548:	f7ff ffc4 	bl	894d4 <__aeabi_cdrcmple>
   8954c:	bf34      	ite	cc
   8954e:	2001      	movcc	r0, #1
   89550:	2000      	movcs	r0, #0
   89552:	f85d fb08 	ldr.w	pc, [sp], #8
   89556:	bf00      	nop

00089558 <__aeabi_dcmpun>:
   89558:	ea4f 0c41 	mov.w	ip, r1, lsl #1
   8955c:	ea7f 5c6c 	mvns.w	ip, ip, asr #21
   89560:	d102      	bne.n	89568 <__aeabi_dcmpun+0x10>
   89562:	ea50 3c01 	orrs.w	ip, r0, r1, lsl #12
   89566:	d10a      	bne.n	8957e <__aeabi_dcmpun+0x26>
   89568:	ea4f 0c43 	mov.w	ip, r3, lsl #1
   8956c:	ea7f 5c6c 	mvns.w	ip, ip, asr #21
   89570:	d102      	bne.n	89578 <__aeabi_dcmpun+0x20>
   89572:	ea52 3c03 	orrs.w	ip, r2, r3, lsl #12
   89576:	d102      	bne.n	8957e <__aeabi_dcmpun+0x26>
   89578:	f04f 0000 	mov.w	r0, #0
   8957c:	4770      	bx	lr
   8957e:	f04f 0001 	mov.w	r0, #1
   89582:	4770      	bx	lr

00089584 <__aeabi_d2iz>:
   89584:	ea4f 0241 	mov.w	r2, r1, lsl #1
   89588:	f512 1200 	adds.w	r2, r2, #2097152	; 0x200000
   8958c:	d215      	bcs.n	895ba <__aeabi_d2iz+0x36>
   8958e:	d511      	bpl.n	895b4 <__aeabi_d2iz+0x30>
   89590:	f46f 7378 	mvn.w	r3, #992	; 0x3e0
   89594:	ebb3 5262 	subs.w	r2, r3, r2, asr #21
   89598:	d912      	bls.n	895c0 <__aeabi_d2iz+0x3c>
   8959a:	ea4f 23c1 	mov.w	r3, r1, lsl #11
   8959e:	f043 4300 	orr.w	r3, r3, #2147483648	; 0x80000000
   895a2:	ea43 5350 	orr.w	r3, r3, r0, lsr #21
   895a6:	f011 4f00 	tst.w	r1, #2147483648	; 0x80000000
   895aa:	fa23 f002 	lsr.w	r0, r3, r2
   895ae:	bf18      	it	ne
   895b0:	4240      	negne	r0, r0
   895b2:	4770      	bx	lr
   895b4:	f04f 0000 	mov.w	r0, #0
   895b8:	4770      	bx	lr
   895ba:	ea50 3001 	orrs.w	r0, r0, r1, lsl #12
   895be:	d105      	bne.n	895cc <__aeabi_d2iz+0x48>
   895c0:	f011 4000 	ands.w	r0, r1, #2147483648	; 0x80000000
   895c4:	bf08      	it	eq
   895c6:	f06f 4000 	mvneq.w	r0, #2147483648	; 0x80000000
   895ca:	4770      	bx	lr
   895cc:	f04f 0000 	mov.w	r0, #0
   895d0:	4770      	bx	lr
   895d2:	bf00      	nop

000895d4 <__aeabi_uldivmod>:
   895d4:	b953      	cbnz	r3, 895ec <__aeabi_uldivmod+0x18>
   895d6:	b94a      	cbnz	r2, 895ec <__aeabi_uldivmod+0x18>
   895d8:	2900      	cmp	r1, #0
   895da:	bf08      	it	eq
   895dc:	2800      	cmpeq	r0, #0
   895de:	bf1c      	itt	ne
   895e0:	f04f 31ff 	movne.w	r1, #4294967295
   895e4:	f04f 30ff 	movne.w	r0, #4294967295
   895e8:	f000 b97a 	b.w	898e0 <__aeabi_idiv0>
   895ec:	f1ad 0c08 	sub.w	ip, sp, #8
   895f0:	e96d ce04 	strd	ip, lr, [sp, #-16]!
   895f4:	f000 f806 	bl	89604 <__udivmoddi4>
   895f8:	f8dd e004 	ldr.w	lr, [sp, #4]
   895fc:	e9dd 2302 	ldrd	r2, r3, [sp, #8]
   89600:	b004      	add	sp, #16
   89602:	4770      	bx	lr

00089604 <__udivmoddi4>:
   89604:	e92d 47f0 	stmdb	sp!, {r4, r5, r6, r7, r8, r9, sl, lr}
   89608:	468c      	mov	ip, r1
   8960a:	460e      	mov	r6, r1
   8960c:	4604      	mov	r4, r0
   8960e:	9d08      	ldr	r5, [sp, #32]
   89610:	2b00      	cmp	r3, #0
   89612:	d150      	bne.n	896b6 <__udivmoddi4+0xb2>
   89614:	428a      	cmp	r2, r1
   89616:	4617      	mov	r7, r2
   89618:	d96c      	bls.n	896f4 <__udivmoddi4+0xf0>
   8961a:	fab2 fe82 	clz	lr, r2
   8961e:	f1be 0f00 	cmp.w	lr, #0
   89622:	d00b      	beq.n	8963c <__udivmoddi4+0x38>
   89624:	f1ce 0c20 	rsb	ip, lr, #32
   89628:	fa01 f60e 	lsl.w	r6, r1, lr
   8962c:	fa20 fc0c 	lsr.w	ip, r0, ip
   89630:	fa02 f70e 	lsl.w	r7, r2, lr
   89634:	ea4c 0c06 	orr.w	ip, ip, r6
   89638:	fa00 f40e 	lsl.w	r4, r0, lr
   8963c:	0c3a      	lsrs	r2, r7, #16
   8963e:	fbbc f9f2 	udiv	r9, ip, r2
   89642:	b2bb      	uxth	r3, r7
   89644:	fb02 cc19 	mls	ip, r2, r9, ip
   89648:	fb09 fa03 	mul.w	sl, r9, r3
   8964c:	ea4f 4814 	mov.w	r8, r4, lsr #16
   89650:	ea48 460c 	orr.w	r6, r8, ip, lsl #16
   89654:	45b2      	cmp	sl, r6
   89656:	d90a      	bls.n	8966e <__udivmoddi4+0x6a>
   89658:	19f6      	adds	r6, r6, r7
   8965a:	f109 31ff 	add.w	r1, r9, #4294967295
   8965e:	f080 8125 	bcs.w	898ac <__udivmoddi4+0x2a8>
   89662:	45b2      	cmp	sl, r6
   89664:	f240 8122 	bls.w	898ac <__udivmoddi4+0x2a8>
   89668:	f1a9 0902 	sub.w	r9, r9, #2
   8966c:	443e      	add	r6, r7
   8966e:	eba6 060a 	sub.w	r6, r6, sl
   89672:	fbb6 f0f2 	udiv	r0, r6, r2
   89676:	fb02 6610 	mls	r6, r2, r0, r6
   8967a:	fb00 f303 	mul.w	r3, r0, r3
   8967e:	b2a4      	uxth	r4, r4
   89680:	ea44 4406 	orr.w	r4, r4, r6, lsl #16
   89684:	42a3      	cmp	r3, r4
   89686:	d909      	bls.n	8969c <__udivmoddi4+0x98>
   89688:	19e4      	adds	r4, r4, r7
   8968a:	f100 32ff 	add.w	r2, r0, #4294967295
   8968e:	f080 810b 	bcs.w	898a8 <__udivmoddi4+0x2a4>
   89692:	42a3      	cmp	r3, r4
   89694:	f240 8108 	bls.w	898a8 <__udivmoddi4+0x2a4>
   89698:	3802      	subs	r0, #2
   8969a:	443c      	add	r4, r7
   8969c:	2100      	movs	r1, #0
   8969e:	1ae4      	subs	r4, r4, r3
   896a0:	ea40 4009 	orr.w	r0, r0, r9, lsl #16
   896a4:	2d00      	cmp	r5, #0
   896a6:	d062      	beq.n	8976e <__udivmoddi4+0x16a>
   896a8:	2300      	movs	r3, #0
   896aa:	fa24 f40e 	lsr.w	r4, r4, lr
   896ae:	602c      	str	r4, [r5, #0]
   896b0:	606b      	str	r3, [r5, #4]
   896b2:	e8bd 87f0 	ldmia.w	sp!, {r4, r5, r6, r7, r8, r9, sl, pc}
   896b6:	428b      	cmp	r3, r1
   896b8:	d907      	bls.n	896ca <__udivmoddi4+0xc6>
   896ba:	2d00      	cmp	r5, #0
   896bc:	d055      	beq.n	8976a <__udivmoddi4+0x166>
   896be:	2100      	movs	r1, #0
   896c0:	e885 0041 	stmia.w	r5, {r0, r6}
   896c4:	4608      	mov	r0, r1
   896c6:	e8bd 87f0 	ldmia.w	sp!, {r4, r5, r6, r7, r8, r9, sl, pc}
   896ca:	fab3 f183 	clz	r1, r3
   896ce:	2900      	cmp	r1, #0
   896d0:	f040 808f 	bne.w	897f2 <__udivmoddi4+0x1ee>
   896d4:	42b3      	cmp	r3, r6
   896d6:	d302      	bcc.n	896de <__udivmoddi4+0xda>
   896d8:	4282      	cmp	r2, r0
   896da:	f200 80fc 	bhi.w	898d6 <__udivmoddi4+0x2d2>
   896de:	1a84      	subs	r4, r0, r2
   896e0:	eb66 0603 	sbc.w	r6, r6, r3
   896e4:	2001      	movs	r0, #1
   896e6:	46b4      	mov	ip, r6
   896e8:	2d00      	cmp	r5, #0
   896ea:	d040      	beq.n	8976e <__udivmoddi4+0x16a>
   896ec:	e885 1010 	stmia.w	r5, {r4, ip}
   896f0:	e8bd 87f0 	ldmia.w	sp!, {r4, r5, r6, r7, r8, r9, sl, pc}
   896f4:	b912      	cbnz	r2, 896fc <__udivmoddi4+0xf8>
   896f6:	2701      	movs	r7, #1
   896f8:	fbb7 f7f2 	udiv	r7, r7, r2
   896fc:	fab7 fe87 	clz	lr, r7
   89700:	f1be 0f00 	cmp.w	lr, #0
   89704:	d135      	bne.n	89772 <__udivmoddi4+0x16e>
   89706:	2101      	movs	r1, #1
   89708:	1bf6      	subs	r6, r6, r7
   8970a:	ea4f 4c17 	mov.w	ip, r7, lsr #16
   8970e:	fa1f f887 	uxth.w	r8, r7
   89712:	fbb6 f2fc 	udiv	r2, r6, ip
   89716:	fb0c 6612 	mls	r6, ip, r2, r6
   8971a:	fb08 f002 	mul.w	r0, r8, r2
   8971e:	0c23      	lsrs	r3, r4, #16
   89720:	ea43 4606 	orr.w	r6, r3, r6, lsl #16
   89724:	42b0      	cmp	r0, r6
   89726:	d907      	bls.n	89738 <__udivmoddi4+0x134>
   89728:	19f6      	adds	r6, r6, r7
   8972a:	f102 33ff 	add.w	r3, r2, #4294967295
   8972e:	d202      	bcs.n	89736 <__udivmoddi4+0x132>
   89730:	42b0      	cmp	r0, r6
   89732:	f200 80d2 	bhi.w	898da <__udivmoddi4+0x2d6>
   89736:	461a      	mov	r2, r3
   89738:	1a36      	subs	r6, r6, r0
   8973a:	fbb6 f0fc 	udiv	r0, r6, ip
   8973e:	fb0c 6610 	mls	r6, ip, r0, r6
   89742:	fb08 f800 	mul.w	r8, r8, r0
   89746:	b2a3      	uxth	r3, r4
   89748:	ea43 4406 	orr.w	r4, r3, r6, lsl #16
   8974c:	45a0      	cmp	r8, r4
   8974e:	d907      	bls.n	89760 <__udivmoddi4+0x15c>
   89750:	19e4      	adds	r4, r4, r7
   89752:	f100 33ff 	add.w	r3, r0, #4294967295
   89756:	d202      	bcs.n	8975e <__udivmoddi4+0x15a>
   89758:	45a0      	cmp	r8, r4
   8975a:	f200 80b9 	bhi.w	898d0 <__udivmoddi4+0x2cc>
   8975e:	4618      	mov	r0, r3
   89760:	eba4 0408 	sub.w	r4, r4, r8
   89764:	ea40 4002 	orr.w	r0, r0, r2, lsl #16
   89768:	e79c      	b.n	896a4 <__udivmoddi4+0xa0>
   8976a:	4629      	mov	r1, r5
   8976c:	4628      	mov	r0, r5
   8976e:	e8bd 87f0 	ldmia.w	sp!, {r4, r5, r6, r7, r8, r9, sl, pc}
   89772:	fa07 f70e 	lsl.w	r7, r7, lr
   89776:	f1ce 0320 	rsb	r3, lr, #32
   8977a:	fa26 f203 	lsr.w	r2, r6, r3
   8977e:	ea4f 4c17 	mov.w	ip, r7, lsr #16
   89782:	fbb2 f1fc 	udiv	r1, r2, ip
   89786:	fa1f f887 	uxth.w	r8, r7
   8978a:	fb0c 2211 	mls	r2, ip, r1, r2
   8978e:	fa06 f60e 	lsl.w	r6, r6, lr
   89792:	fa20 f303 	lsr.w	r3, r0, r3
   89796:	fb01 f908 	mul.w	r9, r1, r8
   8979a:	4333      	orrs	r3, r6
   8979c:	0c1e      	lsrs	r6, r3, #16
   8979e:	ea46 4602 	orr.w	r6, r6, r2, lsl #16
   897a2:	45b1      	cmp	r9, r6
   897a4:	fa00 f40e 	lsl.w	r4, r0, lr
   897a8:	d909      	bls.n	897be <__udivmoddi4+0x1ba>
   897aa:	19f6      	adds	r6, r6, r7
   897ac:	f101 32ff 	add.w	r2, r1, #4294967295
   897b0:	f080 808c 	bcs.w	898cc <__udivmoddi4+0x2c8>
   897b4:	45b1      	cmp	r9, r6
   897b6:	f240 8089 	bls.w	898cc <__udivmoddi4+0x2c8>
   897ba:	3902      	subs	r1, #2
   897bc:	443e      	add	r6, r7
   897be:	eba6 0609 	sub.w	r6, r6, r9
   897c2:	fbb6 f0fc 	udiv	r0, r6, ip
   897c6:	fb0c 6210 	mls	r2, ip, r0, r6
   897ca:	fb00 f908 	mul.w	r9, r0, r8
   897ce:	b29e      	uxth	r6, r3
   897d0:	ea46 4602 	orr.w	r6, r6, r2, lsl #16
   897d4:	45b1      	cmp	r9, r6
   897d6:	d907      	bls.n	897e8 <__udivmoddi4+0x1e4>
   897d8:	19f6      	adds	r6, r6, r7
   897da:	f100 33ff 	add.w	r3, r0, #4294967295
   897de:	d271      	bcs.n	898c4 <__udivmoddi4+0x2c0>
   897e0:	45b1      	cmp	r9, r6
   897e2:	d96f      	bls.n	898c4 <__udivmoddi4+0x2c0>
   897e4:	3802      	subs	r0, #2
   897e6:	443e      	add	r6, r7
   897e8:	eba6 0609 	sub.w	r6, r6, r9
   897ec:	ea40 4101 	orr.w	r1, r0, r1, lsl #16
   897f0:	e78f      	b.n	89712 <__udivmoddi4+0x10e>
   897f2:	f1c1 0720 	rsb	r7, r1, #32
   897f6:	fa22 f807 	lsr.w	r8, r2, r7
   897fa:	408b      	lsls	r3, r1
   897fc:	ea48 0303 	orr.w	r3, r8, r3
   89800:	fa26 f407 	lsr.w	r4, r6, r7
   89804:	ea4f 4e13 	mov.w	lr, r3, lsr #16
   89808:	fbb4 f9fe 	udiv	r9, r4, lr
   8980c:	fa1f fc83 	uxth.w	ip, r3
   89810:	fb0e 4419 	mls	r4, lr, r9, r4
   89814:	408e      	lsls	r6, r1
   89816:	fa20 f807 	lsr.w	r8, r0, r7
   8981a:	fb09 fa0c 	mul.w	sl, r9, ip
   8981e:	ea48 0806 	orr.w	r8, r8, r6
   89822:	ea4f 4618 	mov.w	r6, r8, lsr #16
   89826:	ea46 4404 	orr.w	r4, r6, r4, lsl #16
   8982a:	45a2      	cmp	sl, r4
   8982c:	fa02 f201 	lsl.w	r2, r2, r1
   89830:	fa00 f601 	lsl.w	r6, r0, r1
   89834:	d908      	bls.n	89848 <__udivmoddi4+0x244>
   89836:	18e4      	adds	r4, r4, r3
   89838:	f109 30ff 	add.w	r0, r9, #4294967295
   8983c:	d244      	bcs.n	898c8 <__udivmoddi4+0x2c4>
   8983e:	45a2      	cmp	sl, r4
   89840:	d942      	bls.n	898c8 <__udivmoddi4+0x2c4>
   89842:	f1a9 0902 	sub.w	r9, r9, #2
   89846:	441c      	add	r4, r3
   89848:	eba4 040a 	sub.w	r4, r4, sl
   8984c:	fbb4 f0fe 	udiv	r0, r4, lr
   89850:	fb0e 4410 	mls	r4, lr, r0, r4
   89854:	fb00 fc0c 	mul.w	ip, r0, ip
   89858:	fa1f f888 	uxth.w	r8, r8
   8985c:	ea48 4404 	orr.w	r4, r8, r4, lsl #16
   89860:	45a4      	cmp	ip, r4
   89862:	d907      	bls.n	89874 <__udivmoddi4+0x270>
   89864:	18e4      	adds	r4, r4, r3
   89866:	f100 3eff 	add.w	lr, r0, #4294967295
   8986a:	d229      	bcs.n	898c0 <__udivmoddi4+0x2bc>
   8986c:	45a4      	cmp	ip, r4
   8986e:	d927      	bls.n	898c0 <__udivmoddi4+0x2bc>
   89870:	3802      	subs	r0, #2
   89872:	441c      	add	r4, r3
   89874:	ea40 4009 	orr.w	r0, r0, r9, lsl #16
   89878:	fba0 8902 	umull	r8, r9, r0, r2
   8987c:	eba4 0c0c 	sub.w	ip, r4, ip
   89880:	45cc      	cmp	ip, r9
   89882:	46c2      	mov	sl, r8
   89884:	46ce      	mov	lr, r9
   89886:	d315      	bcc.n	898b4 <__udivmoddi4+0x2b0>
   89888:	d012      	beq.n	898b0 <__udivmoddi4+0x2ac>
   8988a:	b155      	cbz	r5, 898a2 <__udivmoddi4+0x29e>
   8988c:	ebb6 030a 	subs.w	r3, r6, sl
   89890:	eb6c 060e 	sbc.w	r6, ip, lr
   89894:	fa06 f707 	lsl.w	r7, r6, r7
   89898:	40cb      	lsrs	r3, r1
   8989a:	431f      	orrs	r7, r3
   8989c:	40ce      	lsrs	r6, r1
   8989e:	602f      	str	r7, [r5, #0]
   898a0:	606e      	str	r6, [r5, #4]
   898a2:	2100      	movs	r1, #0
   898a4:	e8bd 87f0 	ldmia.w	sp!, {r4, r5, r6, r7, r8, r9, sl, pc}
   898a8:	4610      	mov	r0, r2
   898aa:	e6f7      	b.n	8969c <__udivmoddi4+0x98>
   898ac:	4689      	mov	r9, r1
   898ae:	e6de      	b.n	8966e <__udivmoddi4+0x6a>
   898b0:	4546      	cmp	r6, r8
   898b2:	d2ea      	bcs.n	8988a <__udivmoddi4+0x286>
   898b4:	ebb8 0a02 	subs.w	sl, r8, r2
   898b8:	eb69 0e03 	sbc.w	lr, r9, r3
   898bc:	3801      	subs	r0, #1
   898be:	e7e4      	b.n	8988a <__udivmoddi4+0x286>
   898c0:	4670      	mov	r0, lr
   898c2:	e7d7      	b.n	89874 <__udivmoddi4+0x270>
   898c4:	4618      	mov	r0, r3
   898c6:	e78f      	b.n	897e8 <__udivmoddi4+0x1e4>
   898c8:	4681      	mov	r9, r0
   898ca:	e7bd      	b.n	89848 <__udivmoddi4+0x244>
   898cc:	4611      	mov	r1, r2
   898ce:	e776      	b.n	897be <__udivmoddi4+0x1ba>
   898d0:	3802      	subs	r0, #2
   898d2:	443c      	add	r4, r7
   898d4:	e744      	b.n	89760 <__udivmoddi4+0x15c>
   898d6:	4608      	mov	r0, r1
   898d8:	e706      	b.n	896e8 <__udivmoddi4+0xe4>
   898da:	3a02      	subs	r2, #2
   898dc:	443e      	add	r6, r7
   898de:	e72b      	b.n	89738 <__udivmoddi4+0x134>

000898e0 <__aeabi_idiv0>:
   898e0:	4770      	bx	lr
   898e2:	bf00      	nop
   898e4:	00000001 	.word	0x00000001
   898e8:	00000002 	.word	0x00000002
   898ec:	00000004 	.word	0x00000004
   898f0:	00000008 	.word	0x00000008
   898f4:	00000010 	.word	0x00000010
   898f8:	00000020 	.word	0x00000020
   898fc:	00000040 	.word	0x00000040
   89900:	00000080 	.word	0x00000080
   89904:	00000100 	.word	0x00000100
   89908:	00000200 	.word	0x00000200
   8990c:	00000400 	.word	0x00000400
   89910:	000f4240 	.word	0x000f4240
   89914:	000000c0 	.word	0x000000c0
	...
   89920:	69442020 	.word	0x69442020
   89924:	74636572 	.word	0x74636572
   89928:	3a6e6f69 	.word	0x3a6e6f69
   8992c:	2e332520 	.word	0x2e332520
   89930:	20206631 	.word	0x20206631
   89934:	00000000 	.word	0x00000000
   89938:	696c6163 	.word	0x696c6163
   8993c:	74617262 	.word	0x74617262
   89940:	6f632065 	.word	0x6f632065
   89944:	7361706d 	.word	0x7361706d
   89948:	00000073 	.word	0x00000073
   8994c:	69442020 	.word	0x69442020
   89950:	74636572 	.word	0x74636572
   89954:	3a6e6f69 	.word	0x3a6e6f69
   89958:	64312520 	.word	0x64312520
   8995c:	00002020 	.word	0x00002020
   89960:	74756873 	.word	0x74756873
   89964:	676e6974 	.word	0x676e6974
   89968:	776f6420 	.word	0x776f6420
   8996c:	2e2e2e6e 	.word	0x2e2e2e6e
   89970:	00000000 	.word	0x00000000
   89974:	666e6f63 	.word	0x666e6f63
   89978:	206d7269 	.word	0x206d7269
   8997c:	74756873 	.word	0x74756873
   89980:	6e776f64 	.word	0x6e776f64
   89984:	0000003f 	.word	0x0000003f
   89988:	20202020 	.word	0x20202020
   8998c:	534f6f6e 	.word	0x534f6f6e
   89990:	454e4f20 	.word	0x454e4f20
   89994:	00000000 	.word	0x00000000
   89998:	74614d20 	.word	0x74614d20
   8999c:	00006863 	.word	0x00006863
   899a0:	6e655320 	.word	0x6e655320
   899a4:	73726f73 	.word	0x73726f73
   899a8:	00000000 	.word	0x00000000
   899ac:	74655320 	.word	0x74655320
   899b0:	676e6974 	.word	0x676e6974
   899b4:	00000073 	.word	0x00000073
   899b8:	00089988 	.word	0x00089988
   899bc:	00089998 	.word	0x00089998
   899c0:	000899a0 	.word	0x000899a0
   899c4:	000899ac 	.word	0x000899ac
   899c8:	6c614220 	.word	0x6c614220
   899cc:	0000006c 	.word	0x0000006c
   899d0:	6d6f4320 	.word	0x6d6f4320
   899d4:	73736170 	.word	0x73736170
   899d8:	00000000 	.word	0x00000000
   899dc:	6e694c20 	.word	0x6e694c20
   899e0:	00000065 	.word	0x00000065
   899e4:	00000020 	.word	0x00000020
   899e8:	000899c8 	.word	0x000899c8
   899ec:	000899d0 	.word	0x000899d0
   899f0:	000899dc 	.word	0x000899dc
   899f4:	000899e4 	.word	0x000899e4
   899f8:	000899e4 	.word	0x000899e4
   899fc:	000899e4 	.word	0x000899e4
   89a00:	000899e4 	.word	0x000899e4
   89a04:	000899e4 	.word	0x000899e4
   89a08:	0000003e 	.word	0x0000003e
   89a0c:	25753325 	.word	0x25753325
   89a10:	00000025 	.word	0x00000025
   89a14:	75322520 	.word	0x75322520
   89a18:	00002525 	.word	0x00002525
   89a1c:	31252020 	.word	0x31252020
   89a20:	00252575 	.word	0x00252575
   89a24:	746f6f62 	.word	0x746f6f62
   89a28:	20676e69 	.word	0x20676e69
   89a2c:	534f6f6e 	.word	0x534f6f6e
   89a30:	00202020 	.word	0x00202020
   89a34:	0000002e 	.word	0x0000002e

00089a38 <_global_impure_ptr>:
   89a38:	200701a8 00464e49 00666e69 004e414e     ... INF.inf.NAN.
   89a48:	006e616e 33323130 37363534 42413938     nan.0123456789AB
   89a58:	46454443 00000000 33323130 37363534     CDEF....01234567
   89a68:	62613938 66656463 00000000 6c756e28     89abcdef....(nul
   89a78:	0000296c 00000030                       l)..0...

00089a80 <blanks.7223>:
   89a80:	20202020 20202020 20202020 20202020                     

00089a90 <zeroes.7224>:
   89a90:	30303030 30303030 30303030 30303030     0000000000000000
   89aa0:	69666e49 7974696e 00000000 004e614e     Infinity....NaN.

00089ab0 <__mprec_bigtens>:
   89ab0:	37e08000 4341c379 b5056e17 4693b8b5     ...7y.AC.n.....F
   89ac0:	e93ff9f5 4d384f03 f9301d32 5a827748     ..?..O8M2.0.Hw.Z
   89ad0:	7f73bf3c 75154fdd                       <.s..O.u

00089ad8 <__mprec_tens>:
   89ad8:	00000000 3ff00000 00000000 40240000     .......?......$@
   89ae8:	00000000 40590000 00000000 408f4000     ......Y@.....@.@
   89af8:	00000000 40c38800 00000000 40f86a00     .......@.....j.@
   89b08:	00000000 412e8480 00000000 416312d0     .......A......cA
   89b18:	00000000 4197d784 00000000 41cdcd65     .......A....e..A
   89b28:	20000000 4202a05f e8000000 42374876     ... _..B....vH7B
   89b38:	a2000000 426d1a94 e5400000 42a2309c     ......mB..@..0.B
   89b48:	1e900000 42d6bcc4 26340000 430c6bf5     .......B..4&.k.C
   89b58:	37e08000 4341c379 85d8a000 43763457     ...7y.AC....W4vC
   89b68:	674ec800 43abc16d 60913d00 43e158e4     ..Ngm..C.=.`.X.C
   89b78:	78b58c40 4415af1d d6e2ef50 444b1ae4     @..x...DP.....KD
   89b88:	064dd592 4480f0cf c7e14af6 44b52d02     ..M....D.J...-.D
   89b98:	79d99db4 44ea7843                       ...yCx.D

00089ba0 <p05.6055>:
   89ba0:	00000005 00000019 0000007d 00000043     ........}...C...
   89bb0:	49534f50 00000058 0000002e              POSIX.......

00089bbc <_ctype_>:
   89bbc:	20202000 20202020 28282020 20282828     .         ((((( 
   89bcc:	20202020 20202020 20202020 20202020                     
   89bdc:	10108820 10101010 10101010 10101010      ...............
   89bec:	04040410 04040404 10040404 10101010     ................
   89bfc:	41411010 41414141 01010101 01010101     ..AAAAAA........
   89c0c:	01010101 01010101 01010101 10101010     ................
   89c1c:	42421010 42424242 02020202 02020202     ..BBBBBB........
   89c2c:	02020202 02020202 02020202 10101010     ................
   89c3c:	00000020 00000000 00000000 00000000      ...............
	...

00089cc0 <_init>:
   89cc0:	b5f8      	push	{r3, r4, r5, r6, r7, lr}
   89cc2:	bf00      	nop
   89cc4:	bcf8      	pop	{r3, r4, r5, r6, r7}
   89cc6:	bc08      	pop	{r3}
   89cc8:	469e      	mov	lr, r3
   89cca:	4770      	bx	lr

00089ccc <__init_array_start>:
   89ccc:	00086e71 	.word	0x00086e71

00089cd0 <__frame_dummy_init_array_entry>:
   89cd0:	00080119                                ....

00089cd4 <_fini>:
   89cd4:	b5f8      	push	{r3, r4, r5, r6, r7, lr}
   89cd6:	bf00      	nop
   89cd8:	bcf8      	pop	{r3, r4, r5, r6, r7}
   89cda:	bc08      	pop	{r3}
   89cdc:	469e      	mov	lr, r3
   89cde:	4770      	bx	lr

00089ce0 <__fini_array_start>:
   89ce0:	000800f5 	.word	0x000800f5

Disassembly of section .relocate:

20070000 <SystemInit>:
{
20070000:	b480      	push	{r7}
20070002:	af00      	add	r7, sp, #0
	EFC0->EEFC_FMR = EEFC_FMR_FWS(4);
20070004:	4b2a      	ldr	r3, [pc, #168]	; (200700b0 <SystemInit+0xb0>)
20070006:	f44f 6280 	mov.w	r2, #1024	; 0x400
2007000a:	601a      	str	r2, [r3, #0]
	EFC1->EEFC_FMR = EEFC_FMR_FWS(4);
2007000c:	4b29      	ldr	r3, [pc, #164]	; (200700b4 <SystemInit+0xb4>)
2007000e:	f44f 6280 	mov.w	r2, #1024	; 0x400
20070012:	601a      	str	r2, [r3, #0]
	if (!(PMC->CKGR_MOR & CKGR_MOR_MOSCSEL)) {
20070014:	4b28      	ldr	r3, [pc, #160]	; (200700b8 <SystemInit+0xb8>)
20070016:	6a1b      	ldr	r3, [r3, #32]
20070018:	f003 7380 	and.w	r3, r3, #16777216	; 0x1000000
2007001c:	2b00      	cmp	r3, #0
2007001e:	d109      	bne.n	20070034 <SystemInit+0x34>
		PMC->CKGR_MOR = SYS_CKGR_MOR_KEY_VALUE | SYS_BOARD_OSCOUNT | 
20070020:	4b25      	ldr	r3, [pc, #148]	; (200700b8 <SystemInit+0xb8>)
20070022:	4a26      	ldr	r2, [pc, #152]	; (200700bc <SystemInit+0xbc>)
20070024:	621a      	str	r2, [r3, #32]
		while (!(PMC->PMC_SR & PMC_SR_MOSCXTS)) {
20070026:	bf00      	nop
20070028:	4b23      	ldr	r3, [pc, #140]	; (200700b8 <SystemInit+0xb8>)
2007002a:	6e9b      	ldr	r3, [r3, #104]	; 0x68
2007002c:	f003 0301 	and.w	r3, r3, #1
20070030:	2b00      	cmp	r3, #0
20070032:	d0f9      	beq.n	20070028 <SystemInit+0x28>
	PMC->CKGR_MOR = SYS_CKGR_MOR_KEY_VALUE | SYS_BOARD_OSCOUNT | 
20070034:	4b20      	ldr	r3, [pc, #128]	; (200700b8 <SystemInit+0xb8>)
20070036:	4a22      	ldr	r2, [pc, #136]	; (200700c0 <SystemInit+0xc0>)
20070038:	621a      	str	r2, [r3, #32]
	while (!(PMC->PMC_SR & PMC_SR_MOSCSELS)) {
2007003a:	bf00      	nop
2007003c:	4b1e      	ldr	r3, [pc, #120]	; (200700b8 <SystemInit+0xb8>)
2007003e:	6e9b      	ldr	r3, [r3, #104]	; 0x68
20070040:	f403 3380 	and.w	r3, r3, #65536	; 0x10000
20070044:	2b00      	cmp	r3, #0
20070046:	d0f9      	beq.n	2007003c <SystemInit+0x3c>
 	PMC->PMC_MCKR = (PMC->PMC_MCKR & ~(uint32_t)PMC_MCKR_CSS_Msk) | 
20070048:	4a1b      	ldr	r2, [pc, #108]	; (200700b8 <SystemInit+0xb8>)
2007004a:	4b1b      	ldr	r3, [pc, #108]	; (200700b8 <SystemInit+0xb8>)
2007004c:	6b1b      	ldr	r3, [r3, #48]	; 0x30
2007004e:	f023 0303 	bic.w	r3, r3, #3
20070052:	f043 0301 	orr.w	r3, r3, #1
20070056:	6313      	str	r3, [r2, #48]	; 0x30
	while (!(PMC->PMC_SR & PMC_SR_MCKRDY)) {
20070058:	bf00      	nop
2007005a:	4b17      	ldr	r3, [pc, #92]	; (200700b8 <SystemInit+0xb8>)
2007005c:	6e9b      	ldr	r3, [r3, #104]	; 0x68
2007005e:	f003 0308 	and.w	r3, r3, #8
20070062:	2b00      	cmp	r3, #0
20070064:	d0f9      	beq.n	2007005a <SystemInit+0x5a>
	PMC->CKGR_PLLAR = SYS_BOARD_PLLAR;
20070066:	4b14      	ldr	r3, [pc, #80]	; (200700b8 <SystemInit+0xb8>)
20070068:	4a16      	ldr	r2, [pc, #88]	; (200700c4 <SystemInit+0xc4>)
2007006a:	629a      	str	r2, [r3, #40]	; 0x28
	while (!(PMC->PMC_SR & PMC_SR_LOCKA)) {
2007006c:	bf00      	nop
2007006e:	4b12      	ldr	r3, [pc, #72]	; (200700b8 <SystemInit+0xb8>)
20070070:	6e9b      	ldr	r3, [r3, #104]	; 0x68
20070072:	f003 0302 	and.w	r3, r3, #2
20070076:	2b00      	cmp	r3, #0
20070078:	d0f9      	beq.n	2007006e <SystemInit+0x6e>
	PMC->PMC_MCKR = (SYS_BOARD_MCKR & ~PMC_MCKR_CSS_Msk) | PMC_MCKR_CSS_MAIN_CLK;
2007007a:	4b0f      	ldr	r3, [pc, #60]	; (200700b8 <SystemInit+0xb8>)
2007007c:	2211      	movs	r2, #17
2007007e:	631a      	str	r2, [r3, #48]	; 0x30
	while (!(PMC->PMC_SR & PMC_SR_MCKRDY)) {
20070080:	bf00      	nop
20070082:	4b0d      	ldr	r3, [pc, #52]	; (200700b8 <SystemInit+0xb8>)
20070084:	6e9b      	ldr	r3, [r3, #104]	; 0x68
20070086:	f003 0308 	and.w	r3, r3, #8
2007008a:	2b00      	cmp	r3, #0
2007008c:	d0f9      	beq.n	20070082 <SystemInit+0x82>
	PMC->PMC_MCKR = SYS_BOARD_MCKR;
2007008e:	4b0a      	ldr	r3, [pc, #40]	; (200700b8 <SystemInit+0xb8>)
20070090:	2212      	movs	r2, #18
20070092:	631a      	str	r2, [r3, #48]	; 0x30
	while (!(PMC->PMC_SR & PMC_SR_MCKRDY)) {
20070094:	bf00      	nop
20070096:	4b08      	ldr	r3, [pc, #32]	; (200700b8 <SystemInit+0xb8>)
20070098:	6e9b      	ldr	r3, [r3, #104]	; 0x68
2007009a:	f003 0308 	and.w	r3, r3, #8
2007009e:	2b00      	cmp	r3, #0
200700a0:	d0f9      	beq.n	20070096 <SystemInit+0x96>
	SystemCoreClock = CHIP_FREQ_CPU_MAX;
200700a2:	4b09      	ldr	r3, [pc, #36]	; (200700c8 <SystemInit+0xc8>)
200700a4:	4a09      	ldr	r2, [pc, #36]	; (200700cc <SystemInit+0xcc>)
200700a6:	601a      	str	r2, [r3, #0]
}
200700a8:	bf00      	nop
200700aa:	46bd      	mov	sp, r7
200700ac:	bc80      	pop	{r7}
200700ae:	4770      	bx	lr
200700b0:	400e0a00 	.word	0x400e0a00
200700b4:	400e0c00 	.word	0x400e0c00
200700b8:	400e0600 	.word	0x400e0600
200700bc:	00370809 	.word	0x00370809
200700c0:	01370809 	.word	0x01370809
200700c4:	200d3f01 	.word	0x200d3f01
200700c8:	2007019c 	.word	0x2007019c
200700cc:	0501bd00 	.word	0x0501bd00

200700d0 <system_init_flash>:
 * Initialize flash.
 */
__no_inline
RAMFUNC
void system_init_flash(uint32_t ul_clk)
{
200700d0:	b480      	push	{r7}
200700d2:	b083      	sub	sp, #12
200700d4:	af00      	add	r7, sp, #0
200700d6:	6078      	str	r0, [r7, #4]
	/* Set FWS for embedded Flash access according to operating frequency */
	if (ul_clk < CHIP_FREQ_FWS_0) {
200700d8:	687b      	ldr	r3, [r7, #4]
200700da:	4a25      	ldr	r2, [pc, #148]	; (20070170 <system_init_flash+0xa0>)
200700dc:	4293      	cmp	r3, r2
200700de:	d806      	bhi.n	200700ee <system_init_flash+0x1e>
		EFC0->EEFC_FMR = EEFC_FMR_FWS(0);
200700e0:	4b24      	ldr	r3, [pc, #144]	; (20070174 <system_init_flash+0xa4>)
200700e2:	2200      	movs	r2, #0
200700e4:	601a      	str	r2, [r3, #0]
		EFC1->EEFC_FMR = EEFC_FMR_FWS(0);
200700e6:	4b24      	ldr	r3, [pc, #144]	; (20070178 <system_init_flash+0xa8>)
200700e8:	2200      	movs	r2, #0
200700ea:	601a      	str	r2, [r3, #0]
		EFC1->EEFC_FMR = EEFC_FMR_FWS(4);	
	} else {
		EFC0->EEFC_FMR = EEFC_FMR_FWS(5);
		EFC1->EEFC_FMR = EEFC_FMR_FWS(5);
	}
}
200700ec:	e03b      	b.n	20070166 <system_init_flash+0x96>
	} else if (ul_clk < CHIP_FREQ_FWS_1) {
200700ee:	687b      	ldr	r3, [r7, #4]
200700f0:	4a22      	ldr	r2, [pc, #136]	; (2007017c <system_init_flash+0xac>)
200700f2:	4293      	cmp	r3, r2
200700f4:	d808      	bhi.n	20070108 <system_init_flash+0x38>
		EFC0->EEFC_FMR = EEFC_FMR_FWS(1);
200700f6:	4b1f      	ldr	r3, [pc, #124]	; (20070174 <system_init_flash+0xa4>)
200700f8:	f44f 7280 	mov.w	r2, #256	; 0x100
200700fc:	601a      	str	r2, [r3, #0]
		EFC1->EEFC_FMR = EEFC_FMR_FWS(1);
200700fe:	4b1e      	ldr	r3, [pc, #120]	; (20070178 <system_init_flash+0xa8>)
20070100:	f44f 7280 	mov.w	r2, #256	; 0x100
20070104:	601a      	str	r2, [r3, #0]
}
20070106:	e02e      	b.n	20070166 <system_init_flash+0x96>
	} else if (ul_clk < CHIP_FREQ_FWS_2) {
20070108:	687b      	ldr	r3, [r7, #4]
2007010a:	4a1d      	ldr	r2, [pc, #116]	; (20070180 <system_init_flash+0xb0>)
2007010c:	4293      	cmp	r3, r2
2007010e:	d808      	bhi.n	20070122 <system_init_flash+0x52>
		EFC0->EEFC_FMR = EEFC_FMR_FWS(2);
20070110:	4b18      	ldr	r3, [pc, #96]	; (20070174 <system_init_flash+0xa4>)
20070112:	f44f 7200 	mov.w	r2, #512	; 0x200
20070116:	601a      	str	r2, [r3, #0]
		EFC1->EEFC_FMR = EEFC_FMR_FWS(2);
20070118:	4b17      	ldr	r3, [pc, #92]	; (20070178 <system_init_flash+0xa8>)
2007011a:	f44f 7200 	mov.w	r2, #512	; 0x200
2007011e:	601a      	str	r2, [r3, #0]
}
20070120:	e021      	b.n	20070166 <system_init_flash+0x96>
	} else if (ul_clk < CHIP_FREQ_FWS_3) {
20070122:	687b      	ldr	r3, [r7, #4]
20070124:	4a17      	ldr	r2, [pc, #92]	; (20070184 <system_init_flash+0xb4>)
20070126:	4293      	cmp	r3, r2
20070128:	d808      	bhi.n	2007013c <system_init_flash+0x6c>
		EFC0->EEFC_FMR = EEFC_FMR_FWS(3);
2007012a:	4b12      	ldr	r3, [pc, #72]	; (20070174 <system_init_flash+0xa4>)
2007012c:	f44f 7240 	mov.w	r2, #768	; 0x300
20070130:	601a      	str	r2, [r3, #0]
		EFC1->EEFC_FMR = EEFC_FMR_FWS(3);
20070132:	4b11      	ldr	r3, [pc, #68]	; (20070178 <system_init_flash+0xa8>)
20070134:	f44f 7240 	mov.w	r2, #768	; 0x300
20070138:	601a      	str	r2, [r3, #0]
}
2007013a:	e014      	b.n	20070166 <system_init_flash+0x96>
	} else if (ul_clk < CHIP_FREQ_FWS_4) {
2007013c:	687b      	ldr	r3, [r7, #4]
2007013e:	4a12      	ldr	r2, [pc, #72]	; (20070188 <system_init_flash+0xb8>)
20070140:	4293      	cmp	r3, r2
20070142:	d808      	bhi.n	20070156 <system_init_flash+0x86>
		EFC0->EEFC_FMR = EEFC_FMR_FWS(4);
20070144:	4b0b      	ldr	r3, [pc, #44]	; (20070174 <system_init_flash+0xa4>)
20070146:	f44f 6280 	mov.w	r2, #1024	; 0x400
2007014a:	601a      	str	r2, [r3, #0]
		EFC1->EEFC_FMR = EEFC_FMR_FWS(4);	
2007014c:	4b0a      	ldr	r3, [pc, #40]	; (20070178 <system_init_flash+0xa8>)
2007014e:	f44f 6280 	mov.w	r2, #1024	; 0x400
20070152:	601a      	str	r2, [r3, #0]
}
20070154:	e007      	b.n	20070166 <system_init_flash+0x96>
		EFC0->EEFC_FMR = EEFC_FMR_FWS(5);
20070156:	4b07      	ldr	r3, [pc, #28]	; (20070174 <system_init_flash+0xa4>)
20070158:	f44f 62a0 	mov.w	r2, #1280	; 0x500
2007015c:	601a      	str	r2, [r3, #0]
		EFC1->EEFC_FMR = EEFC_FMR_FWS(5);
2007015e:	4b06      	ldr	r3, [pc, #24]	; (20070178 <system_init_flash+0xa8>)
20070160:	f44f 62a0 	mov.w	r2, #1280	; 0x500
20070164:	601a      	str	r2, [r3, #0]
}
20070166:	bf00      	nop
20070168:	370c      	adds	r7, #12
2007016a:	46bd      	mov	sp, r7
2007016c:	bc80      	pop	{r7}
2007016e:	4770      	bx	lr
20070170:	0121eabf 	.word	0x0121eabf
20070174:	400e0a00 	.word	0x400e0a00
20070178:	400e0c00 	.word	0x400e0c00
2007017c:	02faf07f 	.word	0x02faf07f
20070180:	03d08fff 	.word	0x03d08fff
20070184:	04c4b3ff 	.word	0x04c4b3ff
20070188:	055d4a7f 	.word	0x055d4a7f

2007018c <print_menu>:
2007018c:	00000101                                         .

2007018d <allow_leds>:
2007018d:	02000001                                         ...

20070190 <menu_info>:
20070190:	04020202 03010101 01010101              ............

2007019c <SystemCoreClock>:
2007019c:	003d0900                                ..=.

200701a0 <update_dots>:
200701a0:	00000001                                ....

200701a4 <_impure_ptr>:
200701a4:	200701a8                                ... 

200701a8 <impure_data>:
200701a8:	00000000 20070494 200704fc 20070564     ....... ... d.. 
	...
20070250:	00000001 00000000 abcd330e e66d1234     .........3..4.m.
20070260:	0005deec 0000000b 00000000 00000000     ................
	...

200705d0 <__atexit_recursive_mutex>:
200705d0:	20070fd0                                ... 

200705d4 <__malloc_av_>:
	...
200705dc:	200705d4 200705d4 200705dc 200705dc     ... ... ... ... 
200705ec:	200705e4 200705e4 200705ec 200705ec     ... ... ... ... 
200705fc:	200705f4 200705f4 200705fc 200705fc     ... ... ... ... 
2007060c:	20070604 20070604 2007060c 2007060c     ... ... ... ... 
2007061c:	20070614 20070614 2007061c 2007061c     ... ... ... ... 
2007062c:	20070624 20070624 2007062c 2007062c     $.. $.. ,.. ,.. 
2007063c:	20070634 20070634 2007063c 2007063c     4.. 4.. <.. <.. 
2007064c:	20070644 20070644 2007064c 2007064c     D.. D.. L.. L.. 
2007065c:	20070654 20070654 2007065c 2007065c     T.. T.. \.. \.. 
2007066c:	20070664 20070664 2007066c 2007066c     d.. d.. l.. l.. 
2007067c:	20070674 20070674 2007067c 2007067c     t.. t.. |.. |.. 
2007068c:	20070684 20070684 2007068c 2007068c     ... ... ... ... 
2007069c:	20070694 20070694 2007069c 2007069c     ... ... ... ... 
200706ac:	200706a4 200706a4 200706ac 200706ac     ... ... ... ... 
200706bc:	200706b4 200706b4 200706bc 200706bc     ... ... ... ... 
200706cc:	200706c4 200706c4 200706cc 200706cc     ... ... ... ... 
200706dc:	200706d4 200706d4 200706dc 200706dc     ... ... ... ... 
200706ec:	200706e4 200706e4 200706ec 200706ec     ... ... ... ... 
200706fc:	200706f4 200706f4 200706fc 200706fc     ... ... ... ... 
2007070c:	20070704 20070704 2007070c 2007070c     ... ... ... ... 
2007071c:	20070714 20070714 2007071c 2007071c     ... ... ... ... 
2007072c:	20070724 20070724 2007072c 2007072c     $.. $.. ,.. ,.. 
2007073c:	20070734 20070734 2007073c 2007073c     4.. 4.. <.. <.. 
2007074c:	20070744 20070744 2007074c 2007074c     D.. D.. L.. L.. 
2007075c:	20070754 20070754 2007075c 2007075c     T.. T.. \.. \.. 
2007076c:	20070764 20070764 2007076c 2007076c     d.. d.. l.. l.. 
2007077c:	20070774 20070774 2007077c 2007077c     t.. t.. |.. |.. 
2007078c:	20070784 20070784 2007078c 2007078c     ... ... ... ... 
2007079c:	20070794 20070794 2007079c 2007079c     ... ... ... ... 
200707ac:	200707a4 200707a4 200707ac 200707ac     ... ... ... ... 
200707bc:	200707b4 200707b4 200707bc 200707bc     ... ... ... ... 
200707cc:	200707c4 200707c4 200707cc 200707cc     ... ... ... ... 
200707dc:	200707d4 200707d4 200707dc 200707dc     ... ... ... ... 
200707ec:	200707e4 200707e4 200707ec 200707ec     ... ... ... ... 
200707fc:	200707f4 200707f4 200707fc 200707fc     ... ... ... ... 
2007080c:	20070804 20070804 2007080c 2007080c     ... ... ... ... 
2007081c:	20070814 20070814 2007081c 2007081c     ... ... ... ... 
2007082c:	20070824 20070824 2007082c 2007082c     $.. $.. ,.. ,.. 
2007083c:	20070834 20070834 2007083c 2007083c     4.. 4.. <.. <.. 
2007084c:	20070844 20070844 2007084c 2007084c     D.. D.. L.. L.. 
2007085c:	20070854 20070854 2007085c 2007085c     T.. T.. \.. \.. 
2007086c:	20070864 20070864 2007086c 2007086c     d.. d.. l.. l.. 
2007087c:	20070874 20070874 2007087c 2007087c     t.. t.. |.. |.. 
2007088c:	20070884 20070884 2007088c 2007088c     ... ... ... ... 
2007089c:	20070894 20070894 2007089c 2007089c     ... ... ... ... 
200708ac:	200708a4 200708a4 200708ac 200708ac     ... ... ... ... 
200708bc:	200708b4 200708b4 200708bc 200708bc     ... ... ... ... 
200708cc:	200708c4 200708c4 200708cc 200708cc     ... ... ... ... 
200708dc:	200708d4 200708d4 200708dc 200708dc     ... ... ... ... 
200708ec:	200708e4 200708e4 200708ec 200708ec     ... ... ... ... 
200708fc:	200708f4 200708f4 200708fc 200708fc     ... ... ... ... 
2007090c:	20070904 20070904 2007090c 2007090c     ... ... ... ... 
2007091c:	20070914 20070914 2007091c 2007091c     ... ... ... ... 
2007092c:	20070924 20070924 2007092c 2007092c     $.. $.. ,.. ,.. 
2007093c:	20070934 20070934 2007093c 2007093c     4.. 4.. <.. <.. 
2007094c:	20070944 20070944 2007094c 2007094c     D.. D.. L.. L.. 
2007095c:	20070954 20070954 2007095c 2007095c     T.. T.. \.. \.. 
2007096c:	20070964 20070964 2007096c 2007096c     d.. d.. l.. l.. 
2007097c:	20070974 20070974 2007097c 2007097c     t.. t.. |.. |.. 
2007098c:	20070984 20070984 2007098c 2007098c     ... ... ... ... 
2007099c:	20070994 20070994 2007099c 2007099c     ... ... ... ... 
200709ac:	200709a4 200709a4 200709ac 200709ac     ... ... ... ... 
200709bc:	200709b4 200709b4 200709bc 200709bc     ... ... ... ... 
200709cc:	200709c4 200709c4 200709cc 200709cc     ... ... ... ... 

200709dc <__malloc_sbrk_base>:
200709dc:	ffffffff                                ....

200709e0 <__malloc_trim_threshold>:
200709e0:	00020000                                ....

200709e4 <__global_locale>:
200709e4:	00000043 00000000 00000000 00000000     C...............
	...
20070a04:	00000043 00000000 00000000 00000000     C...............
	...
20070a24:	00000043 00000000 00000000 00000000     C...............
	...
20070a44:	00000043 00000000 00000000 00000000     C...............
	...
20070a64:	00000043 00000000 00000000 00000000     C...............
	...
20070a84:	00000043 00000000 00000000 00000000     C...............
	...
20070aa4:	00000043 00000000 00000000 00000000     C...............
	...
20070ac4:	00089431 00088fd1 00000000 00089bbc     1...............
20070ad4:	00089bb8 00089a5c 00089a5c 00089a5c     ....\...\...\...
20070ae4:	00089a5c 00089a5c 00089a5c 00089a5c     \...\...\...\...
20070af4:	00089a5c 00089a5c ffffffff ffffffff     \...\...........
20070b04:	ffffffff 0000ffff 53410001 00494943     ..........ASCII.
	...
20070b2c:	53410000 00494943 00000000 00000000     ..ASCII.........
	...
